
3axis.elf:     file format elf32-littlenios2
3axis.elf
architecture: nios2:r1, flags 0x00000112:
EXEC_P, HAS_SYMS, D_PAGED
start address 0x00020228

Program Header:
    LOAD off    0x00001000 vaddr 0x00020000 paddr 0x00020000 align 2**12
         filesz 0x00000020 memsz 0x00000020 flags r-x
    LOAD off    0x00001020 vaddr 0x00020020 paddr 0x00020020 align 2**12
         filesz 0x00011ba4 memsz 0x00011ba4 flags r-x
    LOAD off    0x00012bc4 vaddr 0x00031bc4 paddr 0x000337c8 align 2**12
         filesz 0x00001c04 memsz 0x00001c04 flags rw-
    LOAD off    0x000003cc vaddr 0x000353cc paddr 0x000353cc align 2**12
         filesz 0x00000000 memsz 0x00000164 flags rw-

Sections:
Idx Name          Size      VMA       LMA       File off  Algn
  0 .entry        00000020  00020000  00020000  00001000  2**5
                  CONTENTS, ALLOC, LOAD, READONLY, CODE
  1 .exceptions   00000208  00020020  00020020  00001020  2**2
                  CONTENTS, ALLOC, LOAD, READONLY, CODE
  2 .text         00011224  00020228  00020228  00001228  2**2
                  CONTENTS, ALLOC, LOAD, READONLY, CODE
  3 .rodata       00000778  0003144c  0003144c  0001244c  2**2
                  CONTENTS, ALLOC, LOAD, READONLY, DATA
  4 .rwdata       00001c04  00031bc4  000337c8  00012bc4  2**2
                  CONTENTS, ALLOC, LOAD, DATA, SMALL_DATA
  5 .bss          00000164  000353cc  000353cc  000153cc  2**2
                  ALLOC, SMALL_DATA
  6 .onchip_memory 00000000  00035530  00035530  000147c8  2**0
                  CONTENTS
  7 .comment      0000002d  00000000  00000000  000147c8  2**0
                  CONTENTS, READONLY
  8 .debug_aranges 00001178  00000000  00000000  000147f8  2**3
                  CONTENTS, READONLY, DEBUGGING, OCTETS
  9 .debug_info   0002f6ca  00000000  00000000  00015970  2**0
                  CONTENTS, READONLY, DEBUGGING, OCTETS
 10 .debug_abbrev 0000ca38  00000000  00000000  0004503a  2**0
                  CONTENTS, READONLY, DEBUGGING, OCTETS
 11 .debug_line   0001225b  00000000  00000000  00051a72  2**0
                  CONTENTS, READONLY, DEBUGGING, OCTETS
 12 .debug_frame  0000274c  00000000  00000000  00063cd0  2**2
                  CONTENTS, READONLY, DEBUGGING, OCTETS
 13 .debug_str    00002ab4  00000000  00000000  0006641c  2**0
                  CONTENTS, READONLY, DEBUGGING, OCTETS
 14 .debug_alt_sim_info 00000010  00000000  00000000  00068ed0  2**2
                  CONTENTS, READONLY, DEBUGGING, OCTETS
 15 .debug_ranges 00000070  00000000  00000000  00068ee0  2**3
                  CONTENTS, READONLY, DEBUGGING, OCTETS
 16 .debug_line_str 000025bb  00000000  00000000  00068f50  2**0
                  CONTENTS, READONLY, DEBUGGING, OCTETS
 17 .debug_loclists 000164d1  00000000  00000000  0006b50b  2**0
                  CONTENTS, READONLY, DEBUGGING, OCTETS
 18 .debug_rnglists 000019a3  00000000  00000000  000819dc  2**0
                  CONTENTS, READONLY, DEBUGGING, OCTETS
 19 .thread_model 00000003  00000000  00000000  00086a7a  2**0
                  CONTENTS, READONLY
 20 .cpu          00000003  00000000  00000000  00086a7d  2**0
                  CONTENTS, READONLY
 21 .qsys         00000001  00000000  00000000  00086a80  2**0
                  CONTENTS, READONLY
 22 .simulation_enabled 00000001  00000000  00000000  00086a81  2**0
                  CONTENTS, READONLY
 23 .stderr_dev   00000009  00000000  00000000  00086a82  2**0
                  CONTENTS, READONLY
 24 .stdin_dev    00000009  00000000  00000000  00086a8b  2**0
                  CONTENTS, READONLY
 25 .stdout_dev   00000009  00000000  00000000  00086a94  2**0
                  CONTENTS, READONLY
 26 .sopc_system_name 00000005  00000000  00000000  00086a9d  2**0
                  CONTENTS, READONLY
 27 .quartus_project_dir 00000040  00000000  00000000  00086aa2  2**0
                  CONTENTS, READONLY
 28 .jdi          00004332  00000000  00000000  00086ae2  2**0
                  CONTENTS, READONLY
 29 .sopcinfo     000619e0  00000000  00000000  0008ae14  2**0
                  CONTENTS, READONLY
SYMBOL TABLE:
00020000 l    d  .entry	00000000 .entry
00020020 l    d  .exceptions	00000000 .exceptions
00020228 l    d  .text	00000000 .text
0003144c l    d  .rodata	00000000 .rodata
00031bc4 l    d  .rwdata	00000000 .rwdata
000353cc l    d  .bss	00000000 .bss
00035530 l    d  .onchip_memory	00000000 .onchip_memory
00000000 l    d  .comment	00000000 .comment
00000000 l    d  .debug_aranges	00000000 .debug_aranges
00000000 l    d  .debug_info	00000000 .debug_info
00000000 l    d  .debug_abbrev	00000000 .debug_abbrev
00000000 l    d  .debug_line	00000000 .debug_line
00000000 l    d  .debug_frame	00000000 .debug_frame
00000000 l    d  .debug_str	00000000 .debug_str
00000000 l    d  .debug_alt_sim_info	00000000 .debug_alt_sim_info
00000000 l    d  .debug_ranges	00000000 .debug_ranges
00000000 l    d  .debug_line_str	00000000 .debug_line_str
00000000 l    d  .debug_loclists	00000000 .debug_loclists
00000000 l    d  .debug_rnglists	00000000 .debug_rnglists
00000000 l    df *ABS*	00000000 crt0.o
00020260 l       .text	00000000 alt_after_alt_main
00000000 l    df *ABS*	00000000 alt_irq_handler.c
00000000 l    df *ABS*	00000000 alt_instruction_exception_entry.c
00000000 l    df *ABS*	00000000 specs.c
00000000 l    df *ABS*	00000000 spec.c
00000000 l    df *ABS*	00000000 hello_world.c
00000000 l    df *ABS*	00000000 specs.c
00000000 l    df *ABS*	00000000 s_round.c
00000000 l    df *ABS*	00000000 lib2-divmod.c
00000000 l    df *ABS*	00000000 lib2-mul.c
00000000 l    df *ABS*	00000000 divsf3.c
00000000 l    df *ABS*	00000000 mulsf3.c
00000000 l    df *ABS*	00000000 fixsfsi.c
00000000 l    df *ABS*	00000000 floatsisf.c
00000000 l    df *ABS*	00000000 adddf3.c
00000000 l    df *ABS*	00000000 fixdfsi.c
00000000 l    df *ABS*	00000000 extendsfdf2.c
00000000 l    df *ABS*	00000000 libgcc2.c
00000000 l    df *ABS*	00000000 libgcc2.c
00000000 l    df *ABS*	00000000 malloc.c
00000000 l    df *ABS*	00000000 mallocr.c
00000000 l    df *ABS*	00000000 memcpy.c
00000000 l    df *ABS*	00000000 printf.c
00000000 l    df *ABS*	00000000 puts.c
00000000 l    df *ABS*	00000000 sbrkr.c
00000000 l    df *ABS*	00000000 strlen.c
00000000 l    df *ABS*	00000000 vfprintf.c
000316a4 l     O .rodata	00000010 zeroes.0
00024e3c l     F .text	000000c4 __sbprintf
000316b4 l     O .rodata	00000010 blanks.1
00000000 l    df *ABS*	00000000 wsetup.c
00000000 l    df *ABS*	00000000 dtoa.c
0002504c l     F .text	00000218 quorem
00000000 l    df *ABS*	00000000 fflush.c
00000000 l    df *ABS*	00000000 findfp.c
00026d38 l     F .text	00000008 __fp_lock
00026d4c l     F .text	00000008 __fp_unlock
00026d54 l     F .text	00000168 __sinit.part.0
00000000 l    df *ABS*	00000000 mallocr.c
00000000 l    df *ABS*	00000000 fvwrite.c
00000000 l    df *ABS*	00000000 fwalk.c
00000000 l    df *ABS*	00000000 impure.c
00031fcc l     O .rwdata	00000424 impure_data
00000000 l    df *ABS*	00000000 int_errno.c
00000000 l    df *ABS*	00000000 localeconv.c
00000000 l    df *ABS*	00000000 makebuf.c
00000000 l    df *ABS*	00000000 memchr.c
00000000 l    df *ABS*	00000000 memmove.c
00000000 l    df *ABS*	00000000 memset.c
00000000 l    df *ABS*	00000000 mprec.c
00031768 l     O .rodata	0000000c p05.0
00000000 l    df *ABS*	00000000 mallocr.c
00000000 l    df *ABS*	00000000 stdio.c
00000000 l    df *ABS*	00000000 vfprintf.c
000299a0 l     F .text	000000f4 __sprint_r.part.0
0003188c l     O .rodata	00000010 zeroes.0
0002ad48 l     F .text	000000c4 __sbprintf
0003189c l     O .rodata	00000010 blanks.1
00000000 l    df *ABS*	00000000 writer.c
00000000 l    df *ABS*	00000000 closer.c
00000000 l    df *ABS*	00000000 assert.c
00000000 l    df *ABS*	00000000 mallocr.c
00000000 l    df *ABS*	00000000 errno.c
00000000 l    df *ABS*	00000000 fclose.c
00000000 l    df *ABS*	00000000 fiprintf.c
00000000 l    df *ABS*	00000000 fputwc.c
00000000 l    df *ABS*	00000000 fstatr.c
00000000 l    df *ABS*	00000000 isattyr.c
00000000 l    df *ABS*	00000000 locale.c
00000000 l    df *ABS*	00000000 lseekr.c
00000000 l    df *ABS*	00000000 mbtowc_r.c
00000000 l    df *ABS*	00000000 readr.c
00000000 l    df *ABS*	00000000 strcmp.c
00000000 l    df *ABS*	00000000 vfiprintfr_1.c
00000000 l    df *ABS*	00000000 wbuf.c
00000000 l    df *ABS*	00000000 wcrtomb.c
00000000 l    df *ABS*	00000000 wctomb_r.c
00000000 l    df *ABS*	00000000 abort.c
00000000 l    df *ABS*	00000000 ctype_.c
00000000 l    df *ABS*	00000000 signal.c
00000000 l    df *ABS*	00000000 signalr.c
00000000 l    df *ABS*	00000000 libgcc2.c
00000000 l    df *ABS*	00000000 libgcc2.c
00000000 l    df *ABS*	00000000 divdf3.c
00000000 l    df *ABS*	00000000 eqdf2.c
00000000 l    df *ABS*	00000000 gedf2.c
00000000 l    df *ABS*	00000000 ledf2.c
00000000 l    df *ABS*	00000000 muldf3.c
00000000 l    df *ABS*	00000000 subdf3.c
00000000 l    df *ABS*	00000000 unorddf2.c
00000000 l    df *ABS*	00000000 floatsidf.c
00000000 l    df *ABS*	00000000 floatunsidf.c
00000000 l    df *ABS*	00000000 alt_close.c
0002e948 l     F .text	0000003c alt_get_errno
00000000 l    df *ABS*	00000000 alt_dev.c
0002ea60 l     F .text	0000002c alt_dev_null_write
00000000 l    df *ABS*	00000000 alt_errno.c
00000000 l    df *ABS*	00000000 alt_exit.c
00000000 l    df *ABS*	00000000 alt_fstat.c
0002eac8 l     F .text	0000003c alt_get_errno
00000000 l    df *ABS*	00000000 alt_getpid.c
00000000 l    df *ABS*	00000000 alt_irq_register.c
00000000 l    df *ABS*	00000000 alt_irq_vars.c
00000000 l    df *ABS*	00000000 alt_isatty.c
0002ed60 l     F .text	0000003c alt_get_errno
00000000 l    df *ABS*	00000000 alt_kill.c
0002ee4c l     F .text	0000003c alt_get_errno
00000000 l    df *ABS*	00000000 alt_load.c
0002ef78 l     F .text	00000068 alt_load_section
00000000 l    df *ABS*	00000000 alt_lseek.c
0002f064 l     F .text	0000003c alt_get_errno
00000000 l    df *ABS*	00000000 alt_main.c
00000000 l    df *ABS*	00000000 alt_malloc_lock.c
00000000 l    df *ABS*	00000000 alt_read.c
0002f244 l     F .text	0000003c alt_get_errno
00000000 l    df *ABS*	00000000 alt_release_fd.c
00000000 l    df *ABS*	00000000 alt_sbrk.c
000337bc l     O .rwdata	00000004 heap_end
00000000 l    df *ABS*	00000000 alt_write.c
0002f4b0 l     F .text	0000003c alt_get_errno
00000000 l    df *ABS*	00000000 alt_sys_init.c
0002f5f0 l     F .text	00000034 alt_dev_reg
00032704 l     O .rwdata	00001060 jtag_uart
00033764 l     O .rwdata	0000002c accelerometer_spi
00000000 l    df *ABS*	00000000 altera_avalon_jtag_uart_fd.c
00000000 l    df *ABS*	00000000 altera_avalon_jtag_uart_init.c
0002f8e4 l     F .text	00000218 altera_avalon_jtag_uart_irq
0002fafc l     F .text	000000a8 altera_avalon_jtag_uart_timeout
00000000 l    df *ABS*	00000000 altera_avalon_jtag_uart_ioctl.c
00000000 l    df *ABS*	00000000 altera_avalon_jtag_uart_read.c
00000000 l    df *ABS*	00000000 altera_avalon_jtag_uart_write.c
00000000 l    df *ABS*	00000000 altera_avalon_timer_sc.c
00030148 l     F .text	00000080 alt_avalon_timer_sc_irq
00000000 l    df *ABS*	00000000 altera_up_avalon_accelerometer_spi.c
00000000 l    df *ABS*	00000000 alt_alarm_start.c
00000000 l    df *ABS*	00000000 alt_dcache_flush_all.c
00000000 l    df *ABS*	00000000 alt_dev_llist_insert.c
00030790 l     F .text	0000003c alt_get_errno
00000000 l    df *ABS*	00000000 alt_do_ctors.c
00000000 l    df *ABS*	00000000 alt_do_dtors.c
00000000 l    df *ABS*	00000000 alt_find_dev.c
00000000 l    df *ABS*	00000000 alt_icache_flush_all.c
00000000 l    df *ABS*	00000000 alt_io_redirect.c
000309ec l     F .text	000000d4 alt_open_fd
00000000 l    df *ABS*	00000000 alt_open.c
00030b3c l     F .text	0000003c alt_get_errno
00030b78 l     F .text	000000dc alt_file_locked
00000000 l    df *ABS*	00000000 alt_tick.c
00000000 l    df *ABS*	00000000 altera_nios2_gen2_irq.c
00000000 l    df *ABS*	00000000 alt_find_file.c
00000000 l    df *ABS*	00000000 alt_get_fd.c
00000000 l    df *ABS*	00000000 atexit.c
00000000 l    df *ABS*	00000000 exit.c
00000000 l    df *ABS*	00000000 memcmp.c
00000000 l    df *ABS*	00000000 __atexit.c
00000000 l    df *ABS*	00000000 __call_atexit.c
00035404 g     O .bss	00000004 alt_instruction_exception_handler
00029120 g     F .text	00000070 _mprec_log10
0002920c g     F .text	00000060 __any_on
0002b474 g     F .text	00000058 _isatty_r
00031774 g     O .rodata	00000028 __mprec_tinytens
0002f180 g     F .text	0000007c alt_main
0002031c g     F .text	00000034 led_write
000227a0 g     F .text	000000d0 _puts_r
00035430 g     O .bss	00000100 alt_irq
0002b5c0 g     F .text	00000064 _lseek_r
00020264 g     F .text	0000006c float_to_fixed
000337c8 g       *ABS*	00000000 __flash_rwdata_start
0002d380 g     F .text	00000094 .hidden __eqdf2
00035530 g       *ABS*	00000000 __alt_heap_start
000202d0 g     F .text	0000004c fixed_to_float
0002befc g     F .text	00000060 _kill_r
00022768 g     F .text	00000038 printf
0002b8f4 g     F .text	0000006c _wcrtomb_r
0002ba98 g     F .text	00000090 _signal_r
0002993c g     F .text	0000005c __sseek
0002707c g     F .text	00000010 __sinit
0002b794 g     F .text	00000148 __swbuf_r
0002b4cc g     F .text	00000074 _setlocale_r
00026ebc g     F .text	00000078 __sfmoreglue
0002f220 g     F .text	00000024 __malloc_unlock
00020704 g     F .text	000000e8 round
000209c8 g     F .text	00000418 .hidden __divsf3
00027e20 g     F .text	00000128 memmove
00027068 g     F .text	00000014 _cleanup
00028088 g     F .text	000000a4 _Balloc
000211fc g     F .text	00000070 .hidden __fixsfsi
000203e0 g     F .text	000000cc sys_timer_isr
0002d414 g     F .text	000000fc .hidden __gtdf2
00030f84 g     F .text	00000024 altera_nios2_gen2_irq_init
0002b0a8 g     F .text	0000000c __errno
00020000 g     F .entry	0000000c __reset
00027ad8 g     F .text	00000008 __localeconv_l
00030394 g     F .text	000000d4 alt_up_accelerometer_spi_read_x_axis
00020020 g       *ABS*	00000000 __flash_exceptions_start
0002b414 g     F .text	00000060 _fstat_r
000353e0 g     O .bss	00000004 errno
000298b4 g     F .text	00000008 __seofread
000353f0 g     O .bss	00000004 alt_argv
0003b790 g       *ABS*	00000000 _gp
0002ebc0 g     F .text	00000020 getpid
00032584 g     O .rwdata	00000180 alt_fd_list
0003093c g     F .text	00000090 alt_find_dev
00022638 g     F .text	00000100 memcpy
00026d40 g     F .text	0000000c _cleanup_r
0002e800 g     F .text	000000b8 .hidden __floatsidf
00030ac0 g     F .text	0000007c alt_io_redirect
0002d510 g     F .text	000000f8 .hidden __ltdf2
0003144c g       *ABS*	00000000 __DTOR_END__
00022870 g     F .text	00000010 puts
00031168 g     F .text	00000074 alt_exception_cause_generated_bad_addr
0002907c g     F .text	000000a4 __ratio
0002ad2c g     F .text	0000001c __vfiprintf_internal
0002fd00 g     F .text	00000220 altera_avalon_jtag_uart_read
00021e64 g     F .text	00000010 malloc
00022738 g     F .text	00000030 _printf_r
000208e0 g     F .text	00000064 .hidden __udivsi3
0002ed9c g     F .text	000000b0 isatty
0002bb28 g     F .text	000000b0 _raise_r
0002aec8 g     F .text	00000064 __assert_func
000317c4 g     O .rodata	000000c8 __mprec_tens
000353dc g     O .bss	00000004 __malloc_top_pad
0002bf5c g     F .text	00000004 _getpid_r
00027ae0 g     F .text	0000000c _localeconv_r
00028500 g     F .text	000000b0 __i2b
000274f0 g     F .text	000004a8 __sfvwrite_r
0002bbd8 g     F .text	000000bc __sigtramp_r
00022880 g     F .text	00000058 _sbrk_r
0002b674 g     F .text	00000064 _read_r
000337b0 g     O .rwdata	00000004 alt_max_fd
0002b0b4 g     F .text	000000f8 _fclose_r
00026cb4 g     F .text	00000084 fflush
000353d8 g     O .bss	00000004 __malloc_max_sbrked_mem
0002ebe0 g     F .text	00000180 alt_irq_register
00021d18 g     F .text	000000fc .hidden __extendsfdf2
00021394 g     F .text	00000904 .hidden __adddf3
00028e24 g     F .text	00000100 __b2d
0002c538 g     F .text	0000055c .hidden __umoddi3
0002f0a0 g     F .text	000000e0 lseek
00033798 g     O .rwdata	00000004 _global_impure_ptr
0002926c g     F .text	000005f4 _realloc_r
00035530 g       *ABS*	00000000 __bss_end
00030e58 g     F .text	0000012c alt_tick
0002bf60 g     F .text	000005d8 .hidden __udivdi3
0002b378 g     F .text	00000024 _fputwc_r
0003179c g     O .rodata	00000028 __mprec_bigtens
000282a4 g     F .text	00000138 __s2b
0002ba24 g     F .text	00000018 abort
0002e8b8 g     F .text	00000090 .hidden __floatunsidf
00028b3c g     F .text	00000058 __mcmp
0002709c g     F .text	00000014 __fp_lock_all
00030db4 g     F .text	000000a4 alt_alarm_stop
000353e8 g     O .bss	00000004 alt_irq_active
000200fc g     F .exceptions	000000cc alt_irq_handler
0003255c g     O .rwdata	00000028 alt_dev_null
00030770 g     F .text	00000020 alt_dcache_flush_all
000283dc g     F .text	00000074 __hi0bits
00021c98 g     F .text	00000080 .hidden __fixdfsi
000337c8 g       *ABS*	00000000 __ram_rwdata_end
000204ac g     F .text	0000007c timer_init
00020000 g       *ABS*	00000000 __alt_mem_onchip_memory
000337a8 g     O .rwdata	00000008 alt_dev_list
0002f4ec g     F .text	00000104 write
00031bc4 g       *ABS*	00000000 __ram_rodata_end
0002eb04 g     F .text	000000bc fstat
0002ee88 g     F .text	000000f0 kill
0002d510 g     F .text	000000f8 .hidden __ledf2
00028874 g     F .text	00000140 __pow5mult
000353cd g     O .bss	00000001 led
00029aac g     F .text	00001280 ___vfiprintf_internal_r
00020944 g     F .text	0000005c .hidden __umodsi3
00035530 g       *ABS*	00000000 end
0002f830 g     F .text	000000b4 altera_avalon_jtag_uart_init
000201c8 g     F .exceptions	00000060 alt_instruction_exception_entry
0003144c g       *ABS*	00000000 __CTOR_LIST__
000386a0 g       *ABS*	00000000 __alt_stack_pointer
000301c8 g     F .text	0000007c alt_avalon_timer_sc_init
00021e14 g     F .text	00000050 .hidden __clzsi2
0002ff20 g     F .text	00000228 altera_avalon_jtag_uart_write
0002708c g     F .text	00000004 __sfp_lock_acquire
00027d24 g     F .text	000000fc memchr
00022970 g     F .text	000024b0 ___vfprintf_internal_r
000271e8 g     F .text	00000308 _free_r
00031a00 g     O .rodata	00000180 _ctype_b
0002b540 g     F .text	0000000c __locale_mb_cur_max
0003132c g     F .text	00000120 __call_exitprocs
00033790 g     O .rwdata	00000004 __malloc_sbrk_base
00020228 g     F .text	0000003c _start
000353d0 g     O .bss	00000004 level
000353f8 g     O .bss	00000004 _alt_tick_rate
000289b4 g     F .text	00000188 __lshift
000353fc g     O .bss	00000008 _alt_nticks
0002bd48 g     F .text	00000098 signal
0002f280 g     F .text	00000108 read
0002f660 g     F .text	0000006c alt_sys_init
00030280 g     F .text	00000044 alt_up_accelerometer_spi_read_address_register
0002126c g     F .text	00000128 .hidden __floatsisf
0003129c g     F .text	00000090 __register_exitproc
000285b0 g     F .text	000002c4 __multiply
0002fba4 g     F .text	00000068 altera_avalon_jtag_uart_close
000209a0 g     F .text	00000028 .hidden __mulsi3
00031bc4 g       *ABS*	00000000 __ram_rwdata_start
0003144c g       *ABS*	00000000 __ram_rodata_start
00035408 g     O .bss	00000028 __malloc_current_mallinfo
00028f24 g     F .text	00000158 __d2b
0002f6cc g     F .text	00000060 altera_avalon_jtag_uart_read_fd
000310b0 g     F .text	000000b8 alt_get_fd
00030468 g     F .text	000000d4 alt_up_accelerometer_spi_read_y_axis
0002ae70 g     F .text	00000058 _close_r
00031224 g     F .text	00000078 memcmp
0002f78c g     F .text	00000050 altera_avalon_jtag_uart_close_fd
00035530 g       *ABS*	00000000 __alt_stack_base
0002f7dc g     F .text	00000054 altera_avalon_jtag_uart_ioctl_fd
00024f00 g     F .text	0000014c __swsetup_r
0002ca94 g     F .text	000008ec .hidden __divdf3
00026f34 g     F .text	00000134 __sfp
00029190 g     F .text	0000007c __copybits
00031bc4 g     O .rwdata	00000408 __malloc_av_
00027098 g     F .text	00000004 __sinit_lock_release
0002d608 g     F .text	00000808 .hidden __muldf3
00029860 g     F .text	00000054 __sread
00030fa8 g     F .text	00000108 alt_find_file
000307cc g     F .text	000000a8 alt_dev_llist_insert
0002f1fc g     F .text	00000024 __malloc_lock
0002f3f8 g     F .text	000000b8 sbrk
00026c54 g     F .text	00000060 _fflush_r
0002af40 g     F .text	00000168 _calloc_r
000353cc g       *ABS*	00000000 __bss_start
00027f48 g     F .text	00000140 memset
000205d4 g     F .text	00000130 main
000353f4 g     O .bss	00000004 alt_envp
000353d4 g     O .bss	00000004 __malloc_max_total_mem
0002f72c g     F .text	00000060 altera_avalon_jtag_uart_write_fd
0002b8dc g     F .text	00000018 __swbuf
00029998 g     F .text	00000008 __sclose
000386a0 g       *ABS*	00000000 __alt_heap_limit
0002b1ac g     F .text	00000010 fclose
00025264 g     F .text	000017e8 _dtoa_r
00021e84 g     F .text	000007b4 _malloc_r
0002b9f4 g     F .text	00000030 __ascii_wctomb
000337b4 g     O .rwdata	00000004 alt_errno
0002b1bc g     F .text	00000020 _fiprintf_r
0002bde0 g     F .text	00000060 _init_signal
00027998 g     F .text	00000098 _fwalk
0002b624 g     F .text	0000000c _mbtowc_r
000207ec g     F .text	00000080 .hidden __divsi3
000270c4 g     F .text	00000124 _malloc_trim_r
0003144c g       *ABS*	00000000 __CTOR_END__
00020de0 g     F .text	0000041c .hidden __mulsf3
0002b6d8 g     F .text	000000b8 strcmp
0003144c g       *ABS*	00000000 __flash_rodata_start
0003144c g       *ABS*	00000000 __DTOR_LIST__
0002d380 g     F .text	00000094 .hidden __nedf2
0002f624 g     F .text	0000003c alt_irq_init
0002f388 g     F .text	00000070 alt_release_fd
0003155c g     O .rodata	00000100 .hidden __clz_tab
000353e4 g     O .bss	00000004 _PathLocale
000311dc g     F .text	00000014 atexit
0002ae0c g     F .text	00000064 _write_r
0002b54c g     F .text	00000074 setlocale
0003379c g     O .rwdata	00000004 _impure_ptr
000353ec g     O .bss	00000004 alt_argc
00026a4c g     F .text	00000208 __sflush_r
000308d8 g     F .text	00000064 _do_dtors
00020020 g       .exceptions	00000000 alt_irq_entry
0002b630 g     F .text	00000044 __ascii_mbtowc
00028dc4 g     F .text	00000060 __ulp
000270b0 g     F .text	00000014 __fp_unlock_all
000353cc g     O .bss	00000001 pwm
000337a0 g     O .rwdata	00000008 alt_fs_list
00020020 g       *ABS*	00000000 __ram_exceptions_start
00030244 g     F .text	0000003c alt_up_accelerometer_spi_open_dev
00027aec g     F .text	0000000c localeconv
00027c98 g     F .text	0000008c __swhatbuf_r
000337c8 g       *ABS*	00000000 _edata
00035530 g       *ABS*	00000000 _end
0002b214 g     F .text	00000164 __fputwc
00020228 g       *ABS*	00000000 __ram_exceptions_end
0002fc0c g     F .text	000000f4 altera_avalon_jtag_uart_ioctl
000298bc g     F .text	00000080 __swrite
00033794 g     O .rwdata	00000004 __malloc_trim_threshold
000311f0 g     F .text	00000034 exit
0002b1dc g     F .text	00000038 fiprintf
0002b790 g     F .text	00000004 _vfiprintf_r
00027a30 g     F .text	000000a8 _fwalk_reent
00028b94 g     F .text	00000230 __mdiff
0002086c g     F .text	00000074 .hidden __modsi3
0003053c g     F .text	000000d4 alt_up_accelerometer_spi_read_z_axis
000386a0 g       *ABS*	00000000 __alt_data_end
00020020 g     F .exceptions	00000000 alt_exception
00027090 g     F .text	00000004 __sfp_lock_release
000318fc g     O .rodata	00000101 _ctype_
0002e7ac g     F .text	00000054 .hidden __unorddf2
00020350 g     F .text	00000090 convert_read
0002ea8c g     F .text	0000003c _exit
00030610 g     F .text	00000160 alt_alarm_start
000302c4 g     F .text	00000068 alt_up_accelerometer_spi_read
0003032c g     F .text	00000068 alt_up_accelerometer_spi_write
00027af8 g     F .text	000001a0 __smakebuf_r
000228d8 g     F .text	00000098 strlen
0002ba3c g     F .text	0000005c _init_signal_r
00030c54 g     F .text	00000160 open
0002d414 g     F .text	000000fc .hidden __gedf2
0002af2c g     F .text	00000014 __assert
00029a94 g     F .text	00000018 __sprint_r
000309cc g     F .text	00000020 alt_icache_flush_all
000337b8 g     O .rwdata	00000004 alt_priority_mask
00020528 g     F .text	000000ac FIR
00024e20 g     F .text	0000001c __vfprintf_internal
0002b9e8 g     F .text	0000000c _wctomb_r
0002de10 g     F .text	0000099c .hidden __subdf3
00028450 g     F .text	000000b0 __lo0bits
000337c0 g     O .rwdata	00000008 alt_alarm_list
00030874 g     F .text	00000064 _do_ctors
0002be40 g     F .text	000000bc __sigtramp
0002b960 g     F .text	00000088 wcrtomb
0002e984 g     F .text	000000dc close
000323f0 g     O .rwdata	0000016c __global_locale
0002efe0 g     F .text	00000084 alt_load
0002b39c g     F .text	00000078 fputwc
0002bc94 g     F .text	000000b4 raise
00021e74 g     F .text	00000010 free
00027094 g     F .text	00000004 __sinit_lock_acquire
00028150 g     F .text	00000154 __multadd
0002812c g     F .text	00000024 _Bfree



Disassembly of section .entry:

00020000 <__reset>:
 * Jump to the _start entry point in the .text section if reset code
 * is allowed or if optimizing for RTL simulation.
 */
#if defined(ALT_ALLOW_CODE_AT_RESET) || defined(ALT_SIM_OPTIMIZE)
    /* Jump to the _start entry point in the .text section. */
    movhi r1, %hi(_start)
   20000:	004000b4 	movhi	at,2
    ori r1, r1, %lo(_start)
   20004:	08408a14 	ori	at,at,552
    jmp r1
   20008:	0800683a 	jmp	at
	...

Disassembly of section .exceptions:

00020020 <alt_exception>:

#else /* ALT_EXCEPTION_STACK disabled */
        /* 
         * Reserve space on normal stack for registers about to be pushed.
         */
        addi  sp, sp, -76
   20020:	deffed04 	addi	sp,sp,-76
         * documentation for details).
         *
         * Leave a gap in the stack frame at 4(sp) for the muldiv handler to
         * store zero into.
         */
        stw   ra,  0(sp)
   20024:	dfc00015 	stw	ra,0(sp)
        stw   r1,   8(sp)
   20028:	d8400215 	stw	at,8(sp)
        stw   r2,  12(sp)
   2002c:	d8800315 	stw	r2,12(sp)
        stw   r3,  16(sp)
   20030:	d8c00415 	stw	r3,16(sp)
        stw   r4,  20(sp)
   20034:	d9000515 	stw	r4,20(sp)
        stw   r5,  24(sp)
   20038:	d9400615 	stw	r5,24(sp)
        stw   r6,  28(sp)
   2003c:	d9800715 	stw	r6,28(sp)
        stw   r7,  32(sp)
   20040:	d9c00815 	stw	r7,32(sp)
        rdctl r5, estatus   /* Read early to avoid usage stall */
   20044:	000b307a 	rdctl	r5,estatus
        stw   r8,  36(sp)
   20048:	da000915 	stw	r8,36(sp)
        stw   r9,  40(sp)
   2004c:	da400a15 	stw	r9,40(sp)
        stw   r10, 44(sp)
   20050:	da800b15 	stw	r10,44(sp)
        stw   r11, 48(sp)
   20054:	dac00c15 	stw	r11,48(sp)
        stw   r12, 52(sp)
   20058:	db000d15 	stw	r12,52(sp)
        stw   r13, 56(sp)
   2005c:	db400e15 	stw	r13,56(sp)
        stw   r14, 60(sp)
   20060:	db800f15 	stw	r14,60(sp)
        stw   r15, 64(sp)
   20064:	dbc01015 	stw	r15,64(sp)
        /*
         * ea-4 contains the address of the instruction being executed
         * when the exception occured. For interrupt exceptions, we will
         * will be re-issue the isntruction. Store it in 72(sp)
         */
        stw   r5,  68(sp)  /* estatus */
   20068:	d9401115 	stw	r5,68(sp)
        addi  r15, ea, -4  /* instruction that caused exception */
   2006c:	ebffff04 	addi	r15,ea,-4
        stw   r15,  72(sp)
   20070:	dbc01215 	stw	r15,72(sp)
#else
        /*
         * Test to see if the exception was a software exception or caused 
         * by an external interrupt, and vector accordingly.
         */
        rdctl r4, ipending
   20074:	0009313a 	rdctl	r4,ipending
        andi  r2, r5, 1
   20078:	2880004c 	andi	r2,r5,1
        beq   r2, zero, .Lnot_irq
   2007c:	10000326 	beq	r2,zero,2008c <alt_exception+0x6c>
        beq   r4, zero, .Lnot_irq
   20080:	20000226 	beq	r4,zero,2008c <alt_exception+0x6c>
        /*
         * Now that all necessary registers have been preserved, call 
         * alt_irq_handler() to process the interrupts.
         */

        call alt_irq_handler
   20084:	00200fc0 	call	200fc <alt_irq_handler>

        .section .exceptions.irqreturn, "xa"

        br    .Lexception_exit
   20088:	00000706 	br	200a8 <alt_exception+0x88>
         * upon completion, so we write ea (address of instruction *after*
         * the one where the exception occured) into 72(sp). The actual
         * instruction that caused the exception is written in r2, which these
         * handlers will utilize.
         */
        stw ea, 72(sp) /* EA is PC+4 so will skip over instruction causing exception */
   2008c:	df401215 	stw	ea,72(sp)
.Lunknown_16bit:
        addi.n r4, r4, 2 /* Need PC+2 to skip over instruction causing exception */
        stw r4, 72(sp)

#else /* CDX is not Enabled and all instructions are 32bits */
        ldw r2, -4(ea) /* Instruction value that caused exception */
   20090:	e8bfff17 	ldw	r2,-4(ea)
   20094:	e93fff04 	addi	r4,ea,-4
   20098:	00201c80 	call	201c8 <alt_instruction_exception_entry>
   2009c:	1000021e 	bne	r2,zero,200a8 <alt_exception+0x88>
   200a0:	ebffff04 	addi	r15,ea,-4
   200a4:	dbc01215 	stw	r15,72(sp)
        /* 
         * Restore the saved registers, so that all general purpose registers 
         * have been restored to their state at the time the interrupt occured.
         */

        ldw   r5,  68(sp)
   200a8:	d9401117 	ldw	r5,68(sp)
        ldw   ea,  72(sp)  /* This becomes the PC once eret is executed */
   200ac:	df401217 	ldw	ea,72(sp)
        ldw   ra,   0(sp)
   200b0:	dfc00017 	ldw	ra,0(sp)

        wrctl estatus, r5
   200b4:	2801707a 	wrctl	estatus,r5

        ldw   r1,   8(sp)
   200b8:	d8400217 	ldw	at,8(sp)
        ldw   r2,  12(sp)
   200bc:	d8800317 	ldw	r2,12(sp)
        ldw   r3,  16(sp)
   200c0:	d8c00417 	ldw	r3,16(sp)
        ldw   r4,  20(sp)
   200c4:	d9000517 	ldw	r4,20(sp)
        ldw   r5,  24(sp)
   200c8:	d9400617 	ldw	r5,24(sp)
        ldw   r6,  28(sp)
   200cc:	d9800717 	ldw	r6,28(sp)
        ldw   r7,  32(sp)
   200d0:	d9c00817 	ldw	r7,32(sp)

#if defined(ALT_EXCEPTION_STACK) && defined(ALT_STACK_CHECK)
        ldw   et, %gprel(alt_exception_old_stack_limit)(gp)
#endif

        ldw   r8,  36(sp)
   200d4:	da000917 	ldw	r8,36(sp)
        ldw   r9,  40(sp)
   200d8:	da400a17 	ldw	r9,40(sp)
        ldw   r10, 44(sp)
   200dc:	da800b17 	ldw	r10,44(sp)
        ldw   r11, 48(sp)
   200e0:	dac00c17 	ldw	r11,48(sp)
        ldw   r12, 52(sp)
   200e4:	db000d17 	ldw	r12,52(sp)
        ldw   r13, 56(sp)
   200e8:	db400e17 	ldw	r13,56(sp)
        ldw   r14, 60(sp)
   200ec:	db800f17 	ldw	r14,60(sp)
        ldw   r15, 64(sp)
   200f0:	dbc01017 	ldw	r15,64(sp)
        stw   et, %gprel(alt_stack_limit_value)(gp)
        stw   zero, %gprel(alt_exception_old_stack_limit)(gp)
#endif /* ALT_STACK_CHECK */
        ldw   sp,  76(sp)
#else /* ALT_EXCEPTION_STACK disabled */
        addi  sp, sp, 76
   200f4:	dec01304 	addi	sp,sp,76

        /*
         * Return to the interrupted instruction.
         */

        eret
   200f8:	ef80083a 	eret

000200fc <alt_irq_handler>:
 * instruction is present if the macro ALT_CI_INTERRUPT_VECTOR defined.
 */

void alt_irq_handler (void) __attribute__ ((section (".exceptions")));
void alt_irq_handler (void)
{
   200fc:	defff904 	addi	sp,sp,-28
   20100:	dfc00615 	stw	ra,24(sp)
   20104:	df000515 	stw	fp,20(sp)
   20108:	df000504 	addi	fp,sp,20
  
  /*
   * Notify the operating system that we are at interrupt level.
   */ 
  
  ALT_OS_INT_ENTER();
   2010c:	0001883a 	nop
#ifndef NIOS2_EIC_PRESENT
static ALT_INLINE alt_u32 ALT_ALWAYS_INLINE alt_irq_pending (void)
{
  alt_u32 active;

  NIOS2_READ_IPENDING (active);
   20110:	0005313a 	rdctl	r2,ipending
   20114:	e0bffc15 	stw	r2,-16(fp)

  return active;
   20118:	e0bffc17 	ldw	r2,-16(fp)
   * Consider the case where the high priority interupt is asserted during
   * the interrupt entry sequence for a lower priority interrupt to see why
   * this is the case.
   */

  active = alt_irq_pending ();
   2011c:	e0bfff15 	stw	r2,-4(fp)

  do
  {
    i = 0;
   20120:	e03ffd15 	stw	zero,-12(fp)
    mask = 1;
   20124:	00800044 	movi	r2,1
   20128:	e0bffe15 	stw	r2,-8(fp)
     * called to clear the interrupt condition.
     */

    do
    {
      if (active & mask)
   2012c:	e0ffff17 	ldw	r3,-4(fp)
   20130:	e0bffe17 	ldw	r2,-8(fp)
   20134:	1884703a 	and	r2,r3,r2
   20138:	10001226 	beq	r2,zero,20184 <alt_irq_handler+0x88>
      { 
#ifdef ALT_ENHANCED_INTERRUPT_API_PRESENT
        alt_irq[i].handler(alt_irq[i].context); 
#else
        alt_irq[i].handler(alt_irq[i].context, i); 
   2013c:	e0bffd17 	ldw	r2,-12(fp)
   20140:	100690fa 	slli	r3,r2,3
   20144:	008000f4 	movhi	r2,3
   20148:	1885883a 	add	r2,r3,r2
   2014c:	10d50c17 	ldw	r3,21552(r2)
   20150:	e0bffd17 	ldw	r2,-12(fp)
   20154:	100890fa 	slli	r4,r2,3
   20158:	008000f4 	movhi	r2,3
   2015c:	2085883a 	add	r2,r4,r2
   20160:	10950d17 	ldw	r2,21556(r2)
   20164:	e17ffd17 	ldw	r5,-12(fp)
   20168:	1009883a 	mov	r4,r2
   2016c:	183ee83a 	callr	r3
#endif
        break;
   20170:	0001883a 	nop
  NIOS2_READ_IPENDING (active);
   20174:	0005313a 	rdctl	r2,ipending
   20178:	e0bffb15 	stw	r2,-20(fp)
  return active;
   2017c:	e0bffb17 	ldw	r2,-20(fp)
   20180:	00000706 	br	201a0 <alt_irq_handler+0xa4>
      }
      mask <<= 1;
   20184:	e0bffe17 	ldw	r2,-8(fp)
   20188:	1085883a 	add	r2,r2,r2
   2018c:	e0bffe15 	stw	r2,-8(fp)
      i++;
   20190:	e0bffd17 	ldw	r2,-12(fp)
   20194:	10800044 	addi	r2,r2,1
   20198:	e0bffd15 	stw	r2,-12(fp)
      if (active & mask)
   2019c:	003fe306 	br	2012c <alt_irq_handler+0x30>

    } while (1);

    active = alt_irq_pending ();
   201a0:	e0bfff15 	stw	r2,-4(fp)
    
  } while (active);
   201a4:	e0bfff17 	ldw	r2,-4(fp)
   201a8:	103fdd1e 	bne	r2,zero,20120 <alt_irq_handler+0x24>

  /*
   * Notify the operating system that interrupt processing is complete.
   */ 

  ALT_OS_INT_EXIT();
   201ac:	0001883a 	nop
}
   201b0:	0001883a 	nop
   201b4:	e037883a 	mov	sp,fp
   201b8:	dfc00117 	ldw	ra,4(sp)
   201bc:	df000017 	ldw	fp,0(sp)
   201c0:	dec00204 	addi	sp,sp,8
   201c4:	f800283a 	ret

000201c8 <alt_instruction_exception_entry>:
 * that handler if it has been registered. Absent a handler, it will
 * break break or hang as discussed below.
 */
int 
alt_instruction_exception_entry (alt_u32 exception_pc)
{
   201c8:	defffb04 	addi	sp,sp,-20
   201cc:	dfc00415 	stw	ra,16(sp)
   201d0:	df000315 	stw	fp,12(sp)
   201d4:	df000304 	addi	fp,sp,12
   201d8:	e13ffd15 	stw	r4,-12(fp)
  cause = ( (cause & NIOS2_EXCEPTION_REG_CAUSE_MASK) >>
              NIOS2_EXCEPTION_REG_CAUSE_OFST );

  NIOS2_READ_BADADDR(badaddr);
#else
  cause = NIOS2_EXCEPTION_CAUSE_NOT_PRESENT;
   201dc:	00bfffc4 	movi	r2,-1
   201e0:	e0bfff15 	stw	r2,-4(fp)
  badaddr = 0;
   201e4:	e03ffe15 	stw	zero,-8(fp)
#endif /* NIOS2_HAS_EXTRA_EXCEPTION_INFO */

  if(alt_instruction_exception_handler) {
   201e8:	d0a71d17 	ldw	r2,-25484(gp)
   201ec:	10000726 	beq	r2,zero,2020c <alt_instruction_exception_entry+0x44>
     * Call handler. Its return value indicates whether the exception-causing
     * instruction should be re-issued. The code that called us,
     * alt_eceptions_entry.S, will look at this value and adjust the ea
     * register as necessary
     */
    return alt_instruction_exception_handler(cause, exception_pc, badaddr);
   201f0:	d0a71d17 	ldw	r2,-25484(gp)
   201f4:	e0ffff17 	ldw	r3,-4(fp)
   201f8:	e1bffe17 	ldw	r6,-8(fp)
   201fc:	e17ffd17 	ldw	r5,-12(fp)
   20200:	1809883a 	mov	r4,r3
   20204:	103ee83a 	callr	r2
   20208:	00000206 	br	20214 <alt_instruction_exception_entry+0x4c>
   *    (a peripheral which negates its interrupt output before its
   *    interrupt handler has been executed will cause spurious interrupts)
   */
  else {
#ifdef NIOS2_HAS_DEBUG_STUB
    NIOS2_BREAK();
   2020c:	003da03a 	break	0
      ;
#endif /* NIOS2_HAS_DEBUG_STUB */
  }

  /* We should not get here. Remove compiler warning. */
  return NIOS2_EXCEPTION_RETURN_REISSUE_INST;
   20210:	0005883a 	mov	r2,zero
}
   20214:	e037883a 	mov	sp,fp
   20218:	dfc00117 	ldw	ra,4(sp)
   2021c:	df000017 	ldw	fp,0(sp)
   20220:	dec00204 	addi	sp,sp,8
   20224:	f800283a 	ret

Disassembly of section .text:

00020228 <_start>:

    /*
     * Now that the caches are initialized, set up the stack pointer and global pointer.
     * The values provided by the linker are assumed to be correctly aligned.
     */
    movhi sp, %hi(__alt_stack_pointer)
   20228:	06c000f4 	movhi	sp,3
    ori sp, sp, %lo(__alt_stack_pointer)
   2022c:	dee1a814 	ori	sp,sp,34464
    movhi gp, %hi(_gp)
   20230:	068000f4 	movhi	gp,3
    ori gp, gp, %lo(_gp)
   20234:	d6ade414 	ori	gp,gp,46992
 */
#ifndef ALT_SIM_OPTIMIZE
    /* Log that the BSS is about to be cleared. */
    ALT_LOG_PUTS(alt_log_msg_bss)

    movhi r2, %hi(__bss_start)
   20238:	008000f4 	movhi	r2,3
    ori r2, r2, %lo(__bss_start)
   2023c:	1094f314 	ori	r2,r2,21452

    movhi r3, %hi(__bss_end)
   20240:	00c000f4 	movhi	r3,3
    ori r3, r3, %lo(__bss_end)
   20244:	18d54c14 	ori	r3,r3,21808

    beq r2, r3, 1f
   20248:	10c00326 	beq	r2,r3,20258 <_start+0x30>

0:
    stw zero, (r2)
   2024c:	10000015 	stw	zero,0(r2)
    addi r2, r2, 4
   20250:	10800104 	addi	r2,r2,4
    bltu r2, r3, 0b
   20254:	10fffd36 	bltu	r2,r3,2024c <_start+0x24>
     * section aren't defined until alt_load() has been called).
     */
    mov   et, zero
#endif

    call alt_load
   20258:	002efe00 	call	2efe0 <alt_load>

    /* Log that alt_main is about to be called. */
    ALT_LOG_PUTS(alt_log_msg_alt_main)

    /* Call the C entry point. It should never return. */
    call alt_main
   2025c:	002f1800 	call	2f180 <alt_main>

00020260 <alt_after_alt_main>:

    /* Wait in infinite loop in case alt_main does return. */
alt_after_alt_main:
    br alt_after_alt_main
   20260:	003fff06 	br	20260 <alt_after_alt_main>

00020264 <float_to_fixed>:


typedef int32_t fixed_32;


fixed_32 float_to_fixed(float x){
   20264:	defffd04 	addi	sp,sp,-12
   20268:	dfc00215 	stw	ra,8(sp)
   2026c:	df000115 	stw	fp,4(sp)
   20270:	df000104 	addi	fp,sp,4
   20274:	e13fff15 	stw	r4,-4(fp)

return (fixed_32)(round(x*(1<<FRACTION_BITS)));
   20278:	0152c034 	movhi	r5,19200
   2027c:	e13fff17 	ldw	r4,-4(fp)
   20280:	0020de00 	call	20de0 <__mulsf3>
   20284:	1007883a 	mov	r3,r2
   20288:	1805883a 	mov	r2,r3
   2028c:	1009883a 	mov	r4,r2
   20290:	0021d180 	call	21d18 <__extendsfdf2>
   20294:	100d883a 	mov	r6,r2
   20298:	180f883a 	mov	r7,r3
   2029c:	3009883a 	mov	r4,r6
   202a0:	380b883a 	mov	r5,r7
   202a4:	00207040 	call	20704 <round>
   202a8:	100d883a 	mov	r6,r2
   202ac:	180f883a 	mov	r7,r3
   202b0:	3009883a 	mov	r4,r6
   202b4:	380b883a 	mov	r5,r7
   202b8:	0021c980 	call	21c98 <__fixdfsi>

}
   202bc:	e037883a 	mov	sp,fp
   202c0:	dfc00117 	ldw	ra,4(sp)
   202c4:	df000017 	ldw	fp,0(sp)
   202c8:	dec00204 	addi	sp,sp,8
   202cc:	f800283a 	ret

000202d0 <fixed_to_float>:


float fixed_to_float(fixed_32 fixed){
   202d0:	defffd04 	addi	sp,sp,-12
   202d4:	dfc00215 	stw	ra,8(sp)
   202d8:	df000115 	stw	fp,4(sp)
   202dc:	df000104 	addi	fp,sp,4
   202e0:	e13fff15 	stw	r4,-4(fp)

return ((float)fixed / (float)(1 << FRACTION_BITS));
   202e4:	e13fff17 	ldw	r4,-4(fp)
   202e8:	002126c0 	call	2126c <__floatsisf>
   202ec:	1007883a 	mov	r3,r2
   202f0:	0152c034 	movhi	r5,19200
   202f4:	1809883a 	mov	r4,r3
   202f8:	00209c80 	call	209c8 <__divsf3>
   202fc:	1007883a 	mov	r3,r2
   20300:	1809883a 	mov	r4,r3
   20304:	2005883a 	mov	r2,r4

}
   20308:	e037883a 	mov	sp,fp
   2030c:	dfc00117 	ldw	ra,4(sp)
   20310:	df000017 	ldw	fp,0(sp)
   20314:	dec00204 	addi	sp,sp,8
   20318:	f800283a 	ret

0002031c <led_write>:

void led_write(alt_u8 led_pattern) {
   2031c:	defffe04 	addi	sp,sp,-8
   20320:	df000115 	stw	fp,4(sp)
   20324:	df000104 	addi	fp,sp,4
   20328:	2005883a 	mov	r2,r4
   2032c:	e0bfff05 	stb	r2,-4(fp)

    IOWR(LED_BASE, 0, led_pattern);
   20330:	e0ffff03 	ldbu	r3,-4(fp)
   20334:	00800134 	movhi	r2,4
   20338:	10c40835 	stwio	r3,4128(r2)
}
   2033c:	0001883a 	nop
   20340:	e037883a 	mov	sp,fp
   20344:	df000017 	ldw	fp,0(sp)
   20348:	dec00104 	addi	sp,sp,4
   2034c:	f800283a 	ret

00020350 <convert_read>:



void convert_read(alt_32 acc_read, int * level, alt_u8 * led) {
   20350:	defffb04 	addi	sp,sp,-20
   20354:	df000415 	stw	fp,16(sp)
   20358:	df000404 	addi	fp,sp,16
   2035c:	e13ffe15 	stw	r4,-8(fp)
   20360:	e17ffd15 	stw	r5,-12(fp)
   20364:	e1bffc15 	stw	r6,-16(fp)

    acc_read += OFFSET;
   20368:	e0bffe17 	ldw	r2,-8(fp)
   2036c:	10bff804 	addi	r2,r2,-32
   20370:	e0bffe15 	stw	r2,-8(fp)

    alt_u8 val = (acc_read >> 6) & 0x07;
   20374:	e0bffe17 	ldw	r2,-8(fp)
   20378:	1005d1ba 	srai	r2,r2,6
   2037c:	108001cc 	andi	r2,r2,7
   20380:	e0bfffc5 	stb	r2,-1(fp)

    * led = (8 >> val) | (8 << (8 - val));
   20384:	e0bfffc3 	ldbu	r2,-1(fp)
   20388:	00c00204 	movi	r3,8
   2038c:	1885d83a 	sra	r2,r3,r2
   20390:	1009883a 	mov	r4,r2
   20394:	e0bfffc3 	ldbu	r2,-1(fp)
   20398:	00c00204 	movi	r3,8
   2039c:	1885c83a 	sub	r2,r3,r2
   203a0:	00c00204 	movi	r3,8
   203a4:	1884983a 	sll	r2,r3,r2
   203a8:	2084b03a 	or	r2,r4,r2
   203ac:	1007883a 	mov	r3,r2
   203b0:	e0bffc17 	ldw	r2,-16(fp)
   203b4:	10c00005 	stb	r3,0(r2)

    * level = (acc_read >> 1) & 0x1f;
   203b8:	e0bffe17 	ldw	r2,-8(fp)
   203bc:	1005d07a 	srai	r2,r2,1
   203c0:	10c007cc 	andi	r3,r2,31
   203c4:	e0bffd17 	ldw	r2,-12(fp)
   203c8:	10c00015 	stw	r3,0(r2)

}
   203cc:	0001883a 	nop
   203d0:	e037883a 	mov	sp,fp
   203d4:	df000017 	ldw	fp,0(sp)
   203d8:	dec00104 	addi	sp,sp,4
   203dc:	f800283a 	ret

000203e0 <sys_timer_isr>:



void sys_timer_isr() {
   203e0:	defffe04 	addi	sp,sp,-8
   203e4:	dfc00115 	stw	ra,4(sp)
   203e8:	df000015 	stw	fp,0(sp)
   203ec:	d839883a 	mov	fp,sp

    IOWR_ALTERA_AVALON_TIMER_STATUS(TIMER_BASE, 0);
   203f0:	0007883a 	mov	r3,zero
   203f4:	00800134 	movhi	r2,4
   203f8:	10c40035 	stwio	r3,4096(r2)
    if (pwm < abs(level)) {
   203fc:	d0a70f03 	ldbu	r2,-25540(gp)
   20400:	10c03fcc 	andi	r3,r2,255
   20404:	18c0201c 	xori	r3,r3,128
   20408:	18ffe004 	addi	r3,r3,-128
   2040c:	d0a71017 	ldw	r2,-25536(gp)
   20410:	1000010e 	bge	r2,zero,20418 <sys_timer_isr+0x38>
   20414:	0085c83a 	sub	r2,zero,r2
   20418:	18800f0e 	bge	r3,r2,20458 <sys_timer_isr+0x78>
        if (level < 0) {
   2041c:	d0a71017 	ldw	r2,-25536(gp)
   20420:	1000060e 	bge	r2,zero,2043c <sys_timer_isr+0x5c>
            led_write(led << 1);
   20424:	d0a70f43 	ldbu	r2,-25539(gp)
   20428:	1085883a 	add	r2,r2,r2
   2042c:	10803fcc 	andi	r2,r2,255
   20430:	1009883a 	mov	r4,r2
   20434:	002031c0 	call	2031c <led_write>
   20438:	00000b06 	br	20468 <sys_timer_isr+0x88>
        }else{
            led_write(led >> 1);
   2043c:	d0a70f43 	ldbu	r2,-25539(gp)
   20440:	10803fcc 	andi	r2,r2,255
   20444:	1004d07a 	srli	r2,r2,1
   20448:	10803fcc 	andi	r2,r2,255
   2044c:	1009883a 	mov	r4,r2
   20450:	002031c0 	call	2031c <led_write>
   20454:	00000406 	br	20468 <sys_timer_isr+0x88>
        	}

    } else {

        led_write(led);
   20458:	d0a70f43 	ldbu	r2,-25539(gp)
   2045c:	10803fcc 	andi	r2,r2,255
   20460:	1009883a 	mov	r4,r2
   20464:	002031c0 	call	2031c <led_write>

    }
    if (pwm > PWM_PERIOD) {
   20468:	d0a70f03 	ldbu	r2,-25540(gp)
   2046c:	10803fcc 	andi	r2,r2,255
   20470:	1080201c 	xori	r2,r2,128
   20474:	10bfe004 	addi	r2,r2,-128
   20478:	10800450 	cmplti	r2,r2,17
   2047c:	1000021e 	bne	r2,zero,20488 <sys_timer_isr+0xa8>
        pwm = 0;
   20480:	d0270f05 	stb	zero,-25540(gp)
    } else {
        pwm++;
    }
}
   20484:	00000306 	br	20494 <sys_timer_isr+0xb4>
        pwm++;
   20488:	d0a70f03 	ldbu	r2,-25540(gp)
   2048c:	10800044 	addi	r2,r2,1
   20490:	d0a70f05 	stb	r2,-25540(gp)
}
   20494:	0001883a 	nop
   20498:	e037883a 	mov	sp,fp
   2049c:	dfc00117 	ldw	ra,4(sp)
   204a0:	df000017 	ldw	fp,0(sp)
   204a4:	dec00204 	addi	sp,sp,8
   204a8:	f800283a 	ret

000204ac <timer_init>:



void timer_init(void * isr) {
   204ac:	defffd04 	addi	sp,sp,-12
   204b0:	dfc00215 	stw	ra,8(sp)
   204b4:	df000115 	stw	fp,4(sp)
   204b8:	df000104 	addi	fp,sp,4
   204bc:	e13fff15 	stw	r4,-4(fp)

    IOWR_ALTERA_AVALON_TIMER_CONTROL(TIMER_BASE, 0x0003);
   204c0:	00c000c4 	movi	r3,3
   204c4:	00800134 	movhi	r2,4
   204c8:	10c40135 	stwio	r3,4100(r2)

    IOWR_ALTERA_AVALON_TIMER_STATUS(TIMER_BASE, 0);
   204cc:	0007883a 	mov	r3,zero
   204d0:	00800134 	movhi	r2,4
   204d4:	10c40035 	stwio	r3,4096(r2)

    IOWR_ALTERA_AVALON_TIMER_PERIODL(TIMER_BASE, 0x0900);
   204d8:	00c24004 	movi	r3,2304
   204dc:	00800134 	movhi	r2,4
   204e0:	10c40235 	stwio	r3,4104(r2)

    IOWR_ALTERA_AVALON_TIMER_PERIODH(TIMER_BASE, 0x0000);
   204e4:	0007883a 	mov	r3,zero
   204e8:	00800134 	movhi	r2,4
   204ec:	10c40335 	stwio	r3,4108(r2)

    alt_irq_register(TIMER_IRQ, 0, isr);
   204f0:	e0bfff17 	ldw	r2,-4(fp)
   204f4:	100d883a 	mov	r6,r2
   204f8:	000b883a 	mov	r5,zero
   204fc:	0009883a 	mov	r4,zero
   20500:	002ebe00 	call	2ebe0 <alt_irq_register>

    IOWR_ALTERA_AVALON_TIMER_CONTROL(TIMER_BASE, 0x0007);
   20504:	00c001c4 	movi	r3,7
   20508:	00800134 	movhi	r2,4
   2050c:	10c40135 	stwio	r3,4100(r2)

}
   20510:	0001883a 	nop
   20514:	e037883a 	mov	sp,fp
   20518:	dfc00117 	ldw	ra,4(sp)
   2051c:	df000017 	ldw	fp,0(sp)
   20520:	dec00204 	addi	sp,sp,8
   20524:	f800283a 	ret

00020528 <FIR>:



alt_32 FIR(fixed_32 coeffs[], alt_32 *x){
   20528:	defffa04 	addi	sp,sp,-24
   2052c:	dfc00515 	stw	ra,20(sp)
   20530:	df000415 	stw	fp,16(sp)
   20534:	df000404 	addi	fp,sp,16
   20538:	e13ffd15 	stw	r4,-12(fp)
   2053c:	e17ffc15 	stw	r5,-16(fp)

	fixed_32 tmp=0;
   20540:	e03fff15 	stw	zero,-4(fp)

	for(int i = 0; i < F_ORDER;i++){
   20544:	e03ffe15 	stw	zero,-8(fp)
   20548:	00001306 	br	20598 <FIR+0x70>

		tmp+=coeffs[i]*x[i];
   2054c:	e0bffe17 	ldw	r2,-8(fp)
   20550:	100490ba 	slli	r2,r2,2
   20554:	e0fffd17 	ldw	r3,-12(fp)
   20558:	1885883a 	add	r2,r3,r2
   2055c:	11000017 	ldw	r4,0(r2)
   20560:	e0bffe17 	ldw	r2,-8(fp)
   20564:	100490ba 	slli	r2,r2,2
   20568:	e0fffc17 	ldw	r3,-16(fp)
   2056c:	1885883a 	add	r2,r3,r2
   20570:	10800017 	ldw	r2,0(r2)
   20574:	100b883a 	mov	r5,r2
   20578:	00209a00 	call	209a0 <__mulsi3>
   2057c:	1007883a 	mov	r3,r2
   20580:	e0bfff17 	ldw	r2,-4(fp)
   20584:	10c5883a 	add	r2,r2,r3
   20588:	e0bfff15 	stw	r2,-4(fp)
	for(int i = 0; i < F_ORDER;i++){
   2058c:	e0bffe17 	ldw	r2,-8(fp)
   20590:	10800044 	addi	r2,r2,1
   20594:	e0bffe15 	stw	r2,-8(fp)
   20598:	e0bffe17 	ldw	r2,-8(fp)
   2059c:	10800c50 	cmplti	r2,r2,49
   205a0:	103fea1e 	bne	r2,zero,2054c <FIR+0x24>

// printf("%d: %ld\n", i, (alt_32)tmp);

}
// printf("%ld\n", (alt_32)tmp);
	tmp=fixed_to_float(tmp);
   205a4:	e13fff17 	ldw	r4,-4(fp)
   205a8:	00202d00 	call	202d0 <fixed_to_float>
   205ac:	1007883a 	mov	r3,r2
   205b0:	1809883a 	mov	r4,r3
   205b4:	00211fc0 	call	211fc <__fixsfsi>
   205b8:	e0bfff15 	stw	r2,-4(fp)
	return (alt_32)tmp;
   205bc:	e0bfff17 	ldw	r2,-4(fp)
}
   205c0:	e037883a 	mov	sp,fp
   205c4:	dfc00117 	ldw	ra,4(sp)
   205c8:	df000017 	ldw	fp,0(sp)
   205cc:	dec00204 	addi	sp,sp,8
   205d0:	f800283a 	ret

000205d4 <main>:





int main(){
   205d4:	deffc604 	addi	sp,sp,-232
   205d8:	dfc03915 	stw	ra,228(sp)
   205dc:	df003815 	stw	fp,224(sp)
   205e0:	df003804 	addi	fp,sp,224
	alt_u32 exec_t2;
	fixed_32 coeffs[]={24538,25771,29318,35140,43158,53256,65279,79042,94325,110883,128450,146737,165444,184263,202883,220992,238291,254488,269314,282519,293881,303209,310346,315172,317606,317606,315172,310346,303209,293881,282519,269314,254488,238291,220992,202883,184263,165444,146737,128450,110883,94325,79042,65279,53256,43158,35140,29318,25771,24538};
   205e4:	e0ffcb04 	addi	r3,fp,-212
   205e8:	008000f4 	movhi	r2,3
   205ec:	10852504 	addi	r2,r2,5268
   205f0:	01003204 	movi	r4,200
   205f4:	200d883a 	mov	r6,r4
   205f8:	100b883a 	mov	r5,r2
   205fc:	1809883a 	mov	r4,r3
   20600:	00226380 	call	22638 <memcpy>
	alt_32 *x = malloc(F_ORDER*sizeof(alt_32));
   20604:	01003104 	movi	r4,196
   20608:	0021e640 	call	21e64 <malloc>
   2060c:	e0bffe15 	stw	r2,-8(fp)
	alt_32 x_read;
    alt_32 y_read;
    alt_32 z_read;
    int n = 0;
   20610:	e03fff15 	stw	zero,-4(fp)
    alt_up_accelerometer_spi_dev * acc_dev;
    printf("hello");
   20614:	010000f4 	movhi	r4,3
   20618:	21051304 	addi	r4,r4,5196
   2061c:	00227680 	call	22768 <printf>
    acc_dev = alt_up_accelerometer_spi_open_dev("/dev/accelerometer_spi");
   20620:	010000f4 	movhi	r4,3
   20624:	21051504 	addi	r4,r4,5204
   20628:	00302440 	call	30244 <alt_up_accelerometer_spi_open_dev>
   2062c:	e0bffd15 	stw	r2,-12(fp)

    if (acc_dev == NULL) { // if return 1, check if the spi ip name is "accelerometer_spi"
   20630:	e0bffd17 	ldw	r2,-12(fp)
   20634:	1000021e 	bne	r2,zero,20640 <main+0x6c>
        return 1;
   20638:	00800044 	movi	r2,1
   2063c:	00002c06 	br	206f0 <main+0x11c>
    }

    timer_init(sys_timer_isr);
   20640:	010000b4 	movhi	r4,2
   20644:	2100f804 	addi	r4,r4,992
   20648:	00204ac0 	call	204ac <timer_init>
    //printf("filt\n");
    printf("x_axis,y_axis,z_axis\n");
   2064c:	010000f4 	movhi	r4,3
   20650:	21051b04 	addi	r4,r4,5228
   20654:	00228700 	call	22870 <puts>
    while (1) {
        alt_up_accelerometer_spi_read_x_axis(acc_dev, & x_read);
   20658:	e0bfca04 	addi	r2,fp,-216
   2065c:	100b883a 	mov	r5,r2
   20660:	e13ffd17 	ldw	r4,-12(fp)
   20664:	00303940 	call	30394 <alt_up_accelerometer_spi_read_x_axis>
        alt_up_accelerometer_spi_read_y_axis(acc_dev, & y_read);
   20668:	e0bfc904 	addi	r2,fp,-220
   2066c:	100b883a 	mov	r5,r2
   20670:	e13ffd17 	ldw	r4,-12(fp)
   20674:	00304680 	call	30468 <alt_up_accelerometer_spi_read_y_axis>
        alt_up_accelerometer_spi_read_z_axis(acc_dev, & z_read);
   20678:	e0bfc804 	addi	r2,fp,-224
   2067c:	100b883a 	mov	r5,r2
   20680:	e13ffd17 	ldw	r4,-12(fp)
   20684:	003053c0 	call	3053c <alt_up_accelerometer_spi_read_z_axis>
        //}
        //x[0] = x_read;
        //alt_32 y = FIR(coeffs, x);
        //printf("%ld\n",y);
        // alt_printf("raw data: %x\n", x_read);
        printf("%ld,%ld,%ld\n",x_read,y_read,z_read);
   20688:	e0bfca17 	ldw	r2,-216(fp)
   2068c:	e0ffc917 	ldw	r3,-220(fp)
   20690:	e13fc817 	ldw	r4,-224(fp)
   20694:	200f883a 	mov	r7,r4
   20698:	180d883a 	mov	r6,r3
   2069c:	100b883a 	mov	r5,r2
   206a0:	010000f4 	movhi	r4,3
   206a4:	21052104 	addi	r4,r4,5252
   206a8:	00227680 	call	22768 <printf>
        //printf("%ld,%ld\n",x_read,y_read);
        convert_read((x_read+y_read+z_read)/3, & level, & led);
   206ac:	e0ffca17 	ldw	r3,-216(fp)
   206b0:	e0bfc917 	ldw	r2,-220(fp)
   206b4:	1887883a 	add	r3,r3,r2
   206b8:	e0bfc817 	ldw	r2,-224(fp)
   206bc:	1885883a 	add	r2,r3,r2
   206c0:	014000c4 	movi	r5,3
   206c4:	1009883a 	mov	r4,r2
   206c8:	00207ec0 	call	207ec <__divsi3>
   206cc:	d1a70f44 	addi	r6,gp,-25539
   206d0:	d1671004 	addi	r5,gp,-25536
   206d4:	1009883a 	mov	r4,r2
   206d8:	00203500 	call	20350 <convert_read>
        n++;
   206dc:	e0bfff17 	ldw	r2,-4(fp)
   206e0:	10800044 	addi	r2,r2,1
   206e4:	e0bfff15 	stw	r2,-4(fp)
        alt_up_accelerometer_spi_read_x_axis(acc_dev, & x_read);
   206e8:	0001883a 	nop
   206ec:	003fda06 	br	20658 <main+0x84>
    }

    free(x);

    return 0;
}
   206f0:	e037883a 	mov	sp,fp
   206f4:	dfc00117 	ldw	ra,4(sp)
   206f8:	df000017 	ldw	fp,0(sp)
   206fc:	dec00204 	addi	sp,sp,8
   20700:	f800283a 	ret

00020704 <round>:
   20704:	280fd53a 	srai	r7,r5,20
   20708:	2807883a 	mov	r3,r5
   2070c:	2005883a 	mov	r2,r4
   20710:	39c1ffcc 	andi	r7,r7,2047
   20714:	39bf0044 	addi	r6,r7,-1023
   20718:	32000508 	cmpgei	r8,r6,20
   2071c:	4000141e 	bne	r8,zero,20770 <round+0x6c>
   20720:	30000716 	blt	r6,zero,20740 <round+0x3c>
   20724:	01000434 	movhi	r4,16
   20728:	213fffc4 	addi	r4,r4,-1
   2072c:	2189d83a 	sra	r4,r4,r6
   20730:	214a703a 	and	r5,r4,r5
   20734:	288ab03a 	or	r5,r5,r2
   20738:	2800061e 	bne	r5,zero,20754 <round+0x50>
   2073c:	f800283a 	ret
   20740:	31bfffd8 	cmpnei	r6,r6,-1
   20744:	28e0002c 	andhi	r3,r5,32768
   20748:	30002526 	beq	r6,zero,207e0 <round+0xdc>
   2074c:	0005883a 	mov	r2,zero
   20750:	f800283a 	ret
   20754:	01400234 	movhi	r5,8
   20758:	298bd83a 	sra	r5,r5,r6
   2075c:	0108303a 	nor	r4,zero,r4
   20760:	0005883a 	mov	r2,zero
   20764:	28cb883a 	add	r5,r5,r3
   20768:	2906703a 	and	r3,r5,r4
   2076c:	f800283a 	ret
   20770:	32000d10 	cmplti	r8,r6,52
   20774:	40000a1e 	bne	r8,zero,207a0 <round+0x9c>
   20778:	31810018 	cmpnei	r6,r6,1024
   2077c:	303fef1e 	bne	r6,zero,2073c <round+0x38>
   20780:	deffff04 	addi	sp,sp,-4
   20784:	200d883a 	mov	r6,r4
   20788:	280f883a 	mov	r7,r5
   2078c:	dfc00015 	stw	ra,0(sp)
   20790:	00213940 	call	21394 <__adddf3>
   20794:	dfc00017 	ldw	ra,0(sp)
   20798:	dec00104 	addi	sp,sp,4
   2079c:	f800283a 	ret
   207a0:	39fefb44 	addi	r7,r7,-1043
   207a4:	013fffc4 	movi	r4,-1
   207a8:	21c8d83a 	srl	r4,r4,r7
   207ac:	208a703a 	and	r5,r4,r2
   207b0:	28000a26 	beq	r5,zero,207dc <round+0xd8>
   207b4:	01400cc4 	movi	r5,51
   207b8:	298dc83a 	sub	r6,r5,r6
   207bc:	01400044 	movi	r5,1
   207c0:	298a983a 	sll	r5,r5,r6
   207c4:	288b883a 	add	r5,r5,r2
   207c8:	2880012e 	bgeu	r5,r2,207d0 <round+0xcc>
   207cc:	18c00044 	addi	r3,r3,1
   207d0:	0108303a 	nor	r4,zero,r4
   207d4:	2144703a 	and	r2,r4,r5
   207d8:	f800283a 	ret
   207dc:	f800283a 	ret
   207e0:	18cffc34 	orhi	r3,r3,16368
   207e4:	0005883a 	mov	r2,zero
   207e8:	f800283a 	ret

000207ec <__divsi3>:
   207ec:	20001a16 	blt	r4,zero,20858 <__divsi3+0x6c>
   207f0:	000f883a 	mov	r7,zero
   207f4:	2800020e 	bge	r5,zero,20800 <__divsi3+0x14>
   207f8:	014bc83a 	sub	r5,zero,r5
   207fc:	39c0005c 	xori	r7,r7,1
   20800:	200d883a 	mov	r6,r4
   20804:	00c00044 	movi	r3,1
   20808:	2900092e 	bgeu	r5,r4,20830 <__divsi3+0x44>
   2080c:	00800804 	movi	r2,32
   20810:	00c00044 	movi	r3,1
   20814:	00000106 	br	2081c <__divsi3+0x30>
   20818:	10001226 	beq	r2,zero,20864 <__divsi3+0x78>
   2081c:	294b883a 	add	r5,r5,r5
   20820:	10bfffc4 	addi	r2,r2,-1
   20824:	18c7883a 	add	r3,r3,r3
   20828:	293ffb36 	bltu	r5,r4,20818 <__divsi3+0x2c>
   2082c:	18000d26 	beq	r3,zero,20864 <__divsi3+0x78>
   20830:	0005883a 	mov	r2,zero
   20834:	31400236 	bltu	r6,r5,20840 <__divsi3+0x54>
   20838:	314dc83a 	sub	r6,r6,r5
   2083c:	10c4b03a 	or	r2,r2,r3
   20840:	1806d07a 	srli	r3,r3,1
   20844:	280ad07a 	srli	r5,r5,1
   20848:	183ffa1e 	bne	r3,zero,20834 <__divsi3+0x48>
   2084c:	38000126 	beq	r7,zero,20854 <__divsi3+0x68>
   20850:	0085c83a 	sub	r2,zero,r2
   20854:	f800283a 	ret
   20858:	0109c83a 	sub	r4,zero,r4
   2085c:	01c00044 	movi	r7,1
   20860:	003fe406 	br	207f4 <__divsi3+0x8>
   20864:	0005883a 	mov	r2,zero
   20868:	003ff806 	br	2084c <__divsi3+0x60>

0002086c <__modsi3>:
   2086c:	20001716 	blt	r4,zero,208cc <__modsi3+0x60>
   20870:	000f883a 	mov	r7,zero
   20874:	2005883a 	mov	r2,r4
   20878:	2800010e 	bge	r5,zero,20880 <__modsi3+0x14>
   2087c:	014bc83a 	sub	r5,zero,r5
   20880:	00c00044 	movi	r3,1
   20884:	2900092e 	bgeu	r5,r4,208ac <__modsi3+0x40>
   20888:	01800804 	movi	r6,32
   2088c:	00c00044 	movi	r3,1
   20890:	00000106 	br	20898 <__modsi3+0x2c>
   20894:	30001026 	beq	r6,zero,208d8 <__modsi3+0x6c>
   20898:	294b883a 	add	r5,r5,r5
   2089c:	31bfffc4 	addi	r6,r6,-1
   208a0:	18c7883a 	add	r3,r3,r3
   208a4:	293ffb36 	bltu	r5,r4,20894 <__modsi3+0x28>
   208a8:	18000b26 	beq	r3,zero,208d8 <__modsi3+0x6c>
   208ac:	1806d07a 	srli	r3,r3,1
   208b0:	11400136 	bltu	r2,r5,208b8 <__modsi3+0x4c>
   208b4:	1145c83a 	sub	r2,r2,r5
   208b8:	280ad07a 	srli	r5,r5,1
   208bc:	183ffb1e 	bne	r3,zero,208ac <__modsi3+0x40>
   208c0:	38000126 	beq	r7,zero,208c8 <__modsi3+0x5c>
   208c4:	0085c83a 	sub	r2,zero,r2
   208c8:	f800283a 	ret
   208cc:	0109c83a 	sub	r4,zero,r4
   208d0:	01c00044 	movi	r7,1
   208d4:	003fe706 	br	20874 <__modsi3+0x8>
   208d8:	2005883a 	mov	r2,r4
   208dc:	003ff806 	br	208c0 <__modsi3+0x54>

000208e0 <__udivsi3>:
   208e0:	200d883a 	mov	r6,r4
   208e4:	2900152e 	bgeu	r5,r4,2093c <__udivsi3+0x5c>
   208e8:	28001416 	blt	r5,zero,2093c <__udivsi3+0x5c>
   208ec:	00800804 	movi	r2,32
   208f0:	00c00044 	movi	r3,1
   208f4:	00000206 	br	20900 <__udivsi3+0x20>
   208f8:	10000e26 	beq	r2,zero,20934 <__udivsi3+0x54>
   208fc:	28000416 	blt	r5,zero,20910 <__udivsi3+0x30>
   20900:	294b883a 	add	r5,r5,r5
   20904:	10bfffc4 	addi	r2,r2,-1
   20908:	18c7883a 	add	r3,r3,r3
   2090c:	293ffa36 	bltu	r5,r4,208f8 <__udivsi3+0x18>
   20910:	18000826 	beq	r3,zero,20934 <__udivsi3+0x54>
   20914:	0005883a 	mov	r2,zero
   20918:	31400236 	bltu	r6,r5,20924 <__udivsi3+0x44>
   2091c:	314dc83a 	sub	r6,r6,r5
   20920:	10c4b03a 	or	r2,r2,r3
   20924:	1806d07a 	srli	r3,r3,1
   20928:	280ad07a 	srli	r5,r5,1
   2092c:	183ffa1e 	bne	r3,zero,20918 <__udivsi3+0x38>
   20930:	f800283a 	ret
   20934:	0005883a 	mov	r2,zero
   20938:	f800283a 	ret
   2093c:	00c00044 	movi	r3,1
   20940:	003ff406 	br	20914 <__udivsi3+0x34>

00020944 <__umodsi3>:
   20944:	2005883a 	mov	r2,r4
   20948:	2900132e 	bgeu	r5,r4,20998 <__umodsi3+0x54>
   2094c:	28001216 	blt	r5,zero,20998 <__umodsi3+0x54>
   20950:	01800804 	movi	r6,32
   20954:	00c00044 	movi	r3,1
   20958:	00000206 	br	20964 <__umodsi3+0x20>
   2095c:	30000c26 	beq	r6,zero,20990 <__umodsi3+0x4c>
   20960:	28000416 	blt	r5,zero,20974 <__umodsi3+0x30>
   20964:	294b883a 	add	r5,r5,r5
   20968:	31bfffc4 	addi	r6,r6,-1
   2096c:	18c7883a 	add	r3,r3,r3
   20970:	293ffa36 	bltu	r5,r4,2095c <__umodsi3+0x18>
   20974:	18000626 	beq	r3,zero,20990 <__umodsi3+0x4c>
   20978:	1806d07a 	srli	r3,r3,1
   2097c:	11400136 	bltu	r2,r5,20984 <__umodsi3+0x40>
   20980:	1145c83a 	sub	r2,r2,r5
   20984:	280ad07a 	srli	r5,r5,1
   20988:	183ffb1e 	bne	r3,zero,20978 <__umodsi3+0x34>
   2098c:	f800283a 	ret
   20990:	2005883a 	mov	r2,r4
   20994:	f800283a 	ret
   20998:	00c00044 	movi	r3,1
   2099c:	003ff606 	br	20978 <__umodsi3+0x34>

000209a0 <__mulsi3>:
   209a0:	0005883a 	mov	r2,zero
   209a4:	20000726 	beq	r4,zero,209c4 <__mulsi3+0x24>
   209a8:	20c0004c 	andi	r3,r4,1
   209ac:	2008d07a 	srli	r4,r4,1
   209b0:	18000126 	beq	r3,zero,209b8 <__mulsi3+0x18>
   209b4:	1145883a 	add	r2,r2,r5
   209b8:	294b883a 	add	r5,r5,r5
   209bc:	203ffa1e 	bne	r4,zero,209a8 <__mulsi3+0x8>
   209c0:	f800283a 	ret
   209c4:	f800283a 	ret

000209c8 <__divsf3>:
   209c8:	defff604 	addi	sp,sp,-40
   209cc:	2006d5fa 	srli	r3,r4,23
   209d0:	dcc00415 	stw	r19,16(sp)
   209d4:	2026d7fa 	srli	r19,r4,31
   209d8:	00802034 	movhi	r2,128
   209dc:	dd000515 	stw	r20,20(sp)
   209e0:	dc400215 	stw	r17,8(sp)
   209e4:	10bfffc4 	addi	r2,r2,-1
   209e8:	dfc00915 	stw	ra,36(sp)
   209ec:	ddc00815 	stw	r23,32(sp)
   209f0:	dd800715 	stw	r22,28(sp)
   209f4:	dd400615 	stw	r21,24(sp)
   209f8:	dc800315 	stw	r18,12(sp)
   209fc:	dc000115 	stw	r16,4(sp)
   20a00:	18c03fcc 	andi	r3,r3,255
   20a04:	1128703a 	and	r20,r2,r4
   20a08:	9823883a 	mov	r17,r19
   20a0c:	18004d26 	beq	r3,zero,20b44 <__divsf3+0x17c>
   20a10:	18803fe0 	cmpeqi	r2,r3,255
   20a14:	1000501e 	bne	r2,zero,20b58 <__divsf3+0x190>
   20a18:	a00490fa 	slli	r2,r20,3
   20a1c:	1d7fe044 	addi	r21,r3,-127
   20a20:	0021883a 	mov	r16,zero
   20a24:	15010034 	orhi	r20,r2,1024
   20a28:	002f883a 	mov	r23,zero
   20a2c:	2806d5fa 	srli	r3,r5,23
   20a30:	01002034 	movhi	r4,128
   20a34:	213fffc4 	addi	r4,r4,-1
   20a38:	18c03fcc 	andi	r3,r3,255
   20a3c:	282cd7fa 	srli	r22,r5,31
   20a40:	2164703a 	and	r18,r4,r5
   20a44:	18002426 	beq	r3,zero,20ad8 <__divsf3+0x110>
   20a48:	18803fe0 	cmpeqi	r2,r3,255
   20a4c:	10001e1e 	bne	r2,zero,20ac8 <__divsf3+0x100>
   20a50:	900890fa 	slli	r4,r18,3
   20a54:	18ffe044 	addi	r3,r3,-127
   20a58:	000b883a 	mov	r5,zero
   20a5c:	24810034 	orhi	r18,r4,1024
   20a60:	9da6f03a 	xor	r19,r19,r22
   20a64:	80800428 	cmpgeui	r2,r16,16
   20a68:	9809883a 	mov	r4,r19
   20a6c:	a8ebc83a 	sub	r21,r21,r3
   20a70:	1000b11e 	bne	r2,zero,20d38 <__divsf3+0x370>
   20a74:	802090ba 	slli	r16,r16,2
   20a78:	008000b4 	movhi	r2,2
   20a7c:	8085883a 	add	r2,r16,r2
   20a80:	1082a217 	ldw	r2,2696(r2)
   20a84:	1000683a 	jmp	r2
   20a88:	00020d38 	rdprs	zero,zero,2100
   20a8c:	00020bd8 	cmpnei	zero,zero,2095
   20a90:	00020c24 	muli	zero,zero,2096
   20a94:	00020c58 	cmpnei	zero,zero,2097
   20a98:	00020c24 	muli	zero,zero,2096
   20a9c:	00020cb0 	cmpltui	zero,zero,2098
   20aa0:	00020c24 	muli	zero,zero,2096
   20aa4:	00020c58 	cmpnei	zero,zero,2097
   20aa8:	00020bd8 	cmpnei	zero,zero,2095
   20aac:	00020bd8 	cmpnei	zero,zero,2095
   20ab0:	00020cb0 	cmpltui	zero,zero,2098
   20ab4:	00020c58 	cmpnei	zero,zero,2097
   20ab8:	00020c34 	movhi	zero,2096
   20abc:	00020c34 	movhi	zero,2096
   20ac0:	00020c34 	movhi	zero,2096
   20ac4:	00020cc4 	movi	zero,2099
   20ac8:	90003f1e 	bne	r18,zero,20bc8 <__divsf3+0x200>
   20acc:	ad7fc044 	addi	r21,r21,-255
   20ad0:	00800084 	movi	r2,2
   20ad4:	00000206 	br	20ae0 <__divsf3+0x118>
   20ad8:	9000331e 	bne	r18,zero,20ba8 <__divsf3+0x1e0>
   20adc:	00800044 	movi	r2,1
   20ae0:	1420b03a 	or	r16,r2,r16
   20ae4:	9da6f03a 	xor	r19,r19,r22
   20ae8:	80c003e8 	cmpgeui	r3,r16,15
   20aec:	9809883a 	mov	r4,r19
   20af0:	1800391e 	bne	r3,zero,20bd8 <__divsf3+0x210>
   20af4:	802090ba 	slli	r16,r16,2
   20af8:	00c000b4 	movhi	r3,2
   20afc:	80c7883a 	add	r3,r16,r3
   20b00:	18c2c217 	ldw	r3,2824(r3)
   20b04:	1800683a 	jmp	r3
   20b08:	00020bd8 	cmpnei	zero,zero,2095
   20b0c:	00020bd8 	cmpnei	zero,zero,2095
   20b10:	00020c24 	muli	zero,zero,2096
   20b14:	00020d94 	movui	zero,2102
   20b18:	00020c24 	muli	zero,zero,2096
   20b1c:	00020cb0 	cmpltui	zero,zero,2098
   20b20:	00020c24 	muli	zero,zero,2096
   20b24:	00020d94 	movui	zero,2102
   20b28:	00020bd8 	cmpnei	zero,zero,2095
   20b2c:	00020bd8 	cmpnei	zero,zero,2095
   20b30:	00020cb0 	cmpltui	zero,zero,2098
   20b34:	00020d94 	movui	zero,2102
   20b38:	00020c34 	movhi	zero,2096
   20b3c:	00020c34 	movhi	zero,2096
   20b40:	00020c34 	movhi	zero,2096
   20b44:	a0000d1e 	bne	r20,zero,20b7c <__divsf3+0x1b4>
   20b48:	04000104 	movi	r16,4
   20b4c:	002b883a 	mov	r21,zero
   20b50:	05c00044 	movi	r23,1
   20b54:	003fb506 	br	20a2c <__divsf3+0x64>
   20b58:	a000041e 	bne	r20,zero,20b6c <__divsf3+0x1a4>
   20b5c:	04000204 	movi	r16,8
   20b60:	05403fc4 	movi	r21,255
   20b64:	05c00084 	movi	r23,2
   20b68:	003fb006 	br	20a2c <__divsf3+0x64>
   20b6c:	04000304 	movi	r16,12
   20b70:	05403fc4 	movi	r21,255
   20b74:	05c000c4 	movi	r23,3
   20b78:	003fac06 	br	20a2c <__divsf3+0x64>
   20b7c:	a009883a 	mov	r4,r20
   20b80:	d9400015 	stw	r5,0(sp)
   20b84:	0021e140 	call	21e14 <__clzsi2>
   20b88:	10fffec4 	addi	r3,r2,-5
   20b8c:	a0e8983a 	sll	r20,r20,r3
   20b90:	00ffe284 	movi	r3,-118
   20b94:	d9400017 	ldw	r5,0(sp)
   20b98:	18abc83a 	sub	r21,r3,r2
   20b9c:	0021883a 	mov	r16,zero
   20ba0:	002f883a 	mov	r23,zero
   20ba4:	003fa106 	br	20a2c <__divsf3+0x64>
   20ba8:	9009883a 	mov	r4,r18
   20bac:	0021e140 	call	21e14 <__clzsi2>
   20bb0:	10fffec4 	addi	r3,r2,-5
   20bb4:	90e4983a 	sll	r18,r18,r3
   20bb8:	00ffe284 	movi	r3,-118
   20bbc:	1887c83a 	sub	r3,r3,r2
   20bc0:	000b883a 	mov	r5,zero
   20bc4:	003fa606 	br	20a60 <__divsf3+0x98>
   20bc8:	840000d4 	ori	r16,r16,3
   20bcc:	00c03fc4 	movi	r3,255
   20bd0:	014000c4 	movi	r5,3
   20bd4:	003fa206 	br	20a60 <__divsf3+0x98>
   20bd8:	9823883a 	mov	r17,r19
   20bdc:	00ffffc4 	movi	r3,-1
   20be0:	0009883a 	mov	r4,zero
   20be4:	18803fcc 	andi	r2,r3,255
   20be8:	100495fa 	slli	r2,r2,23
   20bec:	882297fa 	slli	r17,r17,31
   20bf0:	1104b03a 	or	r2,r2,r4
   20bf4:	1444b03a 	or	r2,r2,r17
   20bf8:	dfc00917 	ldw	ra,36(sp)
   20bfc:	ddc00817 	ldw	r23,32(sp)
   20c00:	dd800717 	ldw	r22,28(sp)
   20c04:	dd400617 	ldw	r21,24(sp)
   20c08:	dd000517 	ldw	r20,20(sp)
   20c0c:	dcc00417 	ldw	r19,16(sp)
   20c10:	dc800317 	ldw	r18,12(sp)
   20c14:	dc400217 	ldw	r17,8(sp)
   20c18:	dc000117 	ldw	r16,4(sp)
   20c1c:	dec00a04 	addi	sp,sp,40
   20c20:	f800283a 	ret
   20c24:	2023883a 	mov	r17,r4
   20c28:	0007883a 	mov	r3,zero
   20c2c:	0009883a 	mov	r4,zero
   20c30:	003fec06 	br	20be4 <__divsf3+0x21c>
   20c34:	b88000a0 	cmpeqi	r2,r23,2
   20c38:	103fe81e 	bne	r2,zero,20bdc <__divsf3+0x214>
   20c3c:	b88000e0 	cmpeqi	r2,r23,3
   20c40:	1000241e 	bne	r2,zero,20cd4 <__divsf3+0x30c>
   20c44:	bdc00060 	cmpeqi	r23,r23,1
   20c48:	b8006126 	beq	r23,zero,20dd0 <__divsf3+0x408>
   20c4c:	0007883a 	mov	r3,zero
   20c50:	0009883a 	mov	r4,zero
   20c54:	003fe306 	br	20be4 <__divsf3+0x21c>
   20c58:	294000e0 	cmpeqi	r5,r5,3
   20c5c:	b023883a 	mov	r17,r22
   20c60:	28005d1e 	bne	r5,zero,20dd8 <__divsf3+0x410>
   20c64:	a8c01fc4 	addi	r3,r21,127
   20c68:	00c01f0e 	bge	zero,r3,20ce8 <__divsf3+0x320>
   20c6c:	908001cc 	andi	r2,r18,7
   20c70:	10000426 	beq	r2,zero,20c84 <__divsf3+0x2bc>
   20c74:	908003cc 	andi	r2,r18,15
   20c78:	10800120 	cmpeqi	r2,r2,4
   20c7c:	1000011e 	bne	r2,zero,20c84 <__divsf3+0x2bc>
   20c80:	94800104 	addi	r18,r18,4
   20c84:	9082002c 	andhi	r2,r18,2048
   20c88:	10000426 	beq	r2,zero,20c9c <__divsf3+0x2d4>
   20c8c:	00be0034 	movhi	r2,63488
   20c90:	10bfffc4 	addi	r2,r2,-1
   20c94:	90a4703a 	and	r18,r18,r2
   20c98:	a8c02004 	addi	r3,r21,128
   20c9c:	18803fc8 	cmpgei	r2,r3,255
   20ca0:	103fce1e 	bne	r2,zero,20bdc <__divsf3+0x214>
   20ca4:	900891ba 	slli	r4,r18,6
   20ca8:	2008d27a 	srli	r4,r4,9
   20cac:	003fcd06 	br	20be4 <__divsf3+0x21c>
   20cb0:	01002034 	movhi	r4,128
   20cb4:	0023883a 	mov	r17,zero
   20cb8:	213fffc4 	addi	r4,r4,-1
   20cbc:	00ffffc4 	movi	r3,-1
   20cc0:	003fc806 	br	20be4 <__divsf3+0x21c>
   20cc4:	a080102c 	andhi	r2,r20,64
   20cc8:	10000226 	beq	r2,zero,20cd4 <__divsf3+0x30c>
   20ccc:	9080102c 	andhi	r2,r18,64
   20cd0:	10003926 	beq	r2,zero,20db8 <__divsf3+0x3f0>
   20cd4:	00802034 	movhi	r2,128
   20cd8:	a1001034 	orhi	r4,r20,64
   20cdc:	10bfffc4 	addi	r2,r2,-1
   20ce0:	2088703a 	and	r4,r4,r2
   20ce4:	003ff506 	br	20cbc <__divsf3+0x2f4>
   20ce8:	00800044 	movi	r2,1
   20cec:	10c5c83a 	sub	r2,r2,r3
   20cf0:	10c00710 	cmplti	r3,r2,28
   20cf4:	183fd526 	beq	r3,zero,20c4c <__divsf3+0x284>
   20cf8:	a8c02784 	addi	r3,r21,158
   20cfc:	90c6983a 	sll	r3,r18,r3
   20d00:	9088d83a 	srl	r4,r18,r2
   20d04:	1806c03a 	cmpne	r3,r3,zero
   20d08:	20c8b03a 	or	r4,r4,r3
   20d0c:	208001cc 	andi	r2,r4,7
   20d10:	10000426 	beq	r2,zero,20d24 <__divsf3+0x35c>
   20d14:	208003cc 	andi	r2,r4,15
   20d18:	10800120 	cmpeqi	r2,r2,4
   20d1c:	1000011e 	bne	r2,zero,20d24 <__divsf3+0x35c>
   20d20:	21000104 	addi	r4,r4,4
   20d24:	2081002c 	andhi	r2,r4,1024
   20d28:	10001f26 	beq	r2,zero,20da8 <__divsf3+0x3e0>
   20d2c:	00c00044 	movi	r3,1
   20d30:	0009883a 	mov	r4,zero
   20d34:	003fab06 	br	20be4 <__divsf3+0x21c>
   20d38:	a004917a 	slli	r2,r20,5
   20d3c:	900c917a 	slli	r6,r18,5
   20d40:	1180102e 	bgeu	r2,r6,20d84 <__divsf3+0x3bc>
   20d44:	ad7fffc4 	addi	r21,r21,-1
   20d48:	014006c4 	movi	r5,27
   20d4c:	0009883a 	mov	r4,zero
   20d50:	1007883a 	mov	r3,r2
   20d54:	297fffc4 	addi	r5,r5,-1
   20d58:	1085883a 	add	r2,r2,r2
   20d5c:	2109883a 	add	r4,r4,r4
   20d60:	18000116 	blt	r3,zero,20d68 <__divsf3+0x3a0>
   20d64:	11800236 	bltu	r2,r6,20d70 <__divsf3+0x3a8>
   20d68:	1185c83a 	sub	r2,r2,r6
   20d6c:	21000054 	ori	r4,r4,1
   20d70:	283ff71e 	bne	r5,zero,20d50 <__divsf3+0x388>
   20d74:	1004c03a 	cmpne	r2,r2,zero
   20d78:	1124b03a 	or	r18,r2,r4
   20d7c:	9823883a 	mov	r17,r19
   20d80:	003fb806 	br	20c64 <__divsf3+0x29c>
   20d84:	1185c83a 	sub	r2,r2,r6
   20d88:	01400684 	movi	r5,26
   20d8c:	01000044 	movi	r4,1
   20d90:	003fef06 	br	20d50 <__divsf3+0x388>
   20d94:	108000a0 	cmpeqi	r2,r2,2
   20d98:	0087c83a 	sub	r3,zero,r2
   20d9c:	b023883a 	mov	r17,r22
   20da0:	0009883a 	mov	r4,zero
   20da4:	003f8f06 	br	20be4 <__divsf3+0x21c>
   20da8:	200891ba 	slli	r4,r4,6
   20dac:	0007883a 	mov	r3,zero
   20db0:	2008d27a 	srli	r4,r4,9
   20db4:	003f8b06 	br	20be4 <__divsf3+0x21c>
   20db8:	00802034 	movhi	r2,128
   20dbc:	91001034 	orhi	r4,r18,64
   20dc0:	10bfffc4 	addi	r2,r2,-1
   20dc4:	2088703a 	and	r4,r4,r2
   20dc8:	b023883a 	mov	r17,r22
   20dcc:	003fbb06 	br	20cbc <__divsf3+0x2f4>
   20dd0:	a025883a 	mov	r18,r20
   20dd4:	003fa306 	br	20c64 <__divsf3+0x29c>
   20dd8:	9029883a 	mov	r20,r18
   20ddc:	003fbd06 	br	20cd4 <__divsf3+0x30c>

00020de0 <__mulsf3>:
   20de0:	defff504 	addi	sp,sp,-44
   20de4:	2004d5fa 	srli	r2,r4,23
   20de8:	dd800715 	stw	r22,28(sp)
   20dec:	202cd7fa 	srli	r22,r4,31
   20df0:	00c02034 	movhi	r3,128
   20df4:	dd400615 	stw	r21,24(sp)
   20df8:	dd000515 	stw	r20,20(sp)
   20dfc:	18ffffc4 	addi	r3,r3,-1
   20e00:	dfc00a15 	stw	ra,40(sp)
   20e04:	df000915 	stw	fp,36(sp)
   20e08:	ddc00815 	stw	r23,32(sp)
   20e0c:	dcc00415 	stw	r19,16(sp)
   20e10:	dc800315 	stw	r18,12(sp)
   20e14:	dc400215 	stw	r17,8(sp)
   20e18:	dc000115 	stw	r16,4(sp)
   20e1c:	10803fcc 	andi	r2,r2,255
   20e20:	192a703a 	and	r21,r3,r4
   20e24:	b029883a 	mov	r20,r22
   20e28:	10006d26 	beq	r2,zero,20fe0 <__mulsf3+0x200>
   20e2c:	10c03fe0 	cmpeqi	r3,r2,255
   20e30:	1800701e 	bne	r3,zero,20ff4 <__mulsf3+0x214>
   20e34:	a80890fa 	slli	r4,r21,3
   20e38:	14ffe044 	addi	r19,r2,-127
   20e3c:	0023883a 	mov	r17,zero
   20e40:	25410034 	orhi	r21,r4,1024
   20e44:	0039883a 	mov	fp,zero
   20e48:	2804d5fa 	srli	r2,r5,23
   20e4c:	04002034 	movhi	r16,128
   20e50:	843fffc4 	addi	r16,r16,-1
   20e54:	10803fcc 	andi	r2,r2,255
   20e58:	282ed7fa 	srli	r23,r5,31
   20e5c:	8160703a 	and	r16,r16,r5
   20e60:	10005726 	beq	r2,zero,20fc0 <__mulsf3+0x1e0>
   20e64:	10c03fe0 	cmpeqi	r3,r2,255
   20e68:	1800251e 	bne	r3,zero,20f00 <__mulsf3+0x120>
   20e6c:	802090fa 	slli	r16,r16,3
   20e70:	10bfe044 	addi	r2,r2,-127
   20e74:	14e5883a 	add	r18,r2,r19
   20e78:	888002c8 	cmpgei	r2,r17,11
   20e7c:	84010034 	orhi	r16,r16,1024
   20e80:	0007883a 	mov	r3,zero
   20e84:	94c00044 	addi	r19,r18,1
   20e88:	10002a1e 	bne	r2,zero,20f34 <__mulsf3+0x154>
   20e8c:	bda8f03a 	xor	r20,r23,r22
   20e90:	888000c8 	cmpgei	r2,r17,3
   20e94:	1000231e 	bne	r2,zero,20f24 <__mulsf3+0x144>
   20e98:	8c7fffc4 	addi	r17,r17,-1
   20e9c:	8c4000a8 	cmpgeui	r17,r17,2
   20ea0:	8800961e 	bne	r17,zero,210fc <__mulsf3+0x31c>
   20ea4:	188000a0 	cmpeqi	r2,r3,2
   20ea8:	1000571e 	bne	r2,zero,21008 <__mulsf3+0x228>
   20eac:	18c00060 	cmpeqi	r3,r3,1
   20eb0:	18002826 	beq	r3,zero,20f54 <__mulsf3+0x174>
   20eb4:	0007883a 	mov	r3,zero
   20eb8:	0009883a 	mov	r4,zero
   20ebc:	18803fcc 	andi	r2,r3,255
   20ec0:	100495fa 	slli	r2,r2,23
   20ec4:	a02897fa 	slli	r20,r20,31
   20ec8:	1104b03a 	or	r2,r2,r4
   20ecc:	1504b03a 	or	r2,r2,r20
   20ed0:	dfc00a17 	ldw	ra,40(sp)
   20ed4:	df000917 	ldw	fp,36(sp)
   20ed8:	ddc00817 	ldw	r23,32(sp)
   20edc:	dd800717 	ldw	r22,28(sp)
   20ee0:	dd400617 	ldw	r21,24(sp)
   20ee4:	dd000517 	ldw	r20,20(sp)
   20ee8:	dcc00417 	ldw	r19,16(sp)
   20eec:	dc800317 	ldw	r18,12(sp)
   20ef0:	dc400217 	ldw	r17,8(sp)
   20ef4:	dc000117 	ldw	r16,4(sp)
   20ef8:	dec00b04 	addi	sp,sp,44
   20efc:	f800283a 	ret
   20f00:	9c803fc4 	addi	r18,r19,255
   20f04:	80004826 	beq	r16,zero,21028 <__mulsf3+0x248>
   20f08:	8c4000d4 	ori	r17,r17,3
   20f0c:	888002c8 	cmpgei	r2,r17,11
   20f10:	bdacf03a 	xor	r22,r23,r22
   20f14:	9cc04004 	addi	r19,r19,256
   20f18:	1000af1e 	bne	r2,zero,211d8 <__mulsf3+0x3f8>
   20f1c:	b029883a 	mov	r20,r22
   20f20:	00c000c4 	movi	r3,3
   20f24:	00800044 	movi	r2,1
   20f28:	1444983a 	sll	r2,r2,r17
   20f2c:	11014c0c 	andi	r4,r2,1328
   20f30:	20001b26 	beq	r4,zero,20fa0 <__mulsf3+0x1c0>
   20f34:	e08000a0 	cmpeqi	r2,fp,2
   20f38:	1000331e 	bne	r2,zero,21008 <__mulsf3+0x228>
   20f3c:	e08000e0 	cmpeqi	r2,fp,3
   20f40:	10009a1e 	bne	r2,zero,211ac <__mulsf3+0x3cc>
   20f44:	e007883a 	mov	r3,fp
   20f48:	18c00060 	cmpeqi	r3,r3,1
   20f4c:	a821883a 	mov	r16,r21
   20f50:	183fd81e 	bne	r3,zero,20eb4 <__mulsf3+0xd4>
   20f54:	98c01fc4 	addi	r3,r19,127
   20f58:	00c0540e 	bge	zero,r3,210ac <__mulsf3+0x2cc>
   20f5c:	808001cc 	andi	r2,r16,7
   20f60:	10000426 	beq	r2,zero,20f74 <__mulsf3+0x194>
   20f64:	808003cc 	andi	r2,r16,15
   20f68:	10800120 	cmpeqi	r2,r2,4
   20f6c:	1000011e 	bne	r2,zero,20f74 <__mulsf3+0x194>
   20f70:	84000104 	addi	r16,r16,4
   20f74:	8082002c 	andhi	r2,r16,2048
   20f78:	10000426 	beq	r2,zero,20f8c <__mulsf3+0x1ac>
   20f7c:	00be0034 	movhi	r2,63488
   20f80:	10bfffc4 	addi	r2,r2,-1
   20f84:	80a0703a 	and	r16,r16,r2
   20f88:	98c02004 	addi	r3,r19,128
   20f8c:	18803fc8 	cmpgei	r2,r3,255
   20f90:	10001d1e 	bne	r2,zero,21008 <__mulsf3+0x228>
   20f94:	800891ba 	slli	r4,r16,6
   20f98:	2008d27a 	srli	r4,r4,9
   20f9c:	003fc706 	br	20ebc <__mulsf3+0xdc>
   20fa0:	1100900c 	andi	r4,r2,576
   20fa4:	20001b1e 	bne	r4,zero,21014 <__mulsf3+0x234>
   20fa8:	1080220c 	andi	r2,r2,136
   20fac:	10005326 	beq	r2,zero,210fc <__mulsf3+0x31c>
   20fb0:	b829883a 	mov	r20,r23
   20fb4:	802b883a 	mov	r21,r16
   20fb8:	1839883a 	mov	fp,r3
   20fbc:	003fdd06 	br	20f34 <__mulsf3+0x154>
   20fc0:	80002f1e 	bne	r16,zero,21080 <__mulsf3+0x2a0>
   20fc4:	8c400054 	ori	r17,r17,1
   20fc8:	9825883a 	mov	r18,r19
   20fcc:	888002c8 	cmpgei	r2,r17,11
   20fd0:	00c00044 	movi	r3,1
   20fd4:	94c00044 	addi	r19,r18,1
   20fd8:	103fac26 	beq	r2,zero,20e8c <__mulsf3+0xac>
   20fdc:	003fd506 	br	20f34 <__mulsf3+0x154>
   20fe0:	a8001c1e 	bne	r21,zero,21054 <__mulsf3+0x274>
   20fe4:	04400104 	movi	r17,4
   20fe8:	0027883a 	mov	r19,zero
   20fec:	07000044 	movi	fp,1
   20ff0:	003f9506 	br	20e48 <__mulsf3+0x68>
   20ff4:	a800131e 	bne	r21,zero,21044 <__mulsf3+0x264>
   20ff8:	04400204 	movi	r17,8
   20ffc:	04c03fc4 	movi	r19,255
   21000:	07000084 	movi	fp,2
   21004:	003f9006 	br	20e48 <__mulsf3+0x68>
   21008:	00ffffc4 	movi	r3,-1
   2100c:	0009883a 	mov	r4,zero
   21010:	003faa06 	br	20ebc <__mulsf3+0xdc>
   21014:	01002034 	movhi	r4,128
   21018:	0029883a 	mov	r20,zero
   2101c:	213fffc4 	addi	r4,r4,-1
   21020:	00ffffc4 	movi	r3,-1
   21024:	003fa506 	br	20ebc <__mulsf3+0xdc>
   21028:	8c400094 	ori	r17,r17,2
   2102c:	888002c8 	cmpgei	r2,r17,11
   21030:	9cc04004 	addi	r19,r19,256
   21034:	103fbf1e 	bne	r2,zero,20f34 <__mulsf3+0x154>
   21038:	bda8f03a 	xor	r20,r23,r22
   2103c:	00c00084 	movi	r3,2
   21040:	003f9306 	br	20e90 <__mulsf3+0xb0>
   21044:	04400304 	movi	r17,12
   21048:	04c03fc4 	movi	r19,255
   2104c:	070000c4 	movi	fp,3
   21050:	003f7d06 	br	20e48 <__mulsf3+0x68>
   21054:	a809883a 	mov	r4,r21
   21058:	d9400015 	stw	r5,0(sp)
   2105c:	0021e140 	call	21e14 <__clzsi2>
   21060:	10fffec4 	addi	r3,r2,-5
   21064:	04ffe284 	movi	r19,-118
   21068:	a8ea983a 	sll	r21,r21,r3
   2106c:	d9400017 	ldw	r5,0(sp)
   21070:	98a7c83a 	sub	r19,r19,r2
   21074:	0023883a 	mov	r17,zero
   21078:	0039883a 	mov	fp,zero
   2107c:	003f7206 	br	20e48 <__mulsf3+0x68>
   21080:	8009883a 	mov	r4,r16
   21084:	0021e140 	call	21e14 <__clzsi2>
   21088:	10fffec4 	addi	r3,r2,-5
   2108c:	9885c83a 	sub	r2,r19,r2
   21090:	14bfe284 	addi	r18,r2,-118
   21094:	888002c8 	cmpgei	r2,r17,11
   21098:	80e0983a 	sll	r16,r16,r3
   2109c:	94c00044 	addi	r19,r18,1
   210a0:	0007883a 	mov	r3,zero
   210a4:	103f7926 	beq	r2,zero,20e8c <__mulsf3+0xac>
   210a8:	003fa206 	br	20f34 <__mulsf3+0x154>
   210ac:	00800044 	movi	r2,1
   210b0:	10c7c83a 	sub	r3,r2,r3
   210b4:	18800708 	cmpgei	r2,r3,28
   210b8:	103f7e1e 	bne	r2,zero,20eb4 <__mulsf3+0xd4>
   210bc:	98802784 	addi	r2,r19,158
   210c0:	8084983a 	sll	r2,r16,r2
   210c4:	80c6d83a 	srl	r3,r16,r3
   210c8:	1004c03a 	cmpne	r2,r2,zero
   210cc:	1886b03a 	or	r3,r3,r2
   210d0:	188001cc 	andi	r2,r3,7
   210d4:	10000426 	beq	r2,zero,210e8 <__mulsf3+0x308>
   210d8:	188003cc 	andi	r2,r3,15
   210dc:	10800120 	cmpeqi	r2,r2,4
   210e0:	1000011e 	bne	r2,zero,210e8 <__mulsf3+0x308>
   210e4:	18c00104 	addi	r3,r3,4
   210e8:	1881002c 	andhi	r2,r3,1024
   210ec:	10003626 	beq	r2,zero,211c8 <__mulsf3+0x3e8>
   210f0:	00c00044 	movi	r3,1
   210f4:	0009883a 	mov	r4,zero
   210f8:	003f7006 	br	20ebc <__mulsf3+0xdc>
   210fc:	847fffcc 	andi	r17,r16,65535
   21100:	a82ed43a 	srli	r23,r21,16
   21104:	ad7fffcc 	andi	r21,r21,65535
   21108:	880b883a 	mov	r5,r17
   2110c:	a809883a 	mov	r4,r21
   21110:	00209a00 	call	209a0 <__mulsi3>
   21114:	8020d43a 	srli	r16,r16,16
   21118:	880b883a 	mov	r5,r17
   2111c:	b809883a 	mov	r4,r23
   21120:	1023883a 	mov	r17,r2
   21124:	00209a00 	call	209a0 <__mulsi3>
   21128:	800b883a 	mov	r5,r16
   2112c:	b809883a 	mov	r4,r23
   21130:	102d883a 	mov	r22,r2
   21134:	00209a00 	call	209a0 <__mulsi3>
   21138:	a80b883a 	mov	r5,r21
   2113c:	8009883a 	mov	r4,r16
   21140:	102b883a 	mov	r21,r2
   21144:	00209a00 	call	209a0 <__mulsi3>
   21148:	8806d43a 	srli	r3,r17,16
   2114c:	1585883a 	add	r2,r2,r22
   21150:	1887883a 	add	r3,r3,r2
   21154:	1d80022e 	bgeu	r3,r22,21160 <__mulsf3+0x380>
   21158:	00800074 	movhi	r2,1
   2115c:	a8ab883a 	add	r21,r21,r2
   21160:	1808943a 	slli	r4,r3,16
   21164:	1820d43a 	srli	r16,r3,16
   21168:	8c7fffcc 	andi	r17,r17,65535
   2116c:	2447883a 	add	r3,r4,r17
   21170:	180491ba 	slli	r2,r3,6
   21174:	8561883a 	add	r16,r16,r21
   21178:	802091ba 	slli	r16,r16,6
   2117c:	1806d6ba 	srli	r3,r3,26
   21180:	1004c03a 	cmpne	r2,r2,zero
   21184:	8102002c 	andhi	r4,r16,2048
   21188:	10c4b03a 	or	r2,r2,r3
   2118c:	80a0b03a 	or	r16,r16,r2
   21190:	20000b26 	beq	r4,zero,211c0 <__mulsf3+0x3e0>
   21194:	8004d07a 	srli	r2,r16,1
   21198:	8400004c 	andi	r16,r16,1
   2119c:	1420b03a 	or	r16,r2,r16
   211a0:	003f6c06 	br	20f54 <__mulsf3+0x174>
   211a4:	b829883a 	mov	r20,r23
   211a8:	802b883a 	mov	r21,r16
   211ac:	00802034 	movhi	r2,128
   211b0:	a9001034 	orhi	r4,r21,64
   211b4:	10bfffc4 	addi	r2,r2,-1
   211b8:	2088703a 	and	r4,r4,r2
   211bc:	003f9806 	br	21020 <__mulsf3+0x240>
   211c0:	9027883a 	mov	r19,r18
   211c4:	003f6306 	br	20f54 <__mulsf3+0x174>
   211c8:	180891ba 	slli	r4,r3,6
   211cc:	0007883a 	mov	r3,zero
   211d0:	2008d27a 	srli	r4,r4,9
   211d4:	003f3906 	br	20ebc <__mulsf3+0xdc>
   211d8:	8c4003e0 	cmpeqi	r17,r17,15
   211dc:	883ff126 	beq	r17,zero,211a4 <__mulsf3+0x3c4>
   211e0:	a880102c 	andhi	r2,r21,64
   211e4:	103ff126 	beq	r2,zero,211ac <__mulsf3+0x3cc>
   211e8:	2940102c 	andhi	r5,r5,64
   211ec:	283fef1e 	bne	r5,zero,211ac <__mulsf3+0x3cc>
   211f0:	81001034 	orhi	r4,r16,64
   211f4:	b829883a 	mov	r20,r23
   211f8:	003f8906 	br	21020 <__mulsf3+0x240>

000211fc <__fixsfsi>:
   211fc:	200ad5fa 	srli	r5,r4,23
   21200:	00c02034 	movhi	r3,128
   21204:	18ffffc4 	addi	r3,r3,-1
   21208:	29403fcc 	andi	r5,r5,255
   2120c:	28801fd0 	cmplti	r2,r5,127
   21210:	200cd7fa 	srli	r6,r4,31
   21214:	1906703a 	and	r3,r3,r4
   21218:	1000061e 	bne	r2,zero,21234 <__fixsfsi+0x38>
   2121c:	28802790 	cmplti	r2,r5,158
   21220:	1000061e 	bne	r2,zero,2123c <__fixsfsi+0x40>
   21224:	00a00034 	movhi	r2,32768
   21228:	10bfffc4 	addi	r2,r2,-1
   2122c:	3085883a 	add	r2,r6,r2
   21230:	f800283a 	ret
   21234:	0005883a 	mov	r2,zero
   21238:	f800283a 	ret
   2123c:	29002590 	cmplti	r4,r5,150
   21240:	18802034 	orhi	r2,r3,128
   21244:	2000051e 	bne	r4,zero,2125c <__fixsfsi+0x60>
   21248:	297fda84 	addi	r5,r5,-150
   2124c:	1144983a 	sll	r2,r2,r5
   21250:	303ff926 	beq	r6,zero,21238 <__fixsfsi+0x3c>
   21254:	0085c83a 	sub	r2,zero,r2
   21258:	f800283a 	ret
   2125c:	00c02584 	movi	r3,150
   21260:	1947c83a 	sub	r3,r3,r5
   21264:	10c4d83a 	srl	r2,r2,r3
   21268:	003ff906 	br	21250 <__fixsfsi+0x54>

0002126c <__floatsisf>:
   2126c:	defffd04 	addi	sp,sp,-12
   21270:	dfc00215 	stw	ra,8(sp)
   21274:	dc400115 	stw	r17,4(sp)
   21278:	dc000015 	stw	r16,0(sp)
   2127c:	20001226 	beq	r4,zero,212c8 <__floatsisf+0x5c>
   21280:	2022d7fa 	srli	r17,r4,31
   21284:	2021883a 	mov	r16,r4
   21288:	20003316 	blt	r4,zero,21358 <__floatsisf+0xec>
   2128c:	8009883a 	mov	r4,r16
   21290:	0021e140 	call	21e14 <__clzsi2>
   21294:	1009883a 	mov	r4,r2
   21298:	00802784 	movi	r2,158
   2129c:	1105c83a 	sub	r2,r2,r4
   212a0:	10c025c8 	cmpgei	r3,r2,151
   212a4:	1800151e 	bne	r3,zero,212fc <__floatsisf+0x90>
   212a8:	20c00218 	cmpnei	r3,r4,8
   212ac:	18003426 	beq	r3,zero,21380 <__floatsisf+0x114>
   212b0:	20fffe04 	addi	r3,r4,-8
   212b4:	80c6983a 	sll	r3,r16,r3
   212b8:	01002034 	movhi	r4,128
   212bc:	213fffc4 	addi	r4,r4,-1
   212c0:	1906703a 	and	r3,r3,r4
   212c4:	00000306 	br	212d4 <__floatsisf+0x68>
   212c8:	0023883a 	mov	r17,zero
   212cc:	0005883a 	mov	r2,zero
   212d0:	0007883a 	mov	r3,zero
   212d4:	10803fcc 	andi	r2,r2,255
   212d8:	100495fa 	slli	r2,r2,23
   212dc:	880897fa 	slli	r4,r17,31
   212e0:	10c4b03a 	or	r2,r2,r3
   212e4:	1104b03a 	or	r2,r2,r4
   212e8:	dfc00217 	ldw	ra,8(sp)
   212ec:	dc400117 	ldw	r17,4(sp)
   212f0:	dc000017 	ldw	r16,0(sp)
   212f4:	dec00304 	addi	sp,sp,12
   212f8:	f800283a 	ret
   212fc:	10c02690 	cmplti	r3,r2,154
   21300:	18001726 	beq	r3,zero,21360 <__floatsisf+0xf4>
   21304:	20c00160 	cmpeqi	r3,r4,5
   21308:	217ffec4 	addi	r5,r4,-5
   2130c:	1800011e 	bne	r3,zero,21314 <__floatsisf+0xa8>
   21310:	8160983a 	sll	r16,r16,r5
   21314:	017f0034 	movhi	r5,64512
   21318:	297fffc4 	addi	r5,r5,-1
   2131c:	818001cc 	andi	r6,r16,7
   21320:	8146703a 	and	r3,r16,r5
   21324:	30000926 	beq	r6,zero,2134c <__floatsisf+0xe0>
   21328:	840003cc 	andi	r16,r16,15
   2132c:	84000120 	cmpeqi	r16,r16,4
   21330:	8000061e 	bne	r16,zero,2134c <__floatsisf+0xe0>
   21334:	18c00104 	addi	r3,r3,4
   21338:	1981002c 	andhi	r6,r3,1024
   2133c:	30000326 	beq	r6,zero,2134c <__floatsisf+0xe0>
   21340:	008027c4 	movi	r2,159
   21344:	1946703a 	and	r3,r3,r5
   21348:	1105c83a 	sub	r2,r2,r4
   2134c:	180691ba 	slli	r3,r3,6
   21350:	1806d27a 	srli	r3,r3,9
   21354:	003fdf06 	br	212d4 <__floatsisf+0x68>
   21358:	0121c83a 	sub	r16,zero,r4
   2135c:	003fcb06 	br	2128c <__floatsisf+0x20>
   21360:	20c006c4 	addi	r3,r4,27
   21364:	01400144 	movi	r5,5
   21368:	80c6983a 	sll	r3,r16,r3
   2136c:	290bc83a 	sub	r5,r5,r4
   21370:	8160d83a 	srl	r16,r16,r5
   21374:	1806c03a 	cmpne	r3,r3,zero
   21378:	80e0b03a 	or	r16,r16,r3
   2137c:	003fe506 	br	21314 <__floatsisf+0xa8>
   21380:	00c02034 	movhi	r3,128
   21384:	18ffffc4 	addi	r3,r3,-1
   21388:	80c6703a 	and	r3,r16,r3
   2138c:	00bfe584 	movi	r2,-106
   21390:	003fd006 	br	212d4 <__floatsisf+0x68>

00021394 <__adddf3>:
   21394:	00c00434 	movhi	r3,16
   21398:	18ffffc4 	addi	r3,r3,-1
   2139c:	defffa04 	addi	sp,sp,-24
   213a0:	2810d7fa 	srli	r8,r5,31
   213a4:	3804d53a 	srli	r2,r7,20
   213a8:	28d4703a 	and	r10,r5,r3
   213ac:	38d2703a 	and	r9,r7,r3
   213b0:	280ad53a 	srli	r5,r5,20
   213b4:	501490fa 	slli	r10,r10,3
   213b8:	481290fa 	slli	r9,r9,3
   213bc:	3016d77a 	srli	r11,r6,29
   213c0:	dc400115 	stw	r17,4(sp)
   213c4:	380ed7fa 	srli	r7,r7,31
   213c8:	2022d77a 	srli	r17,r4,29
   213cc:	dd000415 	stw	r20,16(sp)
   213d0:	dcc00315 	stw	r19,12(sp)
   213d4:	dc000015 	stw	r16,0(sp)
   213d8:	1081ffcc 	andi	r2,r2,2047
   213dc:	2c01ffcc 	andi	r16,r5,2047
   213e0:	dfc00515 	stw	ra,20(sp)
   213e4:	dc800215 	stw	r18,8(sp)
   213e8:	201890fa 	slli	r12,r4,3
   213ec:	301a90fa 	slli	r13,r6,3
   213f0:	4027883a 	mov	r19,r8
   213f4:	45003fcc 	andi	r20,r8,255
   213f8:	8aa2b03a 	or	r17,r17,r10
   213fc:	5a56b03a 	or	r11,r11,r9
   21400:	808bc83a 	sub	r5,r16,r2
   21404:	41c07526 	beq	r8,r7,215dc <__adddf3+0x248>
   21408:	0140540e 	bge	zero,r5,2155c <__adddf3+0x1c8>
   2140c:	10008b26 	beq	r2,zero,2163c <__adddf3+0x2a8>
   21410:	8081ffe0 	cmpeqi	r2,r16,2047
   21414:	10010d1e 	bne	r2,zero,2184c <__adddf3+0x4b8>
   21418:	28800e48 	cmpgei	r2,r5,57
   2141c:	1000c11e 	bne	r2,zero,21724 <__adddf3+0x390>
   21420:	5ac02034 	orhi	r11,r11,128
   21424:	28800808 	cmpgei	r2,r5,32
   21428:	1001461e 	bne	r2,zero,21944 <__adddf3+0x5b0>
   2142c:	00800804 	movi	r2,32
   21430:	1145c83a 	sub	r2,r2,r5
   21434:	58a4983a 	sll	r18,r11,r2
   21438:	6946d83a 	srl	r3,r13,r5
   2143c:	6884983a 	sll	r2,r13,r2
   21440:	594ad83a 	srl	r5,r11,r5
   21444:	90e4b03a 	or	r18,r18,r3
   21448:	1004c03a 	cmpne	r2,r2,zero
   2144c:	90a4b03a 	or	r18,r18,r2
   21450:	8963c83a 	sub	r17,r17,r5
   21454:	64a5c83a 	sub	r18,r12,r18
   21458:	6485803a 	cmpltu	r2,r12,r18
   2145c:	88a3c83a 	sub	r17,r17,r2
   21460:	8880202c 	andhi	r2,r17,128
   21464:	1000b826 	beq	r2,zero,21748 <__adddf3+0x3b4>
   21468:	00802034 	movhi	r2,128
   2146c:	10bfffc4 	addi	r2,r2,-1
   21470:	88a2703a 	and	r17,r17,r2
   21474:	8800d026 	beq	r17,zero,217b8 <__adddf3+0x424>
   21478:	8809883a 	mov	r4,r17
   2147c:	0021e140 	call	21e14 <__clzsi2>
   21480:	113ffe04 	addi	r4,r2,-8
   21484:	00c00804 	movi	r3,32
   21488:	1905c83a 	sub	r2,r3,r4
   2148c:	9084d83a 	srl	r2,r18,r2
   21490:	8922983a 	sll	r17,r17,r4
   21494:	9124983a 	sll	r18,r18,r4
   21498:	1444b03a 	or	r2,r2,r17
   2149c:	2400ff16 	blt	r4,r16,2189c <__adddf3+0x508>
   214a0:	2409c83a 	sub	r4,r4,r16
   214a4:	21000044 	addi	r4,r4,1
   214a8:	1907c83a 	sub	r3,r3,r4
   214ac:	90ca983a 	sll	r5,r18,r3
   214b0:	9122d83a 	srl	r17,r18,r4
   214b4:	280ac03a 	cmpne	r5,r5,zero
   214b8:	10c6983a 	sll	r3,r2,r3
   214bc:	894ab03a 	or	r5,r17,r5
   214c0:	1122d83a 	srl	r17,r2,r4
   214c4:	0021883a 	mov	r16,zero
   214c8:	1964b03a 	or	r18,r3,r5
   214cc:	908001cc 	andi	r2,r18,7
   214d0:	10000726 	beq	r2,zero,214f0 <__adddf3+0x15c>
   214d4:	908003cc 	andi	r2,r18,15
   214d8:	10800120 	cmpeqi	r2,r2,4
   214dc:	1000041e 	bne	r2,zero,214f0 <__adddf3+0x15c>
   214e0:	90800104 	addi	r2,r18,4
   214e4:	14a5803a 	cmpltu	r18,r2,r18
   214e8:	8ca3883a 	add	r17,r17,r18
   214ec:	1025883a 	mov	r18,r2
   214f0:	8880202c 	andhi	r2,r17,128
   214f4:	1000c926 	beq	r2,zero,2181c <__adddf3+0x488>
   214f8:	8081ffa0 	cmpeqi	r2,r16,2046
   214fc:	84000044 	addi	r16,r16,1
   21500:	1000841e 	bne	r2,zero,21714 <__adddf3+0x380>
   21504:	013fe034 	movhi	r4,65408
   21508:	213fffc4 	addi	r4,r4,-1
   2150c:	8908703a 	and	r4,r17,r4
   21510:	2004977a 	slli	r2,r4,29
   21514:	2008927a 	slli	r4,r4,9
   21518:	9024d0fa 	srli	r18,r18,3
   2151c:	80c1ffcc 	andi	r3,r16,2047
   21520:	2008d33a 	srli	r4,r4,12
   21524:	1484b03a 	or	r2,r2,r18
   21528:	a027883a 	mov	r19,r20
   2152c:	1806953a 	slli	r3,r3,20
   21530:	982697fa 	slli	r19,r19,31
   21534:	1906b03a 	or	r3,r3,r4
   21538:	1cc6b03a 	or	r3,r3,r19
   2153c:	dfc00517 	ldw	ra,20(sp)
   21540:	dd000417 	ldw	r20,16(sp)
   21544:	dcc00317 	ldw	r19,12(sp)
   21548:	dc800217 	ldw	r18,8(sp)
   2154c:	dc400117 	ldw	r17,4(sp)
   21550:	dc000017 	ldw	r16,0(sp)
   21554:	dec00604 	addi	sp,sp,24
   21558:	f800283a 	ret
   2155c:	3a803fcc 	andi	r10,r7,255
   21560:	28004026 	beq	r5,zero,21664 <__adddf3+0x2d0>
   21564:	140bc83a 	sub	r5,r2,r16
   21568:	8000e61e 	bne	r16,zero,21904 <__adddf3+0x570>
   2156c:	8b06b03a 	or	r3,r17,r12
   21570:	1800c426 	beq	r3,zero,21884 <__adddf3+0x4f0>
   21574:	28ffffc4 	addi	r3,r5,-1
   21578:	18017a26 	beq	r3,zero,21b64 <__adddf3+0x7d0>
   2157c:	2941ffe0 	cmpeqi	r5,r5,2047
   21580:	28019a1e 	bne	r5,zero,21bec <__adddf3+0x858>
   21584:	19000e48 	cmpgei	r4,r3,57
   21588:	20010c1e 	bne	r4,zero,219bc <__adddf3+0x628>
   2158c:	180b883a 	mov	r5,r3
   21590:	28c00808 	cmpgei	r3,r5,32
   21594:	1801521e 	bne	r3,zero,21ae0 <__adddf3+0x74c>
   21598:	00c00804 	movi	r3,32
   2159c:	1947c83a 	sub	r3,r3,r5
   215a0:	88e4983a 	sll	r18,r17,r3
   215a4:	6148d83a 	srl	r4,r12,r5
   215a8:	60c6983a 	sll	r3,r12,r3
   215ac:	894ad83a 	srl	r5,r17,r5
   215b0:	9124b03a 	or	r18,r18,r4
   215b4:	1806c03a 	cmpne	r3,r3,zero
   215b8:	90e4b03a 	or	r18,r18,r3
   215bc:	5957c83a 	sub	r11,r11,r5
   215c0:	6ca5c83a 	sub	r18,r13,r18
   215c4:	6c9b803a 	cmpltu	r13,r13,r18
   215c8:	5b63c83a 	sub	r17,r11,r13
   215cc:	3827883a 	mov	r19,r7
   215d0:	1021883a 	mov	r16,r2
   215d4:	5029883a 	mov	r20,r10
   215d8:	003fa106 	br	21460 <__adddf3+0xcc>
   215dc:	01405d0e 	bge	zero,r5,21754 <__adddf3+0x3c0>
   215e0:	1000351e 	bne	r2,zero,216b8 <__adddf3+0x324>
   215e4:	5b44b03a 	or	r2,r11,r13
   215e8:	1000a926 	beq	r2,zero,21890 <__adddf3+0x4fc>
   215ec:	28bfffc4 	addi	r2,r5,-1
   215f0:	10004e26 	beq	r2,zero,2172c <__adddf3+0x398>
   215f4:	2941ffe0 	cmpeqi	r5,r5,2047
   215f8:	2801121e 	bne	r5,zero,21a44 <__adddf3+0x6b0>
   215fc:	10c00e48 	cmpgei	r3,r2,57
   21600:	1800311e 	bne	r3,zero,216c8 <__adddf3+0x334>
   21604:	100b883a 	mov	r5,r2
   21608:	28800808 	cmpgei	r2,r5,32
   2160c:	1001181e 	bne	r2,zero,21a70 <__adddf3+0x6dc>
   21610:	00800804 	movi	r2,32
   21614:	1145c83a 	sub	r2,r2,r5
   21618:	58a4983a 	sll	r18,r11,r2
   2161c:	6946d83a 	srl	r3,r13,r5
   21620:	6884983a 	sll	r2,r13,r2
   21624:	594ad83a 	srl	r5,r11,r5
   21628:	90e4b03a 	or	r18,r18,r3
   2162c:	1004c03a 	cmpne	r2,r2,zero
   21630:	90a4b03a 	or	r18,r18,r2
   21634:	8963883a 	add	r17,r17,r5
   21638:	00002406 	br	216cc <__adddf3+0x338>
   2163c:	5b44b03a 	or	r2,r11,r13
   21640:	10009326 	beq	r2,zero,21890 <__adddf3+0x4fc>
   21644:	28bfffc4 	addi	r2,r5,-1
   21648:	1000f826 	beq	r2,zero,21a2c <__adddf3+0x698>
   2164c:	2941ffe0 	cmpeqi	r5,r5,2047
   21650:	2800fc1e 	bne	r5,zero,21a44 <__adddf3+0x6b0>
   21654:	10c00e48 	cmpgei	r3,r2,57
   21658:	1800321e 	bne	r3,zero,21724 <__adddf3+0x390>
   2165c:	100b883a 	mov	r5,r2
   21660:	003f7006 	br	21424 <__adddf3+0x90>
   21664:	80800044 	addi	r2,r16,1
   21668:	1081ff8c 	andi	r2,r2,2046
   2166c:	1000ab1e 	bne	r2,zero,2191c <__adddf3+0x588>
   21670:	8b0ab03a 	or	r5,r17,r12
   21674:	5b44b03a 	or	r2,r11,r13
   21678:	8000e71e 	bne	r16,zero,21a18 <__adddf3+0x684>
   2167c:	28014126 	beq	r5,zero,21b84 <__adddf3+0x7f0>
   21680:	10010626 	beq	r2,zero,21a9c <__adddf3+0x708>
   21684:	6365c83a 	sub	r18,r12,r13
   21688:	6485803a 	cmpltu	r2,r12,r18
   2168c:	8ac7c83a 	sub	r3,r17,r11
   21690:	1887c83a 	sub	r3,r3,r2
   21694:	1880202c 	andhi	r2,r3,128
   21698:	10017326 	beq	r2,zero,21c68 <__adddf3+0x8d4>
   2169c:	6b25c83a 	sub	r18,r13,r12
   216a0:	5c57c83a 	sub	r11,r11,r17
   216a4:	6c9b803a 	cmpltu	r13,r13,r18
   216a8:	5b63c83a 	sub	r17,r11,r13
   216ac:	3827883a 	mov	r19,r7
   216b0:	5029883a 	mov	r20,r10
   216b4:	003f8506 	br	214cc <__adddf3+0x138>
   216b8:	8081ffe0 	cmpeqi	r2,r16,2047
   216bc:	1000631e 	bne	r2,zero,2184c <__adddf3+0x4b8>
   216c0:	28800e48 	cmpgei	r2,r5,57
   216c4:	1000aa26 	beq	r2,zero,21970 <__adddf3+0x5dc>
   216c8:	04800044 	movi	r18,1
   216cc:	9325883a 	add	r18,r18,r12
   216d0:	9305803a 	cmpltu	r2,r18,r12
   216d4:	88a3883a 	add	r17,r17,r2
   216d8:	8880202c 	andhi	r2,r17,128
   216dc:	10001a26 	beq	r2,zero,21748 <__adddf3+0x3b4>
   216e0:	84000044 	addi	r16,r16,1
   216e4:	8081ffe0 	cmpeqi	r2,r16,2047
   216e8:	10000a1e 	bne	r2,zero,21714 <__adddf3+0x380>
   216ec:	00bfe034 	movhi	r2,65408
   216f0:	10bfffc4 	addi	r2,r2,-1
   216f4:	9006d07a 	srli	r3,r18,1
   216f8:	8884703a 	and	r2,r17,r2
   216fc:	100897fa 	slli	r4,r2,31
   21700:	9480004c 	andi	r18,r18,1
   21704:	1c86b03a 	or	r3,r3,r18
   21708:	1022d07a 	srli	r17,r2,1
   2170c:	20e4b03a 	or	r18,r4,r3
   21710:	003f6e06 	br	214cc <__adddf3+0x138>
   21714:	00c1ffc4 	movi	r3,2047
   21718:	0009883a 	mov	r4,zero
   2171c:	0005883a 	mov	r2,zero
   21720:	003f8206 	br	2152c <__adddf3+0x198>
   21724:	04800044 	movi	r18,1
   21728:	003f4a06 	br	21454 <__adddf3+0xc0>
   2172c:	6365883a 	add	r18,r12,r13
   21730:	8ad7883a 	add	r11,r17,r11
   21734:	9305803a 	cmpltu	r2,r18,r12
   21738:	58a3883a 	add	r17,r11,r2
   2173c:	8880202c 	andhi	r2,r17,128
   21740:	1001061e 	bne	r2,zero,21b5c <__adddf3+0x7c8>
   21744:	04000044 	movi	r16,1
   21748:	908001cc 	andi	r2,r18,7
   2174c:	103f611e 	bne	r2,zero,214d4 <__adddf3+0x140>
   21750:	00006906 	br	218f8 <__adddf3+0x564>
   21754:	28005626 	beq	r5,zero,218b0 <__adddf3+0x51c>
   21758:	140bc83a 	sub	r5,r2,r16
   2175c:	80008626 	beq	r16,zero,21978 <__adddf3+0x5e4>
   21760:	10c1ffe0 	cmpeqi	r3,r2,2047
   21764:	1801101e 	bne	r3,zero,21ba8 <__adddf3+0x814>
   21768:	28c00e48 	cmpgei	r3,r5,57
   2176c:	1800da1e 	bne	r3,zero,21ad8 <__adddf3+0x744>
   21770:	8c402034 	orhi	r17,r17,128
   21774:	28c00808 	cmpgei	r3,r5,32
   21778:	1801241e 	bne	r3,zero,21c0c <__adddf3+0x878>
   2177c:	00c00804 	movi	r3,32
   21780:	1947c83a 	sub	r3,r3,r5
   21784:	88e4983a 	sll	r18,r17,r3
   21788:	6148d83a 	srl	r4,r12,r5
   2178c:	60c6983a 	sll	r3,r12,r3
   21790:	894ad83a 	srl	r5,r17,r5
   21794:	9124b03a 	or	r18,r18,r4
   21798:	1806c03a 	cmpne	r3,r3,zero
   2179c:	90e4b03a 	or	r18,r18,r3
   217a0:	5957883a 	add	r11,r11,r5
   217a4:	9365883a 	add	r18,r18,r13
   217a8:	935b803a 	cmpltu	r13,r18,r13
   217ac:	6ae3883a 	add	r17,r13,r11
   217b0:	1021883a 	mov	r16,r2
   217b4:	003fc806 	br	216d8 <__adddf3+0x344>
   217b8:	9009883a 	mov	r4,r18
   217bc:	0021e140 	call	21e14 <__clzsi2>
   217c0:	11000604 	addi	r4,r2,24
   217c4:	20c00808 	cmpgei	r3,r4,32
   217c8:	183f2e26 	beq	r3,zero,21484 <__adddf3+0xf0>
   217cc:	10bffe04 	addi	r2,r2,-8
   217d0:	9084983a 	sll	r2,r18,r2
   217d4:	24007216 	blt	r4,r16,219a0 <__adddf3+0x60c>
   217d8:	2425c83a 	sub	r18,r4,r16
   217dc:	91000044 	addi	r4,r18,1
   217e0:	20c00808 	cmpgei	r3,r4,32
   217e4:	18012426 	beq	r3,zero,21c78 <__adddf3+0x8e4>
   217e8:	94bff844 	addi	r18,r18,-31
   217ec:	20c00820 	cmpeqi	r3,r4,32
   217f0:	14a4d83a 	srl	r18,r2,r18
   217f4:	1800051e 	bne	r3,zero,2180c <__adddf3+0x478>
   217f8:	00c01004 	movi	r3,64
   217fc:	1907c83a 	sub	r3,r3,r4
   21800:	10c4983a 	sll	r2,r2,r3
   21804:	1004c03a 	cmpne	r2,r2,zero
   21808:	90a4b03a 	or	r18,r18,r2
   2180c:	908001cc 	andi	r2,r18,7
   21810:	0021883a 	mov	r16,zero
   21814:	103f2f1e 	bne	r2,zero,214d4 <__adddf3+0x140>
   21818:	00003706 	br	218f8 <__adddf3+0x564>
   2181c:	9004d0fa 	srli	r2,r18,3
   21820:	880a977a 	slli	r5,r17,29
   21824:	8101ffe0 	cmpeqi	r4,r16,2047
   21828:	8806d0fa 	srli	r3,r17,3
   2182c:	2884b03a 	or	r2,r5,r2
   21830:	20000c1e 	bne	r4,zero,21864 <__adddf3+0x4d0>
   21834:	01000434 	movhi	r4,16
   21838:	213fffc4 	addi	r4,r4,-1
   2183c:	1908703a 	and	r4,r3,r4
   21840:	80c1ffcc 	andi	r3,r16,2047
   21844:	003f3906 	br	2152c <__adddf3+0x198>
   21848:	1000b31e 	bne	r2,zero,21b18 <__adddf3+0x784>
   2184c:	880a977a 	slli	r5,r17,29
   21850:	00880034 	movhi	r2,8192
   21854:	10bfffc4 	addi	r2,r2,-1
   21858:	8806d0fa 	srli	r3,r17,3
   2185c:	2084703a 	and	r2,r4,r2
   21860:	1144b03a 	or	r2,r2,r5
   21864:	10c8b03a 	or	r4,r2,r3
   21868:	20010726 	beq	r4,zero,21c88 <__adddf3+0x8f4>
   2186c:	01400434 	movhi	r5,16
   21870:	19000234 	orhi	r4,r3,8
   21874:	297fffc4 	addi	r5,r5,-1
   21878:	2148703a 	and	r4,r4,r5
   2187c:	00c1ffc4 	movi	r3,2047
   21880:	003f2a06 	br	2152c <__adddf3+0x198>
   21884:	6819883a 	mov	r12,r13
   21888:	5823883a 	mov	r17,r11
   2188c:	3827883a 	mov	r19,r7
   21890:	6004d0fa 	srli	r2,r12,3
   21894:	2821883a 	mov	r16,r5
   21898:	003fe106 	br	21820 <__adddf3+0x48c>
   2189c:	047fe034 	movhi	r17,65408
   218a0:	8c7fffc4 	addi	r17,r17,-1
   218a4:	8121c83a 	sub	r16,r16,r4
   218a8:	1462703a 	and	r17,r2,r17
   218ac:	003f0706 	br	214cc <__adddf3+0x138>
   218b0:	80c00044 	addi	r3,r16,1
   218b4:	1881ff8c 	andi	r2,r3,2046
   218b8:	1000421e 	bne	r2,zero,219c4 <__adddf3+0x630>
   218bc:	8b04b03a 	or	r2,r17,r12
   218c0:	8000921e 	bne	r16,zero,21b0c <__adddf3+0x778>
   218c4:	1000c226 	beq	r2,zero,21bd0 <__adddf3+0x83c>
   218c8:	5b44b03a 	or	r2,r11,r13
   218cc:	10007326 	beq	r2,zero,21a9c <__adddf3+0x708>
   218d0:	6365883a 	add	r18,r12,r13
   218d4:	9305803a 	cmpltu	r2,r18,r12
   218d8:	8ad7883a 	add	r11,r17,r11
   218dc:	58a3883a 	add	r17,r11,r2
   218e0:	8880202c 	andhi	r2,r17,128
   218e4:	10000426 	beq	r2,zero,218f8 <__adddf3+0x564>
   218e8:	00bfe034 	movhi	r2,65408
   218ec:	10bfffc4 	addi	r2,r2,-1
   218f0:	88a2703a 	and	r17,r17,r2
   218f4:	04000044 	movi	r16,1
   218f8:	800b883a 	mov	r5,r16
   218fc:	9019883a 	mov	r12,r18
   21900:	003fe306 	br	21890 <__adddf3+0x4fc>
   21904:	10c1ffe0 	cmpeqi	r3,r2,2047
   21908:	18006b1e 	bne	r3,zero,21ab8 <__adddf3+0x724>
   2190c:	28c00e48 	cmpgei	r3,r5,57
   21910:	18002a1e 	bne	r3,zero,219bc <__adddf3+0x628>
   21914:	8c402034 	orhi	r17,r17,128
   21918:	003f1d06 	br	21590 <__adddf3+0x1fc>
   2191c:	6365c83a 	sub	r18,r12,r13
   21920:	6485803a 	cmpltu	r2,r12,r18
   21924:	8ac7c83a 	sub	r3,r17,r11
   21928:	1887c83a 	sub	r3,r3,r2
   2192c:	1880202c 	andhi	r2,r3,128
   21930:	1000321e 	bne	r2,zero,219fc <__adddf3+0x668>
   21934:	90c4b03a 	or	r2,r18,r3
   21938:	10004926 	beq	r2,zero,21a60 <__adddf3+0x6cc>
   2193c:	1823883a 	mov	r17,r3
   21940:	003ecc06 	br	21474 <__adddf3+0xe0>
   21944:	28bff804 	addi	r2,r5,-32
   21948:	28c00820 	cmpeqi	r3,r5,32
   2194c:	5884d83a 	srl	r2,r11,r2
   21950:	1800041e 	bne	r3,zero,21964 <__adddf3+0x5d0>
   21954:	00c01004 	movi	r3,64
   21958:	1947c83a 	sub	r3,r3,r5
   2195c:	58c6983a 	sll	r3,r11,r3
   21960:	68dab03a 	or	r13,r13,r3
   21964:	6824c03a 	cmpne	r18,r13,zero
   21968:	90a4b03a 	or	r18,r18,r2
   2196c:	003eb906 	br	21454 <__adddf3+0xc0>
   21970:	5ac02034 	orhi	r11,r11,128
   21974:	003f2406 	br	21608 <__adddf3+0x274>
   21978:	8b06b03a 	or	r3,r17,r12
   2197c:	18009126 	beq	r3,zero,21bc4 <__adddf3+0x830>
   21980:	28ffffc4 	addi	r3,r5,-1
   21984:	1800ac26 	beq	r3,zero,21c38 <__adddf3+0x8a4>
   21988:	2941ffe0 	cmpeqi	r5,r5,2047
   2198c:	2800861e 	bne	r5,zero,21ba8 <__adddf3+0x814>
   21990:	19000e48 	cmpgei	r4,r3,57
   21994:	2000501e 	bne	r4,zero,21ad8 <__adddf3+0x744>
   21998:	180b883a 	mov	r5,r3
   2199c:	003f7506 	br	21774 <__adddf3+0x3e0>
   219a0:	00ffe034 	movhi	r3,65408
   219a4:	18ffffc4 	addi	r3,r3,-1
   219a8:	10c6703a 	and	r3,r2,r3
   219ac:	1804977a 	slli	r2,r3,29
   219b0:	8121c83a 	sub	r16,r16,r4
   219b4:	1806d0fa 	srli	r3,r3,3
   219b8:	003f9e06 	br	21834 <__adddf3+0x4a0>
   219bc:	04800044 	movi	r18,1
   219c0:	003eff06 	br	215c0 <__adddf3+0x22c>
   219c4:	1881ffe0 	cmpeqi	r2,r3,2047
   219c8:	103f521e 	bne	r2,zero,21714 <__adddf3+0x380>
   219cc:	6349883a 	add	r4,r12,r13
   219d0:	8ad7883a 	add	r11,r17,r11
   219d4:	2305803a 	cmpltu	r2,r4,r12
   219d8:	5885883a 	add	r2,r11,r2
   219dc:	2008d07a 	srli	r4,r4,1
   219e0:	102497fa 	slli	r18,r2,31
   219e4:	1022d07a 	srli	r17,r2,1
   219e8:	208001cc 	andi	r2,r4,7
   219ec:	9124b03a 	or	r18,r18,r4
   219f0:	1821883a 	mov	r16,r3
   219f4:	103eb71e 	bne	r2,zero,214d4 <__adddf3+0x140>
   219f8:	003fbf06 	br	218f8 <__adddf3+0x564>
   219fc:	6b25c83a 	sub	r18,r13,r12
   21a00:	5c57c83a 	sub	r11,r11,r17
   21a04:	6c9b803a 	cmpltu	r13,r13,r18
   21a08:	5b63c83a 	sub	r17,r11,r13
   21a0c:	3827883a 	mov	r19,r7
   21a10:	5029883a 	mov	r20,r10
   21a14:	003e9706 	br	21474 <__adddf3+0xe0>
   21a18:	283f8b1e 	bne	r5,zero,21848 <__adddf3+0x4b4>
   21a1c:	1000261e 	bne	r2,zero,21ab8 <__adddf3+0x724>
   21a20:	00bfffc4 	movi	r2,-1
   21a24:	0027883a 	mov	r19,zero
   21a28:	003f9006 	br	2186c <__adddf3+0x4d8>
   21a2c:	6365c83a 	sub	r18,r12,r13
   21a30:	8ad7c83a 	sub	r11,r17,r11
   21a34:	6485803a 	cmpltu	r2,r12,r18
   21a38:	58a3c83a 	sub	r17,r11,r2
   21a3c:	04000044 	movi	r16,1
   21a40:	003e8706 	br	21460 <__adddf3+0xcc>
   21a44:	8804977a 	slli	r2,r17,29
   21a48:	00c80034 	movhi	r3,8192
   21a4c:	18ffffc4 	addi	r3,r3,-1
   21a50:	20c8703a 	and	r4,r4,r3
   21a54:	2084b03a 	or	r2,r4,r2
   21a58:	8806d0fa 	srli	r3,r17,3
   21a5c:	003f8106 	br	21864 <__adddf3+0x4d0>
   21a60:	0027883a 	mov	r19,zero
   21a64:	0007883a 	mov	r3,zero
   21a68:	0009883a 	mov	r4,zero
   21a6c:	003eaf06 	br	2152c <__adddf3+0x198>
   21a70:	28bff804 	addi	r2,r5,-32
   21a74:	28c00820 	cmpeqi	r3,r5,32
   21a78:	5884d83a 	srl	r2,r11,r2
   21a7c:	1800041e 	bne	r3,zero,21a90 <__adddf3+0x6fc>
   21a80:	00c01004 	movi	r3,64
   21a84:	1947c83a 	sub	r3,r3,r5
   21a88:	58c6983a 	sll	r3,r11,r3
   21a8c:	68dab03a 	or	r13,r13,r3
   21a90:	6824c03a 	cmpne	r18,r13,zero
   21a94:	90a4b03a 	or	r18,r18,r2
   21a98:	003f0c06 	br	216cc <__adddf3+0x338>
   21a9c:	880a977a 	slli	r5,r17,29
   21aa0:	00880034 	movhi	r2,8192
   21aa4:	10bfffc4 	addi	r2,r2,-1
   21aa8:	2084703a 	and	r2,r4,r2
   21aac:	8806d0fa 	srli	r3,r17,3
   21ab0:	1144b03a 	or	r2,r2,r5
   21ab4:	003f5f06 	br	21834 <__adddf3+0x4a0>
   21ab8:	5804977a 	slli	r2,r11,29
   21abc:	00c80034 	movhi	r3,8192
   21ac0:	18ffffc4 	addi	r3,r3,-1
   21ac4:	30c8703a 	and	r4,r6,r3
   21ac8:	1104b03a 	or	r2,r2,r4
   21acc:	5806d0fa 	srli	r3,r11,3
   21ad0:	3827883a 	mov	r19,r7
   21ad4:	003f6306 	br	21864 <__adddf3+0x4d0>
   21ad8:	04800044 	movi	r18,1
   21adc:	003f3106 	br	217a4 <__adddf3+0x410>
   21ae0:	28fff804 	addi	r3,r5,-32
   21ae4:	29000820 	cmpeqi	r4,r5,32
   21ae8:	88c6d83a 	srl	r3,r17,r3
   21aec:	2000041e 	bne	r4,zero,21b00 <__adddf3+0x76c>
   21af0:	01001004 	movi	r4,64
   21af4:	2149c83a 	sub	r4,r4,r5
   21af8:	8908983a 	sll	r4,r17,r4
   21afc:	6118b03a 	or	r12,r12,r4
   21b00:	6024c03a 	cmpne	r18,r12,zero
   21b04:	90e4b03a 	or	r18,r18,r3
   21b08:	003ead06 	br	215c0 <__adddf3+0x22c>
   21b0c:	10004f26 	beq	r2,zero,21c4c <__adddf3+0x8b8>
   21b10:	5b5ab03a 	or	r13,r11,r13
   21b14:	683f4d26 	beq	r13,zero,2184c <__adddf3+0x4b8>
   21b18:	8806d0fa 	srli	r3,r17,3
   21b1c:	01480034 	movhi	r5,8192
   21b20:	8822977a 	slli	r17,r17,29
   21b24:	297fffc4 	addi	r5,r5,-1
   21b28:	2144703a 	and	r2,r4,r5
   21b2c:	1900022c 	andhi	r4,r3,8
   21b30:	1444b03a 	or	r2,r2,r17
   21b34:	203f4b26 	beq	r4,zero,21864 <__adddf3+0x4d0>
   21b38:	5808d0fa 	srli	r4,r11,3
   21b3c:	2200022c 	andhi	r8,r4,8
   21b40:	403f481e 	bne	r8,zero,21864 <__adddf3+0x4d0>
   21b44:	5804977a 	slli	r2,r11,29
   21b48:	314a703a 	and	r5,r6,r5
   21b4c:	3827883a 	mov	r19,r7
   21b50:	2884b03a 	or	r2,r5,r2
   21b54:	2007883a 	mov	r3,r4
   21b58:	003f4206 	br	21864 <__adddf3+0x4d0>
   21b5c:	04000084 	movi	r16,2
   21b60:	003ee206 	br	216ec <__adddf3+0x358>
   21b64:	6b25c83a 	sub	r18,r13,r12
   21b68:	5c57c83a 	sub	r11,r11,r17
   21b6c:	6c9b803a 	cmpltu	r13,r13,r18
   21b70:	5b63c83a 	sub	r17,r11,r13
   21b74:	3827883a 	mov	r19,r7
   21b78:	5029883a 	mov	r20,r10
   21b7c:	04000044 	movi	r16,1
   21b80:	003e3706 	br	21460 <__adddf3+0xcc>
   21b84:	103fb626 	beq	r2,zero,21a60 <__adddf3+0x6cc>
   21b88:	5808977a 	slli	r4,r11,29
   21b8c:	00880034 	movhi	r2,8192
   21b90:	10bfffc4 	addi	r2,r2,-1
   21b94:	3084703a 	and	r2,r6,r2
   21b98:	5806d0fa 	srli	r3,r11,3
   21b9c:	1104b03a 	or	r2,r2,r4
   21ba0:	3827883a 	mov	r19,r7
   21ba4:	003f2306 	br	21834 <__adddf3+0x4a0>
   21ba8:	5808977a 	slli	r4,r11,29
   21bac:	00880034 	movhi	r2,8192
   21bb0:	10bfffc4 	addi	r2,r2,-1
   21bb4:	3084703a 	and	r2,r6,r2
   21bb8:	5806d0fa 	srli	r3,r11,3
   21bbc:	1104b03a 	or	r2,r2,r4
   21bc0:	003f2806 	br	21864 <__adddf3+0x4d0>
   21bc4:	6819883a 	mov	r12,r13
   21bc8:	5823883a 	mov	r17,r11
   21bcc:	003f3006 	br	21890 <__adddf3+0x4fc>
   21bd0:	5808977a 	slli	r4,r11,29
   21bd4:	00880034 	movhi	r2,8192
   21bd8:	10bfffc4 	addi	r2,r2,-1
   21bdc:	3084703a 	and	r2,r6,r2
   21be0:	5806d0fa 	srli	r3,r11,3
   21be4:	1104b03a 	or	r2,r2,r4
   21be8:	003f1206 	br	21834 <__adddf3+0x4a0>
   21bec:	5808977a 	slli	r4,r11,29
   21bf0:	00880034 	movhi	r2,8192
   21bf4:	10bfffc4 	addi	r2,r2,-1
   21bf8:	3084703a 	and	r2,r6,r2
   21bfc:	5806d0fa 	srli	r3,r11,3
   21c00:	1104b03a 	or	r2,r2,r4
   21c04:	3827883a 	mov	r19,r7
   21c08:	003f1606 	br	21864 <__adddf3+0x4d0>
   21c0c:	28fff804 	addi	r3,r5,-32
   21c10:	29000820 	cmpeqi	r4,r5,32
   21c14:	88c6d83a 	srl	r3,r17,r3
   21c18:	2000041e 	bne	r4,zero,21c2c <__adddf3+0x898>
   21c1c:	01001004 	movi	r4,64
   21c20:	2149c83a 	sub	r4,r4,r5
   21c24:	8908983a 	sll	r4,r17,r4
   21c28:	6118b03a 	or	r12,r12,r4
   21c2c:	6024c03a 	cmpne	r18,r12,zero
   21c30:	90e4b03a 	or	r18,r18,r3
   21c34:	003edb06 	br	217a4 <__adddf3+0x410>
   21c38:	6365883a 	add	r18,r12,r13
   21c3c:	8ad7883a 	add	r11,r17,r11
   21c40:	935b803a 	cmpltu	r13,r18,r13
   21c44:	5b63883a 	add	r17,r11,r13
   21c48:	003ebc06 	br	2173c <__adddf3+0x3a8>
   21c4c:	5804977a 	slli	r2,r11,29
   21c50:	00c80034 	movhi	r3,8192
   21c54:	18ffffc4 	addi	r3,r3,-1
   21c58:	30cc703a 	and	r6,r6,r3
   21c5c:	1184b03a 	or	r2,r2,r6
   21c60:	5806d0fa 	srli	r3,r11,3
   21c64:	003eff06 	br	21864 <__adddf3+0x4d0>
   21c68:	90c4b03a 	or	r2,r18,r3
   21c6c:	103f7c26 	beq	r2,zero,21a60 <__adddf3+0x6cc>
   21c70:	1823883a 	mov	r17,r3
   21c74:	003f2006 	br	218f8 <__adddf3+0x564>
   21c78:	00c00804 	movi	r3,32
   21c7c:	1907c83a 	sub	r3,r3,r4
   21c80:	000b883a 	mov	r5,zero
   21c84:	003e0c06 	br	214b8 <__adddf3+0x124>
   21c88:	0005883a 	mov	r2,zero
   21c8c:	00c1ffc4 	movi	r3,2047
   21c90:	0009883a 	mov	r4,zero
   21c94:	003e2506 	br	2152c <__adddf3+0x198>

00021c98 <__fixdfsi>:
   21c98:	2804d53a 	srli	r2,r5,20
   21c9c:	00c00434 	movhi	r3,16
   21ca0:	18ffffc4 	addi	r3,r3,-1
   21ca4:	1081ffcc 	andi	r2,r2,2047
   21ca8:	1180ffd0 	cmplti	r6,r2,1023
   21cac:	280ed7fa 	srli	r7,r5,31
   21cb0:	28ca703a 	and	r5,r5,r3
   21cb4:	3000061e 	bne	r6,zero,21cd0 <__fixdfsi+0x38>
   21cb8:	10c10790 	cmplti	r3,r2,1054
   21cbc:	1800061e 	bne	r3,zero,21cd8 <__fixdfsi+0x40>
   21cc0:	00a00034 	movhi	r2,32768
   21cc4:	10bfffc4 	addi	r2,r2,-1
   21cc8:	3885883a 	add	r2,r7,r2
   21ccc:	f800283a 	ret
   21cd0:	0005883a 	mov	r2,zero
   21cd4:	f800283a 	ret
   21cd8:	00c10cc4 	movi	r3,1075
   21cdc:	1887c83a 	sub	r3,r3,r2
   21ce0:	19800808 	cmpgei	r6,r3,32
   21ce4:	29400434 	orhi	r5,r5,16
   21ce8:	3000071e 	bne	r6,zero,21d08 <__fixdfsi+0x70>
   21cec:	10befb44 	addi	r2,r2,-1043
   21cf0:	2884983a 	sll	r2,r5,r2
   21cf4:	20c8d83a 	srl	r4,r4,r3
   21cf8:	1104b03a 	or	r2,r2,r4
   21cfc:	383ff526 	beq	r7,zero,21cd4 <__fixdfsi+0x3c>
   21d00:	0085c83a 	sub	r2,zero,r2
   21d04:	f800283a 	ret
   21d08:	00c104c4 	movi	r3,1043
   21d0c:	1885c83a 	sub	r2,r3,r2
   21d10:	2884d83a 	srl	r2,r5,r2
   21d14:	003ff906 	br	21cfc <__fixdfsi+0x64>

00021d18 <__extendsfdf2>:
   21d18:	200ad5fa 	srli	r5,r4,23
   21d1c:	defffd04 	addi	sp,sp,-12
   21d20:	dc000015 	stw	r16,0(sp)
   21d24:	29403fcc 	andi	r5,r5,255
   21d28:	04002034 	movhi	r16,128
   21d2c:	28800044 	addi	r2,r5,1
   21d30:	dc400115 	stw	r17,4(sp)
   21d34:	843fffc4 	addi	r16,r16,-1
   21d38:	dfc00215 	stw	ra,8(sp)
   21d3c:	10803f8c 	andi	r2,r2,254
   21d40:	2022d7fa 	srli	r17,r4,31
   21d44:	8120703a 	and	r16,r16,r4
   21d48:	10000d26 	beq	r2,zero,21d80 <__extendsfdf2+0x68>
   21d4c:	8008d0fa 	srli	r4,r16,3
   21d50:	8020977a 	slli	r16,r16,29
   21d54:	2940e004 	addi	r5,r5,896
   21d58:	280a953a 	slli	r5,r5,20
   21d5c:	880697fa 	slli	r3,r17,31
   21d60:	8005883a 	mov	r2,r16
   21d64:	290ab03a 	or	r5,r5,r4
   21d68:	28c6b03a 	or	r3,r5,r3
   21d6c:	dfc00217 	ldw	ra,8(sp)
   21d70:	dc400117 	ldw	r17,4(sp)
   21d74:	dc000017 	ldw	r16,0(sp)
   21d78:	dec00304 	addi	sp,sp,12
   21d7c:	f800283a 	ret
   21d80:	2800111e 	bne	r5,zero,21dc8 <__extendsfdf2+0xb0>
   21d84:	80001926 	beq	r16,zero,21dec <__extendsfdf2+0xd4>
   21d88:	8009883a 	mov	r4,r16
   21d8c:	0021e140 	call	21e14 <__clzsi2>
   21d90:	10c002c8 	cmpgei	r3,r2,11
   21d94:	18001b1e 	bne	r3,zero,21e04 <__extendsfdf2+0xec>
   21d98:	010002c4 	movi	r4,11
   21d9c:	2089c83a 	sub	r4,r4,r2
   21da0:	10c00544 	addi	r3,r2,21
   21da4:	8108d83a 	srl	r4,r16,r4
   21da8:	80e0983a 	sll	r16,r16,r3
   21dac:	00c00434 	movhi	r3,16
   21db0:	0140e244 	movi	r5,905
   21db4:	18ffffc4 	addi	r3,r3,-1
   21db8:	288bc83a 	sub	r5,r5,r2
   21dbc:	20c8703a 	and	r4,r4,r3
   21dc0:	2941ffcc 	andi	r5,r5,2047
   21dc4:	003fe406 	br	21d58 <__extendsfdf2+0x40>
   21dc8:	80000b26 	beq	r16,zero,21df8 <__extendsfdf2+0xe0>
   21dcc:	8008d0fa 	srli	r4,r16,3
   21dd0:	00800434 	movhi	r2,16
   21dd4:	10bfffc4 	addi	r2,r2,-1
   21dd8:	21000234 	orhi	r4,r4,8
   21ddc:	8020977a 	slli	r16,r16,29
   21de0:	2088703a 	and	r4,r4,r2
   21de4:	0141ffc4 	movi	r5,2047
   21de8:	003fdb06 	br	21d58 <__extendsfdf2+0x40>
   21dec:	000b883a 	mov	r5,zero
   21df0:	0009883a 	mov	r4,zero
   21df4:	003fd806 	br	21d58 <__extendsfdf2+0x40>
   21df8:	0141ffc4 	movi	r5,2047
   21dfc:	0009883a 	mov	r4,zero
   21e00:	003fd506 	br	21d58 <__extendsfdf2+0x40>
   21e04:	113ffd44 	addi	r4,r2,-11
   21e08:	8108983a 	sll	r4,r16,r4
   21e0c:	0021883a 	mov	r16,zero
   21e10:	003fe606 	br	21dac <__extendsfdf2+0x94>

00021e14 <__clzsi2>:
   21e14:	00bfffd4 	movui	r2,65535
   21e18:	11000a36 	bltu	r2,r4,21e44 <__clzsi2+0x30>
   21e1c:	20c04028 	cmpgeui	r3,r4,256
   21e20:	180690fa 	slli	r3,r3,3
   21e24:	00800804 	movi	r2,32
   21e28:	10c5c83a 	sub	r2,r2,r3
   21e2c:	20c8d83a 	srl	r4,r4,r3
   21e30:	00c000f4 	movhi	r3,3
   21e34:	20c7883a 	add	r3,r4,r3
   21e38:	18c55703 	ldbu	r3,5468(r3)
   21e3c:	10c5c83a 	sub	r2,r2,r3
   21e40:	f800283a 	ret
   21e44:	00804034 	movhi	r2,256
   21e48:	2080032e 	bgeu	r4,r2,21e58 <__clzsi2+0x44>
   21e4c:	00800404 	movi	r2,16
   21e50:	00c00404 	movi	r3,16
   21e54:	003ff506 	br	21e2c <__clzsi2+0x18>
   21e58:	00800204 	movi	r2,8
   21e5c:	00c00604 	movi	r3,24
   21e60:	003ff206 	br	21e2c <__clzsi2+0x18>

00021e64 <malloc>:
   21e64:	008000f4 	movhi	r2,3
   21e68:	200b883a 	mov	r5,r4
   21e6c:	110de717 	ldw	r4,14236(r2)
   21e70:	0021e841 	jmpi	21e84 <_malloc_r>

00021e74 <free>:
   21e74:	008000f4 	movhi	r2,3
   21e78:	200b883a 	mov	r5,r4
   21e7c:	110de717 	ldw	r4,14236(r2)
   21e80:	00271e81 	jmpi	271e8 <_free_r>

00021e84 <_malloc_r>:
   21e84:	defff604 	addi	sp,sp,-40
   21e88:	dc400115 	stw	r17,4(sp)
   21e8c:	2c4002c4 	addi	r17,r5,11
   21e90:	dc800215 	stw	r18,8(sp)
   21e94:	dfc00915 	stw	ra,36(sp)
   21e98:	df000815 	stw	fp,32(sp)
   21e9c:	ddc00715 	stw	r23,28(sp)
   21ea0:	dd800615 	stw	r22,24(sp)
   21ea4:	dd400515 	stw	r21,20(sp)
   21ea8:	dd000415 	stw	r20,16(sp)
   21eac:	dcc00315 	stw	r19,12(sp)
   21eb0:	dc000015 	stw	r16,0(sp)
   21eb4:	888005e8 	cmpgeui	r2,r17,23
   21eb8:	2025883a 	mov	r18,r4
   21ebc:	1000261e 	bne	r2,zero,21f58 <_malloc_r+0xd4>
   21ec0:	29400468 	cmpgeui	r5,r5,17
   21ec4:	28008d1e 	bne	r5,zero,220fc <_malloc_r+0x278>
   21ec8:	002f1fc0 	call	2f1fc <__malloc_lock>
   21ecc:	04400404 	movi	r17,16
   21ed0:	00800604 	movi	r2,24
   21ed4:	01c00084 	movi	r7,2
   21ed8:	04c000f4 	movhi	r19,3
   21edc:	9cc6f104 	addi	r19,r19,7108
   21ee0:	9885883a 	add	r2,r19,r2
   21ee4:	14000117 	ldw	r16,4(r2)
   21ee8:	10fffe04 	addi	r3,r2,-8
   21eec:	80c0cb26 	beq	r16,r3,2221c <_malloc_r+0x398>
   21ef0:	80800117 	ldw	r2,4(r16)
   21ef4:	81000317 	ldw	r4,12(r16)
   21ef8:	00ffff04 	movi	r3,-4
   21efc:	10c4703a 	and	r2,r2,r3
   21f00:	81400217 	ldw	r5,8(r16)
   21f04:	8085883a 	add	r2,r16,r2
   21f08:	10c00117 	ldw	r3,4(r2)
   21f0c:	29000315 	stw	r4,12(r5)
   21f10:	21400215 	stw	r5,8(r4)
   21f14:	18c00054 	ori	r3,r3,1
   21f18:	10c00115 	stw	r3,4(r2)
   21f1c:	9009883a 	mov	r4,r18
   21f20:	002f2200 	call	2f220 <__malloc_unlock>
   21f24:	80800204 	addi	r2,r16,8
   21f28:	dfc00917 	ldw	ra,36(sp)
   21f2c:	df000817 	ldw	fp,32(sp)
   21f30:	ddc00717 	ldw	r23,28(sp)
   21f34:	dd800617 	ldw	r22,24(sp)
   21f38:	dd400517 	ldw	r21,20(sp)
   21f3c:	dd000417 	ldw	r20,16(sp)
   21f40:	dcc00317 	ldw	r19,12(sp)
   21f44:	dc800217 	ldw	r18,8(sp)
   21f48:	dc400117 	ldw	r17,4(sp)
   21f4c:	dc000017 	ldw	r16,0(sp)
   21f50:	dec00a04 	addi	sp,sp,40
   21f54:	f800283a 	ret
   21f58:	00bffe04 	movi	r2,-8
   21f5c:	88a2703a 	and	r17,r17,r2
   21f60:	88006616 	blt	r17,zero,220fc <_malloc_r+0x278>
   21f64:	89406536 	bltu	r17,r5,220fc <_malloc_r+0x278>
   21f68:	002f1fc0 	call	2f1fc <__malloc_lock>
   21f6c:	88807e28 	cmpgeui	r2,r17,504
   21f70:	1000ef26 	beq	r2,zero,22330 <_malloc_r+0x4ac>
   21f74:	8804d27a 	srli	r2,r17,9
   21f78:	10006426 	beq	r2,zero,2210c <_malloc_r+0x288>
   21f7c:	10c00168 	cmpgeui	r3,r2,5
   21f80:	1800c31e 	bne	r3,zero,22290 <_malloc_r+0x40c>
   21f84:	8804d1ba 	srli	r2,r17,6
   21f88:	11c00e44 	addi	r7,r2,57
   21f8c:	380890fa 	slli	r4,r7,3
   21f90:	12000e04 	addi	r8,r2,56
   21f94:	04c000f4 	movhi	r19,3
   21f98:	9cc6f104 	addi	r19,r19,7108
   21f9c:	9909883a 	add	r4,r19,r4
   21fa0:	24000117 	ldw	r16,4(r4)
   21fa4:	213ffe04 	addi	r4,r4,-8
   21fa8:	24000b26 	beq	r4,r16,21fd8 <_malloc_r+0x154>
   21fac:	01bfff04 	movi	r6,-4
   21fb0:	00000306 	br	21fc0 <_malloc_r+0x13c>
   21fb4:	1800970e 	bge	r3,zero,22214 <_malloc_r+0x390>
   21fb8:	84000317 	ldw	r16,12(r16)
   21fbc:	24000626 	beq	r4,r16,21fd8 <_malloc_r+0x154>
   21fc0:	80800117 	ldw	r2,4(r16)
   21fc4:	1184703a 	and	r2,r2,r6
   21fc8:	1447c83a 	sub	r3,r2,r17
   21fcc:	19400408 	cmpgei	r5,r3,16
   21fd0:	283ff826 	beq	r5,zero,21fb4 <_malloc_r+0x130>
   21fd4:	400f883a 	mov	r7,r8
   21fd8:	9c000417 	ldw	r16,16(r19)
   21fdc:	024000f4 	movhi	r9,3
   21fe0:	4a46f304 	addi	r9,r9,7116
   21fe4:	82407f26 	beq	r16,r9,221e4 <_malloc_r+0x360>
   21fe8:	80800117 	ldw	r2,4(r16)
   21fec:	00ffff04 	movi	r3,-4
   21ff0:	10c4703a 	and	r2,r2,r3
   21ff4:	1447c83a 	sub	r3,r2,r17
   21ff8:	19000410 	cmplti	r4,r3,16
   21ffc:	2000cf26 	beq	r4,zero,2233c <_malloc_r+0x4b8>
   22000:	9a400515 	stw	r9,20(r19)
   22004:	9a400415 	stw	r9,16(r19)
   22008:	1800c10e 	bge	r3,zero,22310 <_malloc_r+0x48c>
   2200c:	10c08028 	cmpgeui	r3,r2,512
   22010:	99400117 	ldw	r5,4(r19)
   22014:	1800851e 	bne	r3,zero,2222c <_malloc_r+0x3a8>
   22018:	1006d0fa 	srli	r3,r2,3
   2201c:	1008d17a 	srli	r4,r2,5
   22020:	18800044 	addi	r2,r3,1
   22024:	100490fa 	slli	r2,r2,3
   22028:	00c00044 	movi	r3,1
   2202c:	1906983a 	sll	r3,r3,r4
   22030:	9885883a 	add	r2,r19,r2
   22034:	11000017 	ldw	r4,0(r2)
   22038:	28cab03a 	or	r5,r5,r3
   2203c:	10fffe04 	addi	r3,r2,-8
   22040:	80c00315 	stw	r3,12(r16)
   22044:	81000215 	stw	r4,8(r16)
   22048:	99400115 	stw	r5,4(r19)
   2204c:	14000015 	stw	r16,0(r2)
   22050:	24000315 	stw	r16,12(r4)
   22054:	3805d0ba 	srai	r2,r7,2
   22058:	01000044 	movi	r4,1
   2205c:	2088983a 	sll	r4,r4,r2
   22060:	29002e36 	bltu	r5,r4,2211c <_malloc_r+0x298>
   22064:	2144703a 	and	r2,r4,r5
   22068:	10000a1e 	bne	r2,zero,22094 <_malloc_r+0x210>
   2206c:	2109883a 	add	r4,r4,r4
   22070:	00bfff04 	movi	r2,-4
   22074:	3884703a 	and	r2,r7,r2
   22078:	2146703a 	and	r3,r4,r5
   2207c:	11c00104 	addi	r7,r2,4
   22080:	1800041e 	bne	r3,zero,22094 <_malloc_r+0x210>
   22084:	2109883a 	add	r4,r4,r4
   22088:	2144703a 	and	r2,r4,r5
   2208c:	39c00104 	addi	r7,r7,4
   22090:	103ffc26 	beq	r2,zero,22084 <_malloc_r+0x200>
   22094:	02bfff04 	movi	r10,-4
   22098:	381690fa 	slli	r11,r7,3
   2209c:	3819883a 	mov	r12,r7
   220a0:	9ad7883a 	add	r11,r19,r11
   220a4:	5811883a 	mov	r8,r11
   220a8:	40800317 	ldw	r2,12(r8)
   220ac:	40808126 	beq	r8,r2,222b4 <_malloc_r+0x430>
   220b0:	10c00117 	ldw	r3,4(r2)
   220b4:	1021883a 	mov	r16,r2
   220b8:	10800317 	ldw	r2,12(r2)
   220bc:	1a86703a 	and	r3,r3,r10
   220c0:	1c4bc83a 	sub	r5,r3,r17
   220c4:	29800410 	cmplti	r6,r5,16
   220c8:	30007f26 	beq	r6,zero,222c8 <_malloc_r+0x444>
   220cc:	283ff716 	blt	r5,zero,220ac <_malloc_r+0x228>
   220d0:	80c7883a 	add	r3,r16,r3
   220d4:	19400117 	ldw	r5,4(r3)
   220d8:	81800217 	ldw	r6,8(r16)
   220dc:	9009883a 	mov	r4,r18
   220e0:	29400054 	ori	r5,r5,1
   220e4:	19400115 	stw	r5,4(r3)
   220e8:	30800315 	stw	r2,12(r6)
   220ec:	11800215 	stw	r6,8(r2)
   220f0:	002f2200 	call	2f220 <__malloc_unlock>
   220f4:	80800204 	addi	r2,r16,8
   220f8:	003f8b06 	br	21f28 <_malloc_r+0xa4>
   220fc:	00800304 	movi	r2,12
   22100:	90800015 	stw	r2,0(r18)
   22104:	0005883a 	mov	r2,zero
   22108:	003f8706 	br	21f28 <_malloc_r+0xa4>
   2210c:	01008004 	movi	r4,512
   22110:	01c01004 	movi	r7,64
   22114:	02000fc4 	movi	r8,63
   22118:	003f9e06 	br	21f94 <_malloc_r+0x110>
   2211c:	9c000217 	ldw	r16,8(r19)
   22120:	00bfff04 	movi	r2,-4
   22124:	80c00117 	ldw	r3,4(r16)
   22128:	18aa703a 	and	r21,r3,r2
   2212c:	ac400336 	bltu	r21,r17,2213c <_malloc_r+0x2b8>
   22130:	ac47c83a 	sub	r3,r21,r17
   22134:	18800408 	cmpgei	r2,r3,16
   22138:	10002c1e 	bne	r2,zero,221ec <_malloc_r+0x368>
   2213c:	008000f4 	movhi	r2,3
   22140:	108de417 	ldw	r2,14224(r2)
   22144:	00c000f4 	movhi	r3,3
   22148:	1d14f717 	ldw	r20,21468(r3)
   2214c:	10bfffd8 	cmpnei	r2,r2,-1
   22150:	856f883a 	add	r23,r16,r21
   22154:	8d29883a 	add	r20,r17,r20
   22158:	1000e726 	beq	r2,zero,224f8 <_malloc_r+0x674>
   2215c:	a50403c4 	addi	r20,r20,4111
   22160:	00bc0004 	movi	r2,-4096
   22164:	a0a8703a 	and	r20,r20,r2
   22168:	a00b883a 	mov	r5,r20
   2216c:	9009883a 	mov	r4,r18
   22170:	00228800 	call	22880 <_sbrk_r>
   22174:	102d883a 	mov	r22,r2
   22178:	10bfffd8 	cmpnei	r2,r2,-1
   2217c:	10008426 	beq	r2,zero,22390 <_malloc_r+0x50c>
   22180:	b5c08236 	bltu	r22,r23,2238c <_malloc_r+0x508>
   22184:	008000f4 	movhi	r2,3
   22188:	11150217 	ldw	r4,21512(r2)
   2218c:	a109883a 	add	r4,r20,r4
   22190:	11150215 	stw	r4,21512(r2)
   22194:	2007883a 	mov	r3,r4
   22198:	bd80a51e 	bne	r23,r22,22430 <_malloc_r+0x5ac>
   2219c:	b083ffcc 	andi	r2,r22,4095
   221a0:	1000a31e 	bne	r2,zero,22430 <_malloc_r+0x5ac>
   221a4:	9d800217 	ldw	r22,8(r19)
   221a8:	ad07883a 	add	r3,r21,r20
   221ac:	18c00054 	ori	r3,r3,1
   221b0:	b0c00115 	stw	r3,4(r22)
   221b4:	008000f4 	movhi	r2,3
   221b8:	1094f617 	ldw	r2,21464(r2)
   221bc:	1100022e 	bgeu	r2,r4,221c8 <_malloc_r+0x344>
   221c0:	008000f4 	movhi	r2,3
   221c4:	1114f615 	stw	r4,21464(r2)
   221c8:	008000f4 	movhi	r2,3
   221cc:	1094f517 	ldw	r2,21460(r2)
   221d0:	1100022e 	bgeu	r2,r4,221dc <_malloc_r+0x358>
   221d4:	008000f4 	movhi	r2,3
   221d8:	1114f515 	stw	r4,21460(r2)
   221dc:	b021883a 	mov	r16,r22
   221e0:	00006d06 	br	22398 <_malloc_r+0x514>
   221e4:	99400117 	ldw	r5,4(r19)
   221e8:	003f9a06 	br	22054 <_malloc_r+0x1d0>
   221ec:	88800054 	ori	r2,r17,1
   221f0:	80800115 	stw	r2,4(r16)
   221f4:	8463883a 	add	r17,r16,r17
   221f8:	9c400215 	stw	r17,8(r19)
   221fc:	18c00054 	ori	r3,r3,1
   22200:	88c00115 	stw	r3,4(r17)
   22204:	9009883a 	mov	r4,r18
   22208:	002f2200 	call	2f220 <__malloc_unlock>
   2220c:	80800204 	addi	r2,r16,8
   22210:	003f4506 	br	21f28 <_malloc_r+0xa4>
   22214:	81000317 	ldw	r4,12(r16)
   22218:	003f3906 	br	21f00 <_malloc_r+0x7c>
   2221c:	14000317 	ldw	r16,12(r2)
   22220:	143f331e 	bne	r2,r16,21ef0 <_malloc_r+0x6c>
   22224:	39c00084 	addi	r7,r7,2
   22228:	003f6b06 	br	21fd8 <_malloc_r+0x154>
   2222c:	1006d27a 	srli	r3,r2,9
   22230:	19000168 	cmpgeui	r4,r3,5
   22234:	20005026 	beq	r4,zero,22378 <_malloc_r+0x4f4>
   22238:	19000568 	cmpgeui	r4,r3,21
   2223c:	2000c01e 	bne	r4,zero,22540 <_malloc_r+0x6bc>
   22240:	19801704 	addi	r6,r3,92
   22244:	300c90fa 	slli	r6,r6,3
   22248:	190016c4 	addi	r4,r3,91
   2224c:	998d883a 	add	r6,r19,r6
   22250:	30c00017 	ldw	r3,0(r6)
   22254:	31bffe04 	addi	r6,r6,-8
   22258:	30c0a926 	beq	r6,r3,22500 <_malloc_r+0x67c>
   2225c:	023fff04 	movi	r8,-4
   22260:	00000206 	br	2226c <_malloc_r+0x3e8>
   22264:	18c00217 	ldw	r3,8(r3)
   22268:	30c00326 	beq	r6,r3,22278 <_malloc_r+0x3f4>
   2226c:	19000117 	ldw	r4,4(r3)
   22270:	2208703a 	and	r4,r4,r8
   22274:	113ffb36 	bltu	r2,r4,22264 <_malloc_r+0x3e0>
   22278:	19800317 	ldw	r6,12(r3)
   2227c:	81800315 	stw	r6,12(r16)
   22280:	80c00215 	stw	r3,8(r16)
   22284:	34000215 	stw	r16,8(r6)
   22288:	1c000315 	stw	r16,12(r3)
   2228c:	003f7106 	br	22054 <_malloc_r+0x1d0>
   22290:	10c00568 	cmpgeui	r3,r2,21
   22294:	18004926 	beq	r3,zero,223bc <_malloc_r+0x538>
   22298:	10c01568 	cmpgeui	r3,r2,85
   2229c:	1800af1e 	bne	r3,zero,2255c <_malloc_r+0x6d8>
   222a0:	8804d33a 	srli	r2,r17,12
   222a4:	11c01bc4 	addi	r7,r2,111
   222a8:	380890fa 	slli	r4,r7,3
   222ac:	12001b84 	addi	r8,r2,110
   222b0:	003f3806 	br	21f94 <_malloc_r+0x110>
   222b4:	63000044 	addi	r12,r12,1
   222b8:	608000cc 	andi	r2,r12,3
   222bc:	42000204 	addi	r8,r8,8
   222c0:	103f791e 	bne	r2,zero,220a8 <_malloc_r+0x224>
   222c4:	00004406 	br	223d8 <_malloc_r+0x554>
   222c8:	81000217 	ldw	r4,8(r16)
   222cc:	89800054 	ori	r6,r17,1
   222d0:	81800115 	stw	r6,4(r16)
   222d4:	20800315 	stw	r2,12(r4)
   222d8:	11000215 	stw	r4,8(r2)
   222dc:	8463883a 	add	r17,r16,r17
   222e0:	9c400515 	stw	r17,20(r19)
   222e4:	9c400415 	stw	r17,16(r19)
   222e8:	28800054 	ori	r2,r5,1
   222ec:	88800115 	stw	r2,4(r17)
   222f0:	8a400315 	stw	r9,12(r17)
   222f4:	8a400215 	stw	r9,8(r17)
   222f8:	80c7883a 	add	r3,r16,r3
   222fc:	19400015 	stw	r5,0(r3)
   22300:	9009883a 	mov	r4,r18
   22304:	002f2200 	call	2f220 <__malloc_unlock>
   22308:	80800204 	addi	r2,r16,8
   2230c:	003f0606 	br	21f28 <_malloc_r+0xa4>
   22310:	8085883a 	add	r2,r16,r2
   22314:	10c00117 	ldw	r3,4(r2)
   22318:	9009883a 	mov	r4,r18
   2231c:	18c00054 	ori	r3,r3,1
   22320:	10c00115 	stw	r3,4(r2)
   22324:	002f2200 	call	2f220 <__malloc_unlock>
   22328:	80800204 	addi	r2,r16,8
   2232c:	003efe06 	br	21f28 <_malloc_r+0xa4>
   22330:	880ed0fa 	srli	r7,r17,3
   22334:	88800204 	addi	r2,r17,8
   22338:	003ee706 	br	21ed8 <_malloc_r+0x54>
   2233c:	89000054 	ori	r4,r17,1
   22340:	81000115 	stw	r4,4(r16)
   22344:	8463883a 	add	r17,r16,r17
   22348:	9c400515 	stw	r17,20(r19)
   2234c:	9c400415 	stw	r17,16(r19)
   22350:	19000054 	ori	r4,r3,1
   22354:	89000115 	stw	r4,4(r17)
   22358:	8085883a 	add	r2,r16,r2
   2235c:	8a400315 	stw	r9,12(r17)
   22360:	8a400215 	stw	r9,8(r17)
   22364:	10c00015 	stw	r3,0(r2)
   22368:	9009883a 	mov	r4,r18
   2236c:	002f2200 	call	2f220 <__malloc_unlock>
   22370:	80800204 	addi	r2,r16,8
   22374:	003eec06 	br	21f28 <_malloc_r+0xa4>
   22378:	1006d1ba 	srli	r3,r2,6
   2237c:	19800e44 	addi	r6,r3,57
   22380:	300c90fa 	slli	r6,r6,3
   22384:	19000e04 	addi	r4,r3,56
   22388:	003fb006 	br	2224c <_malloc_r+0x3c8>
   2238c:	84c02426 	beq	r16,r19,22420 <_malloc_r+0x59c>
   22390:	9c000217 	ldw	r16,8(r19)
   22394:	80c00117 	ldw	r3,4(r16)
   22398:	00bfff04 	movi	r2,-4
   2239c:	1884703a 	and	r2,r3,r2
   223a0:	1447c83a 	sub	r3,r2,r17
   223a4:	14400236 	bltu	r2,r17,223b0 <_malloc_r+0x52c>
   223a8:	18800408 	cmpgei	r2,r3,16
   223ac:	103f8f1e 	bne	r2,zero,221ec <_malloc_r+0x368>
   223b0:	9009883a 	mov	r4,r18
   223b4:	002f2200 	call	2f220 <__malloc_unlock>
   223b8:	003f5206 	br	22104 <_malloc_r+0x280>
   223bc:	11c01704 	addi	r7,r2,92
   223c0:	380890fa 	slli	r4,r7,3
   223c4:	120016c4 	addi	r8,r2,91
   223c8:	003ef206 	br	21f94 <_malloc_r+0x110>
   223cc:	58800217 	ldw	r2,8(r11)
   223d0:	39ffffc4 	addi	r7,r7,-1
   223d4:	12c0961e 	bne	r2,r11,22630 <_malloc_r+0x7ac>
   223d8:	388000cc 	andi	r2,r7,3
   223dc:	5afffe04 	addi	r11,r11,-8
   223e0:	103ffa1e 	bne	r2,zero,223cc <_malloc_r+0x548>
   223e4:	98c00117 	ldw	r3,4(r19)
   223e8:	0104303a 	nor	r2,zero,r4
   223ec:	10c4703a 	and	r2,r2,r3
   223f0:	98800115 	stw	r2,4(r19)
   223f4:	2109883a 	add	r4,r4,r4
   223f8:	113f4836 	bltu	r2,r4,2211c <_malloc_r+0x298>
   223fc:	203f4726 	beq	r4,zero,2211c <_malloc_r+0x298>
   22400:	2086703a 	and	r3,r4,r2
   22404:	1800041e 	bne	r3,zero,22418 <_malloc_r+0x594>
   22408:	2109883a 	add	r4,r4,r4
   2240c:	2086703a 	and	r3,r4,r2
   22410:	63000104 	addi	r12,r12,4
   22414:	183ffc26 	beq	r3,zero,22408 <_malloc_r+0x584>
   22418:	600f883a 	mov	r7,r12
   2241c:	003f1e06 	br	22098 <_malloc_r+0x214>
   22420:	008000f4 	movhi	r2,3
   22424:	10d50217 	ldw	r3,21512(r2)
   22428:	a0c7883a 	add	r3,r20,r3
   2242c:	10d50215 	stw	r3,21512(r2)
   22430:	008000f4 	movhi	r2,3
   22434:	108de417 	ldw	r2,14224(r2)
   22438:	10bfffd8 	cmpnei	r2,r2,-1
   2243c:	10004e26 	beq	r2,zero,22578 <_malloc_r+0x6f4>
   22440:	b5c5c83a 	sub	r2,r22,r23
   22444:	10c5883a 	add	r2,r2,r3
   22448:	00c000f4 	movhi	r3,3
   2244c:	18950215 	stw	r2,21512(r3)
   22450:	b70001cc 	andi	fp,r22,7
   22454:	e0003026 	beq	fp,zero,22518 <_malloc_r+0x694>
   22458:	b72dc83a 	sub	r22,r22,fp
   2245c:	b5800204 	addi	r22,r22,8
   22460:	01040204 	movi	r4,4104
   22464:	2709c83a 	sub	r4,r4,fp
   22468:	b529883a 	add	r20,r22,r20
   2246c:	2509c83a 	sub	r4,r4,r20
   22470:	25c3ffcc 	andi	r23,r4,4095
   22474:	b80b883a 	mov	r5,r23
   22478:	9009883a 	mov	r4,r18
   2247c:	00228800 	call	22880 <_sbrk_r>
   22480:	10ffffe0 	cmpeqi	r3,r2,-1
   22484:	1800501e 	bne	r3,zero,225c8 <_malloc_r+0x744>
   22488:	1585c83a 	sub	r2,r2,r22
   2248c:	15e9883a 	add	r20,r2,r23
   22490:	008000f4 	movhi	r2,3
   22494:	10950217 	ldw	r2,21512(r2)
   22498:	9d800215 	stw	r22,8(r19)
   2249c:	a0c00054 	ori	r3,r20,1
   224a0:	b889883a 	add	r4,r23,r2
   224a4:	008000f4 	movhi	r2,3
   224a8:	11150215 	stw	r4,21512(r2)
   224ac:	b0c00115 	stw	r3,4(r22)
   224b0:	84ff4026 	beq	r16,r19,221b4 <_malloc_r+0x330>
   224b4:	a8800428 	cmpgeui	r2,r21,16
   224b8:	10003226 	beq	r2,zero,22584 <_malloc_r+0x700>
   224bc:	80800117 	ldw	r2,4(r16)
   224c0:	017ffe04 	movi	r5,-8
   224c4:	a8fffd04 	addi	r3,r21,-12
   224c8:	1946703a 	and	r3,r3,r5
   224cc:	1080004c 	andi	r2,r2,1
   224d0:	10c4b03a 	or	r2,r2,r3
   224d4:	80800115 	stw	r2,4(r16)
   224d8:	01400144 	movi	r5,5
   224dc:	80c5883a 	add	r2,r16,r3
   224e0:	11400115 	stw	r5,4(r2)
   224e4:	11400215 	stw	r5,8(r2)
   224e8:	18c00428 	cmpgeui	r3,r3,16
   224ec:	18003b1e 	bne	r3,zero,225dc <_malloc_r+0x758>
   224f0:	b0c00117 	ldw	r3,4(r22)
   224f4:	003f2f06 	br	221b4 <_malloc_r+0x330>
   224f8:	a5000404 	addi	r20,r20,16
   224fc:	003f1a06 	br	22168 <_malloc_r+0x2e4>
   22500:	2009d0ba 	srai	r4,r4,2
   22504:	00800044 	movi	r2,1
   22508:	1104983a 	sll	r2,r2,r4
   2250c:	288ab03a 	or	r5,r5,r2
   22510:	99400115 	stw	r5,4(r19)
   22514:	003f5906 	br	2227c <_malloc_r+0x3f8>
   22518:	b509883a 	add	r4,r22,r20
   2251c:	0109c83a 	sub	r4,zero,r4
   22520:	25c3ffcc 	andi	r23,r4,4095
   22524:	b80b883a 	mov	r5,r23
   22528:	9009883a 	mov	r4,r18
   2252c:	00228800 	call	22880 <_sbrk_r>
   22530:	10ffffe0 	cmpeqi	r3,r2,-1
   22534:	183fd426 	beq	r3,zero,22488 <_malloc_r+0x604>
   22538:	002f883a 	mov	r23,zero
   2253c:	003fd406 	br	22490 <_malloc_r+0x60c>
   22540:	19001568 	cmpgeui	r4,r3,85
   22544:	2000121e 	bne	r4,zero,22590 <_malloc_r+0x70c>
   22548:	1006d33a 	srli	r3,r2,12
   2254c:	19801bc4 	addi	r6,r3,111
   22550:	300c90fa 	slli	r6,r6,3
   22554:	19001b84 	addi	r4,r3,110
   22558:	003f3c06 	br	2224c <_malloc_r+0x3c8>
   2255c:	10c05568 	cmpgeui	r3,r2,341
   22560:	1800121e 	bne	r3,zero,225ac <_malloc_r+0x728>
   22564:	8804d3fa 	srli	r2,r17,15
   22568:	11c01e04 	addi	r7,r2,120
   2256c:	380890fa 	slli	r4,r7,3
   22570:	12001dc4 	addi	r8,r2,119
   22574:	003e8706 	br	21f94 <_malloc_r+0x110>
   22578:	008000f4 	movhi	r2,3
   2257c:	158de415 	stw	r22,14224(r2)
   22580:	003fb306 	br	22450 <_malloc_r+0x5cc>
   22584:	00800044 	movi	r2,1
   22588:	b0800115 	stw	r2,4(r22)
   2258c:	003f8806 	br	223b0 <_malloc_r+0x52c>
   22590:	19005568 	cmpgeui	r4,r3,341
   22594:	2000181e 	bne	r4,zero,225f8 <_malloc_r+0x774>
   22598:	1006d3fa 	srli	r3,r2,15
   2259c:	19801e04 	addi	r6,r3,120
   225a0:	300c90fa 	slli	r6,r6,3
   225a4:	19001dc4 	addi	r4,r3,119
   225a8:	003f2806 	br	2224c <_malloc_r+0x3c8>
   225ac:	10815568 	cmpgeui	r2,r2,1365
   225b0:	1000181e 	bne	r2,zero,22614 <_malloc_r+0x790>
   225b4:	8804d4ba 	srli	r2,r17,18
   225b8:	11c01f44 	addi	r7,r2,125
   225bc:	380890fa 	slli	r4,r7,3
   225c0:	12001f04 	addi	r8,r2,124
   225c4:	003e7306 	br	21f94 <_malloc_r+0x110>
   225c8:	e73ffe04 	addi	fp,fp,-8
   225cc:	a729883a 	add	r20,r20,fp
   225d0:	a5a9c83a 	sub	r20,r20,r22
   225d4:	002f883a 	mov	r23,zero
   225d8:	003fad06 	br	22490 <_malloc_r+0x60c>
   225dc:	9009883a 	mov	r4,r18
   225e0:	81400204 	addi	r5,r16,8
   225e4:	00271e80 	call	271e8 <_free_r>
   225e8:	008000f4 	movhi	r2,3
   225ec:	9d800217 	ldw	r22,8(r19)
   225f0:	11150217 	ldw	r4,21512(r2)
   225f4:	003fbe06 	br	224f0 <_malloc_r+0x66c>
   225f8:	18c15568 	cmpgeui	r3,r3,1365
   225fc:	1800091e 	bne	r3,zero,22624 <_malloc_r+0x7a0>
   22600:	1006d4ba 	srli	r3,r2,18
   22604:	19801f44 	addi	r6,r3,125
   22608:	300c90fa 	slli	r6,r6,3
   2260c:	19001f04 	addi	r4,r3,124
   22610:	003f0e06 	br	2224c <_malloc_r+0x3c8>
   22614:	0100fe04 	movi	r4,1016
   22618:	01c01fc4 	movi	r7,127
   2261c:	02001f84 	movi	r8,126
   22620:	003e5c06 	br	21f94 <_malloc_r+0x110>
   22624:	0180fe04 	movi	r6,1016
   22628:	01001f84 	movi	r4,126
   2262c:	003f0706 	br	2224c <_malloc_r+0x3c8>
   22630:	98800117 	ldw	r2,4(r19)
   22634:	003f6f06 	br	223f4 <_malloc_r+0x570>

00022638 <memcpy>:
   22638:	30c00428 	cmpgeui	r3,r6,16
   2263c:	2005883a 	mov	r2,r4
   22640:	18000b1e 	bne	r3,zero,22670 <memcpy+0x38>
   22644:	2007883a 	mov	r3,r4
   22648:	31ffffc4 	addi	r7,r6,-1
   2264c:	30003426 	beq	r6,zero,22720 <memcpy+0xe8>
   22650:	39c00044 	addi	r7,r7,1
   22654:	19cf883a 	add	r7,r3,r7
   22658:	29800003 	ldbu	r6,0(r5)
   2265c:	18c00044 	addi	r3,r3,1
   22660:	29400044 	addi	r5,r5,1
   22664:	19bfffc5 	stb	r6,-1(r3)
   22668:	19fffb1e 	bne	r3,r7,22658 <memcpy+0x20>
   2266c:	f800283a 	ret
   22670:	2146b03a 	or	r3,r4,r5
   22674:	18c000cc 	andi	r3,r3,3
   22678:	18002a1e 	bne	r3,zero,22724 <memcpy+0xec>
   2267c:	333ffc04 	addi	r12,r6,-16
   22680:	6018d13a 	srli	r12,r12,4
   22684:	2811883a 	mov	r8,r5
   22688:	200f883a 	mov	r7,r4
   2268c:	63000044 	addi	r12,r12,1
   22690:	6018913a 	slli	r12,r12,4
   22694:	2307883a 	add	r3,r4,r12
   22698:	42c00017 	ldw	r11,0(r8)
   2269c:	42800117 	ldw	r10,4(r8)
   226a0:	42400217 	ldw	r9,8(r8)
   226a4:	41000317 	ldw	r4,12(r8)
   226a8:	39c00404 	addi	r7,r7,16
   226ac:	3afffc15 	stw	r11,-16(r7)
   226b0:	3abffd15 	stw	r10,-12(r7)
   226b4:	3a7ffe15 	stw	r9,-8(r7)
   226b8:	393fff15 	stw	r4,-4(r7)
   226bc:	42000404 	addi	r8,r8,16
   226c0:	38fff51e 	bne	r7,r3,22698 <memcpy+0x60>
   226c4:	3100030c 	andi	r4,r6,12
   226c8:	2b0b883a 	add	r5,r5,r12
   226cc:	324003cc 	andi	r9,r6,15
   226d0:	20001726 	beq	r4,zero,22730 <memcpy+0xf8>
   226d4:	2811883a 	mov	r8,r5
   226d8:	1809883a 	mov	r4,r3
   226dc:	1a57883a 	add	r11,r3,r9
   226e0:	42800017 	ldw	r10,0(r8)
   226e4:	21000104 	addi	r4,r4,4
   226e8:	590fc83a 	sub	r7,r11,r4
   226ec:	39c00128 	cmpgeui	r7,r7,4
   226f0:	22bfff15 	stw	r10,-4(r4)
   226f4:	42000104 	addi	r8,r8,4
   226f8:	383ff91e 	bne	r7,zero,226e0 <memcpy+0xa8>
   226fc:	493fff04 	addi	r4,r9,-4
   22700:	2008d0ba 	srli	r4,r4,2
   22704:	318000cc 	andi	r6,r6,3
   22708:	31ffffc4 	addi	r7,r6,-1
   2270c:	21000044 	addi	r4,r4,1
   22710:	200890ba 	slli	r4,r4,2
   22714:	1907883a 	add	r3,r3,r4
   22718:	290b883a 	add	r5,r5,r4
   2271c:	303fcc1e 	bne	r6,zero,22650 <memcpy+0x18>
   22720:	f800283a 	ret
   22724:	31ffffc4 	addi	r7,r6,-1
   22728:	2007883a 	mov	r3,r4
   2272c:	003fc806 	br	22650 <memcpy+0x18>
   22730:	480d883a 	mov	r6,r9
   22734:	003fc406 	br	22648 <memcpy+0x10>

00022738 <_printf_r>:
   22738:	defffd04 	addi	sp,sp,-12
   2273c:	2805883a 	mov	r2,r5
   22740:	dfc00015 	stw	ra,0(sp)
   22744:	d9800115 	stw	r6,4(sp)
   22748:	d9c00215 	stw	r7,8(sp)
   2274c:	21400217 	ldw	r5,8(r4)
   22750:	d9c00104 	addi	r7,sp,4
   22754:	100d883a 	mov	r6,r2
   22758:	00229700 	call	22970 <___vfprintf_internal_r>
   2275c:	dfc00017 	ldw	ra,0(sp)
   22760:	dec00304 	addi	sp,sp,12
   22764:	f800283a 	ret

00022768 <printf>:
   22768:	defffc04 	addi	sp,sp,-16
   2276c:	dfc00015 	stw	ra,0(sp)
   22770:	d9400115 	stw	r5,4(sp)
   22774:	d9800215 	stw	r6,8(sp)
   22778:	d9c00315 	stw	r7,12(sp)
   2277c:	008000f4 	movhi	r2,3
   22780:	108de717 	ldw	r2,14236(r2)
   22784:	200b883a 	mov	r5,r4
   22788:	d9800104 	addi	r6,sp,4
   2278c:	11000217 	ldw	r4,8(r2)
   22790:	0024e200 	call	24e20 <__vfprintf_internal>
   22794:	dfc00017 	ldw	ra,0(sp)
   22798:	dec00404 	addi	sp,sp,16
   2279c:	f800283a 	ret

000227a0 <_puts_r>:
   227a0:	defff504 	addi	sp,sp,-44
   227a4:	dc000815 	stw	r16,32(sp)
   227a8:	2021883a 	mov	r16,r4
   227ac:	2809883a 	mov	r4,r5
   227b0:	dc400915 	stw	r17,36(sp)
   227b4:	dfc00a15 	stw	ra,40(sp)
   227b8:	2823883a 	mov	r17,r5
   227bc:	00228d80 	call	228d8 <strlen>
   227c0:	11000044 	addi	r4,r2,1
   227c4:	d8800515 	stw	r2,20(sp)
   227c8:	00800044 	movi	r2,1
   227cc:	00c000f4 	movhi	r3,3
   227d0:	d8800715 	stw	r2,28(sp)
   227d4:	d8800404 	addi	r2,sp,16
   227d8:	18c59704 	addi	r3,r3,5724
   227dc:	d8800115 	stw	r2,4(sp)
   227e0:	00800084 	movi	r2,2
   227e4:	dc400415 	stw	r17,16(sp)
   227e8:	d8c00615 	stw	r3,24(sp)
   227ec:	d9000315 	stw	r4,12(sp)
   227f0:	d8800215 	stw	r2,8(sp)
   227f4:	81400217 	ldw	r5,8(r16)
   227f8:	80000226 	beq	r16,zero,22804 <_puts_r+0x64>
   227fc:	80800e17 	ldw	r2,56(r16)
   22800:	10001426 	beq	r2,zero,22854 <_puts_r+0xb4>
   22804:	2880030b 	ldhu	r2,12(r5)
   22808:	10c8000c 	andi	r3,r2,8192
   2280c:	1800061e 	bne	r3,zero,22828 <_puts_r+0x88>
   22810:	28c01917 	ldw	r3,100(r5)
   22814:	0137ffc4 	movi	r4,-8193
   22818:	10880014 	ori	r2,r2,8192
   2281c:	1906703a 	and	r3,r3,r4
   22820:	2880030d 	sth	r2,12(r5)
   22824:	28c01915 	stw	r3,100(r5)
   22828:	d9800104 	addi	r6,sp,4
   2282c:	8009883a 	mov	r4,r16
   22830:	00274f00 	call	274f0 <__sfvwrite_r>
   22834:	1007883a 	mov	r3,r2
   22838:	00800284 	movi	r2,10
   2283c:	18000a1e 	bne	r3,zero,22868 <_puts_r+0xc8>
   22840:	dfc00a17 	ldw	ra,40(sp)
   22844:	dc400917 	ldw	r17,36(sp)
   22848:	dc000817 	ldw	r16,32(sp)
   2284c:	dec00b04 	addi	sp,sp,44
   22850:	f800283a 	ret
   22854:	8009883a 	mov	r4,r16
   22858:	d9400015 	stw	r5,0(sp)
   2285c:	002707c0 	call	2707c <__sinit>
   22860:	d9400017 	ldw	r5,0(sp)
   22864:	003fe706 	br	22804 <_puts_r+0x64>
   22868:	00bfffc4 	movi	r2,-1
   2286c:	003ff406 	br	22840 <_puts_r+0xa0>

00022870 <puts>:
   22870:	008000f4 	movhi	r2,3
   22874:	200b883a 	mov	r5,r4
   22878:	110de717 	ldw	r4,14236(r2)
   2287c:	00227a01 	jmpi	227a0 <_puts_r>

00022880 <_sbrk_r>:
   22880:	defffe04 	addi	sp,sp,-8
   22884:	dc000015 	stw	r16,0(sp)
   22888:	008000f4 	movhi	r2,3
   2288c:	2021883a 	mov	r16,r4
   22890:	2809883a 	mov	r4,r5
   22894:	dfc00115 	stw	ra,4(sp)
   22898:	1014f815 	stw	zero,21472(r2)
   2289c:	002f3f80 	call	2f3f8 <sbrk>
   228a0:	10ffffd8 	cmpnei	r3,r2,-1
   228a4:	18000426 	beq	r3,zero,228b8 <_sbrk_r+0x38>
   228a8:	dfc00117 	ldw	ra,4(sp)
   228ac:	dc000017 	ldw	r16,0(sp)
   228b0:	dec00204 	addi	sp,sp,8
   228b4:	f800283a 	ret
   228b8:	00c000f4 	movhi	r3,3
   228bc:	18d4f817 	ldw	r3,21472(r3)
   228c0:	183ff926 	beq	r3,zero,228a8 <_sbrk_r+0x28>
   228c4:	80c00015 	stw	r3,0(r16)
   228c8:	dfc00117 	ldw	ra,4(sp)
   228cc:	dc000017 	ldw	r16,0(sp)
   228d0:	dec00204 	addi	sp,sp,8
   228d4:	f800283a 	ret

000228d8 <strlen>:
   228d8:	208000cc 	andi	r2,r4,3
   228dc:	10000926 	beq	r2,zero,22904 <strlen+0x2c>
   228e0:	2005883a 	mov	r2,r4
   228e4:	00000306 	br	228f4 <strlen+0x1c>
   228e8:	10800044 	addi	r2,r2,1
   228ec:	10c000cc 	andi	r3,r2,3
   228f0:	18000526 	beq	r3,zero,22908 <strlen+0x30>
   228f4:	10c00007 	ldb	r3,0(r2)
   228f8:	183ffb1e 	bne	r3,zero,228e8 <strlen+0x10>
   228fc:	1105c83a 	sub	r2,r2,r4
   22900:	f800283a 	ret
   22904:	2005883a 	mov	r2,r4
   22908:	11400017 	ldw	r5,0(r2)
   2290c:	01ffbff4 	movhi	r7,65279
   22910:	39ffbfc4 	addi	r7,r7,-257
   22914:	29c7883a 	add	r3,r5,r7
   22918:	01a02074 	movhi	r6,32897
   2291c:	014a303a 	nor	r5,zero,r5
   22920:	1946703a 	and	r3,r3,r5
   22924:	31a02004 	addi	r6,r6,-32640
   22928:	1986703a 	and	r3,r3,r6
   2292c:	1800071e 	bne	r3,zero,2294c <strlen+0x74>
   22930:	11400117 	ldw	r5,4(r2)
   22934:	10800104 	addi	r2,r2,4
   22938:	29c7883a 	add	r3,r5,r7
   2293c:	014a303a 	nor	r5,zero,r5
   22940:	1946703a 	and	r3,r3,r5
   22944:	1986703a 	and	r3,r3,r6
   22948:	183ff926 	beq	r3,zero,22930 <strlen+0x58>
   2294c:	10c00007 	ldb	r3,0(r2)
   22950:	183fea26 	beq	r3,zero,228fc <strlen+0x24>
   22954:	10c00047 	ldb	r3,1(r2)
   22958:	10800044 	addi	r2,r2,1
   2295c:	183fe726 	beq	r3,zero,228fc <strlen+0x24>
   22960:	10c00047 	ldb	r3,1(r2)
   22964:	10800044 	addi	r2,r2,1
   22968:	183ffa1e 	bne	r3,zero,22954 <strlen+0x7c>
   2296c:	003fe306 	br	228fc <strlen+0x24>

00022970 <___vfprintf_internal_r>:
   22970:	deffbc04 	addi	sp,sp,-272
   22974:	dfc04315 	stw	ra,268(sp)
   22978:	dc803c15 	stw	r18,240(sp)
   2297c:	dc003a15 	stw	r16,232(sp)
   22980:	d9000515 	stw	r4,20(sp)
   22984:	2021883a 	mov	r16,r4
   22988:	d9400415 	stw	r5,16(sp)
   2298c:	3025883a 	mov	r18,r6
   22990:	d9c00715 	stw	r7,28(sp)
   22994:	df004215 	stw	fp,264(sp)
   22998:	ddc04115 	stw	r23,260(sp)
   2299c:	dd804015 	stw	r22,256(sp)
   229a0:	dd403f15 	stw	r21,252(sp)
   229a4:	dd003e15 	stw	r20,248(sp)
   229a8:	dcc03d15 	stw	r19,244(sp)
   229ac:	dc403b15 	stw	r17,236(sp)
   229b0:	0027ae00 	call	27ae0 <_localeconv_r>
   229b4:	10800017 	ldw	r2,0(r2)
   229b8:	1009883a 	mov	r4,r2
   229bc:	d8800d15 	stw	r2,52(sp)
   229c0:	00228d80 	call	228d8 <strlen>
   229c4:	d8800c15 	stw	r2,48(sp)
   229c8:	80000226 	beq	r16,zero,229d4 <___vfprintf_internal_r+0x64>
   229cc:	80800e17 	ldw	r2,56(r16)
   229d0:	10023726 	beq	r2,zero,232b0 <___vfprintf_internal_r+0x940>
   229d4:	d9400417 	ldw	r5,16(sp)
   229d8:	2880030b 	ldhu	r2,12(r5)
   229dc:	10c8000c 	andi	r3,r2,8192
   229e0:	1800071e 	bne	r3,zero,22a00 <___vfprintf_internal_r+0x90>
   229e4:	28c01917 	ldw	r3,100(r5)
   229e8:	11080014 	ori	r4,r2,8192
   229ec:	00b7ffc4 	movi	r2,-8193
   229f0:	1886703a 	and	r3,r3,r2
   229f4:	2900030d 	sth	r4,12(r5)
   229f8:	2005883a 	mov	r2,r4
   229fc:	28c01915 	stw	r3,100(r5)
   22a00:	10c0020c 	andi	r3,r2,8
   22a04:	1800f726 	beq	r3,zero,22de4 <___vfprintf_internal_r+0x474>
   22a08:	d8c00417 	ldw	r3,16(sp)
   22a0c:	18c00417 	ldw	r3,16(r3)
   22a10:	1800f426 	beq	r3,zero,22de4 <___vfprintf_internal_r+0x474>
   22a14:	1080068c 	andi	r2,r2,26
   22a18:	10800298 	cmpnei	r2,r2,10
   22a1c:	1000fa26 	beq	r2,zero,22e08 <___vfprintf_internal_r+0x498>
   22a20:	dc402a04 	addi	r17,sp,168
   22a24:	04c000f4 	movhi	r19,3
   22a28:	dc401d15 	stw	r17,116(sp)
   22a2c:	d8001f15 	stw	zero,124(sp)
   22a30:	d8001e15 	stw	zero,120(sp)
   22a34:	d8000915 	stw	zero,36(sp)
   22a38:	d8000a15 	stw	zero,40(sp)
   22a3c:	d8000b15 	stw	zero,44(sp)
   22a40:	d8000e15 	stw	zero,56(sp)
   22a44:	d8001215 	stw	zero,72(sp)
   22a48:	d8000615 	stw	zero,24(sp)
   22a4c:	9cc5a904 	addi	r19,r19,5796
   22a50:	8821883a 	mov	r16,r17
   22a54:	9029883a 	mov	r20,r18
   22a58:	a0800007 	ldb	r2,0(r20)
   22a5c:	1000ce26 	beq	r2,zero,22d98 <___vfprintf_internal_r+0x428>
   22a60:	a025883a 	mov	r18,r20
   22a64:	00000306 	br	22a74 <___vfprintf_internal_r+0x104>
   22a68:	90800047 	ldb	r2,1(r18)
   22a6c:	94800044 	addi	r18,r18,1
   22a70:	10015226 	beq	r2,zero,22fbc <___vfprintf_internal_r+0x64c>
   22a74:	10800958 	cmpnei	r2,r2,37
   22a78:	103ffb1e 	bne	r2,zero,22a68 <___vfprintf_internal_r+0xf8>
   22a7c:	952fc83a 	sub	r23,r18,r20
   22a80:	9501501e 	bne	r18,r20,22fc4 <___vfprintf_internal_r+0x654>
   22a84:	90800003 	ldbu	r2,0(r18)
   22a88:	10803fcc 	andi	r2,r2,255
   22a8c:	1080201c 	xori	r2,r2,128
   22a90:	10bfe004 	addi	r2,r2,-128
   22a94:	1000c026 	beq	r2,zero,22d98 <___vfprintf_internal_r+0x428>
   22a98:	92c00047 	ldb	r11,1(r18)
   22a9c:	95000044 	addi	r20,r18,1
   22aa0:	d8001645 	stb	zero,89(sp)
   22aa4:	04bfffc4 	movi	r18,-1
   22aa8:	0015883a 	mov	r10,zero
   22aac:	0019883a 	mov	r12,zero
   22ab0:	a5000044 	addi	r20,r20,1
   22ab4:	58bff804 	addi	r2,r11,-32
   22ab8:	10c01668 	cmpgeui	r3,r2,89
   22abc:	18006c1e 	bne	r3,zero,22c70 <___vfprintf_internal_r+0x300>
   22ac0:	100490ba 	slli	r2,r2,2
   22ac4:	00c000b4 	movhi	r3,2
   22ac8:	10c7883a 	add	r3,r2,r3
   22acc:	188ab517 	ldw	r2,10964(r3)
   22ad0:	1000683a 	jmp	r2
   22ad4:	00023388 	cmpgei	zero,zero,2254
   22ad8:	00022c70 	cmpltui	zero,zero,2225
   22adc:	00022c70 	cmpltui	zero,zero,2225
   22ae0:	0002337c 	xorhi	zero,zero,2253
   22ae4:	00022c70 	cmpltui	zero,zero,2225
   22ae8:	00022c70 	cmpltui	zero,zero,2225
   22aec:	00022c70 	cmpltui	zero,zero,2225
   22af0:	00022c70 	cmpltui	zero,zero,2225
   22af4:	00022c70 	cmpltui	zero,zero,2225
   22af8:	00022c70 	cmpltui	zero,zero,2225
   22afc:	000232f0 	cmpltui	zero,zero,2251
   22b00:	0002336c 	andhi	zero,zero,2253
   22b04:	00022c70 	cmpltui	zero,zero,2225
   22b08:	00023308 	cmpgei	zero,zero,2252
   22b0c:	00023314 	movui	zero,2252
   22b10:	00022c70 	cmpltui	zero,zero,2225
   22b14:	00023360 	cmpeqi	zero,zero,2253
   22b18:	00022c38 	rdprs	zero,zero,2224
   22b1c:	00022c38 	rdprs	zero,zero,2224
   22b20:	00022c38 	rdprs	zero,zero,2224
   22b24:	00022c38 	rdprs	zero,zero,2224
   22b28:	00022c38 	rdprs	zero,zero,2224
   22b2c:	00022c38 	rdprs	zero,zero,2224
   22b30:	00022c38 	rdprs	zero,zero,2224
   22b34:	00022c38 	rdprs	zero,zero,2224
   22b38:	00022c38 	rdprs	zero,zero,2224
   22b3c:	00022c70 	cmpltui	zero,zero,2225
   22b40:	00022c70 	cmpltui	zero,zero,2225
   22b44:	00022c70 	cmpltui	zero,zero,2225
   22b48:	00022c70 	cmpltui	zero,zero,2225
   22b4c:	00022c70 	cmpltui	zero,zero,2225
   22b50:	00022c70 	cmpltui	zero,zero,2225
   22b54:	00022c70 	cmpltui	zero,zero,2225
   22b58:	00022c70 	cmpltui	zero,zero,2225
   22b5c:	00022c70 	cmpltui	zero,zero,2225
   22b60:	00022c70 	cmpltui	zero,zero,2225
   22b64:	00022e54 	movui	zero,2233
   22b68:	00023110 	cmplti	zero,zero,2244
   22b6c:	00022c70 	cmpltui	zero,zero,2225
   22b70:	00023110 	cmplti	zero,zero,2244
   22b74:	00022c70 	cmpltui	zero,zero,2225
   22b78:	00022c70 	cmpltui	zero,zero,2225
   22b7c:	00022c70 	cmpltui	zero,zero,2225
   22b80:	00022c70 	cmpltui	zero,zero,2225
   22b84:	000233d4 	movui	zero,2255
   22b88:	00022c70 	cmpltui	zero,zero,2225
   22b8c:	00022c70 	cmpltui	zero,zero,2225
   22b90:	00022ebc 	xorhi	zero,zero,2234
   22b94:	00022c70 	cmpltui	zero,zero,2225
   22b98:	00022c70 	cmpltui	zero,zero,2225
   22b9c:	00022c70 	cmpltui	zero,zero,2225
   22ba0:	00022c70 	cmpltui	zero,zero,2225
   22ba4:	00022c70 	cmpltui	zero,zero,2225
   22ba8:	00022ee4 	muli	zero,zero,2235
   22bac:	00022c70 	cmpltui	zero,zero,2225
   22bb0:	00022c70 	cmpltui	zero,zero,2225
   22bb4:	00023f74 	movhi	zero,2301
   22bb8:	00022c70 	cmpltui	zero,zero,2225
   22bbc:	00022c70 	cmpltui	zero,zero,2225
   22bc0:	00022c70 	cmpltui	zero,zero,2225
   22bc4:	00022c70 	cmpltui	zero,zero,2225
   22bc8:	00022c70 	cmpltui	zero,zero,2225
   22bcc:	00022c70 	cmpltui	zero,zero,2225
   22bd0:	00022c70 	cmpltui	zero,zero,2225
   22bd4:	00022c70 	cmpltui	zero,zero,2225
   22bd8:	00022c70 	cmpltui	zero,zero,2225
   22bdc:	00022c70 	cmpltui	zero,zero,2225
   22be0:	000233ec 	andhi	zero,zero,2255
   22be4:	00022e58 	cmpnei	zero,zero,2233
   22be8:	00023110 	cmplti	zero,zero,2244
   22bec:	00023110 	cmplti	zero,zero,2244
   22bf0:	00023110 	cmplti	zero,zero,2244
   22bf4:	000233e0 	cmpeqi	zero,zero,2255
   22bf8:	00022e58 	cmpnei	zero,zero,2233
   22bfc:	00022c70 	cmpltui	zero,zero,2225
   22c00:	00022c70 	cmpltui	zero,zero,2225
   22c04:	000233ac 	andhi	zero,zero,2254
   22c08:	00022c70 	cmpltui	zero,zero,2225
   22c0c:	000234b0 	cmpltui	zero,zero,2258
   22c10:	00022ec0 	call	22ec <__reset-0x1dd14>
   22c14:	00023478 	rdprs	zero,zero,2257
   22c18:	0002346c 	andhi	zero,zero,2257
   22c1c:	00022c70 	cmpltui	zero,zero,2225
   22c20:	00023414 	movui	zero,2256
   22c24:	00022c70 	cmpltui	zero,zero,2225
   22c28:	00022ee8 	cmpgeui	zero,zero,2235
   22c2c:	00022c70 	cmpltui	zero,zero,2225
   22c30:	00022c70 	cmpltui	zero,zero,2225
   22c34:	00023fe4 	muli	zero,zero,2303
   22c38:	0015883a 	mov	r10,zero
   22c3c:	58fff404 	addi	r3,r11,-48
   22c40:	500490ba 	slli	r2,r10,2
   22c44:	a2c00007 	ldb	r11,0(r20)
   22c48:	a5000044 	addi	r20,r20,1
   22c4c:	1295883a 	add	r10,r2,r10
   22c50:	5295883a 	add	r10,r10,r10
   22c54:	1a95883a 	add	r10,r3,r10
   22c58:	58fff404 	addi	r3,r11,-48
   22c5c:	188002b0 	cmpltui	r2,r3,10
   22c60:	103ff71e 	bne	r2,zero,22c40 <___vfprintf_internal_r+0x2d0>
   22c64:	58bff804 	addi	r2,r11,-32
   22c68:	10c01668 	cmpgeui	r3,r2,89
   22c6c:	183f9426 	beq	r3,zero,22ac0 <___vfprintf_internal_r+0x150>
   22c70:	58004926 	beq	r11,zero,22d98 <___vfprintf_internal_r+0x428>
   22c74:	dac02005 	stb	r11,128(sp)
   22c78:	d8001645 	stb	zero,89(sp)
   22c7c:	03400044 	movi	r13,1
   22c80:	07000044 	movi	fp,1
   22c84:	dd402004 	addi	r21,sp,128
   22c88:	6007883a 	mov	r3,r12
   22c8c:	0025883a 	mov	r18,zero
   22c90:	d8000815 	stw	zero,32(sp)
   22c94:	1b80008c 	andi	r14,r3,2
   22c98:	70000126 	beq	r14,zero,22ca0 <___vfprintf_internal_r+0x330>
   22c9c:	6b400084 	addi	r13,r13,2
   22ca0:	1b00210c 	andi	r12,r3,132
   22ca4:	6000021e 	bne	r12,zero,22cb0 <___vfprintf_internal_r+0x340>
   22ca8:	536dc83a 	sub	r22,r10,r13
   22cac:	05833416 	blt	zero,r22,23980 <___vfprintf_internal_r+0x1010>
   22cb0:	d8801647 	ldb	r2,89(sp)
   22cb4:	dd801f17 	ldw	r22,124(sp)
   22cb8:	10000c26 	beq	r2,zero,22cec <___vfprintf_internal_r+0x37c>
   22cbc:	d8801e17 	ldw	r2,120(sp)
   22cc0:	d9001644 	addi	r4,sp,89
   22cc4:	b5800044 	addi	r22,r22,1
   22cc8:	10800044 	addi	r2,r2,1
   22ccc:	81000015 	stw	r4,0(r16)
   22cd0:	01000044 	movi	r4,1
   22cd4:	d8801e15 	stw	r2,120(sp)
   22cd8:	81000115 	stw	r4,4(r16)
   22cdc:	dd801f15 	stw	r22,124(sp)
   22ce0:	10800208 	cmpgei	r2,r2,8
   22ce4:	1003881e 	bne	r2,zero,23b08 <___vfprintf_internal_r+0x1198>
   22ce8:	84000204 	addi	r16,r16,8
   22cec:	70000c26 	beq	r14,zero,22d20 <___vfprintf_internal_r+0x3b0>
   22cf0:	d8801e17 	ldw	r2,120(sp)
   22cf4:	d9001684 	addi	r4,sp,90
   22cf8:	b5800084 	addi	r22,r22,2
   22cfc:	10800044 	addi	r2,r2,1
   22d00:	81000015 	stw	r4,0(r16)
   22d04:	01000084 	movi	r4,2
   22d08:	d8801e15 	stw	r2,120(sp)
   22d0c:	81000115 	stw	r4,4(r16)
   22d10:	dd801f15 	stw	r22,124(sp)
   22d14:	10800208 	cmpgei	r2,r2,8
   22d18:	10038f1e 	bne	r2,zero,23b58 <___vfprintf_internal_r+0x11e8>
   22d1c:	84000204 	addi	r16,r16,8
   22d20:	63002018 	cmpnei	r12,r12,128
   22d24:	60024326 	beq	r12,zero,23634 <___vfprintf_internal_r+0xcc4>
   22d28:	9725c83a 	sub	r18,r18,fp
   22d2c:	04828316 	blt	zero,r18,2373c <___vfprintf_internal_r+0xdcc>
   22d30:	1880400c 	andi	r2,r3,256
   22d34:	1001ea1e 	bne	r2,zero,234e0 <___vfprintf_internal_r+0xb70>
   22d38:	d8801e17 	ldw	r2,120(sp)
   22d3c:	e589883a 	add	r4,fp,r22
   22d40:	85400015 	stw	r21,0(r16)
   22d44:	10800044 	addi	r2,r2,1
   22d48:	d8801e15 	stw	r2,120(sp)
   22d4c:	87000115 	stw	fp,4(r16)
   22d50:	d9001f15 	stw	r4,124(sp)
   22d54:	10800208 	cmpgei	r2,r2,8
   22d58:	10035d1e 	bne	r2,zero,23ad0 <___vfprintf_internal_r+0x1160>
   22d5c:	84000204 	addi	r16,r16,8
   22d60:	18c0010c 	andi	r3,r3,4
   22d64:	18000226 	beq	r3,zero,22d70 <___vfprintf_internal_r+0x400>
   22d68:	5365c83a 	sub	r18,r10,r13
   22d6c:	0480ac16 	blt	zero,r18,23020 <___vfprintf_internal_r+0x6b0>
   22d70:	5340010e 	bge	r10,r13,22d78 <___vfprintf_internal_r+0x408>
   22d74:	6815883a 	mov	r10,r13
   22d78:	d8800617 	ldw	r2,24(sp)
   22d7c:	1285883a 	add	r2,r2,r10
   22d80:	d8800615 	stw	r2,24(sp)
   22d84:	2002bb1e 	bne	r4,zero,23874 <___vfprintf_internal_r+0xf04>
   22d88:	a0800007 	ldb	r2,0(r20)
   22d8c:	d8001e15 	stw	zero,120(sp)
   22d90:	8821883a 	mov	r16,r17
   22d94:	103f321e 	bne	r2,zero,22a60 <___vfprintf_internal_r+0xf0>
   22d98:	d8801f17 	ldw	r2,124(sp)
   22d9c:	10065e1e 	bne	r2,zero,24718 <___vfprintf_internal_r+0x1da8>
   22da0:	d8800417 	ldw	r2,16(sp)
   22da4:	1080030b 	ldhu	r2,12(r2)
   22da8:	1080100c 	andi	r2,r2,64
   22dac:	1007931e 	bne	r2,zero,24bfc <___vfprintf_internal_r+0x228c>
   22db0:	d8800617 	ldw	r2,24(sp)
   22db4:	dfc04317 	ldw	ra,268(sp)
   22db8:	df004217 	ldw	fp,264(sp)
   22dbc:	ddc04117 	ldw	r23,260(sp)
   22dc0:	dd804017 	ldw	r22,256(sp)
   22dc4:	dd403f17 	ldw	r21,252(sp)
   22dc8:	dd003e17 	ldw	r20,248(sp)
   22dcc:	dcc03d17 	ldw	r19,244(sp)
   22dd0:	dc803c17 	ldw	r18,240(sp)
   22dd4:	dc403b17 	ldw	r17,236(sp)
   22dd8:	dc003a17 	ldw	r16,232(sp)
   22ddc:	dec04404 	addi	sp,sp,272
   22de0:	f800283a 	ret
   22de4:	d9400417 	ldw	r5,16(sp)
   22de8:	d9000517 	ldw	r4,20(sp)
   22dec:	0024f000 	call	24f00 <__swsetup_r>
   22df0:	1007821e 	bne	r2,zero,24bfc <___vfprintf_internal_r+0x228c>
   22df4:	d8800417 	ldw	r2,16(sp)
   22df8:	1080030b 	ldhu	r2,12(r2)
   22dfc:	1080068c 	andi	r2,r2,26
   22e00:	10800298 	cmpnei	r2,r2,10
   22e04:	103f061e 	bne	r2,zero,22a20 <___vfprintf_internal_r+0xb0>
   22e08:	d8800417 	ldw	r2,16(sp)
   22e0c:	1080038f 	ldh	r2,14(r2)
   22e10:	103f0316 	blt	r2,zero,22a20 <___vfprintf_internal_r+0xb0>
   22e14:	d9c00717 	ldw	r7,28(sp)
   22e18:	d9400417 	ldw	r5,16(sp)
   22e1c:	d9000517 	ldw	r4,20(sp)
   22e20:	900d883a 	mov	r6,r18
   22e24:	dfc04317 	ldw	ra,268(sp)
   22e28:	df004217 	ldw	fp,264(sp)
   22e2c:	ddc04117 	ldw	r23,260(sp)
   22e30:	dd804017 	ldw	r22,256(sp)
   22e34:	dd403f17 	ldw	r21,252(sp)
   22e38:	dd003e17 	ldw	r20,248(sp)
   22e3c:	dcc03d17 	ldw	r19,244(sp)
   22e40:	dc803c17 	ldw	r18,240(sp)
   22e44:	dc403b17 	ldw	r17,236(sp)
   22e48:	dc003a17 	ldw	r16,232(sp)
   22e4c:	dec04404 	addi	sp,sp,272
   22e50:	0024e3c1 	jmpi	24e3c <__sbprintf>
   22e54:	63000414 	ori	r12,r12,16
   22e58:	6080080c 	andi	r2,r12,32
   22e5c:	1000e726 	beq	r2,zero,231fc <___vfprintf_internal_r+0x88c>
   22e60:	d8c00717 	ldw	r3,28(sp)
   22e64:	18800117 	ldw	r2,4(r3)
   22e68:	1d800017 	ldw	r22,0(r3)
   22e6c:	18c00204 	addi	r3,r3,8
   22e70:	d8c00715 	stw	r3,28(sp)
   22e74:	1039883a 	mov	fp,r2
   22e78:	1000ee16 	blt	r2,zero,23234 <___vfprintf_internal_r+0x8c4>
   22e7c:	90bfffd8 	cmpnei	r2,r18,-1
   22e80:	ddc01643 	ldbu	r23,89(sp)
   22e84:	10011126 	beq	r2,zero,232cc <___vfprintf_internal_r+0x95c>
   22e88:	00ffdfc4 	movi	r3,-129
   22e8c:	b704b03a 	or	r2,r22,fp
   22e90:	60c6703a 	and	r3,r12,r3
   22e94:	10010c1e 	bne	r2,zero,232c8 <___vfprintf_internal_r+0x958>
   22e98:	00800044 	movi	r2,1
   22e9c:	90025e1e 	bne	r18,zero,23818 <___vfprintf_internal_r+0xea8>
   22ea0:	1003ba1e 	bne	r2,zero,23d8c <___vfprintf_internal_r+0x141c>
   22ea4:	6700004c 	andi	fp,r12,1
   22ea8:	e0040626 	beq	fp,zero,23ec4 <___vfprintf_internal_r+0x1554>
   22eac:	00800c04 	movi	r2,48
   22eb0:	d88029c5 	stb	r2,167(sp)
   22eb4:	dd4029c4 	addi	r21,sp,167
   22eb8:	00003606 	br	22f94 <___vfprintf_internal_r+0x624>
   22ebc:	63000414 	ori	r12,r12,16
   22ec0:	6080080c 	andi	r2,r12,32
   22ec4:	1000ee26 	beq	r2,zero,23280 <___vfprintf_internal_r+0x910>
   22ec8:	d8c00717 	ldw	r3,28(sp)
   22ecc:	0005883a 	mov	r2,zero
   22ed0:	1d800017 	ldw	r22,0(r3)
   22ed4:	1f000117 	ldw	fp,4(r3)
   22ed8:	18c00204 	addi	r3,r3,8
   22edc:	d8c00715 	stw	r3,28(sp)
   22ee0:	00000906 	br	22f08 <___vfprintf_internal_r+0x598>
   22ee4:	63000414 	ori	r12,r12,16
   22ee8:	6080080c 	andi	r2,r12,32
   22eec:	1000d826 	beq	r2,zero,23250 <___vfprintf_internal_r+0x8e0>
   22ef0:	d8c00717 	ldw	r3,28(sp)
   22ef4:	00800044 	movi	r2,1
   22ef8:	1d800017 	ldw	r22,0(r3)
   22efc:	1f000117 	ldw	fp,4(r3)
   22f00:	18c00204 	addi	r3,r3,8
   22f04:	d8c00715 	stw	r3,28(sp)
   22f08:	002f883a 	mov	r23,zero
   22f0c:	ddc01645 	stb	r23,89(sp)
   22f10:	90ffffe0 	cmpeqi	r3,r18,-1
   22f14:	1800051e 	bne	r3,zero,22f2c <___vfprintf_internal_r+0x5bc>
   22f18:	00ffdfc4 	movi	r3,-129
   22f1c:	b708b03a 	or	r4,r22,fp
   22f20:	60c6703a 	and	r3,r12,r3
   22f24:	203fdd26 	beq	r4,zero,22e9c <___vfprintf_internal_r+0x52c>
   22f28:	1819883a 	mov	r12,r3
   22f2c:	10c00060 	cmpeqi	r3,r2,1
   22f30:	1800e61e 	bne	r3,zero,232cc <___vfprintf_internal_r+0x95c>
   22f34:	108000a0 	cmpeqi	r2,r2,2
   22f38:	10023e1e 	bne	r2,zero,23834 <___vfprintf_internal_r+0xec4>
   22f3c:	882b883a 	mov	r21,r17
   22f40:	b006d0fa 	srli	r3,r22,3
   22f44:	e00a977a 	slli	r5,fp,29
   22f48:	e038d0fa 	srli	fp,fp,3
   22f4c:	b58001cc 	andi	r22,r22,7
   22f50:	b0800c04 	addi	r2,r22,48
   22f54:	28ecb03a 	or	r22,r5,r3
   22f58:	a8bfffc5 	stb	r2,-1(r21)
   22f5c:	b706b03a 	or	r3,r22,fp
   22f60:	a809883a 	mov	r4,r21
   22f64:	ad7fffc4 	addi	r21,r21,-1
   22f68:	183ff51e 	bne	r3,zero,22f40 <___vfprintf_internal_r+0x5d0>
   22f6c:	60c0004c 	andi	r3,r12,1
   22f70:	18023d26 	beq	r3,zero,23868 <___vfprintf_internal_r+0xef8>
   22f74:	10800c18 	cmpnei	r2,r2,48
   22f78:	10023b26 	beq	r2,zero,23868 <___vfprintf_internal_r+0xef8>
   22f7c:	213fff84 	addi	r4,r4,-2
   22f80:	00800c04 	movi	r2,48
   22f84:	a8bfffc5 	stb	r2,-1(r21)
   22f88:	8939c83a 	sub	fp,r17,r4
   22f8c:	6007883a 	mov	r3,r12
   22f90:	202b883a 	mov	r21,r4
   22f94:	901b883a 	mov	r13,r18
   22f98:	9700010e 	bge	r18,fp,22fa0 <___vfprintf_internal_r+0x630>
   22f9c:	e01b883a 	mov	r13,fp
   22fa0:	d8000815 	stw	zero,32(sp)
   22fa4:	bdc03fcc 	andi	r23,r23,255
   22fa8:	bdc0201c 	xori	r23,r23,128
   22fac:	bdffe004 	addi	r23,r23,-128
   22fb0:	b83f3826 	beq	r23,zero,22c94 <___vfprintf_internal_r+0x324>
   22fb4:	6b400044 	addi	r13,r13,1
   22fb8:	003f3606 	br	22c94 <___vfprintf_internal_r+0x324>
   22fbc:	952fc83a 	sub	r23,r18,r20
   22fc0:	953f7526 	beq	r18,r20,22d98 <___vfprintf_internal_r+0x428>
   22fc4:	dd801f17 	ldw	r22,124(sp)
   22fc8:	d8801e17 	ldw	r2,120(sp)
   22fcc:	85000015 	stw	r20,0(r16)
   22fd0:	b5ed883a 	add	r22,r22,r23
   22fd4:	10800044 	addi	r2,r2,1
   22fd8:	d8801e15 	stw	r2,120(sp)
   22fdc:	85c00115 	stw	r23,4(r16)
   22fe0:	dd801f15 	stw	r22,124(sp)
   22fe4:	10800208 	cmpgei	r2,r2,8
   22fe8:	1000061e 	bne	r2,zero,23004 <___vfprintf_internal_r+0x694>
   22fec:	84000204 	addi	r16,r16,8
   22ff0:	d8c00617 	ldw	r3,24(sp)
   22ff4:	90800003 	ldbu	r2,0(r18)
   22ff8:	1dc7883a 	add	r3,r3,r23
   22ffc:	d8c00615 	stw	r3,24(sp)
   23000:	003ea106 	br	22a88 <___vfprintf_internal_r+0x118>
   23004:	d9400417 	ldw	r5,16(sp)
   23008:	d9000517 	ldw	r4,20(sp)
   2300c:	d9801d04 	addi	r6,sp,116
   23010:	0029a940 	call	29a94 <__sprint_r>
   23014:	103f621e 	bne	r2,zero,22da0 <___vfprintf_internal_r+0x430>
   23018:	8821883a 	mov	r16,r17
   2301c:	003ff406 	br	22ff0 <___vfprintf_internal_r+0x680>
   23020:	05c000f4 	movhi	r23,3
   23024:	90c00450 	cmplti	r3,r18,17
   23028:	d8801e17 	ldw	r2,120(sp)
   2302c:	bdc5ad04 	addi	r23,r23,5812
   23030:	1800241e 	bne	r3,zero,230c4 <___vfprintf_internal_r+0x754>
   23034:	8007883a 	mov	r3,r16
   23038:	b839883a 	mov	fp,r23
   2303c:	dd400517 	ldw	r21,20(sp)
   23040:	902f883a 	mov	r23,r18
   23044:	05800404 	movi	r22,16
   23048:	5021883a 	mov	r16,r10
   2304c:	6825883a 	mov	r18,r13
   23050:	00000406 	br	23064 <___vfprintf_internal_r+0x6f4>
   23054:	bdfffc04 	addi	r23,r23,-16
   23058:	b9400448 	cmpgei	r5,r23,17
   2305c:	18c00204 	addi	r3,r3,8
   23060:	28001326 	beq	r5,zero,230b0 <___vfprintf_internal_r+0x740>
   23064:	10800044 	addi	r2,r2,1
   23068:	21000404 	addi	r4,r4,16
   2306c:	1f000015 	stw	fp,0(r3)
   23070:	1d800115 	stw	r22,4(r3)
   23074:	d9001f15 	stw	r4,124(sp)
   23078:	d8801e15 	stw	r2,120(sp)
   2307c:	11400208 	cmpgei	r5,r2,8
   23080:	283ff426 	beq	r5,zero,23054 <___vfprintf_internal_r+0x6e4>
   23084:	d9400417 	ldw	r5,16(sp)
   23088:	d9801d04 	addi	r6,sp,116
   2308c:	a809883a 	mov	r4,r21
   23090:	0029a940 	call	29a94 <__sprint_r>
   23094:	103f421e 	bne	r2,zero,22da0 <___vfprintf_internal_r+0x430>
   23098:	bdfffc04 	addi	r23,r23,-16
   2309c:	b9400448 	cmpgei	r5,r23,17
   230a0:	d9001f17 	ldw	r4,124(sp)
   230a4:	d8801e17 	ldw	r2,120(sp)
   230a8:	8807883a 	mov	r3,r17
   230ac:	283fed1e 	bne	r5,zero,23064 <___vfprintf_internal_r+0x6f4>
   230b0:	8015883a 	mov	r10,r16
   230b4:	901b883a 	mov	r13,r18
   230b8:	1821883a 	mov	r16,r3
   230bc:	b825883a 	mov	r18,r23
   230c0:	e02f883a 	mov	r23,fp
   230c4:	10800044 	addi	r2,r2,1
   230c8:	2489883a 	add	r4,r4,r18
   230cc:	d8801e15 	stw	r2,120(sp)
   230d0:	85c00015 	stw	r23,0(r16)
   230d4:	84800115 	stw	r18,4(r16)
   230d8:	d9001f15 	stw	r4,124(sp)
   230dc:	10800210 	cmplti	r2,r2,8
   230e0:	103f231e 	bne	r2,zero,22d70 <___vfprintf_internal_r+0x400>
   230e4:	d9400417 	ldw	r5,16(sp)
   230e8:	d9000517 	ldw	r4,20(sp)
   230ec:	d9801d04 	addi	r6,sp,116
   230f0:	db400f15 	stw	r13,60(sp)
   230f4:	da800815 	stw	r10,32(sp)
   230f8:	0029a940 	call	29a94 <__sprint_r>
   230fc:	103f281e 	bne	r2,zero,22da0 <___vfprintf_internal_r+0x430>
   23100:	d9001f17 	ldw	r4,124(sp)
   23104:	db400f17 	ldw	r13,60(sp)
   23108:	da800817 	ldw	r10,32(sp)
   2310c:	003f1806 	br	22d70 <___vfprintf_internal_r+0x400>
   23110:	d8c00717 	ldw	r3,28(sp)
   23114:	6080020c 	andi	r2,r12,8
   23118:	1d800204 	addi	r22,r3,8
   2311c:	10036b1e 	bne	r2,zero,23ecc <___vfprintf_internal_r+0x155c>
   23120:	d8800717 	ldw	r2,28(sp)
   23124:	10c00017 	ldw	r3,0(r2)
   23128:	10800117 	ldw	r2,4(r2)
   2312c:	d8c00a15 	stw	r3,40(sp)
   23130:	d8800b15 	stw	r2,44(sp)
   23134:	df000b17 	ldw	fp,44(sp)
   23138:	ddc00a17 	ldw	r23,40(sp)
   2313c:	00a00034 	movhi	r2,32768
   23140:	10bfffc4 	addi	r2,r2,-1
   23144:	e0aa703a 	and	r21,fp,r2
   23148:	01dffc34 	movhi	r7,32752
   2314c:	01bfffc4 	movi	r6,-1
   23150:	39ffffc4 	addi	r7,r7,-1
   23154:	b809883a 	mov	r4,r23
   23158:	a80b883a 	mov	r5,r21
   2315c:	da800f15 	stw	r10,60(sp)
   23160:	db000815 	stw	r12,32(sp)
   23164:	dac00715 	stw	r11,28(sp)
   23168:	002e7ac0 	call	2e7ac <__unorddf2>
   2316c:	dac00717 	ldw	r11,28(sp)
   23170:	db000817 	ldw	r12,32(sp)
   23174:	da800f17 	ldw	r10,60(sp)
   23178:	10045c1e 	bne	r2,zero,242ec <___vfprintf_internal_r+0x197c>
   2317c:	01dffc34 	movhi	r7,32752
   23180:	01bfffc4 	movi	r6,-1
   23184:	39ffffc4 	addi	r7,r7,-1
   23188:	b809883a 	mov	r4,r23
   2318c:	a80b883a 	mov	r5,r21
   23190:	002d5100 	call	2d510 <__ledf2>
   23194:	dac00717 	ldw	r11,28(sp)
   23198:	db000817 	ldw	r12,32(sp)
   2319c:	da800f17 	ldw	r10,60(sp)
   231a0:	0084520e 	bge	zero,r2,242ec <___vfprintf_internal_r+0x197c>
   231a4:	000d883a 	mov	r6,zero
   231a8:	000f883a 	mov	r7,zero
   231ac:	b809883a 	mov	r4,r23
   231b0:	e00b883a 	mov	r5,fp
   231b4:	002d5100 	call	2d510 <__ledf2>
   231b8:	dac00717 	ldw	r11,28(sp)
   231bc:	db000817 	ldw	r12,32(sp)
   231c0:	da800f17 	ldw	r10,60(sp)
   231c4:	10053b16 	blt	r2,zero,246b4 <___vfprintf_internal_r+0x1d44>
   231c8:	ddc01643 	ldbu	r23,89(sp)
   231cc:	58801210 	cmplti	r2,r11,72
   231d0:	1005201e 	bne	r2,zero,24654 <___vfprintf_internal_r+0x1ce4>
   231d4:	054000f4 	movhi	r21,3
   231d8:	ad459904 	addi	r21,r21,5732
   231dc:	00ffdfc4 	movi	r3,-129
   231e0:	60c6703a 	and	r3,r12,r3
   231e4:	dd800715 	stw	r22,28(sp)
   231e8:	034000c4 	movi	r13,3
   231ec:	070000c4 	movi	fp,3
   231f0:	0025883a 	mov	r18,zero
   231f4:	d8000815 	stw	zero,32(sp)
   231f8:	003f6a06 	br	22fa4 <___vfprintf_internal_r+0x634>
   231fc:	d8c00717 	ldw	r3,28(sp)
   23200:	6080040c 	andi	r2,r12,16
   23204:	1d800017 	ldw	r22,0(r3)
   23208:	18c00104 	addi	r3,r3,4
   2320c:	d8c00715 	stw	r3,28(sp)
   23210:	10002a1e 	bne	r2,zero,232bc <___vfprintf_internal_r+0x94c>
   23214:	6080100c 	andi	r2,r12,64
   23218:	10002826 	beq	r2,zero,232bc <___vfprintf_internal_r+0x94c>
   2321c:	b5bfffcc 	andi	r22,r22,65535
   23220:	b5a0001c 	xori	r22,r22,32768
   23224:	b5a00004 	addi	r22,r22,-32768
   23228:	b039d7fa 	srai	fp,r22,31
   2322c:	e005883a 	mov	r2,fp
   23230:	103f120e 	bge	r2,zero,22e7c <___vfprintf_internal_r+0x50c>
   23234:	b004c03a 	cmpne	r2,r22,zero
   23238:	0739c83a 	sub	fp,zero,fp
   2323c:	e0b9c83a 	sub	fp,fp,r2
   23240:	05adc83a 	sub	r22,zero,r22
   23244:	05c00b44 	movi	r23,45
   23248:	00800044 	movi	r2,1
   2324c:	003f2f06 	br	22f0c <___vfprintf_internal_r+0x59c>
   23250:	d8c00717 	ldw	r3,28(sp)
   23254:	6080040c 	andi	r2,r12,16
   23258:	1d800017 	ldw	r22,0(r3)
   2325c:	18c00104 	addi	r3,r3,4
   23260:	d8c00715 	stw	r3,28(sp)
   23264:	1000031e 	bne	r2,zero,23274 <___vfprintf_internal_r+0x904>
   23268:	6080100c 	andi	r2,r12,64
   2326c:	10000126 	beq	r2,zero,23274 <___vfprintf_internal_r+0x904>
   23270:	b5bfffcc 	andi	r22,r22,65535
   23274:	0039883a 	mov	fp,zero
   23278:	00800044 	movi	r2,1
   2327c:	003f2206 	br	22f08 <___vfprintf_internal_r+0x598>
   23280:	d8c00717 	ldw	r3,28(sp)
   23284:	6080040c 	andi	r2,r12,16
   23288:	1d800017 	ldw	r22,0(r3)
   2328c:	18c00104 	addi	r3,r3,4
   23290:	d8c00715 	stw	r3,28(sp)
   23294:	1000031e 	bne	r2,zero,232a4 <___vfprintf_internal_r+0x934>
   23298:	6080100c 	andi	r2,r12,64
   2329c:	10000126 	beq	r2,zero,232a4 <___vfprintf_internal_r+0x934>
   232a0:	b5bfffcc 	andi	r22,r22,65535
   232a4:	0039883a 	mov	fp,zero
   232a8:	0005883a 	mov	r2,zero
   232ac:	003f1606 	br	22f08 <___vfprintf_internal_r+0x598>
   232b0:	d9000517 	ldw	r4,20(sp)
   232b4:	002707c0 	call	2707c <__sinit>
   232b8:	003dc606 	br	229d4 <___vfprintf_internal_r+0x64>
   232bc:	b039d7fa 	srai	fp,r22,31
   232c0:	e005883a 	mov	r2,fp
   232c4:	003eec06 	br	22e78 <___vfprintf_internal_r+0x508>
   232c8:	1819883a 	mov	r12,r3
   232cc:	e0036d1e 	bne	fp,zero,24084 <___vfprintf_internal_r+0x1714>
   232d0:	b08002a8 	cmpgeui	r2,r22,10
   232d4:	10036b1e 	bne	r2,zero,24084 <___vfprintf_internal_r+0x1714>
   232d8:	b5800c04 	addi	r22,r22,48
   232dc:	dd8029c5 	stb	r22,167(sp)
   232e0:	6007883a 	mov	r3,r12
   232e4:	07000044 	movi	fp,1
   232e8:	dd4029c4 	addi	r21,sp,167
   232ec:	003f2906 	br	22f94 <___vfprintf_internal_r+0x624>
   232f0:	d8800717 	ldw	r2,28(sp)
   232f4:	12800017 	ldw	r10,0(r2)
   232f8:	10800104 	addi	r2,r2,4
   232fc:	5002ee0e 	bge	r10,zero,23eb8 <___vfprintf_internal_r+0x1548>
   23300:	0295c83a 	sub	r10,zero,r10
   23304:	d8800715 	stw	r2,28(sp)
   23308:	a2c00007 	ldb	r11,0(r20)
   2330c:	63000114 	ori	r12,r12,4
   23310:	003de706 	br	22ab0 <___vfprintf_internal_r+0x140>
   23314:	a2c00007 	ldb	r11,0(r20)
   23318:	a0800044 	addi	r2,r20,1
   2331c:	58c00aa0 	cmpeqi	r3,r11,42
   23320:	1806a21e 	bne	r3,zero,24dac <___vfprintf_internal_r+0x243c>
   23324:	58fff404 	addi	r3,r11,-48
   23328:	190002b0 	cmpltui	r4,r3,10
   2332c:	1029883a 	mov	r20,r2
   23330:	0025883a 	mov	r18,zero
   23334:	203ddf26 	beq	r4,zero,22ab4 <___vfprintf_internal_r+0x144>
   23338:	900490ba 	slli	r2,r18,2
   2333c:	a2c00007 	ldb	r11,0(r20)
   23340:	a5000044 	addi	r20,r20,1
   23344:	14a5883a 	add	r18,r2,r18
   23348:	94a5883a 	add	r18,r18,r18
   2334c:	90e5883a 	add	r18,r18,r3
   23350:	58fff404 	addi	r3,r11,-48
   23354:	188002b0 	cmpltui	r2,r3,10
   23358:	103ff71e 	bne	r2,zero,23338 <___vfprintf_internal_r+0x9c8>
   2335c:	003dd506 	br	22ab4 <___vfprintf_internal_r+0x144>
   23360:	a2c00007 	ldb	r11,0(r20)
   23364:	63002014 	ori	r12,r12,128
   23368:	003dd106 	br	22ab0 <___vfprintf_internal_r+0x140>
   2336c:	00800ac4 	movi	r2,43
   23370:	a2c00007 	ldb	r11,0(r20)
   23374:	d8801645 	stb	r2,89(sp)
   23378:	003dcd06 	br	22ab0 <___vfprintf_internal_r+0x140>
   2337c:	a2c00007 	ldb	r11,0(r20)
   23380:	63000054 	ori	r12,r12,1
   23384:	003dca06 	br	22ab0 <___vfprintf_internal_r+0x140>
   23388:	d8801647 	ldb	r2,89(sp)
   2338c:	a2c00003 	ldbu	r11,0(r20)
   23390:	10000c1e 	bne	r2,zero,233c4 <___vfprintf_internal_r+0xa54>
   23394:	5ac03fcc 	andi	r11,r11,255
   23398:	00800804 	movi	r2,32
   2339c:	5ac0201c 	xori	r11,r11,128
   233a0:	d8801645 	stb	r2,89(sp)
   233a4:	5affe004 	addi	r11,r11,-128
   233a8:	003dc106 	br	22ab0 <___vfprintf_internal_r+0x140>
   233ac:	a2c00007 	ldb	r11,0(r20)
   233b0:	58801b18 	cmpnei	r2,r11,108
   233b4:	1002be1e 	bne	r2,zero,23eb0 <___vfprintf_internal_r+0x1540>
   233b8:	a2c00043 	ldbu	r11,1(r20)
   233bc:	63000814 	ori	r12,r12,32
   233c0:	a5000044 	addi	r20,r20,1
   233c4:	5ac03fcc 	andi	r11,r11,255
   233c8:	5ac0201c 	xori	r11,r11,128
   233cc:	5affe004 	addi	r11,r11,-128
   233d0:	003db706 	br	22ab0 <___vfprintf_internal_r+0x140>
   233d4:	a2c00007 	ldb	r11,0(r20)
   233d8:	63000214 	ori	r12,r12,8
   233dc:	003db406 	br	22ab0 <___vfprintf_internal_r+0x140>
   233e0:	a2c00007 	ldb	r11,0(r20)
   233e4:	63001014 	ori	r12,r12,64
   233e8:	003db106 	br	22ab0 <___vfprintf_internal_r+0x140>
   233ec:	d8c00717 	ldw	r3,28(sp)
   233f0:	d8001645 	stb	zero,89(sp)
   233f4:	03400044 	movi	r13,1
   233f8:	18800017 	ldw	r2,0(r3)
   233fc:	18c00104 	addi	r3,r3,4
   23400:	d8c00715 	stw	r3,28(sp)
   23404:	d8802005 	stb	r2,128(sp)
   23408:	07000044 	movi	fp,1
   2340c:	dd402004 	addi	r21,sp,128
   23410:	003e1d06 	br	22c88 <___vfprintf_internal_r+0x318>
   23414:	d8800717 	ldw	r2,28(sp)
   23418:	d8001645 	stb	zero,89(sp)
   2341c:	15400017 	ldw	r21,0(r2)
   23420:	15800104 	addi	r22,r2,4
   23424:	a802e726 	beq	r21,zero,23fc4 <___vfprintf_internal_r+0x1654>
   23428:	90bfffe0 	cmpeqi	r2,r18,-1
   2342c:	10047d1e 	bne	r2,zero,24624 <___vfprintf_internal_r+0x1cb4>
   23430:	900d883a 	mov	r6,r18
   23434:	000b883a 	mov	r5,zero
   23438:	a809883a 	mov	r4,r21
   2343c:	da800f15 	stw	r10,60(sp)
   23440:	db000815 	stw	r12,32(sp)
   23444:	dac00715 	stw	r11,28(sp)
   23448:	0027d240 	call	27d24 <memchr>
   2344c:	dac00717 	ldw	r11,28(sp)
   23450:	db000817 	ldw	r12,32(sp)
   23454:	da800f17 	ldw	r10,60(sp)
   23458:	1005ca26 	beq	r2,zero,24b84 <___vfprintf_internal_r+0x2214>
   2345c:	1579c83a 	sub	fp,r2,r21
   23460:	e01b883a 	mov	r13,fp
   23464:	dd800715 	stw	r22,28(sp)
   23468:	003e0706 	br	22c88 <___vfprintf_internal_r+0x318>
   2346c:	a2c00007 	ldb	r11,0(r20)
   23470:	63000814 	ori	r12,r12,32
   23474:	003d8e06 	br	22ab0 <___vfprintf_internal_r+0x140>
   23478:	d8c00717 	ldw	r3,28(sp)
   2347c:	009e0c04 	movi	r2,30768
   23480:	010000f4 	movhi	r4,3
   23484:	d880168d 	sth	r2,90(sp)
   23488:	18800104 	addi	r2,r3,4
   2348c:	d8800715 	stw	r2,28(sp)
   23490:	2085a104 	addi	r2,r4,5764
   23494:	d8800e15 	stw	r2,56(sp)
   23498:	1d800017 	ldw	r22,0(r3)
   2349c:	0039883a 	mov	fp,zero
   234a0:	63000094 	ori	r12,r12,2
   234a4:	00800084 	movi	r2,2
   234a8:	02c01e04 	movi	r11,120
   234ac:	003e9606 	br	22f08 <___vfprintf_internal_r+0x598>
   234b0:	6080080c 	andi	r2,r12,32
   234b4:	10028a26 	beq	r2,zero,23ee0 <___vfprintf_internal_r+0x1570>
   234b8:	d9000617 	ldw	r4,24(sp)
   234bc:	d8800717 	ldw	r2,28(sp)
   234c0:	2007d7fa 	srai	r3,r4,31
   234c4:	10800017 	ldw	r2,0(r2)
   234c8:	11000015 	stw	r4,0(r2)
   234cc:	10c00115 	stw	r3,4(r2)
   234d0:	d8800717 	ldw	r2,28(sp)
   234d4:	10800104 	addi	r2,r2,4
   234d8:	d8800715 	stw	r2,28(sp)
   234dc:	003d5e06 	br	22a58 <___vfprintf_internal_r+0xe8>
   234e0:	5ac01990 	cmplti	r11,r11,102
   234e4:	5800e91e 	bne	r11,zero,2388c <___vfprintf_internal_r+0xf1c>
   234e8:	d9000a17 	ldw	r4,40(sp)
   234ec:	d9400b17 	ldw	r5,44(sp)
   234f0:	000d883a 	mov	r6,zero
   234f4:	000f883a 	mov	r7,zero
   234f8:	db401115 	stw	r13,68(sp)
   234fc:	da801015 	stw	r10,64(sp)
   23500:	d8c00f15 	stw	r3,60(sp)
   23504:	002d3800 	call	2d380 <__eqdf2>
   23508:	d8c00f17 	ldw	r3,60(sp)
   2350c:	da801017 	ldw	r10,64(sp)
   23510:	db401117 	ldw	r13,68(sp)
   23514:	1001a21e 	bne	r2,zero,23ba0 <___vfprintf_internal_r+0x1230>
   23518:	d8801e17 	ldw	r2,120(sp)
   2351c:	010000f4 	movhi	r4,3
   23520:	2105a804 	addi	r4,r4,5792
   23524:	10800044 	addi	r2,r2,1
   23528:	b5800044 	addi	r22,r22,1
   2352c:	81000015 	stw	r4,0(r16)
   23530:	01000044 	movi	r4,1
   23534:	d8801e15 	stw	r2,120(sp)
   23538:	81000115 	stw	r4,4(r16)
   2353c:	dd801f15 	stw	r22,124(sp)
   23540:	10800208 	cmpgei	r2,r2,8
   23544:	1003ce1e 	bne	r2,zero,24480 <___vfprintf_internal_r+0x1b10>
   23548:	84000204 	addi	r16,r16,8
   2354c:	d8801717 	ldw	r2,92(sp)
   23550:	d9000917 	ldw	r4,36(sp)
   23554:	11000416 	blt	r2,r4,23568 <___vfprintf_internal_r+0xbf8>
   23558:	1880004c 	andi	r2,r3,1
   2355c:	1000021e 	bne	r2,zero,23568 <___vfprintf_internal_r+0xbf8>
   23560:	b009883a 	mov	r4,r22
   23564:	003dfe06 	br	22d60 <___vfprintf_internal_r+0x3f0>
   23568:	d8800d17 	ldw	r2,52(sp)
   2356c:	d9400c17 	ldw	r5,48(sp)
   23570:	80800015 	stw	r2,0(r16)
   23574:	d8801e17 	ldw	r2,120(sp)
   23578:	2d89883a 	add	r4,r5,r22
   2357c:	81400115 	stw	r5,4(r16)
   23580:	10800044 	addi	r2,r2,1
   23584:	d8801e15 	stw	r2,120(sp)
   23588:	d9001f15 	stw	r4,124(sp)
   2358c:	10800208 	cmpgei	r2,r2,8
   23590:	10026a1e 	bne	r2,zero,23f3c <___vfprintf_internal_r+0x15cc>
   23594:	84000204 	addi	r16,r16,8
   23598:	d8800917 	ldw	r2,36(sp)
   2359c:	14bfffc4 	addi	r18,r2,-1
   235a0:	04bdef0e 	bge	zero,r18,22d60 <___vfprintf_internal_r+0x3f0>
   235a4:	058000f4 	movhi	r22,3
   235a8:	91400450 	cmplti	r5,r18,17
   235ac:	d8801e17 	ldw	r2,120(sp)
   235b0:	b585a904 	addi	r22,r22,5796
   235b4:	28013e1e 	bne	r5,zero,23ab0 <___vfprintf_internal_r+0x1140>
   235b8:	800b883a 	mov	r5,r16
   235bc:	9039883a 	mov	fp,r18
   235c0:	1821883a 	mov	r16,r3
   235c4:	b02b883a 	mov	r21,r22
   235c8:	05c00404 	movi	r23,16
   235cc:	982d883a 	mov	r22,r19
   235d0:	5025883a 	mov	r18,r10
   235d4:	6827883a 	mov	r19,r13
   235d8:	2807883a 	mov	r3,r5
   235dc:	00000406 	br	235f0 <___vfprintf_internal_r+0xc80>
   235e0:	18c00204 	addi	r3,r3,8
   235e4:	e73ffc04 	addi	fp,fp,-16
   235e8:	e1400448 	cmpgei	r5,fp,17
   235ec:	28012826 	beq	r5,zero,23a90 <___vfprintf_internal_r+0x1120>
   235f0:	10800044 	addi	r2,r2,1
   235f4:	21000404 	addi	r4,r4,16
   235f8:	1d400015 	stw	r21,0(r3)
   235fc:	1dc00115 	stw	r23,4(r3)
   23600:	d9001f15 	stw	r4,124(sp)
   23604:	d8801e15 	stw	r2,120(sp)
   23608:	11400208 	cmpgei	r5,r2,8
   2360c:	283ff426 	beq	r5,zero,235e0 <___vfprintf_internal_r+0xc70>
   23610:	d9400417 	ldw	r5,16(sp)
   23614:	d9000517 	ldw	r4,20(sp)
   23618:	d9801d04 	addi	r6,sp,116
   2361c:	0029a940 	call	29a94 <__sprint_r>
   23620:	103ddf1e 	bne	r2,zero,22da0 <___vfprintf_internal_r+0x430>
   23624:	d9001f17 	ldw	r4,124(sp)
   23628:	d8801e17 	ldw	r2,120(sp)
   2362c:	8807883a 	mov	r3,r17
   23630:	003fec06 	br	235e4 <___vfprintf_internal_r+0xc74>
   23634:	536fc83a 	sub	r23,r10,r13
   23638:	05fdbb0e 	bge	zero,r23,22d28 <___vfprintf_internal_r+0x3b8>
   2363c:	b009883a 	mov	r4,r22
   23640:	b9400450 	cmplti	r5,r23,17
   23644:	058000f4 	movhi	r22,3
   23648:	d8801e17 	ldw	r2,120(sp)
   2364c:	b585a904 	addi	r22,r22,5796
   23650:	28002e1e 	bne	r5,zero,2370c <___vfprintf_internal_r+0xd9c>
   23654:	d8c01015 	stw	r3,64(sp)
   23658:	03000404 	movi	r12,16
   2365c:	8007883a 	mov	r3,r16
   23660:	dac00f15 	stw	r11,60(sp)
   23664:	b821883a 	mov	r16,r23
   23668:	da801115 	stw	r10,68(sp)
   2366c:	982f883a 	mov	r23,r19
   23670:	9027883a 	mov	r19,r18
   23674:	b025883a 	mov	r18,r22
   23678:	a02d883a 	mov	r22,r20
   2367c:	6829883a 	mov	r20,r13
   23680:	00000406 	br	23694 <___vfprintf_internal_r+0xd24>
   23684:	843ffc04 	addi	r16,r16,-16
   23688:	81400448 	cmpgei	r5,r16,17
   2368c:	18c00204 	addi	r3,r3,8
   23690:	28001426 	beq	r5,zero,236e4 <___vfprintf_internal_r+0xd74>
   23694:	10800044 	addi	r2,r2,1
   23698:	21000404 	addi	r4,r4,16
   2369c:	1c800015 	stw	r18,0(r3)
   236a0:	1b000115 	stw	r12,4(r3)
   236a4:	d9001f15 	stw	r4,124(sp)
   236a8:	d8801e15 	stw	r2,120(sp)
   236ac:	11400208 	cmpgei	r5,r2,8
   236b0:	283ff426 	beq	r5,zero,23684 <___vfprintf_internal_r+0xd14>
   236b4:	d9400417 	ldw	r5,16(sp)
   236b8:	d9000517 	ldw	r4,20(sp)
   236bc:	d9801d04 	addi	r6,sp,116
   236c0:	0029a940 	call	29a94 <__sprint_r>
   236c4:	103db61e 	bne	r2,zero,22da0 <___vfprintf_internal_r+0x430>
   236c8:	843ffc04 	addi	r16,r16,-16
   236cc:	81400448 	cmpgei	r5,r16,17
   236d0:	d9001f17 	ldw	r4,124(sp)
   236d4:	d8801e17 	ldw	r2,120(sp)
   236d8:	8807883a 	mov	r3,r17
   236dc:	03000404 	movi	r12,16
   236e0:	283fec1e 	bne	r5,zero,23694 <___vfprintf_internal_r+0xd24>
   236e4:	a01b883a 	mov	r13,r20
   236e8:	dac00f17 	ldw	r11,60(sp)
   236ec:	b029883a 	mov	r20,r22
   236f0:	da801117 	ldw	r10,68(sp)
   236f4:	902d883a 	mov	r22,r18
   236f8:	9825883a 	mov	r18,r19
   236fc:	b827883a 	mov	r19,r23
   23700:	802f883a 	mov	r23,r16
   23704:	1821883a 	mov	r16,r3
   23708:	d8c01017 	ldw	r3,64(sp)
   2370c:	10800044 	addi	r2,r2,1
   23710:	b909883a 	add	r4,r23,r4
   23714:	d8801e15 	stw	r2,120(sp)
   23718:	85800015 	stw	r22,0(r16)
   2371c:	85c00115 	stw	r23,4(r16)
   23720:	d9001f15 	stw	r4,124(sp)
   23724:	10800208 	cmpgei	r2,r2,8
   23728:	1003721e 	bne	r2,zero,244f4 <___vfprintf_internal_r+0x1b84>
   2372c:	9725c83a 	sub	r18,r18,fp
   23730:	84000204 	addi	r16,r16,8
   23734:	202d883a 	mov	r22,r4
   23738:	04bd7d0e 	bge	zero,r18,22d30 <___vfprintf_internal_r+0x3c0>
   2373c:	91400450 	cmplti	r5,r18,17
   23740:	d8801e17 	ldw	r2,120(sp)
   23744:	b009883a 	mov	r4,r22
   23748:	2803c51e 	bne	r5,zero,24660 <___vfprintf_internal_r+0x1cf0>
   2374c:	982d883a 	mov	r22,r19
   23750:	d8c01015 	stw	r3,64(sp)
   23754:	05c00404 	movi	r23,16
   23758:	8007883a 	mov	r3,r16
   2375c:	dac00f15 	stw	r11,60(sp)
   23760:	9021883a 	mov	r16,r18
   23764:	da801115 	stw	r10,68(sp)
   23768:	9825883a 	mov	r18,r19
   2376c:	6827883a 	mov	r19,r13
   23770:	00000406 	br	23784 <___vfprintf_internal_r+0xe14>
   23774:	843ffc04 	addi	r16,r16,-16
   23778:	81400448 	cmpgei	r5,r16,17
   2377c:	18c00204 	addi	r3,r3,8
   23780:	28001326 	beq	r5,zero,237d0 <___vfprintf_internal_r+0xe60>
   23784:	10800044 	addi	r2,r2,1
   23788:	21000404 	addi	r4,r4,16
   2378c:	1c800015 	stw	r18,0(r3)
   23790:	1dc00115 	stw	r23,4(r3)
   23794:	d9001f15 	stw	r4,124(sp)
   23798:	d8801e15 	stw	r2,120(sp)
   2379c:	11400208 	cmpgei	r5,r2,8
   237a0:	283ff426 	beq	r5,zero,23774 <___vfprintf_internal_r+0xe04>
   237a4:	d9400417 	ldw	r5,16(sp)
   237a8:	d9000517 	ldw	r4,20(sp)
   237ac:	d9801d04 	addi	r6,sp,116
   237b0:	0029a940 	call	29a94 <__sprint_r>
   237b4:	103d7a1e 	bne	r2,zero,22da0 <___vfprintf_internal_r+0x430>
   237b8:	843ffc04 	addi	r16,r16,-16
   237bc:	81400448 	cmpgei	r5,r16,17
   237c0:	d9001f17 	ldw	r4,124(sp)
   237c4:	d8801e17 	ldw	r2,120(sp)
   237c8:	8807883a 	mov	r3,r17
   237cc:	283fed1e 	bne	r5,zero,23784 <___vfprintf_internal_r+0xe14>
   237d0:	981b883a 	mov	r13,r19
   237d4:	dac00f17 	ldw	r11,60(sp)
   237d8:	9027883a 	mov	r19,r18
   237dc:	da801117 	ldw	r10,68(sp)
   237e0:	8025883a 	mov	r18,r16
   237e4:	1821883a 	mov	r16,r3
   237e8:	d8c01017 	ldw	r3,64(sp)
   237ec:	10800044 	addi	r2,r2,1
   237f0:	9109883a 	add	r4,r18,r4
   237f4:	d8801e15 	stw	r2,120(sp)
   237f8:	85800015 	stw	r22,0(r16)
   237fc:	84800115 	stw	r18,4(r16)
   23800:	d9001f15 	stw	r4,124(sp)
   23804:	10800208 	cmpgei	r2,r2,8
   23808:	10018b1e 	bne	r2,zero,23e38 <___vfprintf_internal_r+0x14c8>
   2380c:	84000204 	addi	r16,r16,8
   23810:	202d883a 	mov	r22,r4
   23814:	003d4606 	br	22d30 <___vfprintf_internal_r+0x3c0>
   23818:	11000060 	cmpeqi	r4,r2,1
   2381c:	1819883a 	mov	r12,r3
   23820:	002d883a 	mov	r22,zero
   23824:	203eac1e 	bne	r4,zero,232d8 <___vfprintf_internal_r+0x968>
   23828:	108000a0 	cmpeqi	r2,r2,2
   2382c:	0039883a 	mov	fp,zero
   23830:	103dc226 	beq	r2,zero,22f3c <___vfprintf_internal_r+0x5cc>
   23834:	d9000e17 	ldw	r4,56(sp)
   23838:	882b883a 	mov	r21,r17
   2383c:	b08003cc 	andi	r2,r22,15
   23840:	e006973a 	slli	r3,fp,28
   23844:	b02cd13a 	srli	r22,r22,4
   23848:	2085883a 	add	r2,r4,r2
   2384c:	10800003 	ldbu	r2,0(r2)
   23850:	e038d13a 	srli	fp,fp,4
   23854:	1dacb03a 	or	r22,r3,r22
   23858:	a8bfffc5 	stb	r2,-1(r21)
   2385c:	b704b03a 	or	r2,r22,fp
   23860:	ad7fffc4 	addi	r21,r21,-1
   23864:	103ff51e 	bne	r2,zero,2383c <___vfprintf_internal_r+0xecc>
   23868:	8d79c83a 	sub	fp,r17,r21
   2386c:	6007883a 	mov	r3,r12
   23870:	003dc806 	br	22f94 <___vfprintf_internal_r+0x624>
   23874:	d9400417 	ldw	r5,16(sp)
   23878:	d9000517 	ldw	r4,20(sp)
   2387c:	d9801d04 	addi	r6,sp,116
   23880:	0029a940 	call	29a94 <__sprint_r>
   23884:	103d4026 	beq	r2,zero,22d88 <___vfprintf_internal_r+0x418>
   23888:	003d4506 	br	22da0 <___vfprintf_internal_r+0x430>
   2388c:	d8800917 	ldw	r2,36(sp)
   23890:	84800204 	addi	r18,r16,8
   23894:	10800088 	cmpgei	r2,r2,2
   23898:	10012126 	beq	r2,zero,23d20 <___vfprintf_internal_r+0x13b0>
   2389c:	df001e17 	ldw	fp,120(sp)
   238a0:	00800044 	movi	r2,1
   238a4:	b5800044 	addi	r22,r22,1
   238a8:	e7000044 	addi	fp,fp,1
   238ac:	80800115 	stw	r2,4(r16)
   238b0:	85400015 	stw	r21,0(r16)
   238b4:	dd801f15 	stw	r22,124(sp)
   238b8:	df001e15 	stw	fp,120(sp)
   238bc:	e0800210 	cmplti	r2,fp,8
   238c0:	10023126 	beq	r2,zero,24188 <___vfprintf_internal_r+0x1818>
   238c4:	d8800c17 	ldw	r2,48(sp)
   238c8:	d9000d17 	ldw	r4,52(sp)
   238cc:	e7000044 	addi	fp,fp,1
   238d0:	15af883a 	add	r23,r2,r22
   238d4:	90800115 	stw	r2,4(r18)
   238d8:	91000015 	stw	r4,0(r18)
   238dc:	ddc01f15 	stw	r23,124(sp)
   238e0:	df001e15 	stw	fp,120(sp)
   238e4:	e0800208 	cmpgei	r2,fp,8
   238e8:	1002361e 	bne	r2,zero,241c4 <___vfprintf_internal_r+0x1854>
   238ec:	94800204 	addi	r18,r18,8
   238f0:	d9000a17 	ldw	r4,40(sp)
   238f4:	d9400b17 	ldw	r5,44(sp)
   238f8:	000d883a 	mov	r6,zero
   238fc:	000f883a 	mov	r7,zero
   23900:	db401015 	stw	r13,64(sp)
   23904:	da800f15 	stw	r10,60(sp)
   23908:	d8c00815 	stw	r3,32(sp)
   2390c:	002d3800 	call	2d380 <__eqdf2>
   23910:	d8c00917 	ldw	r3,36(sp)
   23914:	da800f17 	ldw	r10,60(sp)
   23918:	db401017 	ldw	r13,64(sp)
   2391c:	1c3fffc4 	addi	r16,r3,-1
   23920:	d8c00817 	ldw	r3,32(sp)
   23924:	10011c26 	beq	r2,zero,23d98 <___vfprintf_internal_r+0x1428>
   23928:	aa000044 	addi	r8,r21,1
   2392c:	e7000044 	addi	fp,fp,1
   23930:	bc2f883a 	add	r23,r23,r16
   23934:	92000015 	stw	r8,0(r18)
   23938:	94000115 	stw	r16,4(r18)
   2393c:	ddc01f15 	stw	r23,124(sp)
   23940:	df001e15 	stw	fp,120(sp)
   23944:	e0800208 	cmpgei	r2,fp,8
   23948:	1002db1e 	bne	r2,zero,244b8 <___vfprintf_internal_r+0x1b48>
   2394c:	94800204 	addi	r18,r18,8
   23950:	d9401217 	ldw	r5,72(sp)
   23954:	e7000044 	addi	fp,fp,1
   23958:	d8801904 	addi	r2,sp,100
   2395c:	2dc9883a 	add	r4,r5,r23
   23960:	df001e15 	stw	fp,120(sp)
   23964:	90800015 	stw	r2,0(r18)
   23968:	91400115 	stw	r5,4(r18)
   2396c:	d9001f15 	stw	r4,124(sp)
   23970:	e7000208 	cmpgei	fp,fp,8
   23974:	e001401e 	bne	fp,zero,23e78 <___vfprintf_internal_r+0x1508>
   23978:	94000204 	addi	r16,r18,8
   2397c:	003cf806 	br	22d60 <___vfprintf_internal_r+0x3f0>
   23980:	05c000f4 	movhi	r23,3
   23984:	b1400450 	cmplti	r5,r22,17
   23988:	d9001f17 	ldw	r4,124(sp)
   2398c:	d8801e17 	ldw	r2,120(sp)
   23990:	bdc5ad04 	addi	r23,r23,5812
   23994:	2800341e 	bne	r5,zero,23a68 <___vfprintf_internal_r+0x10f8>
   23998:	980b883a 	mov	r5,r19
   2399c:	d8c01315 	stw	r3,76(sp)
   239a0:	9027883a 	mov	r19,r18
   239a4:	8007883a 	mov	r3,r16
   239a8:	b825883a 	mov	r18,r23
   239ac:	b021883a 	mov	r16,r22
   239b0:	03c00404 	movi	r15,16
   239b4:	a02d883a 	mov	r22,r20
   239b8:	db800f15 	stw	r14,60(sp)
   239bc:	db001015 	stw	r12,64(sp)
   239c0:	dac01115 	stw	r11,68(sp)
   239c4:	da801415 	stw	r10,80(sp)
   239c8:	6829883a 	mov	r20,r13
   239cc:	282f883a 	mov	r23,r5
   239d0:	00000406 	br	239e4 <___vfprintf_internal_r+0x1074>
   239d4:	843ffc04 	addi	r16,r16,-16
   239d8:	81400448 	cmpgei	r5,r16,17
   239dc:	18c00204 	addi	r3,r3,8
   239e0:	28001426 	beq	r5,zero,23a34 <___vfprintf_internal_r+0x10c4>
   239e4:	10800044 	addi	r2,r2,1
   239e8:	21000404 	addi	r4,r4,16
   239ec:	1c800015 	stw	r18,0(r3)
   239f0:	1bc00115 	stw	r15,4(r3)
   239f4:	d9001f15 	stw	r4,124(sp)
   239f8:	d8801e15 	stw	r2,120(sp)
   239fc:	11400208 	cmpgei	r5,r2,8
   23a00:	283ff426 	beq	r5,zero,239d4 <___vfprintf_internal_r+0x1064>
   23a04:	d9400417 	ldw	r5,16(sp)
   23a08:	d9000517 	ldw	r4,20(sp)
   23a0c:	d9801d04 	addi	r6,sp,116
   23a10:	0029a940 	call	29a94 <__sprint_r>
   23a14:	103ce21e 	bne	r2,zero,22da0 <___vfprintf_internal_r+0x430>
   23a18:	843ffc04 	addi	r16,r16,-16
   23a1c:	81400448 	cmpgei	r5,r16,17
   23a20:	d9001f17 	ldw	r4,124(sp)
   23a24:	d8801e17 	ldw	r2,120(sp)
   23a28:	8807883a 	mov	r3,r17
   23a2c:	03c00404 	movi	r15,16
   23a30:	283fec1e 	bne	r5,zero,239e4 <___vfprintf_internal_r+0x1074>
   23a34:	a01b883a 	mov	r13,r20
   23a38:	db800f17 	ldw	r14,60(sp)
   23a3c:	b029883a 	mov	r20,r22
   23a40:	db001017 	ldw	r12,64(sp)
   23a44:	802d883a 	mov	r22,r16
   23a48:	dac01117 	ldw	r11,68(sp)
   23a4c:	1821883a 	mov	r16,r3
   23a50:	da801417 	ldw	r10,80(sp)
   23a54:	d8c01317 	ldw	r3,76(sp)
   23a58:	b80b883a 	mov	r5,r23
   23a5c:	902f883a 	mov	r23,r18
   23a60:	9825883a 	mov	r18,r19
   23a64:	2827883a 	mov	r19,r5
   23a68:	10800044 	addi	r2,r2,1
   23a6c:	b109883a 	add	r4,r22,r4
   23a70:	d8801e15 	stw	r2,120(sp)
   23a74:	85c00015 	stw	r23,0(r16)
   23a78:	85800115 	stw	r22,4(r16)
   23a7c:	d9001f15 	stw	r4,124(sp)
   23a80:	10800208 	cmpgei	r2,r2,8
   23a84:	1001de1e 	bne	r2,zero,24200 <___vfprintf_internal_r+0x1890>
   23a88:	84000204 	addi	r16,r16,8
   23a8c:	003c8806 	br	22cb0 <___vfprintf_internal_r+0x340>
   23a90:	180b883a 	mov	r5,r3
   23a94:	9015883a 	mov	r10,r18
   23a98:	8007883a 	mov	r3,r16
   23a9c:	981b883a 	mov	r13,r19
   23aa0:	e025883a 	mov	r18,fp
   23aa4:	b027883a 	mov	r19,r22
   23aa8:	2821883a 	mov	r16,r5
   23aac:	a82d883a 	mov	r22,r21
   23ab0:	10800044 	addi	r2,r2,1
   23ab4:	85800015 	stw	r22,0(r16)
   23ab8:	84800115 	stw	r18,4(r16)
   23abc:	2489883a 	add	r4,r4,r18
   23ac0:	d8801e15 	stw	r2,120(sp)
   23ac4:	d9001f15 	stw	r4,124(sp)
   23ac8:	10800208 	cmpgei	r2,r2,8
   23acc:	103ca326 	beq	r2,zero,22d5c <___vfprintf_internal_r+0x3ec>
   23ad0:	d9400417 	ldw	r5,16(sp)
   23ad4:	d9000517 	ldw	r4,20(sp)
   23ad8:	d9801d04 	addi	r6,sp,116
   23adc:	db401015 	stw	r13,64(sp)
   23ae0:	da800f15 	stw	r10,60(sp)
   23ae4:	d8c00815 	stw	r3,32(sp)
   23ae8:	0029a940 	call	29a94 <__sprint_r>
   23aec:	103cac1e 	bne	r2,zero,22da0 <___vfprintf_internal_r+0x430>
   23af0:	d9001f17 	ldw	r4,124(sp)
   23af4:	d8c00817 	ldw	r3,32(sp)
   23af8:	da800f17 	ldw	r10,60(sp)
   23afc:	db401017 	ldw	r13,64(sp)
   23b00:	8821883a 	mov	r16,r17
   23b04:	003c9606 	br	22d60 <___vfprintf_internal_r+0x3f0>
   23b08:	d9400417 	ldw	r5,16(sp)
   23b0c:	d9000517 	ldw	r4,20(sp)
   23b10:	d9801d04 	addi	r6,sp,116
   23b14:	db401515 	stw	r13,84(sp)
   23b18:	da801415 	stw	r10,80(sp)
   23b1c:	d8c01315 	stw	r3,76(sp)
   23b20:	dac01115 	stw	r11,68(sp)
   23b24:	db001015 	stw	r12,64(sp)
   23b28:	db800f15 	stw	r14,60(sp)
   23b2c:	0029a940 	call	29a94 <__sprint_r>
   23b30:	103c9b1e 	bne	r2,zero,22da0 <___vfprintf_internal_r+0x430>
   23b34:	dd801f17 	ldw	r22,124(sp)
   23b38:	db401517 	ldw	r13,84(sp)
   23b3c:	da801417 	ldw	r10,80(sp)
   23b40:	d8c01317 	ldw	r3,76(sp)
   23b44:	dac01117 	ldw	r11,68(sp)
   23b48:	db001017 	ldw	r12,64(sp)
   23b4c:	db800f17 	ldw	r14,60(sp)
   23b50:	8821883a 	mov	r16,r17
   23b54:	003c6506 	br	22cec <___vfprintf_internal_r+0x37c>
   23b58:	d9400417 	ldw	r5,16(sp)
   23b5c:	d9000517 	ldw	r4,20(sp)
   23b60:	d9801d04 	addi	r6,sp,116
   23b64:	db401415 	stw	r13,80(sp)
   23b68:	da801315 	stw	r10,76(sp)
   23b6c:	d8c01115 	stw	r3,68(sp)
   23b70:	dac01015 	stw	r11,64(sp)
   23b74:	db000f15 	stw	r12,60(sp)
   23b78:	0029a940 	call	29a94 <__sprint_r>
   23b7c:	103c881e 	bne	r2,zero,22da0 <___vfprintf_internal_r+0x430>
   23b80:	dd801f17 	ldw	r22,124(sp)
   23b84:	db401417 	ldw	r13,80(sp)
   23b88:	da801317 	ldw	r10,76(sp)
   23b8c:	d8c01117 	ldw	r3,68(sp)
   23b90:	dac01017 	ldw	r11,64(sp)
   23b94:	db000f17 	ldw	r12,60(sp)
   23b98:	8821883a 	mov	r16,r17
   23b9c:	003c6006 	br	22d20 <___vfprintf_internal_r+0x3b0>
   23ba0:	dc801717 	ldw	r18,92(sp)
   23ba4:	0481a90e 	bge	zero,r18,2424c <___vfprintf_internal_r+0x18dc>
   23ba8:	d8800917 	ldw	r2,36(sp)
   23bac:	d9000817 	ldw	r4,32(sp)
   23bb0:	1025883a 	mov	r18,r2
   23bb4:	2080d316 	blt	r4,r2,23f04 <___vfprintf_internal_r+0x1594>
   23bb8:	04800a0e 	bge	zero,r18,23be4 <___vfprintf_internal_r+0x1274>
   23bbc:	d8801e17 	ldw	r2,120(sp)
   23bc0:	b4ad883a 	add	r22,r22,r18
   23bc4:	85400015 	stw	r21,0(r16)
   23bc8:	10800044 	addi	r2,r2,1
   23bcc:	d8801e15 	stw	r2,120(sp)
   23bd0:	84800115 	stw	r18,4(r16)
   23bd4:	dd801f15 	stw	r22,124(sp)
   23bd8:	10800208 	cmpgei	r2,r2,8
   23bdc:	1003b61e 	bne	r2,zero,24ab8 <___vfprintf_internal_r+0x2148>
   23be0:	84000204 	addi	r16,r16,8
   23be4:	9000d316 	blt	r18,zero,23f34 <___vfprintf_internal_r+0x15c4>
   23be8:	d8800817 	ldw	r2,32(sp)
   23bec:	14a5c83a 	sub	r18,r2,r18
   23bf0:	04810016 	blt	zero,r18,23ff4 <___vfprintf_internal_r+0x1684>
   23bf4:	dc801717 	ldw	r18,92(sp)
   23bf8:	d9000917 	ldw	r4,36(sp)
   23bfc:	9100c40e 	bge	r18,r4,23f10 <___vfprintf_internal_r+0x15a0>
   23c00:	d8800d17 	ldw	r2,52(sp)
   23c04:	d9400c17 	ldw	r5,48(sp)
   23c08:	80800015 	stw	r2,0(r16)
   23c0c:	d8801e17 	ldw	r2,120(sp)
   23c10:	2d89883a 	add	r4,r5,r22
   23c14:	81400115 	stw	r5,4(r16)
   23c18:	10800044 	addi	r2,r2,1
   23c1c:	d8801e15 	stw	r2,120(sp)
   23c20:	d9001f15 	stw	r4,124(sp)
   23c24:	10800208 	cmpgei	r2,r2,8
   23c28:	1003891e 	bne	r2,zero,24a50 <___vfprintf_internal_r+0x20e0>
   23c2c:	84000204 	addi	r16,r16,8
   23c30:	d8800917 	ldw	r2,36(sp)
   23c34:	d9400817 	ldw	r5,32(sp)
   23c38:	14a5c83a 	sub	r18,r2,r18
   23c3c:	116fc83a 	sub	r23,r2,r5
   23c40:	95c0010e 	bge	r18,r23,23c48 <___vfprintf_internal_r+0x12d8>
   23c44:	902f883a 	mov	r23,r18
   23c48:	05c00c0e 	bge	zero,r23,23c7c <___vfprintf_internal_r+0x130c>
   23c4c:	d8800817 	ldw	r2,32(sp)
   23c50:	25c9883a 	add	r4,r4,r23
   23c54:	85c00115 	stw	r23,4(r16)
   23c58:	a891883a 	add	r8,r21,r2
   23c5c:	d8801e17 	ldw	r2,120(sp)
   23c60:	82000015 	stw	r8,0(r16)
   23c64:	d9001f15 	stw	r4,124(sp)
   23c68:	10800044 	addi	r2,r2,1
   23c6c:	d8801e15 	stw	r2,120(sp)
   23c70:	10800208 	cmpgei	r2,r2,8
   23c74:	1003a11e 	bne	r2,zero,24afc <___vfprintf_internal_r+0x218c>
   23c78:	84000204 	addi	r16,r16,8
   23c7c:	b800010e 	bge	r23,zero,23c84 <___vfprintf_internal_r+0x1314>
   23c80:	002f883a 	mov	r23,zero
   23c84:	95e5c83a 	sub	r18,r18,r23
   23c88:	04bc350e 	bge	zero,r18,22d60 <___vfprintf_internal_r+0x3f0>
   23c8c:	058000f4 	movhi	r22,3
   23c90:	91400450 	cmplti	r5,r18,17
   23c94:	d8801e17 	ldw	r2,120(sp)
   23c98:	b585a904 	addi	r22,r22,5796
   23c9c:	283f841e 	bne	r5,zero,23ab0 <___vfprintf_internal_r+0x1140>
   23ca0:	d8c00815 	stw	r3,32(sp)
   23ca4:	dd400517 	ldw	r21,20(sp)
   23ca8:	8007883a 	mov	r3,r16
   23cac:	df000417 	ldw	fp,16(sp)
   23cb0:	9021883a 	mov	r16,r18
   23cb4:	05c00404 	movi	r23,16
   23cb8:	b025883a 	mov	r18,r22
   23cbc:	da800f15 	stw	r10,60(sp)
   23cc0:	982d883a 	mov	r22,r19
   23cc4:	6827883a 	mov	r19,r13
   23cc8:	00000406 	br	23cdc <___vfprintf_internal_r+0x136c>
   23ccc:	18c00204 	addi	r3,r3,8
   23cd0:	843ffc04 	addi	r16,r16,-16
   23cd4:	81400448 	cmpgei	r5,r16,17
   23cd8:	28036c26 	beq	r5,zero,24a8c <___vfprintf_internal_r+0x211c>
   23cdc:	10800044 	addi	r2,r2,1
   23ce0:	21000404 	addi	r4,r4,16
   23ce4:	1c800015 	stw	r18,0(r3)
   23ce8:	1dc00115 	stw	r23,4(r3)
   23cec:	d9001f15 	stw	r4,124(sp)
   23cf0:	d8801e15 	stw	r2,120(sp)
   23cf4:	11400208 	cmpgei	r5,r2,8
   23cf8:	283ff426 	beq	r5,zero,23ccc <___vfprintf_internal_r+0x135c>
   23cfc:	d9801d04 	addi	r6,sp,116
   23d00:	e00b883a 	mov	r5,fp
   23d04:	a809883a 	mov	r4,r21
   23d08:	0029a940 	call	29a94 <__sprint_r>
   23d0c:	103c241e 	bne	r2,zero,22da0 <___vfprintf_internal_r+0x430>
   23d10:	d9001f17 	ldw	r4,124(sp)
   23d14:	d8801e17 	ldw	r2,120(sp)
   23d18:	8807883a 	mov	r3,r17
   23d1c:	003fec06 	br	23cd0 <___vfprintf_internal_r+0x1360>
   23d20:	1880004c 	andi	r2,r3,1
   23d24:	103edd1e 	bne	r2,zero,2389c <___vfprintf_internal_r+0xf2c>
   23d28:	df001e17 	ldw	fp,120(sp)
   23d2c:	00800044 	movi	r2,1
   23d30:	b5c00044 	addi	r23,r22,1
   23d34:	e7000044 	addi	fp,fp,1
   23d38:	80800115 	stw	r2,4(r16)
   23d3c:	85400015 	stw	r21,0(r16)
   23d40:	ddc01f15 	stw	r23,124(sp)
   23d44:	df001e15 	stw	fp,120(sp)
   23d48:	e0800210 	cmplti	r2,fp,8
   23d4c:	103f001e 	bne	r2,zero,23950 <___vfprintf_internal_r+0xfe0>
   23d50:	d9400417 	ldw	r5,16(sp)
   23d54:	d9000517 	ldw	r4,20(sp)
   23d58:	d9801d04 	addi	r6,sp,116
   23d5c:	db401015 	stw	r13,64(sp)
   23d60:	da800f15 	stw	r10,60(sp)
   23d64:	d8c00815 	stw	r3,32(sp)
   23d68:	0029a940 	call	29a94 <__sprint_r>
   23d6c:	103c0c1e 	bne	r2,zero,22da0 <___vfprintf_internal_r+0x430>
   23d70:	ddc01f17 	ldw	r23,124(sp)
   23d74:	df001e17 	ldw	fp,120(sp)
   23d78:	db401017 	ldw	r13,64(sp)
   23d7c:	da800f17 	ldw	r10,60(sp)
   23d80:	d8c00817 	ldw	r3,32(sp)
   23d84:	8825883a 	mov	r18,r17
   23d88:	003ef106 	br	23950 <___vfprintf_internal_r+0xfe0>
   23d8c:	0039883a 	mov	fp,zero
   23d90:	882b883a 	mov	r21,r17
   23d94:	003c7f06 	br	22f94 <___vfprintf_internal_r+0x624>
   23d98:	d8800917 	ldw	r2,36(sp)
   23d9c:	10800090 	cmplti	r2,r2,2
   23da0:	103eeb1e 	bne	r2,zero,23950 <___vfprintf_internal_r+0xfe0>
   23da4:	d8800917 	ldw	r2,36(sp)
   23da8:	058000f4 	movhi	r22,3
   23dac:	b585a904 	addi	r22,r22,5796
   23db0:	10800490 	cmplti	r2,r2,18
   23db4:	1002171e 	bne	r2,zero,24614 <___vfprintf_internal_r+0x1ca4>
   23db8:	b809883a 	mov	r4,r23
   23dbc:	e005883a 	mov	r2,fp
   23dc0:	a02f883a 	mov	r23,r20
   23dc4:	9839883a 	mov	fp,r19
   23dc8:	05400404 	movi	r21,16
   23dcc:	1827883a 	mov	r19,r3
   23dd0:	5029883a 	mov	r20,r10
   23dd4:	9007883a 	mov	r3,r18
   23dd8:	b025883a 	mov	r18,r22
   23ddc:	682d883a 	mov	r22,r13
   23de0:	00000406 	br	23df4 <___vfprintf_internal_r+0x1484>
   23de4:	18c00204 	addi	r3,r3,8
   23de8:	843ffc04 	addi	r16,r16,-16
   23dec:	81400448 	cmpgei	r5,r16,17
   23df0:	2801ff26 	beq	r5,zero,245f0 <___vfprintf_internal_r+0x1c80>
   23df4:	10800044 	addi	r2,r2,1
   23df8:	21000404 	addi	r4,r4,16
   23dfc:	1c800015 	stw	r18,0(r3)
   23e00:	1d400115 	stw	r21,4(r3)
   23e04:	d9001f15 	stw	r4,124(sp)
   23e08:	d8801e15 	stw	r2,120(sp)
   23e0c:	11400208 	cmpgei	r5,r2,8
   23e10:	283ff426 	beq	r5,zero,23de4 <___vfprintf_internal_r+0x1474>
   23e14:	d9400417 	ldw	r5,16(sp)
   23e18:	d9000517 	ldw	r4,20(sp)
   23e1c:	d9801d04 	addi	r6,sp,116
   23e20:	0029a940 	call	29a94 <__sprint_r>
   23e24:	103bde1e 	bne	r2,zero,22da0 <___vfprintf_internal_r+0x430>
   23e28:	d9001f17 	ldw	r4,124(sp)
   23e2c:	d8801e17 	ldw	r2,120(sp)
   23e30:	8807883a 	mov	r3,r17
   23e34:	003fec06 	br	23de8 <___vfprintf_internal_r+0x1478>
   23e38:	d9400417 	ldw	r5,16(sp)
   23e3c:	d9000517 	ldw	r4,20(sp)
   23e40:	d9801d04 	addi	r6,sp,116
   23e44:	db401315 	stw	r13,76(sp)
   23e48:	da801115 	stw	r10,68(sp)
   23e4c:	d8c01015 	stw	r3,64(sp)
   23e50:	dac00f15 	stw	r11,60(sp)
   23e54:	0029a940 	call	29a94 <__sprint_r>
   23e58:	103bd11e 	bne	r2,zero,22da0 <___vfprintf_internal_r+0x430>
   23e5c:	dd801f17 	ldw	r22,124(sp)
   23e60:	db401317 	ldw	r13,76(sp)
   23e64:	da801117 	ldw	r10,68(sp)
   23e68:	d8c01017 	ldw	r3,64(sp)
   23e6c:	dac00f17 	ldw	r11,60(sp)
   23e70:	8821883a 	mov	r16,r17
   23e74:	003bae06 	br	22d30 <___vfprintf_internal_r+0x3c0>
   23e78:	d9400417 	ldw	r5,16(sp)
   23e7c:	d9000517 	ldw	r4,20(sp)
   23e80:	d9801d04 	addi	r6,sp,116
   23e84:	db401015 	stw	r13,64(sp)
   23e88:	da800f15 	stw	r10,60(sp)
   23e8c:	d8c00815 	stw	r3,32(sp)
   23e90:	0029a940 	call	29a94 <__sprint_r>
   23e94:	103bc21e 	bne	r2,zero,22da0 <___vfprintf_internal_r+0x430>
   23e98:	d9001f17 	ldw	r4,124(sp)
   23e9c:	db401017 	ldw	r13,64(sp)
   23ea0:	da800f17 	ldw	r10,60(sp)
   23ea4:	d8c00817 	ldw	r3,32(sp)
   23ea8:	8821883a 	mov	r16,r17
   23eac:	003bac06 	br	22d60 <___vfprintf_internal_r+0x3f0>
   23eb0:	63000414 	ori	r12,r12,16
   23eb4:	003afe06 	br	22ab0 <___vfprintf_internal_r+0x140>
   23eb8:	a2c00007 	ldb	r11,0(r20)
   23ebc:	d8800715 	stw	r2,28(sp)
   23ec0:	003afb06 	br	22ab0 <___vfprintf_internal_r+0x140>
   23ec4:	882b883a 	mov	r21,r17
   23ec8:	003c3206 	br	22f94 <___vfprintf_internal_r+0x624>
   23ecc:	18800017 	ldw	r2,0(r3)
   23ed0:	d8800a15 	stw	r2,40(sp)
   23ed4:	18800117 	ldw	r2,4(r3)
   23ed8:	d8800b15 	stw	r2,44(sp)
   23edc:	003c9506 	br	23134 <___vfprintf_internal_r+0x7c4>
   23ee0:	6080040c 	andi	r2,r12,16
   23ee4:	1000941e 	bne	r2,zero,24138 <___vfprintf_internal_r+0x17c8>
   23ee8:	6300100c 	andi	r12,r12,64
   23eec:	60009226 	beq	r12,zero,24138 <___vfprintf_internal_r+0x17c8>
   23ef0:	d8800717 	ldw	r2,28(sp)
   23ef4:	d8c00617 	ldw	r3,24(sp)
   23ef8:	10800017 	ldw	r2,0(r2)
   23efc:	10c0000d 	sth	r3,0(r2)
   23f00:	003d7306 	br	234d0 <___vfprintf_internal_r+0xb60>
   23f04:	2025883a 	mov	r18,r4
   23f08:	04bf2c16 	blt	zero,r18,23bbc <___vfprintf_internal_r+0x124c>
   23f0c:	003f3506 	br	23be4 <___vfprintf_internal_r+0x1274>
   23f10:	1880004c 	andi	r2,r3,1
   23f14:	103f3a1e 	bne	r2,zero,23c00 <___vfprintf_internal_r+0x1290>
   23f18:	d8800817 	ldw	r2,32(sp)
   23f1c:	24a5c83a 	sub	r18,r4,r18
   23f20:	20afc83a 	sub	r23,r4,r2
   23f24:	b009883a 	mov	r4,r22
   23f28:	95ff540e 	bge	r18,r23,23c7c <___vfprintf_internal_r+0x130c>
   23f2c:	902f883a 	mov	r23,r18
   23f30:	003f5206 	br	23c7c <___vfprintf_internal_r+0x130c>
   23f34:	0025883a 	mov	r18,zero
   23f38:	003f2b06 	br	23be8 <___vfprintf_internal_r+0x1278>
   23f3c:	d9400417 	ldw	r5,16(sp)
   23f40:	d9000517 	ldw	r4,20(sp)
   23f44:	d9801d04 	addi	r6,sp,116
   23f48:	db401015 	stw	r13,64(sp)
   23f4c:	da800f15 	stw	r10,60(sp)
   23f50:	d8c00815 	stw	r3,32(sp)
   23f54:	0029a940 	call	29a94 <__sprint_r>
   23f58:	103b911e 	bne	r2,zero,22da0 <___vfprintf_internal_r+0x430>
   23f5c:	d9001f17 	ldw	r4,124(sp)
   23f60:	db401017 	ldw	r13,64(sp)
   23f64:	da800f17 	ldw	r10,60(sp)
   23f68:	d8c00817 	ldw	r3,32(sp)
   23f6c:	8821883a 	mov	r16,r17
   23f70:	003d8906 	br	23598 <___vfprintf_internal_r+0xc28>
   23f74:	008000f4 	movhi	r2,3
   23f78:	10859c04 	addi	r2,r2,5744
   23f7c:	d8800e15 	stw	r2,56(sp)
   23f80:	6080080c 	andi	r2,r12,32
   23f84:	10007326 	beq	r2,zero,24154 <___vfprintf_internal_r+0x17e4>
   23f88:	d8800717 	ldw	r2,28(sp)
   23f8c:	15800017 	ldw	r22,0(r2)
   23f90:	17000117 	ldw	fp,4(r2)
   23f94:	10800204 	addi	r2,r2,8
   23f98:	d8800715 	stw	r2,28(sp)
   23f9c:	6080004c 	andi	r2,r12,1
   23fa0:	10006a26 	beq	r2,zero,2414c <___vfprintf_internal_r+0x17dc>
   23fa4:	b704b03a 	or	r2,r22,fp
   23fa8:	10006826 	beq	r2,zero,2414c <___vfprintf_internal_r+0x17dc>
   23fac:	00800c04 	movi	r2,48
   23fb0:	d8801685 	stb	r2,90(sp)
   23fb4:	dac016c5 	stb	r11,91(sp)
   23fb8:	63000094 	ori	r12,r12,2
   23fbc:	00800084 	movi	r2,2
   23fc0:	003bd106 	br	22f08 <___vfprintf_internal_r+0x598>
   23fc4:	908001f0 	cmpltui	r2,r18,7
   23fc8:	9039883a 	mov	fp,r18
   23fcc:	1001d026 	beq	r2,zero,24710 <___vfprintf_internal_r+0x1da0>
   23fd0:	054000f4 	movhi	r21,3
   23fd4:	e01b883a 	mov	r13,fp
   23fd8:	dd800715 	stw	r22,28(sp)
   23fdc:	ad45a604 	addi	r21,r21,5784
   23fe0:	003b2906 	br	22c88 <___vfprintf_internal_r+0x318>
   23fe4:	008000f4 	movhi	r2,3
   23fe8:	1085a104 	addi	r2,r2,5764
   23fec:	d8800e15 	stw	r2,56(sp)
   23ff0:	003fe306 	br	23f80 <___vfprintf_internal_r+0x1610>
   23ff4:	b009883a 	mov	r4,r22
   23ff8:	91400450 	cmplti	r5,r18,17
   23ffc:	058000f4 	movhi	r22,3
   24000:	d8801e17 	ldw	r2,120(sp)
   24004:	b585a904 	addi	r22,r22,5796
   24008:	28019f1e 	bne	r5,zero,24688 <___vfprintf_internal_r+0x1d18>
   2400c:	9039883a 	mov	fp,r18
   24010:	d8c00f15 	stw	r3,60(sp)
   24014:	05c00404 	movi	r23,16
   24018:	8007883a 	mov	r3,r16
   2401c:	5025883a 	mov	r18,r10
   24020:	b021883a 	mov	r16,r22
   24024:	982d883a 	mov	r22,r19
   24028:	6827883a 	mov	r19,r13
   2402c:	00000406 	br	24040 <___vfprintf_internal_r+0x16d0>
   24030:	18c00204 	addi	r3,r3,8
   24034:	e73ffc04 	addi	fp,fp,-16
   24038:	e1400448 	cmpgei	r5,fp,17
   2403c:	28018b26 	beq	r5,zero,2466c <___vfprintf_internal_r+0x1cfc>
   24040:	10800044 	addi	r2,r2,1
   24044:	21000404 	addi	r4,r4,16
   24048:	1c000015 	stw	r16,0(r3)
   2404c:	1dc00115 	stw	r23,4(r3)
   24050:	d9001f15 	stw	r4,124(sp)
   24054:	d8801e15 	stw	r2,120(sp)
   24058:	11400208 	cmpgei	r5,r2,8
   2405c:	283ff426 	beq	r5,zero,24030 <___vfprintf_internal_r+0x16c0>
   24060:	d9400417 	ldw	r5,16(sp)
   24064:	d9000517 	ldw	r4,20(sp)
   24068:	d9801d04 	addi	r6,sp,116
   2406c:	0029a940 	call	29a94 <__sprint_r>
   24070:	103b4b1e 	bne	r2,zero,22da0 <___vfprintf_internal_r+0x430>
   24074:	d9001f17 	ldw	r4,124(sp)
   24078:	d8801e17 	ldw	r2,120(sp)
   2407c:	8807883a 	mov	r3,r17
   24080:	003fec06 	br	24034 <___vfprintf_internal_r+0x16c4>
   24084:	8009883a 	mov	r4,r16
   24088:	b007883a 	mov	r3,r22
   2408c:	9805883a 	mov	r2,r19
   24090:	a02d883a 	mov	r22,r20
   24094:	e027883a 	mov	r19,fp
   24098:	9029883a 	mov	r20,r18
   2409c:	dac00815 	stw	r11,32(sp)
   240a0:	db000f15 	stw	r12,60(sp)
   240a4:	da801015 	stw	r10,64(sp)
   240a8:	8821883a 	mov	r16,r17
   240ac:	1039883a 	mov	fp,r2
   240b0:	1825883a 	mov	r18,r3
   240b4:	202b883a 	mov	r21,r4
   240b8:	9009883a 	mov	r4,r18
   240bc:	980b883a 	mov	r5,r19
   240c0:	01800284 	movi	r6,10
   240c4:	000f883a 	mov	r7,zero
   240c8:	002c5380 	call	2c538 <__umoddi3>
   240cc:	10800c04 	addi	r2,r2,48
   240d0:	9009883a 	mov	r4,r18
   240d4:	980b883a 	mov	r5,r19
   240d8:	01800284 	movi	r6,10
   240dc:	000f883a 	mov	r7,zero
   240e0:	80bfffc5 	stb	r2,-1(r16)
   240e4:	002bf600 	call	2bf60 <__udivdi3>
   240e8:	980d883a 	mov	r6,r19
   240ec:	900f883a 	mov	r7,r18
   240f0:	843fffc4 	addi	r16,r16,-1
   240f4:	1025883a 	mov	r18,r2
   240f8:	1827883a 	mov	r19,r3
   240fc:	303fee1e 	bne	r6,zero,240b8 <___vfprintf_internal_r+0x1748>
   24100:	39c002a8 	cmpgeui	r7,r7,10
   24104:	383fec1e 	bne	r7,zero,240b8 <___vfprintf_internal_r+0x1748>
   24108:	db000f17 	ldw	r12,60(sp)
   2410c:	a805883a 	mov	r2,r21
   24110:	802b883a 	mov	r21,r16
   24114:	a025883a 	mov	r18,r20
   24118:	e027883a 	mov	r19,fp
   2411c:	dac00817 	ldw	r11,32(sp)
   24120:	da801017 	ldw	r10,64(sp)
   24124:	b029883a 	mov	r20,r22
   24128:	1021883a 	mov	r16,r2
   2412c:	8d79c83a 	sub	fp,r17,r21
   24130:	6007883a 	mov	r3,r12
   24134:	003b9706 	br	22f94 <___vfprintf_internal_r+0x624>
   24138:	d8800717 	ldw	r2,28(sp)
   2413c:	d8c00617 	ldw	r3,24(sp)
   24140:	10800017 	ldw	r2,0(r2)
   24144:	10c00015 	stw	r3,0(r2)
   24148:	003ce106 	br	234d0 <___vfprintf_internal_r+0xb60>
   2414c:	00800084 	movi	r2,2
   24150:	003b6d06 	br	22f08 <___vfprintf_internal_r+0x598>
   24154:	d8c00717 	ldw	r3,28(sp)
   24158:	6080040c 	andi	r2,r12,16
   2415c:	1d800017 	ldw	r22,0(r3)
   24160:	18c00104 	addi	r3,r3,4
   24164:	d8c00715 	stw	r3,28(sp)
   24168:	1000051e 	bne	r2,zero,24180 <___vfprintf_internal_r+0x1810>
   2416c:	6080100c 	andi	r2,r12,64
   24170:	10000326 	beq	r2,zero,24180 <___vfprintf_internal_r+0x1810>
   24174:	b5bfffcc 	andi	r22,r22,65535
   24178:	0039883a 	mov	fp,zero
   2417c:	003f8706 	br	23f9c <___vfprintf_internal_r+0x162c>
   24180:	0039883a 	mov	fp,zero
   24184:	003f8506 	br	23f9c <___vfprintf_internal_r+0x162c>
   24188:	d9400417 	ldw	r5,16(sp)
   2418c:	d9000517 	ldw	r4,20(sp)
   24190:	d9801d04 	addi	r6,sp,116
   24194:	db401015 	stw	r13,64(sp)
   24198:	da800f15 	stw	r10,60(sp)
   2419c:	d8c00815 	stw	r3,32(sp)
   241a0:	0029a940 	call	29a94 <__sprint_r>
   241a4:	103afe1e 	bne	r2,zero,22da0 <___vfprintf_internal_r+0x430>
   241a8:	dd801f17 	ldw	r22,124(sp)
   241ac:	df001e17 	ldw	fp,120(sp)
   241b0:	db401017 	ldw	r13,64(sp)
   241b4:	da800f17 	ldw	r10,60(sp)
   241b8:	d8c00817 	ldw	r3,32(sp)
   241bc:	8825883a 	mov	r18,r17
   241c0:	003dc006 	br	238c4 <___vfprintf_internal_r+0xf54>
   241c4:	d9400417 	ldw	r5,16(sp)
   241c8:	d9000517 	ldw	r4,20(sp)
   241cc:	d9801d04 	addi	r6,sp,116
   241d0:	db401015 	stw	r13,64(sp)
   241d4:	da800f15 	stw	r10,60(sp)
   241d8:	d8c00815 	stw	r3,32(sp)
   241dc:	0029a940 	call	29a94 <__sprint_r>
   241e0:	103aef1e 	bne	r2,zero,22da0 <___vfprintf_internal_r+0x430>
   241e4:	ddc01f17 	ldw	r23,124(sp)
   241e8:	df001e17 	ldw	fp,120(sp)
   241ec:	db401017 	ldw	r13,64(sp)
   241f0:	da800f17 	ldw	r10,60(sp)
   241f4:	d8c00817 	ldw	r3,32(sp)
   241f8:	8825883a 	mov	r18,r17
   241fc:	003dbc06 	br	238f0 <___vfprintf_internal_r+0xf80>
   24200:	d9400417 	ldw	r5,16(sp)
   24204:	d9000517 	ldw	r4,20(sp)
   24208:	d9801d04 	addi	r6,sp,116
   2420c:	db401515 	stw	r13,84(sp)
   24210:	da801415 	stw	r10,80(sp)
   24214:	d8c01315 	stw	r3,76(sp)
   24218:	dac01115 	stw	r11,68(sp)
   2421c:	db001015 	stw	r12,64(sp)
   24220:	db800f15 	stw	r14,60(sp)
   24224:	0029a940 	call	29a94 <__sprint_r>
   24228:	103add1e 	bne	r2,zero,22da0 <___vfprintf_internal_r+0x430>
   2422c:	db401517 	ldw	r13,84(sp)
   24230:	da801417 	ldw	r10,80(sp)
   24234:	d8c01317 	ldw	r3,76(sp)
   24238:	dac01117 	ldw	r11,68(sp)
   2423c:	db001017 	ldw	r12,64(sp)
   24240:	db800f17 	ldw	r14,60(sp)
   24244:	8821883a 	mov	r16,r17
   24248:	003a9906 	br	22cb0 <___vfprintf_internal_r+0x340>
   2424c:	d8801e17 	ldw	r2,120(sp)
   24250:	014000f4 	movhi	r5,3
   24254:	2945a804 	addi	r5,r5,5792
   24258:	10800044 	addi	r2,r2,1
   2425c:	b1000044 	addi	r4,r22,1
   24260:	81400015 	stw	r5,0(r16)
   24264:	01400044 	movi	r5,1
   24268:	d8801e15 	stw	r2,120(sp)
   2426c:	81400115 	stw	r5,4(r16)
   24270:	d9001f15 	stw	r4,124(sp)
   24274:	10800208 	cmpgei	r2,r2,8
   24278:	1001121e 	bne	r2,zero,246c4 <___vfprintf_internal_r+0x1d54>
   2427c:	84000204 	addi	r16,r16,8
   24280:	9000ac1e 	bne	r18,zero,24534 <___vfprintf_internal_r+0x1bc4>
   24284:	d9400917 	ldw	r5,36(sp)
   24288:	1880004c 	andi	r2,r3,1
   2428c:	1144b03a 	or	r2,r2,r5
   24290:	103ab326 	beq	r2,zero,22d60 <___vfprintf_internal_r+0x3f0>
   24294:	d8800d17 	ldw	r2,52(sp)
   24298:	d9400c17 	ldw	r5,48(sp)
   2429c:	80800015 	stw	r2,0(r16)
   242a0:	d8801e17 	ldw	r2,120(sp)
   242a4:	2909883a 	add	r4,r5,r4
   242a8:	81400115 	stw	r5,4(r16)
   242ac:	10800044 	addi	r2,r2,1
   242b0:	d9001f15 	stw	r4,124(sp)
   242b4:	d8801e15 	stw	r2,120(sp)
   242b8:	11400208 	cmpgei	r5,r2,8
   242bc:	28011b1e 	bne	r5,zero,2472c <___vfprintf_internal_r+0x1dbc>
   242c0:	84000204 	addi	r16,r16,8
   242c4:	d9400917 	ldw	r5,36(sp)
   242c8:	10800044 	addi	r2,r2,1
   242cc:	d8801e15 	stw	r2,120(sp)
   242d0:	2909883a 	add	r4,r5,r4
   242d4:	85400015 	stw	r21,0(r16)
   242d8:	81400115 	stw	r5,4(r16)
   242dc:	d9001f15 	stw	r4,124(sp)
   242e0:	10800208 	cmpgei	r2,r2,8
   242e4:	103a9d26 	beq	r2,zero,22d5c <___vfprintf_internal_r+0x3ec>
   242e8:	003df906 	br	23ad0 <___vfprintf_internal_r+0x1160>
   242ec:	d9000a17 	ldw	r4,40(sp)
   242f0:	d9400b17 	ldw	r5,44(sp)
   242f4:	da800f15 	stw	r10,60(sp)
   242f8:	200d883a 	mov	r6,r4
   242fc:	280f883a 	mov	r7,r5
   24300:	db000815 	stw	r12,32(sp)
   24304:	dac00715 	stw	r11,28(sp)
   24308:	002e7ac0 	call	2e7ac <__unorddf2>
   2430c:	dac00717 	ldw	r11,28(sp)
   24310:	db000817 	ldw	r12,32(sp)
   24314:	da800f17 	ldw	r10,60(sp)
   24318:	10026c1e 	bne	r2,zero,24ccc <___vfprintf_internal_r+0x235c>
   2431c:	057ff7c4 	movi	r21,-33
   24320:	90bfffe0 	cmpeqi	r2,r18,-1
   24324:	5d6e703a 	and	r23,r11,r21
   24328:	1001f21e 	bne	r2,zero,24af4 <___vfprintf_internal_r+0x2184>
   2432c:	b88011d8 	cmpnei	r2,r23,71
   24330:	1001de26 	beq	r2,zero,24aac <___vfprintf_internal_r+0x213c>
   24334:	d8800b17 	ldw	r2,44(sp)
   24338:	60c04014 	ori	r3,r12,256
   2433c:	1000f016 	blt	r2,zero,24700 <___vfprintf_internal_r+0x1d90>
   24340:	df000b17 	ldw	fp,44(sp)
   24344:	d8000705 	stb	zero,28(sp)
   24348:	588019a0 	cmpeqi	r2,r11,102
   2434c:	d8800f15 	stw	r2,60(sp)
   24350:	1001911e 	bne	r2,zero,24998 <___vfprintf_internal_r+0x2028>
   24354:	b8801158 	cmpnei	r2,r23,69
   24358:	10010526 	beq	r2,zero,24770 <___vfprintf_internal_r+0x1e00>
   2435c:	d8801b04 	addi	r2,sp,108
   24360:	d9000517 	ldw	r4,20(sp)
   24364:	d8800315 	stw	r2,12(sp)
   24368:	d9400a17 	ldw	r5,40(sp)
   2436c:	d8801804 	addi	r2,sp,96
   24370:	d8800215 	stw	r2,8(sp)
   24374:	d8801704 	addi	r2,sp,92
   24378:	d8800115 	stw	r2,4(sp)
   2437c:	dc800015 	stw	r18,0(sp)
   24380:	01c00084 	movi	r7,2
   24384:	e00d883a 	mov	r6,fp
   24388:	da801115 	stw	r10,68(sp)
   2438c:	d8c01015 	stw	r3,64(sp)
   24390:	db000915 	stw	r12,36(sp)
   24394:	dac00815 	stw	r11,32(sp)
   24398:	00252640 	call	25264 <_dtoa_r>
   2439c:	dac00817 	ldw	r11,32(sp)
   243a0:	db000917 	ldw	r12,36(sp)
   243a4:	d8c01017 	ldw	r3,64(sp)
   243a8:	590019e0 	cmpeqi	r4,r11,103
   243ac:	da801117 	ldw	r10,68(sp)
   243b0:	102b883a 	mov	r21,r2
   243b4:	20011a26 	beq	r4,zero,24820 <___vfprintf_internal_r+0x1eb0>
   243b8:	6080004c 	andi	r2,r12,1
   243bc:	10011a26 	beq	r2,zero,24828 <___vfprintf_internal_r+0x1eb8>
   243c0:	ac9b883a 	add	r13,r21,r18
   243c4:	d9000a17 	ldw	r4,40(sp)
   243c8:	000d883a 	mov	r6,zero
   243cc:	000f883a 	mov	r7,zero
   243d0:	e00b883a 	mov	r5,fp
   243d4:	db401315 	stw	r13,76(sp)
   243d8:	da801115 	stw	r10,68(sp)
   243dc:	d8c01015 	stw	r3,64(sp)
   243e0:	db000915 	stw	r12,36(sp)
   243e4:	dac00815 	stw	r11,32(sp)
   243e8:	002d3800 	call	2d380 <__eqdf2>
   243ec:	dac00817 	ldw	r11,32(sp)
   243f0:	db000917 	ldw	r12,36(sp)
   243f4:	d8c01017 	ldw	r3,64(sp)
   243f8:	da801117 	ldw	r10,68(sp)
   243fc:	db401317 	ldw	r13,76(sp)
   24400:	10025826 	beq	r2,zero,24d64 <___vfprintf_internal_r+0x23f4>
   24404:	d8801b17 	ldw	r2,108(sp)
   24408:	1340062e 	bgeu	r2,r13,24424 <___vfprintf_internal_r+0x1ab4>
   2440c:	01400c04 	movi	r5,48
   24410:	11000044 	addi	r4,r2,1
   24414:	d9001b15 	stw	r4,108(sp)
   24418:	11400005 	stb	r5,0(r2)
   2441c:	d8801b17 	ldw	r2,108(sp)
   24420:	137ffb36 	bltu	r2,r13,24410 <___vfprintf_internal_r+0x1aa0>
   24424:	d9c01717 	ldw	r7,92(sp)
   24428:	1545c83a 	sub	r2,r2,r21
   2442c:	b90011d8 	cmpnei	r4,r23,71
   24430:	d8800915 	stw	r2,36(sp)
   24434:	d9c00815 	stw	r7,32(sp)
   24438:	2000ff26 	beq	r4,zero,24838 <___vfprintf_internal_r+0x1ec8>
   2443c:	d8800f17 	ldw	r2,60(sp)
   24440:	10024226 	beq	r2,zero,24d4c <___vfprintf_internal_r+0x23dc>
   24444:	d9000817 	ldw	r4,32(sp)
   24448:	6080004c 	andi	r2,r12,1
   2444c:	1484b03a 	or	r2,r2,r18
   24450:	0102620e 	bge	zero,r4,24ddc <___vfprintf_internal_r+0x246c>
   24454:	1002471e 	bne	r2,zero,24d74 <___vfprintf_internal_r+0x2404>
   24458:	df000817 	ldw	fp,32(sp)
   2445c:	e01b883a 	mov	r13,fp
   24460:	02c01984 	movi	r11,102
   24464:	ddc00707 	ldb	r23,28(sp)
   24468:	b8014726 	beq	r23,zero,24988 <___vfprintf_internal_r+0x2018>
   2446c:	00800b44 	movi	r2,45
   24470:	d8801645 	stb	r2,89(sp)
   24474:	dd800715 	stw	r22,28(sp)
   24478:	0025883a 	mov	r18,zero
   2447c:	003acd06 	br	22fb4 <___vfprintf_internal_r+0x644>
   24480:	d9400417 	ldw	r5,16(sp)
   24484:	d9000517 	ldw	r4,20(sp)
   24488:	d9801d04 	addi	r6,sp,116
   2448c:	db401015 	stw	r13,64(sp)
   24490:	da800f15 	stw	r10,60(sp)
   24494:	d8c00815 	stw	r3,32(sp)
   24498:	0029a940 	call	29a94 <__sprint_r>
   2449c:	103a401e 	bne	r2,zero,22da0 <___vfprintf_internal_r+0x430>
   244a0:	dd801f17 	ldw	r22,124(sp)
   244a4:	db401017 	ldw	r13,64(sp)
   244a8:	da800f17 	ldw	r10,60(sp)
   244ac:	d8c00817 	ldw	r3,32(sp)
   244b0:	8821883a 	mov	r16,r17
   244b4:	003c2506 	br	2354c <___vfprintf_internal_r+0xbdc>
   244b8:	d9400417 	ldw	r5,16(sp)
   244bc:	d9000517 	ldw	r4,20(sp)
   244c0:	d9801d04 	addi	r6,sp,116
   244c4:	db401015 	stw	r13,64(sp)
   244c8:	da800f15 	stw	r10,60(sp)
   244cc:	d8c00815 	stw	r3,32(sp)
   244d0:	0029a940 	call	29a94 <__sprint_r>
   244d4:	103a321e 	bne	r2,zero,22da0 <___vfprintf_internal_r+0x430>
   244d8:	ddc01f17 	ldw	r23,124(sp)
   244dc:	df001e17 	ldw	fp,120(sp)
   244e0:	d8c00817 	ldw	r3,32(sp)
   244e4:	da800f17 	ldw	r10,60(sp)
   244e8:	db401017 	ldw	r13,64(sp)
   244ec:	8825883a 	mov	r18,r17
   244f0:	003d1706 	br	23950 <___vfprintf_internal_r+0xfe0>
   244f4:	d9400417 	ldw	r5,16(sp)
   244f8:	d9000517 	ldw	r4,20(sp)
   244fc:	d9801d04 	addi	r6,sp,116
   24500:	db401315 	stw	r13,76(sp)
   24504:	da801115 	stw	r10,68(sp)
   24508:	d8c01015 	stw	r3,64(sp)
   2450c:	dac00f15 	stw	r11,60(sp)
   24510:	0029a940 	call	29a94 <__sprint_r>
   24514:	103a221e 	bne	r2,zero,22da0 <___vfprintf_internal_r+0x430>
   24518:	dd801f17 	ldw	r22,124(sp)
   2451c:	db401317 	ldw	r13,76(sp)
   24520:	da801117 	ldw	r10,68(sp)
   24524:	d8c01017 	ldw	r3,64(sp)
   24528:	dac00f17 	ldw	r11,60(sp)
   2452c:	8821883a 	mov	r16,r17
   24530:	0039fd06 	br	22d28 <___vfprintf_internal_r+0x3b8>
   24534:	d8800d17 	ldw	r2,52(sp)
   24538:	d9400c17 	ldw	r5,48(sp)
   2453c:	80800015 	stw	r2,0(r16)
   24540:	d8801e17 	ldw	r2,120(sp)
   24544:	2909883a 	add	r4,r5,r4
   24548:	81400115 	stw	r5,4(r16)
   2454c:	10800044 	addi	r2,r2,1
   24550:	d9001f15 	stw	r4,124(sp)
   24554:	d8801e15 	stw	r2,120(sp)
   24558:	11400208 	cmpgei	r5,r2,8
   2455c:	2800731e 	bne	r5,zero,2472c <___vfprintf_internal_r+0x1dbc>
   24560:	84000204 	addi	r16,r16,8
   24564:	903f570e 	bge	r18,zero,242c4 <___vfprintf_internal_r+0x1954>
   24568:	058000f4 	movhi	r22,3
   2456c:	917ffc08 	cmpgei	r5,r18,-16
   24570:	b585a904 	addi	r22,r22,5796
   24574:	04a5c83a 	sub	r18,zero,r18
   24578:	2801a91e 	bne	r5,zero,24c20 <___vfprintf_internal_r+0x22b0>
   2457c:	1839883a 	mov	fp,r3
   24580:	05c00404 	movi	r23,16
   24584:	8007883a 	mov	r3,r16
   24588:	da800815 	stw	r10,32(sp)
   2458c:	b021883a 	mov	r16,r22
   24590:	902d883a 	mov	r22,r18
   24594:	6825883a 	mov	r18,r13
   24598:	00000406 	br	245ac <___vfprintf_internal_r+0x1c3c>
   2459c:	18c00204 	addi	r3,r3,8
   245a0:	b5bffc04 	addi	r22,r22,-16
   245a4:	b1400448 	cmpgei	r5,r22,17
   245a8:	28019726 	beq	r5,zero,24c08 <___vfprintf_internal_r+0x2298>
   245ac:	10800044 	addi	r2,r2,1
   245b0:	21000404 	addi	r4,r4,16
   245b4:	1c000015 	stw	r16,0(r3)
   245b8:	1dc00115 	stw	r23,4(r3)
   245bc:	d9001f15 	stw	r4,124(sp)
   245c0:	d8801e15 	stw	r2,120(sp)
   245c4:	11400208 	cmpgei	r5,r2,8
   245c8:	283ff426 	beq	r5,zero,2459c <___vfprintf_internal_r+0x1c2c>
   245cc:	d9400417 	ldw	r5,16(sp)
   245d0:	d9000517 	ldw	r4,20(sp)
   245d4:	d9801d04 	addi	r6,sp,116
   245d8:	0029a940 	call	29a94 <__sprint_r>
   245dc:	1039f01e 	bne	r2,zero,22da0 <___vfprintf_internal_r+0x430>
   245e0:	d9001f17 	ldw	r4,124(sp)
   245e4:	d8801e17 	ldw	r2,120(sp)
   245e8:	8807883a 	mov	r3,r17
   245ec:	003fec06 	br	245a0 <___vfprintf_internal_r+0x1c30>
   245f0:	a015883a 	mov	r10,r20
   245f4:	b01b883a 	mov	r13,r22
   245f8:	b829883a 	mov	r20,r23
   245fc:	902d883a 	mov	r22,r18
   24600:	202f883a 	mov	r23,r4
   24604:	1825883a 	mov	r18,r3
   24608:	9807883a 	mov	r3,r19
   2460c:	e027883a 	mov	r19,fp
   24610:	1039883a 	mov	fp,r2
   24614:	e7000044 	addi	fp,fp,1
   24618:	bc2f883a 	add	r23,r23,r16
   2461c:	95800015 	stw	r22,0(r18)
   24620:	003cc506 	br	23938 <___vfprintf_internal_r+0xfc8>
   24624:	a809883a 	mov	r4,r21
   24628:	da801015 	stw	r10,64(sp)
   2462c:	db000f15 	stw	r12,60(sp)
   24630:	dac00815 	stw	r11,32(sp)
   24634:	00228d80 	call	228d8 <strlen>
   24638:	dac00817 	ldw	r11,32(sp)
   2463c:	db000f17 	ldw	r12,60(sp)
   24640:	da801017 	ldw	r10,64(sp)
   24644:	1039883a 	mov	fp,r2
   24648:	101b883a 	mov	r13,r2
   2464c:	dd800715 	stw	r22,28(sp)
   24650:	00398d06 	br	22c88 <___vfprintf_internal_r+0x318>
   24654:	054000f4 	movhi	r21,3
   24658:	ad459804 	addi	r21,r21,5728
   2465c:	003adf06 	br	231dc <___vfprintf_internal_r+0x86c>
   24660:	058000f4 	movhi	r22,3
   24664:	b585a904 	addi	r22,r22,5796
   24668:	003c6006 	br	237ec <___vfprintf_internal_r+0xe7c>
   2466c:	981b883a 	mov	r13,r19
   24670:	b027883a 	mov	r19,r22
   24674:	802d883a 	mov	r22,r16
   24678:	1821883a 	mov	r16,r3
   2467c:	d8c00f17 	ldw	r3,60(sp)
   24680:	9015883a 	mov	r10,r18
   24684:	e025883a 	mov	r18,fp
   24688:	10800044 	addi	r2,r2,1
   2468c:	9109883a 	add	r4,r18,r4
   24690:	d8801e15 	stw	r2,120(sp)
   24694:	85800015 	stw	r22,0(r16)
   24698:	84800115 	stw	r18,4(r16)
   2469c:	d9001f15 	stw	r4,124(sp)
   246a0:	10800208 	cmpgei	r2,r2,8
   246a4:	1000501e 	bne	r2,zero,247e8 <___vfprintf_internal_r+0x1e78>
   246a8:	84000204 	addi	r16,r16,8
   246ac:	202d883a 	mov	r22,r4
   246b0:	003d5006 	br	23bf4 <___vfprintf_internal_r+0x1284>
   246b4:	00800b44 	movi	r2,45
   246b8:	d8801645 	stb	r2,89(sp)
   246bc:	05c00b44 	movi	r23,45
   246c0:	003ac206 	br	231cc <___vfprintf_internal_r+0x85c>
   246c4:	d9400417 	ldw	r5,16(sp)
   246c8:	d9000517 	ldw	r4,20(sp)
   246cc:	d9801d04 	addi	r6,sp,116
   246d0:	db401015 	stw	r13,64(sp)
   246d4:	da800f15 	stw	r10,60(sp)
   246d8:	d8c00815 	stw	r3,32(sp)
   246dc:	0029a940 	call	29a94 <__sprint_r>
   246e0:	1039af1e 	bne	r2,zero,22da0 <___vfprintf_internal_r+0x430>
   246e4:	dc801717 	ldw	r18,92(sp)
   246e8:	d9001f17 	ldw	r4,124(sp)
   246ec:	db401017 	ldw	r13,64(sp)
   246f0:	da800f17 	ldw	r10,60(sp)
   246f4:	d8c00817 	ldw	r3,32(sp)
   246f8:	8821883a 	mov	r16,r17
   246fc:	003ee006 	br	24280 <___vfprintf_internal_r+0x1910>
   24700:	1720003c 	xorhi	fp,r2,32768
   24704:	00800b44 	movi	r2,45
   24708:	d8800705 	stb	r2,28(sp)
   2470c:	003f0e06 	br	24348 <___vfprintf_internal_r+0x19d8>
   24710:	07000184 	movi	fp,6
   24714:	003e2e06 	br	23fd0 <___vfprintf_internal_r+0x1660>
   24718:	d9400417 	ldw	r5,16(sp)
   2471c:	d9000517 	ldw	r4,20(sp)
   24720:	d9801d04 	addi	r6,sp,116
   24724:	0029a940 	call	29a94 <__sprint_r>
   24728:	00399d06 	br	22da0 <___vfprintf_internal_r+0x430>
   2472c:	d9400417 	ldw	r5,16(sp)
   24730:	d9000517 	ldw	r4,20(sp)
   24734:	d9801d04 	addi	r6,sp,116
   24738:	db401015 	stw	r13,64(sp)
   2473c:	da800f15 	stw	r10,60(sp)
   24740:	d8c00815 	stw	r3,32(sp)
   24744:	0029a940 	call	29a94 <__sprint_r>
   24748:	1039951e 	bne	r2,zero,22da0 <___vfprintf_internal_r+0x430>
   2474c:	dc801717 	ldw	r18,92(sp)
   24750:	d9001f17 	ldw	r4,124(sp)
   24754:	d8801e17 	ldw	r2,120(sp)
   24758:	db401017 	ldw	r13,64(sp)
   2475c:	da800f17 	ldw	r10,60(sp)
   24760:	d8c00817 	ldw	r3,32(sp)
   24764:	8821883a 	mov	r16,r17
   24768:	903ed60e 	bge	r18,zero,242c4 <___vfprintf_internal_r+0x1954>
   2476c:	003f7e06 	br	24568 <___vfprintf_internal_r+0x1bf8>
   24770:	d8801b04 	addi	r2,sp,108
   24774:	d8800315 	stw	r2,12(sp)
   24778:	d9400a17 	ldw	r5,40(sp)
   2477c:	d8801804 	addi	r2,sp,96
   24780:	d9000517 	ldw	r4,20(sp)
   24784:	d8c01115 	stw	r3,68(sp)
   24788:	d8800215 	stw	r2,8(sp)
   2478c:	90c00044 	addi	r3,r18,1
   24790:	d8801704 	addi	r2,sp,92
   24794:	d8c00015 	stw	r3,0(sp)
   24798:	d8800115 	stw	r2,4(sp)
   2479c:	01c00084 	movi	r7,2
   247a0:	e00d883a 	mov	r6,fp
   247a4:	da801315 	stw	r10,76(sp)
   247a8:	db001015 	stw	r12,64(sp)
   247ac:	dac00815 	stw	r11,32(sp)
   247b0:	d8c00915 	stw	r3,36(sp)
   247b4:	00252640 	call	25264 <_dtoa_r>
   247b8:	dac00817 	ldw	r11,32(sp)
   247bc:	db001017 	ldw	r12,64(sp)
   247c0:	d8c01117 	ldw	r3,68(sp)
   247c4:	da801317 	ldw	r10,76(sp)
   247c8:	102b883a 	mov	r21,r2
   247cc:	588011d8 	cmpnei	r2,r11,71
   247d0:	10014d1e 	bne	r2,zero,24d08 <___vfprintf_internal_r+0x2398>
   247d4:	6080004c 	andi	r2,r12,1
   247d8:	10001326 	beq	r2,zero,24828 <___vfprintf_internal_r+0x1eb8>
   247dc:	d8800917 	ldw	r2,36(sp)
   247e0:	a89b883a 	add	r13,r21,r2
   247e4:	003ef706 	br	243c4 <___vfprintf_internal_r+0x1a54>
   247e8:	d9400417 	ldw	r5,16(sp)
   247ec:	d9000517 	ldw	r4,20(sp)
   247f0:	d9801d04 	addi	r6,sp,116
   247f4:	db401115 	stw	r13,68(sp)
   247f8:	da801015 	stw	r10,64(sp)
   247fc:	d8c00f15 	stw	r3,60(sp)
   24800:	0029a940 	call	29a94 <__sprint_r>
   24804:	1039661e 	bne	r2,zero,22da0 <___vfprintf_internal_r+0x430>
   24808:	dd801f17 	ldw	r22,124(sp)
   2480c:	db401117 	ldw	r13,68(sp)
   24810:	da801017 	ldw	r10,64(sp)
   24814:	d8c00f17 	ldw	r3,60(sp)
   24818:	8821883a 	mov	r16,r17
   2481c:	003cf506 	br	23bf4 <___vfprintf_internal_r+0x1284>
   24820:	dc800915 	stw	r18,36(sp)
   24824:	003fe906 	br	247cc <___vfprintf_internal_r+0x1e5c>
   24828:	d8801b17 	ldw	r2,108(sp)
   2482c:	d9c01717 	ldw	r7,92(sp)
   24830:	1545c83a 	sub	r2,r2,r21
   24834:	d8800915 	stw	r2,36(sp)
   24838:	38bfff48 	cmpgei	r2,r7,-3
   2483c:	d9c00815 	stw	r7,32(sp)
   24840:	1000bf1e 	bne	r2,zero,24b40 <___vfprintf_internal_r+0x21d0>
   24844:	5affff84 	addi	r11,r11,-2
   24848:	397fffc4 	addi	r5,r7,-1
   2484c:	5805883a 	mov	r2,r11
   24850:	01000044 	movi	r4,1
   24854:	21efc83a 	sub	r23,r4,r7
   24858:	01000b44 	movi	r4,45
   2485c:	21003fcc 	andi	r4,r4,255
   24860:	2008923a 	slli	r4,r4,8
   24864:	10803fcc 	andi	r2,r2,255
   24868:	d9401715 	stw	r5,92(sp)
   2486c:	1104b03a 	or	r2,r2,r4
   24870:	d880190d 	sth	r2,100(sp)
   24874:	b8800290 	cmplti	r2,r23,10
   24878:	1000c61e 	bne	r2,zero,24b94 <___vfprintf_internal_r+0x2224>
   2487c:	df001cc4 	addi	fp,sp,115
   24880:	9805883a 	mov	r2,r19
   24884:	d8c01015 	stw	r3,64(sp)
   24888:	a007883a 	mov	r3,r20
   2488c:	e027883a 	mov	r19,fp
   24890:	8029883a 	mov	r20,r16
   24894:	dac00815 	stw	r11,32(sp)
   24898:	b821883a 	mov	r16,r23
   2489c:	db000f15 	stw	r12,60(sp)
   248a0:	da801115 	stw	r10,68(sp)
   248a4:	1039883a 	mov	fp,r2
   248a8:	182f883a 	mov	r23,r3
   248ac:	8009883a 	mov	r4,r16
   248b0:	01400284 	movi	r5,10
   248b4:	002086c0 	call	2086c <__modsi3>
   248b8:	10800c04 	addi	r2,r2,48
   248bc:	8009883a 	mov	r4,r16
   248c0:	01400284 	movi	r5,10
   248c4:	98bfffc5 	stb	r2,-1(r19)
   248c8:	00207ec0 	call	207ec <__divsi3>
   248cc:	81401908 	cmpgei	r5,r16,100
   248d0:	9825883a 	mov	r18,r19
   248d4:	1021883a 	mov	r16,r2
   248d8:	9cffffc4 	addi	r19,r19,-1
   248dc:	283ff31e 	bne	r5,zero,248ac <___vfprintf_internal_r+0x1f3c>
   248e0:	b809883a 	mov	r4,r23
   248e4:	102f883a 	mov	r23,r2
   248e8:	e005883a 	mov	r2,fp
   248ec:	9839883a 	mov	fp,r19
   248f0:	1027883a 	mov	r19,r2
   248f4:	b8800c04 	addi	r2,r23,48
   248f8:	e0bfffc5 	stb	r2,-1(fp)
   248fc:	917fff84 	addi	r5,r18,-2
   24900:	d8801cc4 	addi	r2,sp,115
   24904:	a021883a 	mov	r16,r20
   24908:	dac00817 	ldw	r11,32(sp)
   2490c:	db000f17 	ldw	r12,60(sp)
   24910:	d8c01017 	ldw	r3,64(sp)
   24914:	da801117 	ldw	r10,68(sp)
   24918:	2029883a 	mov	r20,r4
   2491c:	28813d2e 	bgeu	r5,r2,24e14 <___vfprintf_internal_r+0x24a4>
   24920:	d8801d44 	addi	r2,sp,117
   24924:	14a5c83a 	sub	r18,r2,r18
   24928:	d9001984 	addi	r4,sp,102
   2492c:	900d883a 	mov	r6,r18
   24930:	00226380 	call	22638 <memcpy>
   24934:	d8801984 	addi	r2,sp,102
   24938:	1485883a 	add	r2,r2,r18
   2493c:	d9001904 	addi	r4,sp,100
   24940:	dac00817 	ldw	r11,32(sp)
   24944:	db000f17 	ldw	r12,60(sp)
   24948:	d8c01017 	ldw	r3,64(sp)
   2494c:	da801117 	ldw	r10,68(sp)
   24950:	1105c83a 	sub	r2,r2,r4
   24954:	d8801215 	stw	r2,72(sp)
   24958:	d9000917 	ldw	r4,36(sp)
   2495c:	d9401217 	ldw	r5,72(sp)
   24960:	20800088 	cmpgei	r2,r4,2
   24964:	2179883a 	add	fp,r4,r5
   24968:	10009126 	beq	r2,zero,24bb0 <___vfprintf_internal_r+0x2240>
   2496c:	d8800c17 	ldw	r2,48(sp)
   24970:	e0b9883a 	add	fp,fp,r2
   24974:	e01b883a 	mov	r13,fp
   24978:	e000010e 	bge	fp,zero,24980 <___vfprintf_internal_r+0x2010>
   2497c:	001b883a 	mov	r13,zero
   24980:	d8000815 	stw	zero,32(sp)
   24984:	003eb706 	br	24464 <___vfprintf_internal_r+0x1af4>
   24988:	ddc01643 	ldbu	r23,89(sp)
   2498c:	dd800715 	stw	r22,28(sp)
   24990:	0025883a 	mov	r18,zero
   24994:	00398306 	br	22fa4 <___vfprintf_internal_r+0x634>
   24998:	d8801b04 	addi	r2,sp,108
   2499c:	d8800315 	stw	r2,12(sp)
   249a0:	d9400a17 	ldw	r5,40(sp)
   249a4:	d8801804 	addi	r2,sp,96
   249a8:	d9000517 	ldw	r4,20(sp)
   249ac:	d8800215 	stw	r2,8(sp)
   249b0:	d8801704 	addi	r2,sp,92
   249b4:	d8800115 	stw	r2,4(sp)
   249b8:	dc800015 	stw	r18,0(sp)
   249bc:	01c000c4 	movi	r7,3
   249c0:	e00d883a 	mov	r6,fp
   249c4:	da801115 	stw	r10,68(sp)
   249c8:	d8c01015 	stw	r3,64(sp)
   249cc:	db000915 	stw	r12,36(sp)
   249d0:	dac00815 	stw	r11,32(sp)
   249d4:	00252640 	call	25264 <_dtoa_r>
   249d8:	102b883a 	mov	r21,r2
   249dc:	10800007 	ldb	r2,0(r2)
   249e0:	dac00817 	ldw	r11,32(sp)
   249e4:	db000917 	ldw	r12,36(sp)
   249e8:	10800c20 	cmpeqi	r2,r2,48
   249ec:	d8c01017 	ldw	r3,64(sp)
   249f0:	da801117 	ldw	r10,68(sp)
   249f4:	1000a31e 	bne	r2,zero,24c84 <___vfprintf_internal_r+0x2314>
   249f8:	d8801717 	ldw	r2,92(sp)
   249fc:	d9000a17 	ldw	r4,40(sp)
   24a00:	149b883a 	add	r13,r2,r18
   24a04:	000d883a 	mov	r6,zero
   24a08:	000f883a 	mov	r7,zero
   24a0c:	e00b883a 	mov	r5,fp
   24a10:	da801315 	stw	r10,76(sp)
   24a14:	d8c01115 	stw	r3,68(sp)
   24a18:	db001015 	stw	r12,64(sp)
   24a1c:	dac00915 	stw	r11,36(sp)
   24a20:	db400815 	stw	r13,32(sp)
   24a24:	002d3800 	call	2d380 <__eqdf2>
   24a28:	db400817 	ldw	r13,32(sp)
   24a2c:	dac00917 	ldw	r11,36(sp)
   24a30:	db001017 	ldw	r12,64(sp)
   24a34:	d8c01117 	ldw	r3,68(sp)
   24a38:	da801317 	ldw	r10,76(sp)
   24a3c:	10008f1e 	bne	r2,zero,24c7c <___vfprintf_internal_r+0x230c>
   24a40:	d8801717 	ldw	r2,92(sp)
   24a44:	db400915 	stw	r13,36(sp)
   24a48:	d8800815 	stw	r2,32(sp)
   24a4c:	003e7d06 	br	24444 <___vfprintf_internal_r+0x1ad4>
   24a50:	d9400417 	ldw	r5,16(sp)
   24a54:	d9000517 	ldw	r4,20(sp)
   24a58:	d9801d04 	addi	r6,sp,116
   24a5c:	db401115 	stw	r13,68(sp)
   24a60:	da801015 	stw	r10,64(sp)
   24a64:	d8c00f15 	stw	r3,60(sp)
   24a68:	0029a940 	call	29a94 <__sprint_r>
   24a6c:	1038cc1e 	bne	r2,zero,22da0 <___vfprintf_internal_r+0x430>
   24a70:	dc801717 	ldw	r18,92(sp)
   24a74:	d9001f17 	ldw	r4,124(sp)
   24a78:	db401117 	ldw	r13,68(sp)
   24a7c:	da801017 	ldw	r10,64(sp)
   24a80:	d8c00f17 	ldw	r3,60(sp)
   24a84:	8821883a 	mov	r16,r17
   24a88:	003c6906 	br	23c30 <___vfprintf_internal_r+0x12c0>
   24a8c:	981b883a 	mov	r13,r19
   24a90:	da800f17 	ldw	r10,60(sp)
   24a94:	b027883a 	mov	r19,r22
   24a98:	902d883a 	mov	r22,r18
   24a9c:	8025883a 	mov	r18,r16
   24aa0:	1821883a 	mov	r16,r3
   24aa4:	d8c00817 	ldw	r3,32(sp)
   24aa8:	003c0106 	br	23ab0 <___vfprintf_internal_r+0x1140>
   24aac:	903e211e 	bne	r18,zero,24334 <___vfprintf_internal_r+0x19c4>
   24ab0:	04800044 	movi	r18,1
   24ab4:	003e1f06 	br	24334 <___vfprintf_internal_r+0x19c4>
   24ab8:	d9400417 	ldw	r5,16(sp)
   24abc:	d9000517 	ldw	r4,20(sp)
   24ac0:	d9801d04 	addi	r6,sp,116
   24ac4:	db401115 	stw	r13,68(sp)
   24ac8:	da801015 	stw	r10,64(sp)
   24acc:	d8c00f15 	stw	r3,60(sp)
   24ad0:	0029a940 	call	29a94 <__sprint_r>
   24ad4:	1038b21e 	bne	r2,zero,22da0 <___vfprintf_internal_r+0x430>
   24ad8:	dd801f17 	ldw	r22,124(sp)
   24adc:	db401117 	ldw	r13,68(sp)
   24ae0:	da801017 	ldw	r10,64(sp)
   24ae4:	d8c00f17 	ldw	r3,60(sp)
   24ae8:	8821883a 	mov	r16,r17
   24aec:	903c3e0e 	bge	r18,zero,23be8 <___vfprintf_internal_r+0x1278>
   24af0:	003d1006 	br	23f34 <___vfprintf_internal_r+0x15c4>
   24af4:	04800184 	movi	r18,6
   24af8:	003e0e06 	br	24334 <___vfprintf_internal_r+0x19c4>
   24afc:	d9400417 	ldw	r5,16(sp)
   24b00:	d9000517 	ldw	r4,20(sp)
   24b04:	d9801d04 	addi	r6,sp,116
   24b08:	db401015 	stw	r13,64(sp)
   24b0c:	da800f15 	stw	r10,60(sp)
   24b10:	d8c00815 	stw	r3,32(sp)
   24b14:	0029a940 	call	29a94 <__sprint_r>
   24b18:	1038a11e 	bne	r2,zero,22da0 <___vfprintf_internal_r+0x430>
   24b1c:	dc801717 	ldw	r18,92(sp)
   24b20:	d8800917 	ldw	r2,36(sp)
   24b24:	d9001f17 	ldw	r4,124(sp)
   24b28:	db401017 	ldw	r13,64(sp)
   24b2c:	da800f17 	ldw	r10,60(sp)
   24b30:	d8c00817 	ldw	r3,32(sp)
   24b34:	8821883a 	mov	r16,r17
   24b38:	14a5c83a 	sub	r18,r2,r18
   24b3c:	003c4f06 	br	23c7c <___vfprintf_internal_r+0x130c>
   24b40:	91c0060e 	bge	r18,r7,24b5c <___vfprintf_internal_r+0x21ec>
   24b44:	5affff84 	addi	r11,r11,-2
   24b48:	3dffffc4 	addi	r23,r7,-1
   24b4c:	5805883a 	mov	r2,r11
   24b50:	b80b883a 	mov	r5,r23
   24b54:	01000ac4 	movi	r4,43
   24b58:	003f4006 	br	2485c <___vfprintf_internal_r+0x1eec>
   24b5c:	d9000917 	ldw	r4,36(sp)
   24b60:	39001a16 	blt	r7,r4,24bcc <___vfprintf_internal_r+0x225c>
   24b64:	6300004c 	andi	r12,r12,1
   24b68:	6000601e 	bne	r12,zero,24cec <___vfprintf_internal_r+0x237c>
   24b6c:	381b883a 	mov	r13,r7
   24b70:	3800010e 	bge	r7,zero,24b78 <___vfprintf_internal_r+0x2208>
   24b74:	001b883a 	mov	r13,zero
   24b78:	3839883a 	mov	fp,r7
   24b7c:	02c019c4 	movi	r11,103
   24b80:	003e3806 	br	24464 <___vfprintf_internal_r+0x1af4>
   24b84:	901b883a 	mov	r13,r18
   24b88:	dd800715 	stw	r22,28(sp)
   24b8c:	9039883a 	mov	fp,r18
   24b90:	00383d06 	br	22c88 <___vfprintf_internal_r+0x318>
   24b94:	b8800c04 	addi	r2,r23,48
   24b98:	01000c04 	movi	r4,48
   24b9c:	d88019c5 	stb	r2,103(sp)
   24ba0:	00800104 	movi	r2,4
   24ba4:	d9001985 	stb	r4,102(sp)
   24ba8:	d8801215 	stw	r2,72(sp)
   24bac:	003f6a06 	br	24958 <___vfprintf_internal_r+0x1fe8>
   24bb0:	6080004c 	andi	r2,r12,1
   24bb4:	d8800815 	stw	r2,32(sp)
   24bb8:	103f6c1e 	bne	r2,zero,2496c <___vfprintf_internal_r+0x1ffc>
   24bbc:	e01b883a 	mov	r13,fp
   24bc0:	e03e280e 	bge	fp,zero,24464 <___vfprintf_internal_r+0x1af4>
   24bc4:	001b883a 	mov	r13,zero
   24bc8:	003e2606 	br	24464 <___vfprintf_internal_r+0x1af4>
   24bcc:	d8800917 	ldw	r2,36(sp)
   24bd0:	d9000c17 	ldw	r4,48(sp)
   24bd4:	1139883a 	add	fp,r2,r4
   24bd8:	d8800817 	ldw	r2,32(sp)
   24bdc:	00800316 	blt	zero,r2,24bec <___vfprintf_internal_r+0x227c>
   24be0:	d8800817 	ldw	r2,32(sp)
   24be4:	e08fc83a 	sub	r7,fp,r2
   24be8:	3f000044 	addi	fp,r7,1
   24bec:	e01b883a 	mov	r13,fp
   24bf0:	e0004316 	blt	fp,zero,24d00 <___vfprintf_internal_r+0x2390>
   24bf4:	02c019c4 	movi	r11,103
   24bf8:	003e1a06 	br	24464 <___vfprintf_internal_r+0x1af4>
   24bfc:	00bfffc4 	movi	r2,-1
   24c00:	d8800615 	stw	r2,24(sp)
   24c04:	00386a06 	br	22db0 <___vfprintf_internal_r+0x440>
   24c08:	da800817 	ldw	r10,32(sp)
   24c0c:	901b883a 	mov	r13,r18
   24c10:	b025883a 	mov	r18,r22
   24c14:	802d883a 	mov	r22,r16
   24c18:	1821883a 	mov	r16,r3
   24c1c:	e007883a 	mov	r3,fp
   24c20:	10800044 	addi	r2,r2,1
   24c24:	2489883a 	add	r4,r4,r18
   24c28:	85800015 	stw	r22,0(r16)
   24c2c:	84800115 	stw	r18,4(r16)
   24c30:	d9001f15 	stw	r4,124(sp)
   24c34:	d8801e15 	stw	r2,120(sp)
   24c38:	11400208 	cmpgei	r5,r2,8
   24c3c:	283da026 	beq	r5,zero,242c0 <___vfprintf_internal_r+0x1950>
   24c40:	d9400417 	ldw	r5,16(sp)
   24c44:	d9000517 	ldw	r4,20(sp)
   24c48:	d9801d04 	addi	r6,sp,116
   24c4c:	db401015 	stw	r13,64(sp)
   24c50:	da800f15 	stw	r10,60(sp)
   24c54:	d8c00815 	stw	r3,32(sp)
   24c58:	0029a940 	call	29a94 <__sprint_r>
   24c5c:	1038501e 	bne	r2,zero,22da0 <___vfprintf_internal_r+0x430>
   24c60:	d9001f17 	ldw	r4,124(sp)
   24c64:	d8801e17 	ldw	r2,120(sp)
   24c68:	db401017 	ldw	r13,64(sp)
   24c6c:	da800f17 	ldw	r10,60(sp)
   24c70:	d8c00817 	ldw	r3,32(sp)
   24c74:	8821883a 	mov	r16,r17
   24c78:	003d9206 	br	242c4 <___vfprintf_internal_r+0x1954>
   24c7c:	ab5b883a 	add	r13,r21,r13
   24c80:	003de006 	br	24404 <___vfprintf_internal_r+0x1a94>
   24c84:	d9000a17 	ldw	r4,40(sp)
   24c88:	000d883a 	mov	r6,zero
   24c8c:	000f883a 	mov	r7,zero
   24c90:	e00b883a 	mov	r5,fp
   24c94:	da801115 	stw	r10,68(sp)
   24c98:	d8c01015 	stw	r3,64(sp)
   24c9c:	db000915 	stw	r12,36(sp)
   24ca0:	dac00815 	stw	r11,32(sp)
   24ca4:	002d3800 	call	2d380 <__eqdf2>
   24ca8:	dac00817 	ldw	r11,32(sp)
   24cac:	db000917 	ldw	r12,36(sp)
   24cb0:	d8c01017 	ldw	r3,64(sp)
   24cb4:	da801117 	ldw	r10,68(sp)
   24cb8:	103f4f26 	beq	r2,zero,249f8 <___vfprintf_internal_r+0x2088>
   24cbc:	00800044 	movi	r2,1
   24cc0:	1485c83a 	sub	r2,r2,r18
   24cc4:	d8801715 	stw	r2,92(sp)
   24cc8:	003f4c06 	br	249fc <___vfprintf_internal_r+0x208c>
   24ccc:	d8800b17 	ldw	r2,44(sp)
   24cd0:	10003216 	blt	r2,zero,24d9c <___vfprintf_internal_r+0x242c>
   24cd4:	ddc01643 	ldbu	r23,89(sp)
   24cd8:	58801210 	cmplti	r2,r11,72
   24cdc:	10002c1e 	bne	r2,zero,24d90 <___vfprintf_internal_r+0x2420>
   24ce0:	054000f4 	movhi	r21,3
   24ce4:	ad459b04 	addi	r21,r21,5740
   24ce8:	00393c06 	br	231dc <___vfprintf_internal_r+0x86c>
   24cec:	d8800817 	ldw	r2,32(sp)
   24cf0:	d9000c17 	ldw	r4,48(sp)
   24cf4:	1139883a 	add	fp,r2,r4
   24cf8:	e01b883a 	mov	r13,fp
   24cfc:	e03fbd0e 	bge	fp,zero,24bf4 <___vfprintf_internal_r+0x2284>
   24d00:	001b883a 	mov	r13,zero
   24d04:	003fbb06 	br	24bf4 <___vfprintf_internal_r+0x2284>
   24d08:	d9000a17 	ldw	r4,40(sp)
   24d0c:	000d883a 	mov	r6,zero
   24d10:	000f883a 	mov	r7,zero
   24d14:	e00b883a 	mov	r5,fp
   24d18:	da801315 	stw	r10,76(sp)
   24d1c:	d8c01115 	stw	r3,68(sp)
   24d20:	db001015 	stw	r12,64(sp)
   24d24:	dac00815 	stw	r11,32(sp)
   24d28:	002d3800 	call	2d380 <__eqdf2>
   24d2c:	dac00817 	ldw	r11,32(sp)
   24d30:	db001017 	ldw	r12,64(sp)
   24d34:	d8c01117 	ldw	r3,68(sp)
   24d38:	da801317 	ldw	r10,76(sp)
   24d3c:	1000321e 	bne	r2,zero,24e08 <___vfprintf_internal_r+0x2498>
   24d40:	b88011e0 	cmpeqi	r2,r23,71
   24d44:	d9c01717 	ldw	r7,92(sp)
   24d48:	103ebb1e 	bne	r2,zero,24838 <___vfprintf_internal_r+0x1ec8>
   24d4c:	397fffc4 	addi	r5,r7,-1
   24d50:	5805883a 	mov	r2,r11
   24d54:	283ebe16 	blt	r5,zero,24850 <___vfprintf_internal_r+0x1ee0>
   24d58:	282f883a 	mov	r23,r5
   24d5c:	01000ac4 	movi	r4,43
   24d60:	003ebe06 	br	2485c <___vfprintf_internal_r+0x1eec>
   24d64:	6d45c83a 	sub	r2,r13,r21
   24d68:	d9c01717 	ldw	r7,92(sp)
   24d6c:	d8800915 	stw	r2,36(sp)
   24d70:	003eb106 	br	24838 <___vfprintf_internal_r+0x1ec8>
   24d74:	d8800c17 	ldw	r2,48(sp)
   24d78:	208f883a 	add	r7,r4,r2
   24d7c:	3cb9883a 	add	fp,r7,r18
   24d80:	e01b883a 	mov	r13,fp
   24d84:	e03db60e 	bge	fp,zero,24460 <___vfprintf_internal_r+0x1af0>
   24d88:	001b883a 	mov	r13,zero
   24d8c:	003db406 	br	24460 <___vfprintf_internal_r+0x1af0>
   24d90:	054000f4 	movhi	r21,3
   24d94:	ad459a04 	addi	r21,r21,5736
   24d98:	00391006 	br	231dc <___vfprintf_internal_r+0x86c>
   24d9c:	00800b44 	movi	r2,45
   24da0:	d8801645 	stb	r2,89(sp)
   24da4:	05c00b44 	movi	r23,45
   24da8:	003fcb06 	br	24cd8 <___vfprintf_internal_r+0x2368>
   24dac:	d8c00717 	ldw	r3,28(sp)
   24db0:	1c800017 	ldw	r18,0(r3)
   24db4:	18c00104 	addi	r3,r3,4
   24db8:	9000010e 	bge	r18,zero,24dc0 <___vfprintf_internal_r+0x2450>
   24dbc:	04bfffc4 	movi	r18,-1
   24dc0:	a2c00043 	ldbu	r11,1(r20)
   24dc4:	d8c00715 	stw	r3,28(sp)
   24dc8:	1029883a 	mov	r20,r2
   24dcc:	5ac03fcc 	andi	r11,r11,255
   24dd0:	5ac0201c 	xori	r11,r11,128
   24dd4:	5affe004 	addi	r11,r11,-128
   24dd8:	00373506 	br	22ab0 <___vfprintf_internal_r+0x140>
   24ddc:	1000041e 	bne	r2,zero,24df0 <___vfprintf_internal_r+0x2480>
   24de0:	03400044 	movi	r13,1
   24de4:	02c01984 	movi	r11,102
   24de8:	07000044 	movi	fp,1
   24dec:	003d9d06 	br	24464 <___vfprintf_internal_r+0x1af4>
   24df0:	d8800c17 	ldw	r2,48(sp)
   24df4:	11c00044 	addi	r7,r2,1
   24df8:	3cb9883a 	add	fp,r7,r18
   24dfc:	e01b883a 	mov	r13,fp
   24e00:	e03d970e 	bge	fp,zero,24460 <___vfprintf_internal_r+0x1af0>
   24e04:	003fe006 	br	24d88 <___vfprintf_internal_r+0x2418>
   24e08:	d8800917 	ldw	r2,36(sp)
   24e0c:	a89b883a 	add	r13,r21,r2
   24e10:	003d7c06 	br	24404 <___vfprintf_internal_r+0x1a94>
   24e14:	00800084 	movi	r2,2
   24e18:	d8801215 	stw	r2,72(sp)
   24e1c:	003ece06 	br	24958 <___vfprintf_internal_r+0x1fe8>

00024e20 <__vfprintf_internal>:
   24e20:	00c000f4 	movhi	r3,3
   24e24:	2005883a 	mov	r2,r4
   24e28:	190de717 	ldw	r4,14236(r3)
   24e2c:	300f883a 	mov	r7,r6
   24e30:	280d883a 	mov	r6,r5
   24e34:	100b883a 	mov	r5,r2
   24e38:	00229701 	jmpi	22970 <___vfprintf_internal_r>

00024e3c <__sbprintf>:
   24e3c:	28c0038b 	ldhu	r3,14(r5)
   24e40:	2880030b 	ldhu	r2,12(r5)
   24e44:	2ac01917 	ldw	r11,100(r5)
   24e48:	1806943a 	slli	r3,r3,16
   24e4c:	2a800717 	ldw	r10,28(r5)
   24e50:	2a400917 	ldw	r9,36(r5)
   24e54:	defee204 	addi	sp,sp,-1144
   24e58:	10bfff4c 	andi	r2,r2,65533
   24e5c:	10c4b03a 	or	r2,r2,r3
   24e60:	da001a04 	addi	r8,sp,104
   24e64:	00c10004 	movi	r3,1024
   24e68:	dc011a15 	stw	r16,1128(sp)
   24e6c:	2821883a 	mov	r16,r5
   24e70:	d80b883a 	mov	r5,sp
   24e74:	dc811c15 	stw	r18,1136(sp)
   24e78:	dc411b15 	stw	r17,1132(sp)
   24e7c:	dfc11d15 	stw	ra,1140(sp)
   24e80:	2025883a 	mov	r18,r4
   24e84:	dac01915 	stw	r11,100(sp)
   24e88:	d8800315 	stw	r2,12(sp)
   24e8c:	da800715 	stw	r10,28(sp)
   24e90:	da400915 	stw	r9,36(sp)
   24e94:	da000015 	stw	r8,0(sp)
   24e98:	da000415 	stw	r8,16(sp)
   24e9c:	d8c00215 	stw	r3,8(sp)
   24ea0:	d8c00515 	stw	r3,20(sp)
   24ea4:	d8000615 	stw	zero,24(sp)
   24ea8:	00229700 	call	22970 <___vfprintf_internal_r>
   24eac:	1023883a 	mov	r17,r2
   24eb0:	10000d0e 	bge	r2,zero,24ee8 <__sbprintf+0xac>
   24eb4:	d880030b 	ldhu	r2,12(sp)
   24eb8:	1080100c 	andi	r2,r2,64
   24ebc:	10000326 	beq	r2,zero,24ecc <__sbprintf+0x90>
   24ec0:	8080030b 	ldhu	r2,12(r16)
   24ec4:	10801014 	ori	r2,r2,64
   24ec8:	8080030d 	sth	r2,12(r16)
   24ecc:	8805883a 	mov	r2,r17
   24ed0:	dfc11d17 	ldw	ra,1140(sp)
   24ed4:	dc811c17 	ldw	r18,1136(sp)
   24ed8:	dc411b17 	ldw	r17,1132(sp)
   24edc:	dc011a17 	ldw	r16,1128(sp)
   24ee0:	dec11e04 	addi	sp,sp,1144
   24ee4:	f800283a 	ret
   24ee8:	d80b883a 	mov	r5,sp
   24eec:	9009883a 	mov	r4,r18
   24ef0:	0026c540 	call	26c54 <_fflush_r>
   24ef4:	103fef26 	beq	r2,zero,24eb4 <__sbprintf+0x78>
   24ef8:	047fffc4 	movi	r17,-1
   24efc:	003fed06 	br	24eb4 <__sbprintf+0x78>

00024f00 <__swsetup_r>:
   24f00:	008000f4 	movhi	r2,3
   24f04:	108de717 	ldw	r2,14236(r2)
   24f08:	defffd04 	addi	sp,sp,-12
   24f0c:	dc400115 	stw	r17,4(sp)
   24f10:	dc000015 	stw	r16,0(sp)
   24f14:	dfc00215 	stw	ra,8(sp)
   24f18:	2023883a 	mov	r17,r4
   24f1c:	2821883a 	mov	r16,r5
   24f20:	10000226 	beq	r2,zero,24f2c <__swsetup_r+0x2c>
   24f24:	10c00e17 	ldw	r3,56(r2)
   24f28:	18001d26 	beq	r3,zero,24fa0 <__swsetup_r+0xa0>
   24f2c:	80c0030b 	ldhu	r3,12(r16)
   24f30:	1880020c 	andi	r2,r3,8
   24f34:	10001f26 	beq	r2,zero,24fb4 <__swsetup_r+0xb4>
   24f38:	80800417 	ldw	r2,16(r16)
   24f3c:	10002626 	beq	r2,zero,24fd8 <__swsetup_r+0xd8>
   24f40:	1900004c 	andi	r4,r3,1
   24f44:	20000b1e 	bne	r4,zero,24f74 <__swsetup_r+0x74>
   24f48:	1900008c 	andi	r4,r3,2
   24f4c:	20002b1e 	bne	r4,zero,24ffc <__swsetup_r+0xfc>
   24f50:	81000517 	ldw	r4,20(r16)
   24f54:	81000215 	stw	r4,8(r16)
   24f58:	10000b26 	beq	r2,zero,24f88 <__swsetup_r+0x88>
   24f5c:	0005883a 	mov	r2,zero
   24f60:	dfc00217 	ldw	ra,8(sp)
   24f64:	dc400117 	ldw	r17,4(sp)
   24f68:	dc000017 	ldw	r16,0(sp)
   24f6c:	dec00304 	addi	sp,sp,12
   24f70:	f800283a 	ret
   24f74:	81000517 	ldw	r4,20(r16)
   24f78:	80000215 	stw	zero,8(r16)
   24f7c:	0109c83a 	sub	r4,zero,r4
   24f80:	81000615 	stw	r4,24(r16)
   24f84:	103ff51e 	bne	r2,zero,24f5c <__swsetup_r+0x5c>
   24f88:	1900200c 	andi	r4,r3,128
   24f8c:	203ff426 	beq	r4,zero,24f60 <__swsetup_r+0x60>
   24f90:	18c01014 	ori	r3,r3,64
   24f94:	80c0030d 	sth	r3,12(r16)
   24f98:	00bfffc4 	movi	r2,-1
   24f9c:	003ff006 	br	24f60 <__swsetup_r+0x60>
   24fa0:	1009883a 	mov	r4,r2
   24fa4:	002707c0 	call	2707c <__sinit>
   24fa8:	80c0030b 	ldhu	r3,12(r16)
   24fac:	1880020c 	andi	r2,r3,8
   24fb0:	103fe11e 	bne	r2,zero,24f38 <__swsetup_r+0x38>
   24fb4:	1880040c 	andi	r2,r3,16
   24fb8:	10002026 	beq	r2,zero,2503c <__swsetup_r+0x13c>
   24fbc:	1880010c 	andi	r2,r3,4
   24fc0:	1000101e 	bne	r2,zero,25004 <__swsetup_r+0x104>
   24fc4:	80800417 	ldw	r2,16(r16)
   24fc8:	19000214 	ori	r4,r3,8
   24fcc:	8100030d 	sth	r4,12(r16)
   24fd0:	2007883a 	mov	r3,r4
   24fd4:	103fda1e 	bne	r2,zero,24f40 <__swsetup_r+0x40>
   24fd8:	1900a00c 	andi	r4,r3,640
   24fdc:	21008020 	cmpeqi	r4,r4,512
   24fe0:	203fd71e 	bne	r4,zero,24f40 <__swsetup_r+0x40>
   24fe4:	800b883a 	mov	r5,r16
   24fe8:	8809883a 	mov	r4,r17
   24fec:	0027af80 	call	27af8 <__smakebuf_r>
   24ff0:	80c0030b 	ldhu	r3,12(r16)
   24ff4:	80800417 	ldw	r2,16(r16)
   24ff8:	003fd106 	br	24f40 <__swsetup_r+0x40>
   24ffc:	0009883a 	mov	r4,zero
   25000:	003fd406 	br	24f54 <__swsetup_r+0x54>
   25004:	81400c17 	ldw	r5,48(r16)
   25008:	28000626 	beq	r5,zero,25024 <__swsetup_r+0x124>
   2500c:	80801004 	addi	r2,r16,64
   25010:	28800326 	beq	r5,r2,25020 <__swsetup_r+0x120>
   25014:	8809883a 	mov	r4,r17
   25018:	00271e80 	call	271e8 <_free_r>
   2501c:	80c0030b 	ldhu	r3,12(r16)
   25020:	80000c15 	stw	zero,48(r16)
   25024:	80800417 	ldw	r2,16(r16)
   25028:	013ff6c4 	movi	r4,-37
   2502c:	20c6703a 	and	r3,r4,r3
   25030:	80000115 	stw	zero,4(r16)
   25034:	80800015 	stw	r2,0(r16)
   25038:	003fe306 	br	24fc8 <__swsetup_r+0xc8>
   2503c:	00800244 	movi	r2,9
   25040:	88800015 	stw	r2,0(r17)
   25044:	18c01014 	ori	r3,r3,64
   25048:	003fd206 	br	24f94 <__swsetup_r+0x94>

0002504c <quorem>:
   2504c:	defff204 	addi	sp,sp,-56
   25050:	dc400515 	stw	r17,20(sp)
   25054:	20800417 	ldw	r2,16(r4)
   25058:	2c400417 	ldw	r17,16(r5)
   2505c:	dfc00d15 	stw	ra,52(sp)
   25060:	df000c15 	stw	fp,48(sp)
   25064:	ddc00b15 	stw	r23,44(sp)
   25068:	dd800a15 	stw	r22,40(sp)
   2506c:	dd400915 	stw	r21,36(sp)
   25070:	dd000815 	stw	r20,32(sp)
   25074:	dcc00715 	stw	r19,28(sp)
   25078:	dc800615 	stw	r18,24(sp)
   2507c:	dc000415 	stw	r16,16(sp)
   25080:	d9000115 	stw	r4,4(sp)
   25084:	d9400215 	stw	r5,8(sp)
   25088:	14407416 	blt	r2,r17,2525c <quorem+0x210>
   2508c:	8c7fffc4 	addi	r17,r17,-1
   25090:	882a90ba 	slli	r21,r17,2
   25094:	2dc00504 	addi	r23,r5,20
   25098:	24c00504 	addi	r19,r4,20
   2509c:	bd65883a 	add	r18,r23,r21
   250a0:	9d45883a 	add	r2,r19,r21
   250a4:	97000017 	ldw	fp,0(r18)
   250a8:	15000017 	ldw	r20,0(r2)
   250ac:	d8800315 	stw	r2,12(sp)
   250b0:	e7000044 	addi	fp,fp,1
   250b4:	e00b883a 	mov	r5,fp
   250b8:	a009883a 	mov	r4,r20
   250bc:	00208e00 	call	208e0 <__udivsi3>
   250c0:	d8800015 	stw	r2,0(sp)
   250c4:	a7002e36 	bltu	r20,fp,25180 <quorem+0x134>
   250c8:	b829883a 	mov	r20,r23
   250cc:	982d883a 	mov	r22,r19
   250d0:	0039883a 	mov	fp,zero
   250d4:	002b883a 	mov	r21,zero
   250d8:	a4000017 	ldw	r16,0(r20)
   250dc:	d9400017 	ldw	r5,0(sp)
   250e0:	b5800104 	addi	r22,r22,4
   250e4:	813fffcc 	andi	r4,r16,65535
   250e8:	00209a00 	call	209a0 <__mulsi3>
   250ec:	8008d43a 	srli	r4,r16,16
   250f0:	d9400017 	ldw	r5,0(sp)
   250f4:	1739883a 	add	fp,r2,fp
   250f8:	a5000104 	addi	r20,r20,4
   250fc:	00209a00 	call	209a0 <__mulsi3>
   25100:	b17fff17 	ldw	r5,-4(r22)
   25104:	e13fffcc 	andi	r4,fp,65535
   25108:	e038d43a 	srli	fp,fp,16
   2510c:	28ffffcc 	andi	r3,r5,65535
   25110:	1907c83a 	sub	r3,r3,r4
   25114:	1d47883a 	add	r3,r3,r21
   25118:	1809d43a 	srai	r4,r3,16
   2511c:	280ad43a 	srli	r5,r5,16
   25120:	1705883a 	add	r2,r2,fp
   25124:	11bfffcc 	andi	r6,r2,65535
   25128:	2189c83a 	sub	r4,r4,r6
   2512c:	2149883a 	add	r4,r4,r5
   25130:	200a943a 	slli	r5,r4,16
   25134:	18ffffcc 	andi	r3,r3,65535
   25138:	1038d43a 	srli	fp,r2,16
   2513c:	1946b03a 	or	r3,r3,r5
   25140:	b0ffff15 	stw	r3,-4(r22)
   25144:	202bd43a 	srai	r21,r4,16
   25148:	953fe32e 	bgeu	r18,r20,250d8 <quorem+0x8c>
   2514c:	d8c00317 	ldw	r3,12(sp)
   25150:	18800017 	ldw	r2,0(r3)
   25154:	10000a1e 	bne	r2,zero,25180 <quorem+0x134>
   25158:	1d7fff04 	addi	r21,r3,-4
   2515c:	9d400336 	bltu	r19,r21,2516c <quorem+0x120>
   25160:	00000506 	br	25178 <quorem+0x12c>
   25164:	8c7fffc4 	addi	r17,r17,-1
   25168:	9d40032e 	bgeu	r19,r21,25178 <quorem+0x12c>
   2516c:	a8800017 	ldw	r2,0(r21)
   25170:	ad7fff04 	addi	r21,r21,-4
   25174:	103ffb26 	beq	r2,zero,25164 <quorem+0x118>
   25178:	d8800117 	ldw	r2,4(sp)
   2517c:	14400415 	stw	r17,16(r2)
   25180:	d9400217 	ldw	r5,8(sp)
   25184:	d9000117 	ldw	r4,4(sp)
   25188:	0028b3c0 	call	28b3c <__mcmp>
   2518c:	10002616 	blt	r2,zero,25228 <quorem+0x1dc>
   25190:	980d883a 	mov	r6,r19
   25194:	0005883a 	mov	r2,zero
   25198:	31000017 	ldw	r4,0(r6)
   2519c:	b9400017 	ldw	r5,0(r23)
   251a0:	31800104 	addi	r6,r6,4
   251a4:	20ffffcc 	andi	r3,r4,65535
   251a8:	29ffffcc 	andi	r7,r5,65535
   251ac:	19c7c83a 	sub	r3,r3,r7
   251b0:	1887883a 	add	r3,r3,r2
   251b4:	1805d43a 	srai	r2,r3,16
   251b8:	280ad43a 	srli	r5,r5,16
   251bc:	2008d43a 	srli	r4,r4,16
   251c0:	18ffffcc 	andi	r3,r3,65535
   251c4:	1145c83a 	sub	r2,r2,r5
   251c8:	1105883a 	add	r2,r2,r4
   251cc:	1008943a 	slli	r4,r2,16
   251d0:	bdc00104 	addi	r23,r23,4
   251d4:	1005d43a 	srai	r2,r2,16
   251d8:	1906b03a 	or	r3,r3,r4
   251dc:	30ffff15 	stw	r3,-4(r6)
   251e0:	95ffed2e 	bgeu	r18,r23,25198 <quorem+0x14c>
   251e4:	880490ba 	slli	r2,r17,2
   251e8:	9885883a 	add	r2,r19,r2
   251ec:	10c00017 	ldw	r3,0(r2)
   251f0:	18000a1e 	bne	r3,zero,2521c <quorem+0x1d0>
   251f4:	10bfff04 	addi	r2,r2,-4
   251f8:	98800336 	bltu	r19,r2,25208 <quorem+0x1bc>
   251fc:	00000506 	br	25214 <quorem+0x1c8>
   25200:	8c7fffc4 	addi	r17,r17,-1
   25204:	9880032e 	bgeu	r19,r2,25214 <quorem+0x1c8>
   25208:	10c00017 	ldw	r3,0(r2)
   2520c:	10bfff04 	addi	r2,r2,-4
   25210:	183ffb26 	beq	r3,zero,25200 <quorem+0x1b4>
   25214:	d8800117 	ldw	r2,4(sp)
   25218:	14400415 	stw	r17,16(r2)
   2521c:	d8800017 	ldw	r2,0(sp)
   25220:	10800044 	addi	r2,r2,1
   25224:	d8800015 	stw	r2,0(sp)
   25228:	d8800017 	ldw	r2,0(sp)
   2522c:	dfc00d17 	ldw	ra,52(sp)
   25230:	df000c17 	ldw	fp,48(sp)
   25234:	ddc00b17 	ldw	r23,44(sp)
   25238:	dd800a17 	ldw	r22,40(sp)
   2523c:	dd400917 	ldw	r21,36(sp)
   25240:	dd000817 	ldw	r20,32(sp)
   25244:	dcc00717 	ldw	r19,28(sp)
   25248:	dc800617 	ldw	r18,24(sp)
   2524c:	dc400517 	ldw	r17,20(sp)
   25250:	dc000417 	ldw	r16,16(sp)
   25254:	dec00e04 	addi	sp,sp,56
   25258:	f800283a 	ret
   2525c:	0005883a 	mov	r2,zero
   25260:	003ff206 	br	2522c <quorem+0x1e0>

00025264 <_dtoa_r>:
   25264:	20801017 	ldw	r2,64(r4)
   25268:	deffe104 	addi	sp,sp,-124
   2526c:	dd401a15 	stw	r21,104(sp)
   25270:	dc801715 	stw	r18,92(sp)
   25274:	dc401615 	stw	r17,88(sp)
   25278:	dc001515 	stw	r16,84(sp)
   2527c:	dfc01e15 	stw	ra,120(sp)
   25280:	df001d15 	stw	fp,116(sp)
   25284:	ddc01c15 	stw	r23,112(sp)
   25288:	dd801b15 	stw	r22,108(sp)
   2528c:	dd001915 	stw	r20,100(sp)
   25290:	dcc01815 	stw	r19,96(sp)
   25294:	d9400215 	stw	r5,8(sp)
   25298:	d9c00115 	stw	r7,4(sp)
   2529c:	dc402117 	ldw	r17,132(sp)
   252a0:	2021883a 	mov	r16,r4
   252a4:	3025883a 	mov	r18,r6
   252a8:	302b883a 	mov	r21,r6
   252ac:	10000826 	beq	r2,zero,252d0 <_dtoa_r+0x6c>
   252b0:	21801117 	ldw	r6,68(r4)
   252b4:	00c00044 	movi	r3,1
   252b8:	100b883a 	mov	r5,r2
   252bc:	1986983a 	sll	r3,r3,r6
   252c0:	11800115 	stw	r6,4(r2)
   252c4:	10c00215 	stw	r3,8(r2)
   252c8:	002812c0 	call	2812c <_Bfree>
   252cc:	80001015 	stw	zero,64(r16)
   252d0:	90019316 	blt	r18,zero,25920 <_dtoa_r+0x6bc>
   252d4:	88000015 	stw	zero,0(r17)
   252d8:	909ffc2c 	andhi	r2,r18,32752
   252dc:	00dffc34 	movhi	r3,32752
   252e0:	10c19826 	beq	r2,r3,25944 <_dtoa_r+0x6e0>
   252e4:	d9000217 	ldw	r4,8(sp)
   252e8:	000d883a 	mov	r6,zero
   252ec:	000f883a 	mov	r7,zero
   252f0:	a80b883a 	mov	r5,r21
   252f4:	002d3800 	call	2d380 <__eqdf2>
   252f8:	1000181e 	bne	r2,zero,2535c <_dtoa_r+0xf8>
   252fc:	d8c02017 	ldw	r3,128(sp)
   25300:	00800044 	movi	r2,1
   25304:	18800015 	stw	r2,0(r3)
   25308:	d8802217 	ldw	r2,136(sp)
   2530c:	10000426 	beq	r2,zero,25320 <_dtoa_r+0xbc>
   25310:	d8c02217 	ldw	r3,136(sp)
   25314:	008000f4 	movhi	r2,3
   25318:	1085a844 	addi	r2,r2,5793
   2531c:	18800015 	stw	r2,0(r3)
   25320:	070000f4 	movhi	fp,3
   25324:	e705a804 	addi	fp,fp,5792
   25328:	e005883a 	mov	r2,fp
   2532c:	dfc01e17 	ldw	ra,120(sp)
   25330:	df001d17 	ldw	fp,116(sp)
   25334:	ddc01c17 	ldw	r23,112(sp)
   25338:	dd801b17 	ldw	r22,108(sp)
   2533c:	dd401a17 	ldw	r21,104(sp)
   25340:	dd001917 	ldw	r20,100(sp)
   25344:	dcc01817 	ldw	r19,96(sp)
   25348:	dc801717 	ldw	r18,92(sp)
   2534c:	dc401617 	ldw	r17,88(sp)
   25350:	dc001517 	ldw	r16,84(sp)
   25354:	dec01f04 	addi	sp,sp,124
   25358:	f800283a 	ret
   2535c:	dcc00217 	ldw	r19,8(sp)
   25360:	d8801304 	addi	r2,sp,76
   25364:	9022d53a 	srli	r17,r18,20
   25368:	d8800015 	stw	r2,0(sp)
   2536c:	d9c01404 	addi	r7,sp,80
   25370:	980b883a 	mov	r5,r19
   25374:	a80d883a 	mov	r6,r21
   25378:	8009883a 	mov	r4,r16
   2537c:	0028f240 	call	28f24 <__d2b>
   25380:	102f883a 	mov	r23,r2
   25384:	8801811e 	bne	r17,zero,2598c <_dtoa_r+0x728>
   25388:	dd001317 	ldw	r20,76(sp)
   2538c:	dc401417 	ldw	r17,80(sp)
   25390:	a463883a 	add	r17,r20,r17
   25394:	88810c84 	addi	r2,r17,1074
   25398:	10c00850 	cmplti	r3,r2,33
   2539c:	1803101e 	bne	r3,zero,25fe0 <_dtoa_r+0xd7c>
   253a0:	00c01004 	movi	r3,64
   253a4:	1887c83a 	sub	r3,r3,r2
   253a8:	90c8983a 	sll	r4,r18,r3
   253ac:	d8c00217 	ldw	r3,8(sp)
   253b0:	88810484 	addi	r2,r17,1042
   253b4:	1884d83a 	srl	r2,r3,r2
   253b8:	2088b03a 	or	r4,r4,r2
   253bc:	002e8b80 	call	2e8b8 <__floatunsidf>
   253c0:	1009883a 	mov	r4,r2
   253c4:	00bf8434 	movhi	r2,65040
   253c8:	188b883a 	add	r5,r3,r2
   253cc:	00800044 	movi	r2,1
   253d0:	8c7fffc4 	addi	r17,r17,-1
   253d4:	d8800915 	stw	r2,36(sp)
   253d8:	000d883a 	mov	r6,zero
   253dc:	01cffe34 	movhi	r7,16376
   253e0:	002de100 	call	2de10 <__subdf3>
   253e4:	0198dbf4 	movhi	r6,25455
   253e8:	01cff4f4 	movhi	r7,16339
   253ec:	3190d844 	addi	r6,r6,17249
   253f0:	39e1e9c4 	addi	r7,r7,-30809
   253f4:	1009883a 	mov	r4,r2
   253f8:	180b883a 	mov	r5,r3
   253fc:	002d6080 	call	2d608 <__muldf3>
   25400:	01a2d874 	movhi	r6,35681
   25404:	01cff1f4 	movhi	r7,16327
   25408:	31b22cc4 	addi	r6,r6,-14157
   2540c:	39e28a04 	addi	r7,r7,-30168
   25410:	180b883a 	mov	r5,r3
   25414:	1009883a 	mov	r4,r2
   25418:	00213940 	call	21394 <__adddf3>
   2541c:	8809883a 	mov	r4,r17
   25420:	1027883a 	mov	r19,r2
   25424:	1825883a 	mov	r18,r3
   25428:	002e8000 	call	2e800 <__floatsidf>
   2542c:	019427f4 	movhi	r6,20639
   25430:	01cff4f4 	movhi	r7,16339
   25434:	319e7ec4 	addi	r6,r6,31227
   25438:	39d104c4 	addi	r7,r7,17427
   2543c:	1009883a 	mov	r4,r2
   25440:	180b883a 	mov	r5,r3
   25444:	002d6080 	call	2d608 <__muldf3>
   25448:	100d883a 	mov	r6,r2
   2544c:	180f883a 	mov	r7,r3
   25450:	9809883a 	mov	r4,r19
   25454:	900b883a 	mov	r5,r18
   25458:	00213940 	call	21394 <__adddf3>
   2545c:	1009883a 	mov	r4,r2
   25460:	180b883a 	mov	r5,r3
   25464:	1027883a 	mov	r19,r2
   25468:	1825883a 	mov	r18,r3
   2546c:	0021c980 	call	21c98 <__fixdfsi>
   25470:	000d883a 	mov	r6,zero
   25474:	000f883a 	mov	r7,zero
   25478:	9809883a 	mov	r4,r19
   2547c:	900b883a 	mov	r5,r18
   25480:	102d883a 	mov	r22,r2
   25484:	002d5100 	call	2d510 <__ledf2>
   25488:	1002a616 	blt	r2,zero,25f24 <_dtoa_r+0xcc0>
   2548c:	a469c83a 	sub	r20,r20,r17
   25490:	a0ffffc4 	addi	r3,r20,-1
   25494:	b08005e8 	cmpgeui	r2,r22,23
   25498:	d8c00415 	stw	r3,16(sp)
   2549c:	1002981e 	bne	r2,zero,25f00 <_dtoa_r+0xc9c>
   254a0:	b00490fa 	slli	r2,r22,3
   254a4:	02c000f4 	movhi	r11,3
   254a8:	5ac5f104 	addi	r11,r11,6084
   254ac:	5885883a 	add	r2,r11,r2
   254b0:	11800017 	ldw	r6,0(r2)
   254b4:	11c00117 	ldw	r7,4(r2)
   254b8:	d9000217 	ldw	r4,8(sp)
   254bc:	a80b883a 	mov	r5,r21
   254c0:	002d5100 	call	2d510 <__ledf2>
   254c4:	1001d60e 	bge	r2,zero,25c20 <_dtoa_r+0x9bc>
   254c8:	d8000815 	stw	zero,32(sp)
   254cc:	a0bfffc4 	addi	r2,r20,-1
   254d0:	b5bfffc4 	addi	r22,r22,-1
   254d4:	10028e16 	blt	r2,zero,25f10 <_dtoa_r+0xcac>
