
Send.elf:     file format elf32-littlenios2
Send.elf
architecture: nios2:r1, flags 0x00000112:
EXEC_P, HAS_SYMS, D_PAGED
start address 0x00040228

Program Header:
    LOAD off    0x00001000 vaddr 0x00040000 paddr 0x00040000 align 2**12
         filesz 0x00000020 memsz 0x00000020 flags r-x
    LOAD off    0x00001020 vaddr 0x00040020 paddr 0x00040020 align 2**12
         filesz 0x000158c0 memsz 0x000158c0 flags r-x
    LOAD off    0x000168e0 vaddr 0x000558e0 paddr 0x000574e4 align 2**12
         filesz 0x00001c04 memsz 0x00001c04 flags rw-
    LOAD off    0x000000e8 vaddr 0x000590e8 paddr 0x000590e8 align 2**12
         filesz 0x00000000 memsz 0x00000164 flags rw-

Sections:
Idx Name          Size      VMA       LMA       File off  Algn
  0 .entry        00000020  00040000  00040000  00001000  2**5
                  CONTENTS, ALLOC, LOAD, READONLY, CODE
  1 .exceptions   00000208  00040020  00040020  00001020  2**2
                  CONTENTS, ALLOC, LOAD, READONLY, CODE
  2 .text         00014ee0  00040228  00040228  00001228  2**2
                  CONTENTS, ALLOC, LOAD, READONLY, CODE
  3 .rodata       000007d8  00055108  00055108  00016108  2**2
                  CONTENTS, ALLOC, LOAD, READONLY, DATA
  4 .rwdata       00001c04  000558e0  000574e4  000168e0  2**2
                  CONTENTS, ALLOC, LOAD, DATA, SMALL_DATA
  5 .bss          00000164  000590e8  000590e8  000190e8  2**2
                  ALLOC, SMALL_DATA
  6 .onchip_memory 00000000  0005924c  0005924c  000184e4  2**0
                  CONTENTS
  7 .comment      0000002d  00000000  00000000  000184e4  2**0
                  CONTENTS, READONLY
  8 .debug_aranges 000012c8  00000000  00000000  00018518  2**3
                  CONTENTS, READONLY, DEBUGGING, OCTETS
  9 .debug_info   000361bc  00000000  00000000  000197e0  2**0
                  CONTENTS, READONLY, DEBUGGING, OCTETS
 10 .debug_abbrev 0000e113  00000000  00000000  0004f99c  2**0
                  CONTENTS, READONLY, DEBUGGING, OCTETS
 11 .debug_line   0001537f  00000000  00000000  0005daaf  2**0
                  CONTENTS, READONLY, DEBUGGING, OCTETS
 12 .debug_frame  00002ac8  00000000  00000000  00072e30  2**2
                  CONTENTS, READONLY, DEBUGGING, OCTETS
 13 .debug_str    00002bb8  00000000  00000000  000758f8  2**0
                  CONTENTS, READONLY, DEBUGGING, OCTETS
 14 .debug_alt_sim_info 00000010  00000000  00000000  000784b0  2**2
                  CONTENTS, READONLY, DEBUGGING, OCTETS
 15 .debug_ranges 00000070  00000000  00000000  000784c0  2**3
                  CONTENTS, READONLY, DEBUGGING, OCTETS
 16 .debug_line_str 00002716  00000000  00000000  00078530  2**0
                  CONTENTS, READONLY, DEBUGGING, OCTETS
 17 .debug_loclists 0001a2e2  00000000  00000000  0007ac46  2**0
                  CONTENTS, READONLY, DEBUGGING, OCTETS
 18 .debug_rnglists 00001bf7  00000000  00000000  00094f28  2**0
                  CONTENTS, READONLY, DEBUGGING, OCTETS
 19 .thread_model 00000003  00000000  00000000  0009a5ae  2**0
                  CONTENTS, READONLY
 20 .cpu          00000003  00000000  00000000  0009a5b1  2**0
                  CONTENTS, READONLY
 21 .qsys         00000001  00000000  00000000  0009a5b4  2**0
                  CONTENTS, READONLY
 22 .simulation_enabled 00000001  00000000  00000000  0009a5b5  2**0
                  CONTENTS, READONLY
 23 .sysid_hash   00000004  00000000  00000000  0009a5b6  2**0
                  CONTENTS, READONLY
 24 .sysid_base   00000004  00000000  00000000  0009a5ba  2**0
                  CONTENTS, READONLY
 25 .sysid_time   00000004  00000000  00000000  0009a5be  2**0
                  CONTENTS, READONLY
 26 .stderr_dev   00000009  00000000  00000000  0009a5c2  2**0
                  CONTENTS, READONLY
 27 .stdin_dev    00000009  00000000  00000000  0009a5cb  2**0
                  CONTENTS, READONLY
 28 .stdout_dev   00000009  00000000  00000000  0009a5d4  2**0
                  CONTENTS, READONLY
 29 .sopc_system_name 00000005  00000000  00000000  0009a5dd  2**0
                  CONTENTS, READONLY
 30 .quartus_project_dir 00000040  00000000  00000000  0009a5e2  2**0
                  CONTENTS, READONLY
 31 .jdi          00004332  00000000  00000000  0009a622  2**0
                  CONTENTS, READONLY
 32 .sopcinfo     000665fb  00000000  00000000  0009e954  2**0
                  CONTENTS, READONLY
SYMBOL TABLE:
00040000 l    d  .entry	00000000 .entry
00040020 l    d  .exceptions	00000000 .exceptions
00040228 l    d  .text	00000000 .text
00055108 l    d  .rodata	00000000 .rodata
000558e0 l    d  .rwdata	00000000 .rwdata
000590e8 l    d  .bss	00000000 .bss
0005924c l    d  .onchip_memory	00000000 .onchip_memory
00000000 l    d  .comment	00000000 .comment
00000000 l    d  .debug_aranges	00000000 .debug_aranges
00000000 l    d  .debug_info	00000000 .debug_info
00000000 l    d  .debug_abbrev	00000000 .debug_abbrev
00000000 l    d  .debug_line	00000000 .debug_line
00000000 l    d  .debug_frame	00000000 .debug_frame
00000000 l    d  .debug_str	00000000 .debug_str
00000000 l    d  .debug_alt_sim_info	00000000 .debug_alt_sim_info
00000000 l    d  .debug_ranges	00000000 .debug_ranges
00000000 l    d  .debug_line_str	00000000 .debug_line_str
00000000 l    d  .debug_loclists	00000000 .debug_loclists
00000000 l    d  .debug_rnglists	00000000 .debug_rnglists
00000000 l    df *ABS*	00000000 crt0.o
00040260 l       .text	00000000 alt_after_alt_main
00000000 l    df *ABS*	00000000 alt_irq_handler.c
00000000 l    df *ABS*	00000000 alt_instruction_exception_entry.c
00000000 l    df *ABS*	00000000 specs.c
00000000 l    df *ABS*	00000000 spec.c
00000000 l    df *ABS*	00000000 hello_world.c
00000000 l    df *ABS*	00000000 specs.c
00000000 l    df *ABS*	00000000 s_round.c
00000000 l    df *ABS*	00000000 lib2-divmod.c
00000000 l    df *ABS*	00000000 lib2-mul.c
00000000 l    df *ABS*	00000000 divsf3.c
00000000 l    df *ABS*	00000000 mulsf3.c
00000000 l    df *ABS*	00000000 fixsfsi.c
00000000 l    df *ABS*	00000000 floatsisf.c
00000000 l    df *ABS*	00000000 adddf3.c
00000000 l    df *ABS*	00000000 fixdfsi.c
00000000 l    df *ABS*	00000000 extendsfdf2.c
00000000 l    df *ABS*	00000000 libgcc2.c
00000000 l    df *ABS*	00000000 libgcc2.c
00000000 l    df *ABS*	00000000 asprintf.c
00000000 l    df *ABS*	00000000 impure.c
000558e0 l     O .rwdata	00000424 impure_data
00000000 l    df *ABS*	00000000 malloc.c
00000000 l    df *ABS*	00000000 mallocr.c
00000000 l    df *ABS*	00000000 memcpy.c
00000000 l    df *ABS*	00000000 memset.c
00000000 l    df *ABS*	00000000 printf.c
00000000 l    df *ABS*	00000000 sbrkr.c
00000000 l    df *ABS*	00000000 vfprintf.c
00055380 l     O .rodata	00000010 zeroes.0
00055390 l     O .rodata	00000010 blanks.1
00000000 l    df *ABS*	00000000 vfprintf.c
000553a0 l     O .rodata	00000010 zeroes.0
000474d4 l     F .text	000000c4 __sbprintf
000553b0 l     O .rodata	00000010 blanks.1
00000000 l    df *ABS*	00000000 wsetup.c
00000000 l    df *ABS*	00000000 dtoa.c
000476e4 l     F .text	00000218 quorem
00000000 l    df *ABS*	00000000 fflush.c
00000000 l    df *ABS*	00000000 findfp.c
000493d0 l     F .text	00000008 __fp_lock
000493e4 l     F .text	00000008 __fp_unlock
000493ec l     F .text	00000168 __sinit.part.0
00000000 l    df *ABS*	00000000 mallocr.c
00000000 l    df *ABS*	00000000 fwalk.c
00000000 l    df *ABS*	00000000 int_errno.c
00000000 l    df *ABS*	00000000 localeconv.c
00000000 l    df *ABS*	00000000 makebuf.c
00000000 l    df *ABS*	00000000 memchr.c
00000000 l    df *ABS*	00000000 mprec.c
00055464 l     O .rodata	0000000c p05.0
00000000 l    df *ABS*	00000000 stdio.c
00000000 l    df *ABS*	00000000 strlen.c
00000000 l    df *ABS*	00000000 vfprintf.c
00055588 l     O .rodata	00000010 zeroes.0
00055598 l     O .rodata	00000010 blanks.1
00000000 l    df *ABS*	00000000 vfprintf.c
0004c598 l     F .text	000000f4 __sprint_r.part.0
000555a8 l     O .rodata	00000010 zeroes.0
0004d940 l     F .text	000000c4 __sbprintf
000555b8 l     O .rodata	00000010 blanks.1
00000000 l    df *ABS*	00000000 writer.c
00000000 l    df *ABS*	00000000 closer.c
00000000 l    df *ABS*	00000000 assert.c
00000000 l    df *ABS*	00000000 mallocr.c
00000000 l    df *ABS*	00000000 errno.c
00000000 l    df *ABS*	00000000 fclose.c
00000000 l    df *ABS*	00000000 fiprintf.c
00000000 l    df *ABS*	00000000 fputwc.c
00000000 l    df *ABS*	00000000 fstatr.c
00000000 l    df *ABS*	00000000 fvwrite.c
00000000 l    df *ABS*	00000000 isattyr.c
00000000 l    df *ABS*	00000000 locale.c
00000000 l    df *ABS*	00000000 lseekr.c
00000000 l    df *ABS*	00000000 mbtowc_r.c
00000000 l    df *ABS*	00000000 memmove.c
00000000 l    df *ABS*	00000000 readr.c
00000000 l    df *ABS*	00000000 mallocr.c
00000000 l    df *ABS*	00000000 strcmp.c
00000000 l    df *ABS*	00000000 vfiprintfr_1.c
00000000 l    df *ABS*	00000000 wbuf.c
00000000 l    df *ABS*	00000000 wcrtomb.c
00000000 l    df *ABS*	00000000 wctomb_r.c
00000000 l    df *ABS*	00000000 abort.c
00000000 l    df *ABS*	00000000 ctype_.c
00000000 l    df *ABS*	00000000 signal.c
00000000 l    df *ABS*	00000000 signalr.c
00000000 l    df *ABS*	00000000 libgcc2.c
00000000 l    df *ABS*	00000000 libgcc2.c
00000000 l    df *ABS*	00000000 divdf3.c
00000000 l    df *ABS*	00000000 eqdf2.c
00000000 l    df *ABS*	00000000 gedf2.c
00000000 l    df *ABS*	00000000 ledf2.c
00000000 l    df *ABS*	00000000 muldf3.c
00000000 l    df *ABS*	00000000 subdf3.c
00000000 l    df *ABS*	00000000 unorddf2.c
00000000 l    df *ABS*	00000000 floatsidf.c
00000000 l    df *ABS*	00000000 floatunsidf.c
00000000 l    df *ABS*	00000000 alt_close.c
00052104 l     F .text	0000003c alt_get_errno
00000000 l    df *ABS*	00000000 alt_dev.c
0005221c l     F .text	0000002c alt_dev_null_write
00000000 l    df *ABS*	00000000 alt_errno.c
00000000 l    df *ABS*	00000000 alt_exit.c
00000000 l    df *ABS*	00000000 alt_fstat.c
00052284 l     F .text	0000003c alt_get_errno
00000000 l    df *ABS*	00000000 alt_getchar.c
00000000 l    df *ABS*	00000000 alt_getpid.c
00000000 l    df *ABS*	00000000 alt_irq_register.c
00000000 l    df *ABS*	00000000 alt_irq_vars.c
00000000 l    df *ABS*	00000000 alt_isatty.c
00052544 l     F .text	0000003c alt_get_errno
00000000 l    df *ABS*	00000000 alt_kill.c
00052630 l     F .text	0000003c alt_get_errno
00000000 l    df *ABS*	00000000 alt_load.c
0005275c l     F .text	00000068 alt_load_section
00000000 l    df *ABS*	00000000 alt_lseek.c
00052848 l     F .text	0000003c alt_get_errno
00000000 l    df *ABS*	00000000 alt_main.c
00000000 l    df *ABS*	00000000 alt_malloc_lock.c
00000000 l    df *ABS*	00000000 alt_putstr.c
00000000 l    df *ABS*	00000000 alt_read.c
00052a64 l     F .text	0000003c alt_get_errno
00000000 l    df *ABS*	00000000 alt_release_fd.c
00000000 l    df *ABS*	00000000 alt_sbrk.c
000574d8 l     O .rwdata	00000004 heap_end
00000000 l    df *ABS*	00000000 alt_write.c
00052cd0 l     F .text	0000003c alt_get_errno
00000000 l    df *ABS*	00000000 alt_sys_init.c
00052e10 l     F .text	00000034 alt_dev_reg
00056420 l     O .rwdata	00001060 jtag_uart
00057480 l     O .rwdata	0000002c accelerometer_spi
00000000 l    df *ABS*	00000000 altera_avalon_jtag_uart_fd.c
00000000 l    df *ABS*	00000000 altera_avalon_jtag_uart_init.c
00053108 l     F .text	00000218 altera_avalon_jtag_uart_irq
00053320 l     F .text	000000a8 altera_avalon_jtag_uart_timeout
00000000 l    df *ABS*	00000000 altera_avalon_jtag_uart_ioctl.c
00000000 l    df *ABS*	00000000 altera_avalon_jtag_uart_read.c
00000000 l    df *ABS*	00000000 altera_avalon_jtag_uart_write.c
00000000 l    df *ABS*	00000000 altera_avalon_timer_sc.c
0005396c l     F .text	00000080 alt_avalon_timer_sc_irq
00000000 l    df *ABS*	00000000 altera_up_avalon_accelerometer_spi.c
00000000 l    df *ABS*	00000000 alt_alarm_start.c
00000000 l    df *ABS*	00000000 alt_dcache_flush_all.c
00000000 l    df *ABS*	00000000 alt_dev_llist_insert.c
00053fb4 l     F .text	0000003c alt_get_errno
00000000 l    df *ABS*	00000000 alt_do_ctors.c
00000000 l    df *ABS*	00000000 alt_do_dtors.c
00000000 l    df *ABS*	00000000 alt_find_dev.c
00000000 l    df *ABS*	00000000 alt_icache_flush_all.c
00000000 l    df *ABS*	00000000 alt_io_redirect.c
00054210 l     F .text	000000d4 alt_open_fd
00000000 l    df *ABS*	00000000 alt_open.c
00054360 l     F .text	0000003c alt_get_errno
0005439c l     F .text	000000dc alt_file_locked
00000000 l    df *ABS*	00000000 alt_tick.c
00000000 l    df *ABS*	00000000 altera_nios2_gen2_irq.c
00000000 l    df *ABS*	00000000 alt_find_file.c
00000000 l    df *ABS*	00000000 alt_get_fd.c
00000000 l    df *ABS*	00000000 atexit.c
00000000 l    df *ABS*	00000000 exit.c
00000000 l    df *ABS*	00000000 fputs.c
00000000 l    df *ABS*	00000000 getchar.c
00000000 l    df *ABS*	00000000 memcmp.c
00000000 l    df *ABS*	00000000 __atexit.c
00000000 l    df *ABS*	00000000 __call_atexit.c
00000000 l    df *ABS*	00000000 getc.c
00000000 l    df *ABS*	00000000 rget.c
00000000 l    df *ABS*	00000000 refill.c
00054f34 l     F .text	0000001c lflush
00059120 g     O .bss	00000004 alt_instruction_exception_handler
0004b0a8 g     F .text	00000070 _mprec_log10
0004b194 g     F .text	00000060 __any_on
0004e514 g     F .text	00000058 _isatty_r
00055470 g     O .rodata	00000028 __mprec_tinytens
00052964 g     F .text	0000007c alt_main
0004031c g     F .text	00000034 led_write
0005914c g     O .bss	00000100 alt_irq
0004e660 g     F .text	00000064 _lseek_r
00040264 g     F .text	0000006c float_to_fixed
000574e4 g       *ABS*	00000000 __flash_rwdata_start
00050b3c g     F .text	00000094 .hidden __eqdf2
0005924c g       *ABS*	00000000 __alt_heap_start
000402d0 g     F .text	0000004c fixed_to_float
0004f6b8 g     F .text	00000060 _kill_r
00042b48 g     F .text	00000038 printf
0004f0b0 g     F .text	0000006c _wcrtomb_r
0004f254 g     F .text	00000090 _signal_r
0004b2d0 g     F .text	0000005c __sseek
00049714 g     F .text	00000010 __sinit
0004ef50 g     F .text	00000148 __swbuf_r
0004e56c g     F .text	00000074 _setlocale_r
00049554 g     F .text	00000078 __sfmoreglue
00052a04 g     F .text	00000024 __malloc_unlock
000408d4 g     F .text	000000e8 round
00040b98 g     F .text	00000418 .hidden __divsf3
0004e714 g     F .text	00000128 memmove
00049700 g     F .text	00000014 _cleanup
0004a010 g     F .text	000000a4 _Balloc
000413cc g     F .text	00000070 .hidden __fixsfsi
000403e0 g     F .text	000000cc sys_timer_isr
00040710 g     F .text	0000008c read_chars
00052a28 g     F .text	0000003c alt_putstr
00050bd0 g     F .text	000000fc .hidden __gtdf2
000547a8 g     F .text	00000024 altera_nios2_gen2_irq_init
0004dca0 g     F .text	0000000c __errno
00040000 g     F .entry	0000000c __reset
00049cc8 g     F .text	00000008 __localeconv_l
00053bb8 g     F .text	000000d4 alt_up_accelerometer_spi_read_x_axis
00040020 g       *ABS*	00000000 __flash_exceptions_start
0004e00c g     F .text	00000060 _fstat_r
000590fc g     O .bss	00000004 errno
00054eb8 g     F .text	0000007c __srget
0004b248 g     F .text	00000008 __seofread
0004b59c g     F .text	00000ffc ___svfiprintf_internal_r
0005910c g     O .bss	00000004 alt_argv
0005f4ac g       *ABS*	00000000 _gp
00040650 g     F .text	000000c0 generate_text
000523a4 g     F .text	00000020 getpid
000562a0 g     O .rwdata	00000180 alt_fd_list
00054d38 g     F .text	0000007c _getc_r
00054db4 g     F .text	00000090 getc
00054160 g     F .text	00000090 alt_find_dev
000428d8 g     F .text	00000100 memcpy
000493d8 g     F .text	0000000c _cleanup_r
00051fbc g     F .text	000000b8 .hidden __floatsidf
000542e4 g     F .text	0000007c alt_io_redirect
00050ccc g     F .text	000000f8 .hidden __ltdf2
00055108 g       *ABS*	00000000 __DTOR_END__
0005498c g     F .text	00000074 alt_exception_cause_generated_bad_addr
0004b004 g     F .text	000000a4 __ratio
0004d924 g     F .text	0000001c __vfiprintf_internal
00053524 g     F .text	00000220 altera_avalon_jtag_uart_read
00042104 g     F .text	00000010 malloc
00042b18 g     F .text	00000030 _printf_r
00040ab0 g     F .text	00000064 .hidden __udivsi3
00052580 g     F .text	000000b0 isatty
0004f2e4 g     F .text	000000b0 _raise_r
0004dac0 g     F .text	00000064 __assert_func
000554c0 g     O .rodata	000000c8 __mprec_tens
000590f8 g     O .bss	00000004 __malloc_top_pad
0004f718 g     F .text	00000004 _getpid_r
00049cd0 g     F .text	0000000c _localeconv_r
0004e06c g     F .text	000004a8 __sfvwrite_r
0004a488 g     F .text	000000b0 __i2b
0004f394 g     F .text	000000bc __sigtramp_r
00042b80 g     F .text	00000058 _sbrk_r
0004e83c g     F .text	00000064 _read_r
000574cc g     O .rwdata	00000004 alt_max_fd
0004dcac g     F .text	000000f8 _fclose_r
0004934c g     F .text	00000084 fflush
000590f4 g     O .bss	00000004 __malloc_max_sbrked_mem
000523c4 g     F .text	00000180 alt_irq_register
00041ee8 g     F .text	000000fc .hidden __extendsfdf2
00041564 g     F .text	00000904 .hidden __adddf3
0004adac g     F .text	00000100 __b2d
0004fcf4 g     F .text	0000055c .hidden __umoddi3
00052884 g     F .text	000000e0 lseek
000574ac g     O .rwdata	00000004 _global_impure_ptr
0004e8a0 g     F .text	000005f4 _realloc_r
0005924c g       *ABS*	00000000 __bss_end
0005237c g     F .text	00000028 alt_getchar
0005467c g     F .text	0000012c alt_tick
0004f71c g     F .text	000005d8 .hidden __udivdi3
0004df70 g     F .text	00000024 _fputwc_r
00055498 g     O .rodata	00000028 __mprec_bigtens
0004a22c g     F .text	00000138 __s2b
0004f1e0 g     F .text	00000018 abort
00052074 g     F .text	00000090 .hidden __floatunsidf
0004aac4 g     F .text	00000058 __mcmp
00049734 g     F .text	00000014 __fp_lock_all
000545d8 g     F .text	000000a4 alt_alarm_stop
00059104 g     O .bss	00000004 alt_irq_active
000400fc g     F .exceptions	000000cc alt_irq_handler
00056278 g     O .rwdata	00000028 alt_dev_null
00053f94 g     F .text	00000020 alt_dcache_flush_all
0004a364 g     F .text	00000074 __hi0bits
00041e68 g     F .text	00000080 .hidden __fixdfsi
000405d4 g     F .text	0000007c print_text
000574e4 g       *ABS*	00000000 __ram_rwdata_end
000404ac g     F .text	0000007c timer_init
00040000 g       *ABS*	00000000 __alt_mem_onchip_memory
000574c4 g     O .rwdata	00000008 alt_dev_list
00052d0c g     F .text	00000104 write
000558e0 g       *ABS*	00000000 __ram_rodata_end
000522c0 g     F .text	000000bc fstat
0005266c g     F .text	000000f0 kill
00050ccc g     F .text	000000f8 .hidden __ledf2
0004a7fc g     F .text	00000140 __pow5mult
000590e9 g     O .bss	00000001 led
0004c6a4 g     F .text	00001280 ___vfiprintf_internal_r
00040b14 g     F .text	0000005c .hidden __umodsi3
0005924c g       *ABS*	00000000 end
00053054 g     F .text	000000b4 altera_avalon_jtag_uart_init
000401c8 g     F .exceptions	00000060 alt_instruction_exception_entry
00055108 g       *ABS*	00000000 __CTOR_LIST__
000649f0 g       *ABS*	00000000 __alt_stack_pointer
000539ec g     F .text	0000007c alt_avalon_timer_sc_init
00041fe4 g     F .text	00000050 .hidden __clzsi2
00053744 g     F .text	00000228 altera_avalon_jtag_uart_write
00042034 g     F .text	00000060 _asprintf_r
00049724 g     F .text	00000004 __sfp_lock_acquire
00049f14 g     F .text	000000fc memchr
00045008 g     F .text	000024b0 ___vfprintf_internal_r
00049880 g     F .text	00000308 _free_r
0005571c g     O .rodata	00000180 _ctype_b
0004e5e0 g     F .text	0000000c __locale_mb_cur_max
00054e44 g     F .text	00000074 __srget_r
00054c18 g     F .text	00000120 __call_exitprocs
000574b4 g     O .rwdata	00000004 __malloc_sbrk_base
00040228 g     F .text	0000003c _start
000590ec g     O .bss	00000004 level
00059114 g     O .bss	00000004 _alt_tick_rate
0004a93c g     F .text	00000188 __lshift
00059118 g     O .bss	00000008 _alt_nticks
0004f504 g     F .text	00000098 signal
00052aa0 g     F .text	00000108 read
00052e80 g     F .text	00000070 alt_sys_init
00053aa4 g     F .text	00000044 alt_up_accelerometer_spi_read_address_register
0004143c g     F .text	00000128 .hidden __floatsisf
0004b3cc g     F .text	000001d0 __ssprint_r
00054b88 g     F .text	00000090 __register_exitproc
0004a538 g     F .text	000002c4 __multiply
000533c8 g     F .text	00000068 altera_avalon_jtag_uart_close
00040b70 g     F .text	00000028 .hidden __mulsi3
000558e0 g       *ABS*	00000000 __ram_rwdata_start
00055108 g       *ABS*	00000000 __ram_rodata_start
00059124 g     O .bss	00000028 __malloc_current_mallinfo
0004aeac g     F .text	00000158 __d2b
00052ef0 g     F .text	00000060 altera_avalon_jtag_uart_read_fd
000548d4 g     F .text	000000b8 alt_get_fd
00053c8c g     F .text	000000d4 alt_up_accelerometer_spi_read_y_axis
0004da68 g     F .text	00000058 _close_r
00054b10 g     F .text	00000078 memcmp
00052fb0 g     F .text	00000050 altera_avalon_jtag_uart_close_fd
0005924c g       *ABS*	00000000 __alt_stack_base
00053000 g     F .text	00000054 altera_avalon_jtag_uart_ioctl_fd
00047598 g     F .text	0000014c __swsetup_r
00050250 g     F .text	000008ec .hidden __divdf3
000495cc g     F .text	00000134 __sfp
0004b118 g     F .text	0000007c __copybits
00055d04 g     O .rwdata	00000408 __malloc_av_
00049730 g     F .text	00000004 __sinit_lock_release
00050dc4 g     F .text	00000808 .hidden __muldf3
0004b1f4 g     F .text	00000054 __sread
000547cc g     F .text	00000108 alt_find_file
00053ff0 g     F .text	000000a8 alt_dev_llist_insert
000529e0 g     F .text	00000024 __malloc_lock
00052c18 g     F .text	000000b8 sbrk
00042bd8 g     F .text	00002430 ___svfprintf_internal_r
000492ec g     F .text	00000060 _fflush_r
0004db38 g     F .text	00000168 _calloc_r
000590e8 g       *ABS*	00000000 __bss_start
000429d8 g     F .text	00000140 memset
0004079c g     F .text	00000138 main
00059110 g     O .bss	00000004 alt_envp
000590f0 g     O .bss	00000004 __malloc_max_total_mem
00052f50 g     F .text	00000060 altera_avalon_jtag_uart_write_fd
0004f098 g     F .text	00000018 __swbuf
0004b32c g     F .text	00000008 __sclose
000649f0 g       *ABS*	00000000 __alt_heap_limit
0004dda4 g     F .text	00000010 fclose
00054b00 g     F .text	00000010 getchar
000478fc g     F .text	000017e8 _dtoa_r
00042124 g     F .text	000007b4 _malloc_r
0004f1b0 g     F .text	00000030 __ascii_wctomb
000574d0 g     O .rwdata	00000004 alt_errno
0004ddb4 g     F .text	00000020 _fiprintf_r
0004f59c g     F .text	00000060 _init_signal
00049b88 g     F .text	00000098 _fwalk
0004e6c4 g     F .text	0000000c _mbtowc_r
000409bc g     F .text	00000080 .hidden __divsi3
0004975c g     F .text	00000124 _malloc_trim_r
00055108 g       *ABS*	00000000 __CTOR_END__
00040fb0 g     F .text	0000041c .hidden __mulsf3
0004ee94 g     F .text	000000b8 strcmp
00055108 g       *ABS*	00000000 __flash_rodata_start
00055108 g       *ABS*	00000000 __DTOR_LIST__
00050b3c g     F .text	00000094 .hidden __nedf2
00052e44 g     F .text	0000003c alt_irq_init
00052ba8 g     F .text	00000070 alt_release_fd
0005523c g     O .rodata	00000100 .hidden __clz_tab
00042094 g     F .text	00000070 asprintf
00059100 g     O .bss	00000004 _PathLocale
00054a00 g     F .text	00000014 atexit
0004da04 g     F .text	00000064 _write_r
0004e5ec g     F .text	00000074 setlocale
000574b0 g     O .rwdata	00000004 _impure_ptr
00059108 g     O .bss	00000004 alt_argc
000490e4 g     F .text	00000208 __sflush_r
000540fc g     F .text	00000064 _do_dtors
00054f50 g     F .text	000001b8 __srefill_r
00040020 g       .exceptions	00000000 alt_irq_entry
0004e6d0 g     F .text	00000044 __ascii_mbtowc
0004ad4c g     F .text	00000060 __ulp
00049748 g     F .text	00000014 __fp_unlock_all
000590e8 g     O .bss	00000001 pwm
000574bc g     O .rwdata	00000008 alt_fs_list
00040020 g       *ABS*	00000000 __ram_exceptions_start
00053a68 g     F .text	0000003c alt_up_accelerometer_spi_open_dev
00049cdc g     F .text	0000000c localeconv
00049e88 g     F .text	0000008c __swhatbuf_r
000574e4 g       *ABS*	00000000 _edata
0005924c g       *ABS*	00000000 _end
00054af8 g     F .text	00000008 _getchar_r
0004de0c g     F .text	00000164 __fputwc
00040228 g       *ABS*	00000000 __ram_exceptions_end
00053430 g     F .text	000000f4 altera_avalon_jtag_uart_ioctl
00054a48 g     F .text	00000098 _fputs_r
0004b250 g     F .text	00000080 __swrite
000574b8 g     O .rwdata	00000004 __malloc_trim_threshold
00054a14 g     F .text	00000034 exit
0004ddd4 g     F .text	00000038 fiprintf
0004ef4c g     F .text	00000004 _vfiprintf_r
00049c20 g     F .text	000000a8 _fwalk_reent
0004ab1c g     F .text	00000230 __mdiff
00040a3c g     F .text	00000074 .hidden __modsi3
00053d60 g     F .text	000000d4 alt_up_accelerometer_spi_read_z_axis
000649f0 g       *ABS*	00000000 __alt_data_end
00040020 g     F .exceptions	00000000 alt_exception
00049728 g     F .text	00000004 __sfp_lock_release
00055618 g     O .rodata	00000101 _ctype_
00051f68 g     F .text	00000054 .hidden __unorddf2
00040350 g     F .text	00000090 convert_read
00052248 g     F .text	0000003c _exit
00053e34 g     F .text	00000160 alt_alarm_start
00053ae8 g     F .text	00000068 alt_up_accelerometer_spi_read
00053b50 g     F .text	00000068 alt_up_accelerometer_spi_write
00049ce8 g     F .text	000001a0 __smakebuf_r
0004b334 g     F .text	00000098 strlen
0004f1f8 g     F .text	0000005c _init_signal_r
00054478 g     F .text	00000160 open
00050bd0 g     F .text	000000fc .hidden __gedf2
0004db24 g     F .text	00000014 __assert
0004c68c g     F .text	00000018 __sprint_r
000541f0 g     F .text	00000020 alt_icache_flush_all
00054ae0 g     F .text	00000018 fputs
000574d4 g     O .rwdata	00000004 alt_priority_mask
00040528 g     F .text	000000ac FIR
000474b8 g     F .text	0000001c __vfprintf_internal
0004f1a4 g     F .text	0000000c _wctomb_r
000515cc g     F .text	0000099c .hidden __subdf3
0004a3d8 g     F .text	000000b0 __lo0bits
000574dc g     O .rwdata	00000008 alt_alarm_list
00054098 g     F .text	00000064 _do_ctors
0004f5fc g     F .text	000000bc __sigtramp
0004f11c g     F .text	00000088 wcrtomb
00052140 g     F .text	000000dc close
0005610c g     O .rwdata	0000016c __global_locale
000527c4 g     F .text	00000084 alt_load
0004df94 g     F .text	00000078 fputwc
0004f450 g     F .text	000000b4 raise
00042114 g     F .text	00000010 free
0004972c g     F .text	00000004 __sinit_lock_acquire
0004a0d8 g     F .text	00000154 __multadd
0004a0b4 g     F .text	00000024 _Bfree



Disassembly of section .entry:

00040000 <__reset>:
 * Jump to the _start entry point in the .text section if reset code
 * is allowed or if optimizing for RTL simulation.
 */
#if defined(ALT_ALLOW_CODE_AT_RESET) || defined(ALT_SIM_OPTIMIZE)
    /* Jump to the _start entry point in the .text section. */
    movhi r1, %hi(_start)
   40000:	00400134 	movhi	at,4
    ori r1, r1, %lo(_start)
   40004:	08408a14 	ori	at,at,552
    jmp r1
   40008:	0800683a 	jmp	at
	...

Disassembly of section .exceptions:

00040020 <alt_exception>:

#else /* ALT_EXCEPTION_STACK disabled */
        /* 
         * Reserve space on normal stack for registers about to be pushed.
         */
        addi  sp, sp, -76
   40020:	deffed04 	addi	sp,sp,-76
         * documentation for details).
         *
         * Leave a gap in the stack frame at 4(sp) for the muldiv handler to
         * store zero into.
         */
        stw   ra,  0(sp)
   40024:	dfc00015 	stw	ra,0(sp)
        stw   r1,   8(sp)
   40028:	d8400215 	stw	at,8(sp)
        stw   r2,  12(sp)
   4002c:	d8800315 	stw	r2,12(sp)
        stw   r3,  16(sp)
   40030:	d8c00415 	stw	r3,16(sp)
        stw   r4,  20(sp)
   40034:	d9000515 	stw	r4,20(sp)
        stw   r5,  24(sp)
   40038:	d9400615 	stw	r5,24(sp)
        stw   r6,  28(sp)
   4003c:	d9800715 	stw	r6,28(sp)
        stw   r7,  32(sp)
   40040:	d9c00815 	stw	r7,32(sp)
        rdctl r5, estatus   /* Read early to avoid usage stall */
   40044:	000b307a 	rdctl	r5,estatus
        stw   r8,  36(sp)
   40048:	da000915 	stw	r8,36(sp)
        stw   r9,  40(sp)
   4004c:	da400a15 	stw	r9,40(sp)
        stw   r10, 44(sp)
   40050:	da800b15 	stw	r10,44(sp)
        stw   r11, 48(sp)
   40054:	dac00c15 	stw	r11,48(sp)
        stw   r12, 52(sp)
   40058:	db000d15 	stw	r12,52(sp)
        stw   r13, 56(sp)
   4005c:	db400e15 	stw	r13,56(sp)
        stw   r14, 60(sp)
   40060:	db800f15 	stw	r14,60(sp)
        stw   r15, 64(sp)
   40064:	dbc01015 	stw	r15,64(sp)
        /*
         * ea-4 contains the address of the instruction being executed
         * when the exception occured. For interrupt exceptions, we will
         * will be re-issue the isntruction. Store it in 72(sp)
         */
        stw   r5,  68(sp)  /* estatus */
   40068:	d9401115 	stw	r5,68(sp)
        addi  r15, ea, -4  /* instruction that caused exception */
   4006c:	ebffff04 	addi	r15,ea,-4
        stw   r15,  72(sp)
   40070:	dbc01215 	stw	r15,72(sp)
#else
        /*
         * Test to see if the exception was a software exception or caused 
         * by an external interrupt, and vector accordingly.
         */
        rdctl r4, ipending
   40074:	0009313a 	rdctl	r4,ipending
        andi  r2, r5, 1
   40078:	2880004c 	andi	r2,r5,1
        beq   r2, zero, .Lnot_irq
   4007c:	10000326 	beq	r2,zero,4008c <alt_exception+0x6c>
        beq   r4, zero, .Lnot_irq
   40080:	20000226 	beq	r4,zero,4008c <alt_exception+0x6c>
        /*
         * Now that all necessary registers have been preserved, call 
         * alt_irq_handler() to process the interrupts.
         */

        call alt_irq_handler
   40084:	00400fc0 	call	400fc <alt_irq_handler>

        .section .exceptions.irqreturn, "xa"

        br    .Lexception_exit
   40088:	00000706 	br	400a8 <alt_exception+0x88>
         * upon completion, so we write ea (address of instruction *after*
         * the one where the exception occured) into 72(sp). The actual
         * instruction that caused the exception is written in r2, which these
         * handlers will utilize.
         */
        stw ea, 72(sp) /* EA is PC+4 so will skip over instruction causing exception */
   4008c:	df401215 	stw	ea,72(sp)
.Lunknown_16bit:
        addi.n r4, r4, 2 /* Need PC+2 to skip over instruction causing exception */
        stw r4, 72(sp)

#else /* CDX is not Enabled and all instructions are 32bits */
        ldw r2, -4(ea) /* Instruction value that caused exception */
   40090:	e8bfff17 	ldw	r2,-4(ea)
   40094:	e93fff04 	addi	r4,ea,-4
   40098:	00401c80 	call	401c8 <alt_instruction_exception_entry>
   4009c:	1000021e 	bne	r2,zero,400a8 <alt_exception+0x88>
   400a0:	ebffff04 	addi	r15,ea,-4
   400a4:	dbc01215 	stw	r15,72(sp)
        /* 
         * Restore the saved registers, so that all general purpose registers 
         * have been restored to their state at the time the interrupt occured.
         */

        ldw   r5,  68(sp)
   400a8:	d9401117 	ldw	r5,68(sp)
        ldw   ea,  72(sp)  /* This becomes the PC once eret is executed */
   400ac:	df401217 	ldw	ea,72(sp)
        ldw   ra,   0(sp)
   400b0:	dfc00017 	ldw	ra,0(sp)

        wrctl estatus, r5
   400b4:	2801707a 	wrctl	estatus,r5

        ldw   r1,   8(sp)
   400b8:	d8400217 	ldw	at,8(sp)
        ldw   r2,  12(sp)
   400bc:	d8800317 	ldw	r2,12(sp)
        ldw   r3,  16(sp)
   400c0:	d8c00417 	ldw	r3,16(sp)
        ldw   r4,  20(sp)
   400c4:	d9000517 	ldw	r4,20(sp)
        ldw   r5,  24(sp)
   400c8:	d9400617 	ldw	r5,24(sp)
        ldw   r6,  28(sp)
   400cc:	d9800717 	ldw	r6,28(sp)
        ldw   r7,  32(sp)
   400d0:	d9c00817 	ldw	r7,32(sp)

#if defined(ALT_EXCEPTION_STACK) && defined(ALT_STACK_CHECK)
        ldw   et, %gprel(alt_exception_old_stack_limit)(gp)
#endif

        ldw   r8,  36(sp)
   400d4:	da000917 	ldw	r8,36(sp)
        ldw   r9,  40(sp)
   400d8:	da400a17 	ldw	r9,40(sp)
        ldw   r10, 44(sp)
   400dc:	da800b17 	ldw	r10,44(sp)
        ldw   r11, 48(sp)
   400e0:	dac00c17 	ldw	r11,48(sp)
        ldw   r12, 52(sp)
   400e4:	db000d17 	ldw	r12,52(sp)
        ldw   r13, 56(sp)
   400e8:	db400e17 	ldw	r13,56(sp)
        ldw   r14, 60(sp)
   400ec:	db800f17 	ldw	r14,60(sp)
        ldw   r15, 64(sp)
   400f0:	dbc01017 	ldw	r15,64(sp)
        stw   et, %gprel(alt_stack_limit_value)(gp)
        stw   zero, %gprel(alt_exception_old_stack_limit)(gp)
#endif /* ALT_STACK_CHECK */
        ldw   sp,  76(sp)
#else /* ALT_EXCEPTION_STACK disabled */
        addi  sp, sp, 76
   400f4:	dec01304 	addi	sp,sp,76

        /*
         * Return to the interrupted instruction.
         */

        eret
   400f8:	ef80083a 	eret

000400fc <alt_irq_handler>:
 * instruction is present if the macro ALT_CI_INTERRUPT_VECTOR defined.
 */

void alt_irq_handler (void) __attribute__ ((section (".exceptions")));
void alt_irq_handler (void)
{
   400fc:	defff904 	addi	sp,sp,-28
   40100:	dfc00615 	stw	ra,24(sp)
   40104:	df000515 	stw	fp,20(sp)
   40108:	df000504 	addi	fp,sp,20
  
  /*
   * Notify the operating system that we are at interrupt level.
   */ 
  
  ALT_OS_INT_ENTER();
   4010c:	0001883a 	nop
#ifndef NIOS2_EIC_PRESENT
static ALT_INLINE alt_u32 ALT_ALWAYS_INLINE alt_irq_pending (void)
{
  alt_u32 active;

  NIOS2_READ_IPENDING (active);
   40110:	0005313a 	rdctl	r2,ipending
   40114:	e0bffc15 	stw	r2,-16(fp)

  return active;
   40118:	e0bffc17 	ldw	r2,-16(fp)
   * Consider the case where the high priority interupt is asserted during
   * the interrupt entry sequence for a lower priority interrupt to see why
   * this is the case.
   */

  active = alt_irq_pending ();
   4011c:	e0bfff15 	stw	r2,-4(fp)

  do
  {
    i = 0;
   40120:	e03ffd15 	stw	zero,-12(fp)
    mask = 1;
   40124:	00800044 	movi	r2,1
   40128:	e0bffe15 	stw	r2,-8(fp)
     * called to clear the interrupt condition.
     */

    do
    {
      if (active & mask)
   4012c:	e0ffff17 	ldw	r3,-4(fp)
   40130:	e0bffe17 	ldw	r2,-8(fp)
   40134:	1884703a 	and	r2,r3,r2
   40138:	10001226 	beq	r2,zero,40184 <alt_irq_handler+0x88>
      { 
#ifdef ALT_ENHANCED_INTERRUPT_API_PRESENT
        alt_irq[i].handler(alt_irq[i].context); 
#else
        alt_irq[i].handler(alt_irq[i].context, i); 
   4013c:	e0bffd17 	ldw	r2,-12(fp)
   40140:	100690fa 	slli	r3,r2,3
   40144:	008001b4 	movhi	r2,6
   40148:	1885883a 	add	r2,r3,r2
   4014c:	10e45317 	ldw	r3,-28340(r2)
   40150:	e0bffd17 	ldw	r2,-12(fp)
   40154:	100890fa 	slli	r4,r2,3
   40158:	008001b4 	movhi	r2,6
   4015c:	2085883a 	add	r2,r4,r2
   40160:	10a45417 	ldw	r2,-28336(r2)
   40164:	e17ffd17 	ldw	r5,-12(fp)
   40168:	1009883a 	mov	r4,r2
   4016c:	183ee83a 	callr	r3
#endif
        break;
   40170:	0001883a 	nop
  NIOS2_READ_IPENDING (active);
   40174:	0005313a 	rdctl	r2,ipending
   40178:	e0bffb15 	stw	r2,-20(fp)
  return active;
   4017c:	e0bffb17 	ldw	r2,-20(fp)
   40180:	00000706 	br	401a0 <alt_irq_handler+0xa4>
      }
      mask <<= 1;
   40184:	e0bffe17 	ldw	r2,-8(fp)
   40188:	1085883a 	add	r2,r2,r2
   4018c:	e0bffe15 	stw	r2,-8(fp)
      i++;
   40190:	e0bffd17 	ldw	r2,-12(fp)
   40194:	10800044 	addi	r2,r2,1
   40198:	e0bffd15 	stw	r2,-12(fp)
      if (active & mask)
   4019c:	003fe306 	br	4012c <alt_irq_handler+0x30>

    } while (1);

    active = alt_irq_pending ();
   401a0:	e0bfff15 	stw	r2,-4(fp)
    
  } while (active);
   401a4:	e0bfff17 	ldw	r2,-4(fp)
   401a8:	103fdd1e 	bne	r2,zero,40120 <alt_irq_handler+0x24>

  /*
   * Notify the operating system that interrupt processing is complete.
   */ 

  ALT_OS_INT_EXIT();
   401ac:	0001883a 	nop
}
   401b0:	0001883a 	nop
   401b4:	e037883a 	mov	sp,fp
   401b8:	dfc00117 	ldw	ra,4(sp)
   401bc:	df000017 	ldw	fp,0(sp)
   401c0:	dec00204 	addi	sp,sp,8
   401c4:	f800283a 	ret

000401c8 <alt_instruction_exception_entry>:
 * that handler if it has been registered. Absent a handler, it will
 * break break or hang as discussed below.
 */
int 
alt_instruction_exception_entry (alt_u32 exception_pc)
{
   401c8:	defffb04 	addi	sp,sp,-20
   401cc:	dfc00415 	stw	ra,16(sp)
   401d0:	df000315 	stw	fp,12(sp)
   401d4:	df000304 	addi	fp,sp,12
   401d8:	e13ffd15 	stw	r4,-12(fp)
  cause = ( (cause & NIOS2_EXCEPTION_REG_CAUSE_MASK) >>
              NIOS2_EXCEPTION_REG_CAUSE_OFST );

  NIOS2_READ_BADADDR(badaddr);
#else
  cause = NIOS2_EXCEPTION_CAUSE_NOT_PRESENT;
   401dc:	00bfffc4 	movi	r2,-1
   401e0:	e0bfff15 	stw	r2,-4(fp)
  badaddr = 0;
   401e4:	e03ffe15 	stw	zero,-8(fp)
#endif /* NIOS2_HAS_EXTRA_EXCEPTION_INFO */

  if(alt_instruction_exception_handler) {
   401e8:	d0a71d17 	ldw	r2,-25484(gp)
   401ec:	10000726 	beq	r2,zero,4020c <alt_instruction_exception_entry+0x44>
     * Call handler. Its return value indicates whether the exception-causing
     * instruction should be re-issued. The code that called us,
     * alt_eceptions_entry.S, will look at this value and adjust the ea
     * register as necessary
     */
    return alt_instruction_exception_handler(cause, exception_pc, badaddr);
   401f0:	d0a71d17 	ldw	r2,-25484(gp)
   401f4:	e0ffff17 	ldw	r3,-4(fp)
   401f8:	e1bffe17 	ldw	r6,-8(fp)
   401fc:	e17ffd17 	ldw	r5,-12(fp)
   40200:	1809883a 	mov	r4,r3
   40204:	103ee83a 	callr	r2
   40208:	00000206 	br	40214 <alt_instruction_exception_entry+0x4c>
   *    (a peripheral which negates its interrupt output before its
   *    interrupt handler has been executed will cause spurious interrupts)
   */
  else {
#ifdef NIOS2_HAS_DEBUG_STUB
    NIOS2_BREAK();
   4020c:	003da03a 	break	0
      ;
#endif /* NIOS2_HAS_DEBUG_STUB */
  }

  /* We should not get here. Remove compiler warning. */
  return NIOS2_EXCEPTION_RETURN_REISSUE_INST;
   40210:	0005883a 	mov	r2,zero
}
   40214:	e037883a 	mov	sp,fp
   40218:	dfc00117 	ldw	ra,4(sp)
   4021c:	df000017 	ldw	fp,0(sp)
   40220:	dec00204 	addi	sp,sp,8
   40224:	f800283a 	ret

Disassembly of section .text:

00040228 <_start>:

    /*
     * Now that the caches are initialized, set up the stack pointer and global pointer.
     * The values provided by the linker are assumed to be correctly aligned.
     */
    movhi sp, %hi(__alt_stack_pointer)
   40228:	06c001b4 	movhi	sp,6
    ori sp, sp, %lo(__alt_stack_pointer)
   4022c:	ded27c14 	ori	sp,sp,18928
    movhi gp, %hi(_gp)
   40230:	06800174 	movhi	gp,5
    ori gp, gp, %lo(_gp)
   40234:	d6bd2b14 	ori	gp,gp,62636
 */
#ifndef ALT_SIM_OPTIMIZE
    /* Log that the BSS is about to be cleared. */
    ALT_LOG_PUTS(alt_log_msg_bss)

    movhi r2, %hi(__bss_start)
   40238:	00800174 	movhi	r2,5
    ori r2, r2, %lo(__bss_start)
   4023c:	10a43a14 	ori	r2,r2,37096

    movhi r3, %hi(__bss_end)
   40240:	00c00174 	movhi	r3,5
    ori r3, r3, %lo(__bss_end)
   40244:	18e49314 	ori	r3,r3,37452

    beq r2, r3, 1f
   40248:	10c00326 	beq	r2,r3,40258 <_start+0x30>

0:
    stw zero, (r2)
   4024c:	10000015 	stw	zero,0(r2)
    addi r2, r2, 4
   40250:	10800104 	addi	r2,r2,4
    bltu r2, r3, 0b
   40254:	10fffd36 	bltu	r2,r3,4024c <_start+0x24>
     * section aren't defined until alt_load() has been called).
     */
    mov   et, zero
#endif

    call alt_load
   40258:	00527c40 	call	527c4 <alt_load>

    /* Log that alt_main is about to be called. */
    ALT_LOG_PUTS(alt_log_msg_alt_main)

    /* Call the C entry point. It should never return. */
    call alt_main
   4025c:	00529640 	call	52964 <alt_main>

00040260 <alt_after_alt_main>:

    /* Wait in infinite loop in case alt_main does return. */
alt_after_alt_main:
    br alt_after_alt_main
   40260:	003fff06 	br	40260 <alt_after_alt_main>

00040264 <float_to_fixed>:


typedef int32_t fixed_32;


fixed_32 float_to_fixed(float x){
   40264:	defffd04 	addi	sp,sp,-12
   40268:	dfc00215 	stw	ra,8(sp)
   4026c:	df000115 	stw	fp,4(sp)
   40270:	df000104 	addi	fp,sp,4
   40274:	e13fff15 	stw	r4,-4(fp)

return (fixed_32)(round(x*(1<<FRACTION_BITS)));
   40278:	0152c034 	movhi	r5,19200
   4027c:	e13fff17 	ldw	r4,-4(fp)
   40280:	0040fb00 	call	40fb0 <__mulsf3>
   40284:	1007883a 	mov	r3,r2
   40288:	1805883a 	mov	r2,r3
   4028c:	1009883a 	mov	r4,r2
   40290:	0041ee80 	call	41ee8 <__extendsfdf2>
   40294:	100d883a 	mov	r6,r2
   40298:	180f883a 	mov	r7,r3
   4029c:	3009883a 	mov	r4,r6
   402a0:	380b883a 	mov	r5,r7
   402a4:	00408d40 	call	408d4 <round>
   402a8:	100d883a 	mov	r6,r2
   402ac:	180f883a 	mov	r7,r3
   402b0:	3009883a 	mov	r4,r6
   402b4:	380b883a 	mov	r5,r7
   402b8:	0041e680 	call	41e68 <__fixdfsi>

}
   402bc:	e037883a 	mov	sp,fp
   402c0:	dfc00117 	ldw	ra,4(sp)
   402c4:	df000017 	ldw	fp,0(sp)
   402c8:	dec00204 	addi	sp,sp,8
   402cc:	f800283a 	ret

000402d0 <fixed_to_float>:


float fixed_to_float(fixed_32 fixed){
   402d0:	defffd04 	addi	sp,sp,-12
   402d4:	dfc00215 	stw	ra,8(sp)
   402d8:	df000115 	stw	fp,4(sp)
   402dc:	df000104 	addi	fp,sp,4
   402e0:	e13fff15 	stw	r4,-4(fp)

return ((float)fixed / (float)(1 << FRACTION_BITS));
   402e4:	e13fff17 	ldw	r4,-4(fp)
   402e8:	004143c0 	call	4143c <__floatsisf>
   402ec:	1007883a 	mov	r3,r2
   402f0:	0152c034 	movhi	r5,19200
   402f4:	1809883a 	mov	r4,r3
   402f8:	0040b980 	call	40b98 <__divsf3>
   402fc:	1007883a 	mov	r3,r2
   40300:	1809883a 	mov	r4,r3
   40304:	2005883a 	mov	r2,r4

}
   40308:	e037883a 	mov	sp,fp
   4030c:	dfc00117 	ldw	ra,4(sp)
   40310:	df000017 	ldw	fp,0(sp)
   40314:	dec00204 	addi	sp,sp,8
   40318:	f800283a 	ret

0004031c <led_write>:

void led_write(alt_u8 led_pattern) {
   4031c:	defffe04 	addi	sp,sp,-8
   40320:	df000115 	stw	fp,4(sp)
   40324:	df000104 	addi	fp,sp,4
   40328:	2005883a 	mov	r2,r4
   4032c:	e0bfff05 	stb	r2,-4(fp)

    IOWR(LED_BASE, 0, led_pattern);
   40330:	e0ffff03 	ldbu	r3,-4(fp)
   40334:	00800234 	movhi	r2,8
   40338:	10c42035 	stwio	r3,4224(r2)
}
   4033c:	0001883a 	nop
   40340:	e037883a 	mov	sp,fp
   40344:	df000017 	ldw	fp,0(sp)
   40348:	dec00104 	addi	sp,sp,4
   4034c:	f800283a 	ret

00040350 <convert_read>:



void convert_read(alt_32 acc_read, int * level, alt_u8 * led) {
   40350:	defffb04 	addi	sp,sp,-20
   40354:	df000415 	stw	fp,16(sp)
   40358:	df000404 	addi	fp,sp,16
   4035c:	e13ffe15 	stw	r4,-8(fp)
   40360:	e17ffd15 	stw	r5,-12(fp)
   40364:	e1bffc15 	stw	r6,-16(fp)

    acc_read += OFFSET;
   40368:	e0bffe17 	ldw	r2,-8(fp)
   4036c:	10bff804 	addi	r2,r2,-32
   40370:	e0bffe15 	stw	r2,-8(fp)

    alt_u8 val = (acc_read >> 6) & 0x07;
   40374:	e0bffe17 	ldw	r2,-8(fp)
   40378:	1005d1ba 	srai	r2,r2,6
   4037c:	108001cc 	andi	r2,r2,7
   40380:	e0bfffc5 	stb	r2,-1(fp)

    * led = (8 >> val) | (8 << (8 - val));
   40384:	e0bfffc3 	ldbu	r2,-1(fp)
   40388:	00c00204 	movi	r3,8
   4038c:	1885d83a 	sra	r2,r3,r2
   40390:	1009883a 	mov	r4,r2
   40394:	e0bfffc3 	ldbu	r2,-1(fp)
   40398:	00c00204 	movi	r3,8
   4039c:	1885c83a 	sub	r2,r3,r2
   403a0:	00c00204 	movi	r3,8
   403a4:	1884983a 	sll	r2,r3,r2
   403a8:	2084b03a 	or	r2,r4,r2
   403ac:	1007883a 	mov	r3,r2
   403b0:	e0bffc17 	ldw	r2,-16(fp)
   403b4:	10c00005 	stb	r3,0(r2)

    * level = (acc_read >> 1) & 0x1f;
   403b8:	e0bffe17 	ldw	r2,-8(fp)
   403bc:	1005d07a 	srai	r2,r2,1
   403c0:	10c007cc 	andi	r3,r2,31
   403c4:	e0bffd17 	ldw	r2,-12(fp)
   403c8:	10c00015 	stw	r3,0(r2)

}
   403cc:	0001883a 	nop
   403d0:	e037883a 	mov	sp,fp
   403d4:	df000017 	ldw	fp,0(sp)
   403d8:	dec00104 	addi	sp,sp,4
   403dc:	f800283a 	ret

000403e0 <sys_timer_isr>:



void sys_timer_isr() {
   403e0:	defffe04 	addi	sp,sp,-8
   403e4:	dfc00115 	stw	ra,4(sp)
   403e8:	df000015 	stw	fp,0(sp)
   403ec:	d839883a 	mov	fp,sp

    IOWR_ALTERA_AVALON_TIMER_STATUS(TIMER_BASE, 0);
   403f0:	0007883a 	mov	r3,zero
   403f4:	00800234 	movhi	r2,8
   403f8:	10c40035 	stwio	r3,4096(r2)
    if (pwm < abs(level)) {
   403fc:	d0a70f03 	ldbu	r2,-25540(gp)
   40400:	10c03fcc 	andi	r3,r2,255
   40404:	18c0201c 	xori	r3,r3,128
   40408:	18ffe004 	addi	r3,r3,-128
   4040c:	d0a71017 	ldw	r2,-25536(gp)
   40410:	1000010e 	bge	r2,zero,40418 <sys_timer_isr+0x38>
   40414:	0085c83a 	sub	r2,zero,r2
   40418:	18800f0e 	bge	r3,r2,40458 <sys_timer_isr+0x78>
        if (level < 0) {
   4041c:	d0a71017 	ldw	r2,-25536(gp)
   40420:	1000060e 	bge	r2,zero,4043c <sys_timer_isr+0x5c>
            led_write(led << 1);
   40424:	d0a70f43 	ldbu	r2,-25539(gp)
   40428:	1085883a 	add	r2,r2,r2
   4042c:	10803fcc 	andi	r2,r2,255
   40430:	1009883a 	mov	r4,r2
   40434:	004031c0 	call	4031c <led_write>
   40438:	00000b06 	br	40468 <sys_timer_isr+0x88>
        }else{
            led_write(led >> 1);
   4043c:	d0a70f43 	ldbu	r2,-25539(gp)
   40440:	10803fcc 	andi	r2,r2,255
   40444:	1004d07a 	srli	r2,r2,1
   40448:	10803fcc 	andi	r2,r2,255
   4044c:	1009883a 	mov	r4,r2
   40450:	004031c0 	call	4031c <led_write>
   40454:	00000406 	br	40468 <sys_timer_isr+0x88>
        	}

    } else {

        led_write(led);
   40458:	d0a70f43 	ldbu	r2,-25539(gp)
   4045c:	10803fcc 	andi	r2,r2,255
   40460:	1009883a 	mov	r4,r2
   40464:	004031c0 	call	4031c <led_write>

    }
    if (pwm > PWM_PERIOD) {
   40468:	d0a70f03 	ldbu	r2,-25540(gp)
   4046c:	10803fcc 	andi	r2,r2,255
   40470:	1080201c 	xori	r2,r2,128
   40474:	10bfe004 	addi	r2,r2,-128
   40478:	10800450 	cmplti	r2,r2,17
   4047c:	1000021e 	bne	r2,zero,40488 <sys_timer_isr+0xa8>
        pwm = 0;
   40480:	d0270f05 	stb	zero,-25540(gp)
    } else {
        pwm++;
    }
}
   40484:	00000306 	br	40494 <sys_timer_isr+0xb4>
        pwm++;
   40488:	d0a70f03 	ldbu	r2,-25540(gp)
   4048c:	10800044 	addi	r2,r2,1
   40490:	d0a70f05 	stb	r2,-25540(gp)
}
   40494:	0001883a 	nop
   40498:	e037883a 	mov	sp,fp
   4049c:	dfc00117 	ldw	ra,4(sp)
   404a0:	df000017 	ldw	fp,0(sp)
   404a4:	dec00204 	addi	sp,sp,8
   404a8:	f800283a 	ret

000404ac <timer_init>:



void timer_init(void * isr) {
   404ac:	defffd04 	addi	sp,sp,-12
   404b0:	dfc00215 	stw	ra,8(sp)
   404b4:	df000115 	stw	fp,4(sp)
   404b8:	df000104 	addi	fp,sp,4
   404bc:	e13fff15 	stw	r4,-4(fp)

    IOWR_ALTERA_AVALON_TIMER_CONTROL(TIMER_BASE, 0x0003);
   404c0:	00c000c4 	movi	r3,3
   404c4:	00800234 	movhi	r2,8
   404c8:	10c40135 	stwio	r3,4100(r2)

    IOWR_ALTERA_AVALON_TIMER_STATUS(TIMER_BASE, 0);
   404cc:	0007883a 	mov	r3,zero
   404d0:	00800234 	movhi	r2,8
   404d4:	10c40035 	stwio	r3,4096(r2)

    IOWR_ALTERA_AVALON_TIMER_PERIODL(TIMER_BASE, 0x0900);
   404d8:	00c24004 	movi	r3,2304
   404dc:	00800234 	movhi	r2,8
   404e0:	10c40235 	stwio	r3,4104(r2)

    IOWR_ALTERA_AVALON_TIMER_PERIODH(TIMER_BASE, 0x0000);
   404e4:	0007883a 	mov	r3,zero
   404e8:	00800234 	movhi	r2,8
   404ec:	10c40335 	stwio	r3,4108(r2)

    alt_irq_register(TIMER_IRQ, 0, isr);
   404f0:	e0bfff17 	ldw	r2,-4(fp)
   404f4:	100d883a 	mov	r6,r2
   404f8:	000b883a 	mov	r5,zero
   404fc:	0009883a 	mov	r4,zero
   40500:	00523c40 	call	523c4 <alt_irq_register>

    IOWR_ALTERA_AVALON_TIMER_CONTROL(TIMER_BASE, 0x0007);
   40504:	00c001c4 	movi	r3,7
   40508:	00800234 	movhi	r2,8
   4050c:	10c40135 	stwio	r3,4100(r2)

}
   40510:	0001883a 	nop
   40514:	e037883a 	mov	sp,fp
   40518:	dfc00117 	ldw	ra,4(sp)
   4051c:	df000017 	ldw	fp,0(sp)
   40520:	dec00204 	addi	sp,sp,8
   40524:	f800283a 	ret

00040528 <FIR>:



alt_32 FIR(fixed_32 coeffs[], alt_32 *x){
   40528:	defffa04 	addi	sp,sp,-24
   4052c:	dfc00515 	stw	ra,20(sp)
   40530:	df000415 	stw	fp,16(sp)
   40534:	df000404 	addi	fp,sp,16
   40538:	e13ffd15 	stw	r4,-12(fp)
   4053c:	e17ffc15 	stw	r5,-16(fp)

	fixed_32 tmp=0;
   40540:	e03fff15 	stw	zero,-4(fp)

	for(int i = 0; i < F_ORDER;i++){
   40544:	e03ffe15 	stw	zero,-8(fp)
   40548:	00001306 	br	40598 <FIR+0x70>

		tmp+=coeffs[i]*x[i];
   4054c:	e0bffe17 	ldw	r2,-8(fp)
   40550:	100490ba 	slli	r2,r2,2
   40554:	e0fffd17 	ldw	r3,-12(fp)
   40558:	1885883a 	add	r2,r3,r2
   4055c:	11000017 	ldw	r4,0(r2)
   40560:	e0bffe17 	ldw	r2,-8(fp)
   40564:	100490ba 	slli	r2,r2,2
   40568:	e0fffc17 	ldw	r3,-16(fp)
   4056c:	1885883a 	add	r2,r3,r2
   40570:	10800017 	ldw	r2,0(r2)
   40574:	100b883a 	mov	r5,r2
   40578:	0040b700 	call	40b70 <__mulsi3>
   4057c:	1007883a 	mov	r3,r2
   40580:	e0bfff17 	ldw	r2,-4(fp)
   40584:	10c5883a 	add	r2,r2,r3
   40588:	e0bfff15 	stw	r2,-4(fp)
	for(int i = 0; i < F_ORDER;i++){
   4058c:	e0bffe17 	ldw	r2,-8(fp)
   40590:	10800044 	addi	r2,r2,1
   40594:	e0bffe15 	stw	r2,-8(fp)
   40598:	e0bffe17 	ldw	r2,-8(fp)
   4059c:	10800c50 	cmplti	r2,r2,49
   405a0:	103fea1e 	bne	r2,zero,4054c <FIR+0x24>

// printf("%d: %ld\n", i, (alt_32)tmp);

}
// printf("%ld\n", (alt_32)tmp);
	tmp=fixed_to_float(tmp);
   405a4:	e13fff17 	ldw	r4,-4(fp)
   405a8:	00402d00 	call	402d0 <fixed_to_float>
   405ac:	1007883a 	mov	r3,r2
   405b0:	1809883a 	mov	r4,r3
   405b4:	00413cc0 	call	413cc <__fixsfsi>
   405b8:	e0bfff15 	stw	r2,-4(fp)
	return (alt_32)tmp;
   405bc:	e0bfff17 	ldw	r2,-4(fp)
}
   405c0:	e037883a 	mov	sp,fp
   405c4:	dfc00117 	ldw	ra,4(sp)
   405c8:	df000017 	ldw	fp,0(sp)
   405cc:	dec00204 	addi	sp,sp,8
   405d0:	f800283a 	ret

000405d4 <print_text>:



void print_text(char *text, const int length) {
   405d4:	defffa04 	addi	sp,sp,-24
   405d8:	dfc00515 	stw	ra,20(sp)
   405dc:	df000415 	stw	fp,16(sp)
   405e0:	df000404 	addi	fp,sp,16
   405e4:	e13ffe15 	stw	r4,-8(fp)
   405e8:	e17ffd15 	stw	r5,-12(fp)
	char *printMsg;
	asprintf(&printMsg, "<--> Detected %d characters: %s <--> \n %c", length, text, 0x4); 	// Print out the strings
   405ec:	e0ffff04 	addi	r3,fp,-4
   405f0:	00800104 	movi	r2,4
   405f4:	d8800015 	stw	r2,0(sp)
   405f8:	e1fffe17 	ldw	r7,-8(fp)
   405fc:	e1bffd17 	ldw	r6,-12(fp)
   40600:	01400174 	movhi	r5,5
   40604:	29544204 	addi	r5,r5,20744
   40608:	1809883a 	mov	r4,r3
   4060c:	00420940 	call	42094 <asprintf>
	alt_putstr(printMsg);
   40610:	e0bfff17 	ldw	r2,-4(fp)
   40614:	1009883a 	mov	r4,r2
   40618:	0052a280 	call	52a28 <alt_putstr>
	free(printMsg);
   4061c:	e0bfff17 	ldw	r2,-4(fp)
   40620:	1009883a 	mov	r4,r2
   40624:	00421140 	call	42114 <free>
	memset(text, 0, 2*CHARLIM);								// Empty the text buffer for next input
   40628:	01808004 	movi	r6,512
   4062c:	000b883a 	mov	r5,zero
   40630:	e13ffe17 	ldw	r4,-8(fp)
   40634:	00429d80 	call	429d8 <memset>
}
   40638:	0001883a 	nop
   4063c:	e037883a 	mov	sp,fp
   40640:	dfc00117 	ldw	ra,4(sp)
   40644:	df000017 	ldw	fp,0(sp)
   40648:	dec00204 	addi	sp,sp,8
   4064c:	f800283a 	ret

00040650 <generate_text>:

char generate_text(char curr, int *length, char *text, int *running) {
   40650:	defff804 	addi	sp,sp,-32
   40654:	dfc00715 	stw	ra,28(sp)
   40658:	df000615 	stw	fp,24(sp)
   4065c:	df000604 	addi	fp,sp,24
   40660:	2005883a 	mov	r2,r4
   40664:	e17ffc15 	stw	r5,-16(fp)
   40668:	e1bffb15 	stw	r6,-20(fp)
   4066c:	e1fffa15 	stw	r7,-24(fp)
   40670:	e0bffd05 	stb	r2,-12(fp)
	if(curr == '\n') return curr;								// If the line is empty, return nothing.
   40674:	e0bffd07 	ldb	r2,-12(fp)
   40678:	10800298 	cmpnei	r2,r2,10
   4067c:	1000021e 	bne	r2,zero,40688 <generate_text+0x38>
   40680:	e0bffd03 	ldbu	r2,-12(fp)
   40684:	00001d06 	br	406fc <generate_text+0xac>
	int idx = 0;										// Keep track of how many characters have been sent down for later printing
   40688:	e03fff15 	stw	zero,-4(fp)
	char newCurr = curr;
   4068c:	e0bffd03 	ldbu	r2,-12(fp)
   40690:	e0bffec5 	stb	r2,-5(fp)

	while (newCurr != EOF && newCurr != '\n'){						// Keep reading characters until we get to the end of the line
   40694:	00000f06 	br	406d4 <generate_text+0x84>
		if (newCurr == QUITLETTER) { *running = 0; }					// If quitting letter is encountered, setting running to 0
   40698:	e0bffec7 	ldb	r2,-5(fp)
   4069c:	10801f98 	cmpnei	r2,r2,126
   406a0:	1000021e 	bne	r2,zero,406ac <generate_text+0x5c>
   406a4:	e0bffa17 	ldw	r2,-24(fp)
   406a8:	10000015 	stw	zero,0(r2)
		text[idx] = newCurr;								// Add the next letter to the text buffer
   406ac:	e0bfff17 	ldw	r2,-4(fp)
   406b0:	e0fffb17 	ldw	r3,-20(fp)
   406b4:	1885883a 	add	r2,r3,r2
   406b8:	e0fffec3 	ldbu	r3,-5(fp)
   406bc:	10c00005 	stb	r3,0(r2)
		idx++;										// Keep track of the number of characters read
   406c0:	e0bfff17 	ldw	r2,-4(fp)
   406c4:	10800044 	addi	r2,r2,1
   406c8:	e0bfff15 	stw	r2,-4(fp)
		newCurr = alt_getchar();							// Get the next character
   406cc:	005237c0 	call	5237c <alt_getchar>
   406d0:	e0bffec5 	stb	r2,-5(fp)
	while (newCurr != EOF && newCurr != '\n'){						// Keep reading characters until we get to the end of the line
   406d4:	e0bffec7 	ldb	r2,-5(fp)
   406d8:	10bfffe0 	cmpeqi	r2,r2,-1
   406dc:	1000031e 	bne	r2,zero,406ec <generate_text+0x9c>
   406e0:	e0bffec7 	ldb	r2,-5(fp)
   406e4:	10800298 	cmpnei	r2,r2,10
   406e8:	103feb1e 	bne	r2,zero,40698 <generate_text+0x48>
	}
	*length = idx;
   406ec:	e0bffc17 	ldw	r2,-16(fp)
   406f0:	e0ffff17 	ldw	r3,-4(fp)
   406f4:	10c00015 	stw	r3,0(r2)

	return newCurr;
   406f8:	e0bffec3 	ldbu	r2,-5(fp)
}
   406fc:	e037883a 	mov	sp,fp
   40700:	dfc00117 	ldw	ra,4(sp)
   40704:	df000017 	ldw	fp,0(sp)
   40708:	dec00204 	addi	sp,sp,8
   4070c:	f800283a 	ret

00040710 <read_chars>:

int read_chars() {
   40710:	deff7b04 	addi	sp,sp,-532
   40714:	dfc08415 	stw	ra,528(sp)
   40718:	df008315 	stw	fp,524(sp)
   4071c:	df008304 	addi	fp,sp,524
	char text[2*CHARLIM];									// The buffer for the printing text
	char prevLetter = '!';
   40720:	00800844 	movi	r2,33
   40724:	e0bfffc5 	stb	r2,-1(fp)
	int length = 0;
   40728:	e03f7e15 	stw	zero,-520(fp)
	int running = 1;
   4072c:	00800044 	movi	r2,1
   40730:	e0bf7d15 	stw	r2,-524(fp)

	while (running) {									// Keep running until QUITLETTER is encountered
   40734:	00001106 	br	4077c <read_chars+0x6c>
		prevLetter = alt_getchar();							// Extract the first character (and create a hold until one arrives)
   40738:	005237c0 	call	5237c <alt_getchar>
   4073c:	e0bfffc5 	stb	r2,-1(fp)
		prevLetter = generate_text(prevLetter, &length, text, &running);		// Process input text
   40740:	e0bfffc7 	ldb	r2,-1(fp)
   40744:	e17f7d04 	addi	r5,fp,-524
   40748:	e13f7fc4 	addi	r4,fp,-513
   4074c:	e0ff7e04 	addi	r3,fp,-520
   40750:	280f883a 	mov	r7,r5
   40754:	200d883a 	mov	r6,r4
   40758:	180b883a 	mov	r5,r3
   4075c:	1009883a 	mov	r4,r2
   40760:	00406500 	call	40650 <generate_text>
   40764:	e0bfffc5 	stb	r2,-1(fp)
		print_text(text, length);							// Print input text
   40768:	e0ff7e17 	ldw	r3,-520(fp)
   4076c:	e0bf7fc4 	addi	r2,fp,-513
   40770:	180b883a 	mov	r5,r3
   40774:	1009883a 	mov	r4,r2
   40778:	00405d40 	call	405d4 <print_text>
	while (running) {									// Keep running until QUITLETTER is encountered
   4077c:	e0bf7d17 	ldw	r2,-524(fp)
   40780:	103fed1e 	bne	r2,zero,40738 <read_chars+0x28>
	}

	return 0;
   40784:	0005883a 	mov	r2,zero
}
   40788:	e037883a 	mov	sp,fp
   4078c:	dfc00117 	ldw	ra,4(sp)
   40790:	df000017 	ldw	fp,0(sp)
   40794:	dec00204 	addi	sp,sp,8
   40798:	f800283a 	ret

0004079c <main>:

int main(){
   4079c:	deffc404 	addi	sp,sp,-240
   407a0:	dfc03b15 	stw	ra,236(sp)
   407a4:	df003a15 	stw	fp,232(sp)
   407a8:	df003a04 	addi	fp,sp,232
	alt_u32 exec_t2;
	fixed_32 coeffs[]={24538,25771,29318,35140,43158,53256,65279,79042,94325,110883,128450,146737,165444,184263,202883,220992,238291,254488,269314,282519,293881,303209,310346,315172,317606,317606,315172,310346,303209,293881,282519,269314,254488,238291,220992,202883,184263,165444,146737,128450,110883,94325,79042,65279,53256,43158,35140,29318,25771,24538};
   407ac:	e0ffca04 	addi	r3,fp,-216
   407b0:	00800174 	movhi	r2,5
   407b4:	10945d04 	addi	r2,r2,20852
   407b8:	01003204 	movi	r4,200
   407bc:	200d883a 	mov	r6,r4
   407c0:	100b883a 	mov	r5,r2
   407c4:	1809883a 	mov	r4,r3
   407c8:	00428d80 	call	428d8 <memcpy>
	alt_32 *x = malloc(F_ORDER*sizeof(alt_32));
   407cc:	01003104 	movi	r4,196
   407d0:	00421040 	call	42104 <malloc>
   407d4:	e0bffe15 	stw	r2,-8(fp)
	alt_32 x_read;
    alt_32 y_read;
    alt_32 z_read;
    int n = 0;
   407d8:	e03fff15 	stw	zero,-4(fp)
    alt_up_accelerometer_spi_dev * acc_dev;
    acc_dev = alt_up_accelerometer_spi_open_dev("/dev/accelerometer_spi");
   407dc:	01000174 	movhi	r4,5
   407e0:	21144d04 	addi	r4,r4,20788
   407e4:	0053a680 	call	53a68 <alt_up_accelerometer_spi_open_dev>
   407e8:	e0bffd15 	stw	r2,-12(fp)

    if (acc_dev == NULL) { // if return 1, check if the spi ip name is "accelerometer_spi"
   407ec:	e0bffd17 	ldw	r2,-12(fp)
   407f0:	1000021e 	bne	r2,zero,407fc <main+0x60>
        return 1;
   407f4:	00800044 	movi	r2,1
   407f8:	00003106 	br	408c0 <main+0x124>
    }

    timer_init(sys_timer_isr);
   407fc:	01000134 	movhi	r4,4
   40800:	2100f804 	addi	r4,r4,992
   40804:	00404ac0 	call	404ac <timer_init>
    //printf("filt\n");
    printf("x_axis,y_axis,z_axis\n%c",0x4);
   40808:	01400104 	movi	r5,4
   4080c:	01000174 	movhi	r4,5
   40810:	21145304 	addi	r4,r4,20812
   40814:	0042b480 	call	42b48 <printf>
    while (1) {
        alt_up_accelerometer_spi_read_x_axis(acc_dev, & x_read);
   40818:	e0bfc904 	addi	r2,fp,-220
   4081c:	100b883a 	mov	r5,r2
   40820:	e13ffd17 	ldw	r4,-12(fp)
   40824:	0053bb80 	call	53bb8 <alt_up_accelerometer_spi_read_x_axis>
        alt_up_accelerometer_spi_read_y_axis(acc_dev, & y_read);
   40828:	e0bfc804 	addi	r2,fp,-224
   4082c:	100b883a 	mov	r5,r2
   40830:	e13ffd17 	ldw	r4,-12(fp)
   40834:	0053c8c0 	call	53c8c <alt_up_accelerometer_spi_read_y_axis>
        alt_up_accelerometer_spi_read_z_axis(acc_dev, & z_read);
   40838:	e0bfc704 	addi	r2,fp,-228
   4083c:	100b883a 	mov	r5,r2
   40840:	e13ffd17 	ldw	r4,-12(fp)
   40844:	0053d600 	call	53d60 <alt_up_accelerometer_spi_read_z_axis>
        //}
        //x[0] = x_read;
        //alt_32 y = FIR(coeffs, x);
        //printf("%ld\n",y);
        // alt_printf("raw data: %x\n", x_read);
        printf("%ld,%ld,%ld\n%c",x_read,y_read,z_read,0x4);
   40848:	e0ffc917 	ldw	r3,-220(fp)
   4084c:	e13fc817 	ldw	r4,-224(fp)
   40850:	e17fc717 	ldw	r5,-228(fp)
   40854:	00800104 	movi	r2,4
   40858:	d8800015 	stw	r2,0(sp)
   4085c:	280f883a 	mov	r7,r5
   40860:	200d883a 	mov	r6,r4
   40864:	180b883a 	mov	r5,r3
   40868:	01000174 	movhi	r4,5
   4086c:	21145904 	addi	r4,r4,20836
   40870:	0042b480 	call	42b48 <printf>
        convert_read((x_read+y_read+z_read)/3, & level, & led);
   40874:	e0ffc917 	ldw	r3,-220(fp)
   40878:	e0bfc817 	ldw	r2,-224(fp)
   4087c:	1887883a 	add	r3,r3,r2
   40880:	e0bfc717 	ldw	r2,-228(fp)
   40884:	1885883a 	add	r2,r3,r2
   40888:	014000c4 	movi	r5,3
   4088c:	1009883a 	mov	r4,r2
   40890:	00409bc0 	call	409bc <__divsi3>
   40894:	d1a70f44 	addi	r6,gp,-25539
   40898:	d1671004 	addi	r5,gp,-25536
   4089c:	1009883a 	mov	r4,r2
   408a0:	00403500 	call	40350 <convert_read>
        int l=read_chars();
   408a4:	00407100 	call	40710 <read_chars>
   408a8:	e0bffc15 	stw	r2,-16(fp)
        n++;
   408ac:	e0bfff17 	ldw	r2,-4(fp)
   408b0:	10800044 	addi	r2,r2,1
   408b4:	e0bfff15 	stw	r2,-4(fp)
    while (1) {
   408b8:	0001883a 	nop
   408bc:	003fd606 	br	40818 <main+0x7c>
    }

    free(x);

    return 0;
}
   408c0:	e037883a 	mov	sp,fp
   408c4:	dfc00117 	ldw	ra,4(sp)
   408c8:	df000017 	ldw	fp,0(sp)
   408cc:	dec00204 	addi	sp,sp,8
   408d0:	f800283a 	ret

000408d4 <round>:
   408d4:	280fd53a 	srai	r7,r5,20
   408d8:	2807883a 	mov	r3,r5
   408dc:	2005883a 	mov	r2,r4
   408e0:	39c1ffcc 	andi	r7,r7,2047
   408e4:	39bf0044 	addi	r6,r7,-1023
   408e8:	32000508 	cmpgei	r8,r6,20
   408ec:	4000141e 	bne	r8,zero,40940 <round+0x6c>
   408f0:	30000716 	blt	r6,zero,40910 <round+0x3c>
   408f4:	01000434 	movhi	r4,16
   408f8:	213fffc4 	addi	r4,r4,-1
   408fc:	2189d83a 	sra	r4,r4,r6
   40900:	214a703a 	and	r5,r4,r5
   40904:	288ab03a 	or	r5,r5,r2
   40908:	2800061e 	bne	r5,zero,40924 <round+0x50>
   4090c:	f800283a 	ret
   40910:	31bfffd8 	cmpnei	r6,r6,-1
   40914:	28e0002c 	andhi	r3,r5,32768
   40918:	30002526 	beq	r6,zero,409b0 <round+0xdc>
   4091c:	0005883a 	mov	r2,zero
   40920:	f800283a 	ret
   40924:	01400234 	movhi	r5,8
   40928:	298bd83a 	sra	r5,r5,r6
   4092c:	0108303a 	nor	r4,zero,r4
   40930:	0005883a 	mov	r2,zero
   40934:	28cb883a 	add	r5,r5,r3
   40938:	2906703a 	and	r3,r5,r4
   4093c:	f800283a 	ret
   40940:	32000d10 	cmplti	r8,r6,52
   40944:	40000a1e 	bne	r8,zero,40970 <round+0x9c>
   40948:	31810018 	cmpnei	r6,r6,1024
   4094c:	303fef1e 	bne	r6,zero,4090c <round+0x38>
   40950:	deffff04 	addi	sp,sp,-4
   40954:	200d883a 	mov	r6,r4
   40958:	280f883a 	mov	r7,r5
   4095c:	dfc00015 	stw	ra,0(sp)
   40960:	00415640 	call	41564 <__adddf3>
   40964:	dfc00017 	ldw	ra,0(sp)
   40968:	dec00104 	addi	sp,sp,4
   4096c:	f800283a 	ret
   40970:	39fefb44 	addi	r7,r7,-1043
   40974:	013fffc4 	movi	r4,-1
   40978:	21c8d83a 	srl	r4,r4,r7
   4097c:	208a703a 	and	r5,r4,r2
   40980:	28000a26 	beq	r5,zero,409ac <round+0xd8>
   40984:	01400cc4 	movi	r5,51
   40988:	298dc83a 	sub	r6,r5,r6
   4098c:	01400044 	movi	r5,1
   40990:	298a983a 	sll	r5,r5,r6
   40994:	288b883a 	add	r5,r5,r2
   40998:	2880012e 	bgeu	r5,r2,409a0 <round+0xcc>
   4099c:	18c00044 	addi	r3,r3,1
   409a0:	0108303a 	nor	r4,zero,r4
   409a4:	2144703a 	and	r2,r4,r5
   409a8:	f800283a 	ret
   409ac:	f800283a 	ret
   409b0:	18cffc34 	orhi	r3,r3,16368
   409b4:	0005883a 	mov	r2,zero
   409b8:	f800283a 	ret

000409bc <__divsi3>:
   409bc:	20001a16 	blt	r4,zero,40a28 <__divsi3+0x6c>
   409c0:	000f883a 	mov	r7,zero
   409c4:	2800020e 	bge	r5,zero,409d0 <__divsi3+0x14>
   409c8:	014bc83a 	sub	r5,zero,r5
   409cc:	39c0005c 	xori	r7,r7,1
   409d0:	200d883a 	mov	r6,r4
   409d4:	00c00044 	movi	r3,1
   409d8:	2900092e 	bgeu	r5,r4,40a00 <__divsi3+0x44>
   409dc:	00800804 	movi	r2,32
   409e0:	00c00044 	movi	r3,1
   409e4:	00000106 	br	409ec <__divsi3+0x30>
   409e8:	10001226 	beq	r2,zero,40a34 <__divsi3+0x78>
   409ec:	294b883a 	add	r5,r5,r5
   409f0:	10bfffc4 	addi	r2,r2,-1
   409f4:	18c7883a 	add	r3,r3,r3
   409f8:	293ffb36 	bltu	r5,r4,409e8 <__divsi3+0x2c>
   409fc:	18000d26 	beq	r3,zero,40a34 <__divsi3+0x78>
   40a00:	0005883a 	mov	r2,zero
   40a04:	31400236 	bltu	r6,r5,40a10 <__divsi3+0x54>
   40a08:	314dc83a 	sub	r6,r6,r5
   40a0c:	10c4b03a 	or	r2,r2,r3
   40a10:	1806d07a 	srli	r3,r3,1
   40a14:	280ad07a 	srli	r5,r5,1
   40a18:	183ffa1e 	bne	r3,zero,40a04 <__divsi3+0x48>
   40a1c:	38000126 	beq	r7,zero,40a24 <__divsi3+0x68>
   40a20:	0085c83a 	sub	r2,zero,r2
   40a24:	f800283a 	ret
   40a28:	0109c83a 	sub	r4,zero,r4
   40a2c:	01c00044 	movi	r7,1
   40a30:	003fe406 	br	409c4 <__divsi3+0x8>
   40a34:	0005883a 	mov	r2,zero
   40a38:	003ff806 	br	40a1c <__divsi3+0x60>

00040a3c <__modsi3>:
   40a3c:	20001716 	blt	r4,zero,40a9c <__modsi3+0x60>
   40a40:	000f883a 	mov	r7,zero
   40a44:	2005883a 	mov	r2,r4
   40a48:	2800010e 	bge	r5,zero,40a50 <__modsi3+0x14>
   40a4c:	014bc83a 	sub	r5,zero,r5
   40a50:	00c00044 	movi	r3,1
   40a54:	2900092e 	bgeu	r5,r4,40a7c <__modsi3+0x40>
   40a58:	01800804 	movi	r6,32
   40a5c:	00c00044 	movi	r3,1
   40a60:	00000106 	br	40a68 <__modsi3+0x2c>
   40a64:	30001026 	beq	r6,zero,40aa8 <__modsi3+0x6c>
   40a68:	294b883a 	add	r5,r5,r5
   40a6c:	31bfffc4 	addi	r6,r6,-1
   40a70:	18c7883a 	add	r3,r3,r3
   40a74:	293ffb36 	bltu	r5,r4,40a64 <__modsi3+0x28>
   40a78:	18000b26 	beq	r3,zero,40aa8 <__modsi3+0x6c>
   40a7c:	1806d07a 	srli	r3,r3,1
   40a80:	11400136 	bltu	r2,r5,40a88 <__modsi3+0x4c>
   40a84:	1145c83a 	sub	r2,r2,r5
   40a88:	280ad07a 	srli	r5,r5,1
   40a8c:	183ffb1e 	bne	r3,zero,40a7c <__modsi3+0x40>
   40a90:	38000126 	beq	r7,zero,40a98 <__modsi3+0x5c>
   40a94:	0085c83a 	sub	r2,zero,r2
   40a98:	f800283a 	ret
   40a9c:	0109c83a 	sub	r4,zero,r4
   40aa0:	01c00044 	movi	r7,1
   40aa4:	003fe706 	br	40a44 <__modsi3+0x8>
   40aa8:	2005883a 	mov	r2,r4
   40aac:	003ff806 	br	40a90 <__modsi3+0x54>

00040ab0 <__udivsi3>:
   40ab0:	200d883a 	mov	r6,r4
   40ab4:	2900152e 	bgeu	r5,r4,40b0c <__udivsi3+0x5c>
   40ab8:	28001416 	blt	r5,zero,40b0c <__udivsi3+0x5c>
   40abc:	00800804 	movi	r2,32
   40ac0:	00c00044 	movi	r3,1
   40ac4:	00000206 	br	40ad0 <__udivsi3+0x20>
   40ac8:	10000e26 	beq	r2,zero,40b04 <__udivsi3+0x54>
   40acc:	28000416 	blt	r5,zero,40ae0 <__udivsi3+0x30>
   40ad0:	294b883a 	add	r5,r5,r5
   40ad4:	10bfffc4 	addi	r2,r2,-1
   40ad8:	18c7883a 	add	r3,r3,r3
   40adc:	293ffa36 	bltu	r5,r4,40ac8 <__udivsi3+0x18>
   40ae0:	18000826 	beq	r3,zero,40b04 <__udivsi3+0x54>
   40ae4:	0005883a 	mov	r2,zero
   40ae8:	31400236 	bltu	r6,r5,40af4 <__udivsi3+0x44>
   40aec:	314dc83a 	sub	r6,r6,r5
   40af0:	10c4b03a 	or	r2,r2,r3
   40af4:	1806d07a 	srli	r3,r3,1
   40af8:	280ad07a 	srli	r5,r5,1
   40afc:	183ffa1e 	bne	r3,zero,40ae8 <__udivsi3+0x38>
   40b00:	f800283a 	ret
   40b04:	0005883a 	mov	r2,zero
   40b08:	f800283a 	ret
   40b0c:	00c00044 	movi	r3,1
   40b10:	003ff406 	br	40ae4 <__udivsi3+0x34>

00040b14 <__umodsi3>:
   40b14:	2005883a 	mov	r2,r4
   40b18:	2900132e 	bgeu	r5,r4,40b68 <__umodsi3+0x54>
   40b1c:	28001216 	blt	r5,zero,40b68 <__umodsi3+0x54>
   40b20:	01800804 	movi	r6,32
   40b24:	00c00044 	movi	r3,1
   40b28:	00000206 	br	40b34 <__umodsi3+0x20>
   40b2c:	30000c26 	beq	r6,zero,40b60 <__umodsi3+0x4c>
   40b30:	28000416 	blt	r5,zero,40b44 <__umodsi3+0x30>
   40b34:	294b883a 	add	r5,r5,r5
   40b38:	31bfffc4 	addi	r6,r6,-1
   40b3c:	18c7883a 	add	r3,r3,r3
   40b40:	293ffa36 	bltu	r5,r4,40b2c <__umodsi3+0x18>
   40b44:	18000626 	beq	r3,zero,40b60 <__umodsi3+0x4c>
   40b48:	1806d07a 	srli	r3,r3,1
   40b4c:	11400136 	bltu	r2,r5,40b54 <__umodsi3+0x40>
   40b50:	1145c83a 	sub	r2,r2,r5
   40b54:	280ad07a 	srli	r5,r5,1
   40b58:	183ffb1e 	bne	r3,zero,40b48 <__umodsi3+0x34>
   40b5c:	f800283a 	ret
   40b60:	2005883a 	mov	r2,r4
   40b64:	f800283a 	ret
   40b68:	00c00044 	movi	r3,1
   40b6c:	003ff606 	br	40b48 <__umodsi3+0x34>

00040b70 <__mulsi3>:
   40b70:	0005883a 	mov	r2,zero
   40b74:	20000726 	beq	r4,zero,40b94 <__mulsi3+0x24>
   40b78:	20c0004c 	andi	r3,r4,1
   40b7c:	2008d07a 	srli	r4,r4,1
   40b80:	18000126 	beq	r3,zero,40b88 <__mulsi3+0x18>
   40b84:	1145883a 	add	r2,r2,r5
   40b88:	294b883a 	add	r5,r5,r5
   40b8c:	203ffa1e 	bne	r4,zero,40b78 <__mulsi3+0x8>
   40b90:	f800283a 	ret
   40b94:	f800283a 	ret

00040b98 <__divsf3>:
   40b98:	defff604 	addi	sp,sp,-40
   40b9c:	2006d5fa 	srli	r3,r4,23
   40ba0:	dcc00415 	stw	r19,16(sp)
   40ba4:	2026d7fa 	srli	r19,r4,31
   40ba8:	00802034 	movhi	r2,128
   40bac:	dd000515 	stw	r20,20(sp)
   40bb0:	dc400215 	stw	r17,8(sp)
   40bb4:	10bfffc4 	addi	r2,r2,-1
   40bb8:	dfc00915 	stw	ra,36(sp)
   40bbc:	ddc00815 	stw	r23,32(sp)
   40bc0:	dd800715 	stw	r22,28(sp)
   40bc4:	dd400615 	stw	r21,24(sp)
   40bc8:	dc800315 	stw	r18,12(sp)
   40bcc:	dc000115 	stw	r16,4(sp)
   40bd0:	18c03fcc 	andi	r3,r3,255
   40bd4:	1128703a 	and	r20,r2,r4
   40bd8:	9823883a 	mov	r17,r19
   40bdc:	18004d26 	beq	r3,zero,40d14 <__divsf3+0x17c>
   40be0:	18803fe0 	cmpeqi	r2,r3,255
   40be4:	1000501e 	bne	r2,zero,40d28 <__divsf3+0x190>
   40be8:	a00490fa 	slli	r2,r20,3
   40bec:	1d7fe044 	addi	r21,r3,-127
   40bf0:	0021883a 	mov	r16,zero
   40bf4:	15010034 	orhi	r20,r2,1024
   40bf8:	002f883a 	mov	r23,zero
   40bfc:	2806d5fa 	srli	r3,r5,23
   40c00:	01002034 	movhi	r4,128
   40c04:	213fffc4 	addi	r4,r4,-1
   40c08:	18c03fcc 	andi	r3,r3,255
   40c0c:	282cd7fa 	srli	r22,r5,31
   40c10:	2164703a 	and	r18,r4,r5
   40c14:	18002426 	beq	r3,zero,40ca8 <__divsf3+0x110>
   40c18:	18803fe0 	cmpeqi	r2,r3,255
   40c1c:	10001e1e 	bne	r2,zero,40c98 <__divsf3+0x100>
   40c20:	900890fa 	slli	r4,r18,3
   40c24:	18ffe044 	addi	r3,r3,-127
   40c28:	000b883a 	mov	r5,zero
   40c2c:	24810034 	orhi	r18,r4,1024
   40c30:	9da6f03a 	xor	r19,r19,r22
   40c34:	80800428 	cmpgeui	r2,r16,16
   40c38:	9809883a 	mov	r4,r19
   40c3c:	a8ebc83a 	sub	r21,r21,r3
   40c40:	1000b11e 	bne	r2,zero,40f08 <__divsf3+0x370>
   40c44:	802090ba 	slli	r16,r16,2
   40c48:	00800134 	movhi	r2,4
   40c4c:	8085883a 	add	r2,r16,r2
   40c50:	10831617 	ldw	r2,3160(r2)
   40c54:	1000683a 	jmp	r2
   40c58:	00040f08 	cmpgei	zero,zero,4156
   40c5c:	00040da8 	cmpgeui	zero,zero,4150
   40c60:	00040df4 	movhi	zero,4151
   40c64:	00040e28 	cmpgeui	zero,zero,4152
   40c68:	00040df4 	movhi	zero,4151
   40c6c:	00040e80 	call	40e8 <__reset-0x3bf18>
   40c70:	00040df4 	movhi	zero,4151
   40c74:	00040e28 	cmpgeui	zero,zero,4152
   40c78:	00040da8 	cmpgeui	zero,zero,4150
   40c7c:	00040da8 	cmpgeui	zero,zero,4150
   40c80:	00040e80 	call	40e8 <__reset-0x3bf18>
   40c84:	00040e28 	cmpgeui	zero,zero,4152
   40c88:	00040e04 	movi	zero,4152
   40c8c:	00040e04 	movi	zero,4152
   40c90:	00040e04 	movi	zero,4152
   40c94:	00040e94 	movui	zero,4154
   40c98:	90003f1e 	bne	r18,zero,40d98 <__divsf3+0x200>
   40c9c:	ad7fc044 	addi	r21,r21,-255
   40ca0:	00800084 	movi	r2,2
   40ca4:	00000206 	br	40cb0 <__divsf3+0x118>
   40ca8:	9000331e 	bne	r18,zero,40d78 <__divsf3+0x1e0>
   40cac:	00800044 	movi	r2,1
   40cb0:	1420b03a 	or	r16,r2,r16
   40cb4:	9da6f03a 	xor	r19,r19,r22
   40cb8:	80c003e8 	cmpgeui	r3,r16,15
   40cbc:	9809883a 	mov	r4,r19
   40cc0:	1800391e 	bne	r3,zero,40da8 <__divsf3+0x210>
   40cc4:	802090ba 	slli	r16,r16,2
   40cc8:	00c00134 	movhi	r3,4
   40ccc:	80c7883a 	add	r3,r16,r3
   40cd0:	18c33617 	ldw	r3,3288(r3)
   40cd4:	1800683a 	jmp	r3
   40cd8:	00040da8 	cmpgeui	zero,zero,4150
   40cdc:	00040da8 	cmpgeui	zero,zero,4150
   40ce0:	00040df4 	movhi	zero,4151
   40ce4:	00040f64 	muli	zero,zero,4157
   40ce8:	00040df4 	movhi	zero,4151
   40cec:	00040e80 	call	40e8 <__reset-0x3bf18>
   40cf0:	00040df4 	movhi	zero,4151
   40cf4:	00040f64 	muli	zero,zero,4157
   40cf8:	00040da8 	cmpgeui	zero,zero,4150
   40cfc:	00040da8 	cmpgeui	zero,zero,4150
   40d00:	00040e80 	call	40e8 <__reset-0x3bf18>
   40d04:	00040f64 	muli	zero,zero,4157
   40d08:	00040e04 	movi	zero,4152
   40d0c:	00040e04 	movi	zero,4152
   40d10:	00040e04 	movi	zero,4152
   40d14:	a0000d1e 	bne	r20,zero,40d4c <__divsf3+0x1b4>
   40d18:	04000104 	movi	r16,4
   40d1c:	002b883a 	mov	r21,zero
   40d20:	05c00044 	movi	r23,1
   40d24:	003fb506 	br	40bfc <__divsf3+0x64>
   40d28:	a000041e 	bne	r20,zero,40d3c <__divsf3+0x1a4>
   40d2c:	04000204 	movi	r16,8
   40d30:	05403fc4 	movi	r21,255
   40d34:	05c00084 	movi	r23,2
   40d38:	003fb006 	br	40bfc <__divsf3+0x64>
   40d3c:	04000304 	movi	r16,12
   40d40:	05403fc4 	movi	r21,255
   40d44:	05c000c4 	movi	r23,3
   40d48:	003fac06 	br	40bfc <__divsf3+0x64>
   40d4c:	a009883a 	mov	r4,r20
   40d50:	d9400015 	stw	r5,0(sp)
   40d54:	0041fe40 	call	41fe4 <__clzsi2>
   40d58:	10fffec4 	addi	r3,r2,-5
   40d5c:	a0e8983a 	sll	r20,r20,r3
   40d60:	00ffe284 	movi	r3,-118
   40d64:	d9400017 	ldw	r5,0(sp)
   40d68:	18abc83a 	sub	r21,r3,r2
   40d6c:	0021883a 	mov	r16,zero
   40d70:	002f883a 	mov	r23,zero
   40d74:	003fa106 	br	40bfc <__divsf3+0x64>
   40d78:	9009883a 	mov	r4,r18
   40d7c:	0041fe40 	call	41fe4 <__clzsi2>
   40d80:	10fffec4 	addi	r3,r2,-5
   40d84:	90e4983a 	sll	r18,r18,r3
   40d88:	00ffe284 	movi	r3,-118
   40d8c:	1887c83a 	sub	r3,r3,r2
   40d90:	000b883a 	mov	r5,zero
   40d94:	003fa606 	br	40c30 <__divsf3+0x98>
   40d98:	840000d4 	ori	r16,r16,3
   40d9c:	00c03fc4 	movi	r3,255
   40da0:	014000c4 	movi	r5,3
   40da4:	003fa206 	br	40c30 <__divsf3+0x98>
   40da8:	9823883a 	mov	r17,r19
   40dac:	00ffffc4 	movi	r3,-1
   40db0:	0009883a 	mov	r4,zero
   40db4:	18803fcc 	andi	r2,r3,255
   40db8:	100495fa 	slli	r2,r2,23
   40dbc:	882297fa 	slli	r17,r17,31
   40dc0:	1104b03a 	or	r2,r2,r4
   40dc4:	1444b03a 	or	r2,r2,r17
   40dc8:	dfc00917 	ldw	ra,36(sp)
   40dcc:	ddc00817 	ldw	r23,32(sp)
   40dd0:	dd800717 	ldw	r22,28(sp)
   40dd4:	dd400617 	ldw	r21,24(sp)
   40dd8:	dd000517 	ldw	r20,20(sp)
   40ddc:	dcc00417 	ldw	r19,16(sp)
   40de0:	dc800317 	ldw	r18,12(sp)
   40de4:	dc400217 	ldw	r17,8(sp)
   40de8:	dc000117 	ldw	r16,4(sp)
   40dec:	dec00a04 	addi	sp,sp,40
   40df0:	f800283a 	ret
   40df4:	2023883a 	mov	r17,r4
   40df8:	0007883a 	mov	r3,zero
   40dfc:	0009883a 	mov	r4,zero
   40e00:	003fec06 	br	40db4 <__divsf3+0x21c>
   40e04:	b88000a0 	cmpeqi	r2,r23,2
   40e08:	103fe81e 	bne	r2,zero,40dac <__divsf3+0x214>
   40e0c:	b88000e0 	cmpeqi	r2,r23,3
   40e10:	1000241e 	bne	r2,zero,40ea4 <__divsf3+0x30c>
   40e14:	bdc00060 	cmpeqi	r23,r23,1
   40e18:	b8006126 	beq	r23,zero,40fa0 <__divsf3+0x408>
   40e1c:	0007883a 	mov	r3,zero
   40e20:	0009883a 	mov	r4,zero
   40e24:	003fe306 	br	40db4 <__divsf3+0x21c>
   40e28:	294000e0 	cmpeqi	r5,r5,3
   40e2c:	b023883a 	mov	r17,r22
   40e30:	28005d1e 	bne	r5,zero,40fa8 <__divsf3+0x410>
   40e34:	a8c01fc4 	addi	r3,r21,127
   40e38:	00c01f0e 	bge	zero,r3,40eb8 <__divsf3+0x320>
   40e3c:	908001cc 	andi	r2,r18,7
   40e40:	10000426 	beq	r2,zero,40e54 <__divsf3+0x2bc>
   40e44:	908003cc 	andi	r2,r18,15
   40e48:	10800120 	cmpeqi	r2,r2,4
   40e4c:	1000011e 	bne	r2,zero,40e54 <__divsf3+0x2bc>
   40e50:	94800104 	addi	r18,r18,4
   40e54:	9082002c 	andhi	r2,r18,2048
   40e58:	10000426 	beq	r2,zero,40e6c <__divsf3+0x2d4>
   40e5c:	00be0034 	movhi	r2,63488
   40e60:	10bfffc4 	addi	r2,r2,-1
   40e64:	90a4703a 	and	r18,r18,r2
   40e68:	a8c02004 	addi	r3,r21,128
   40e6c:	18803fc8 	cmpgei	r2,r3,255
   40e70:	103fce1e 	bne	r2,zero,40dac <__divsf3+0x214>
   40e74:	900891ba 	slli	r4,r18,6
   40e78:	2008d27a 	srli	r4,r4,9
   40e7c:	003fcd06 	br	40db4 <__divsf3+0x21c>
   40e80:	01002034 	movhi	r4,128
   40e84:	0023883a 	mov	r17,zero
   40e88:	213fffc4 	addi	r4,r4,-1
   40e8c:	00ffffc4 	movi	r3,-1
   40e90:	003fc806 	br	40db4 <__divsf3+0x21c>
   40e94:	a080102c 	andhi	r2,r20,64
   40e98:	10000226 	beq	r2,zero,40ea4 <__divsf3+0x30c>
   40e9c:	9080102c 	andhi	r2,r18,64
   40ea0:	10003926 	beq	r2,zero,40f88 <__divsf3+0x3f0>
   40ea4:	00802034 	movhi	r2,128
   40ea8:	a1001034 	orhi	r4,r20,64
   40eac:	10bfffc4 	addi	r2,r2,-1
   40eb0:	2088703a 	and	r4,r4,r2
   40eb4:	003ff506 	br	40e8c <__divsf3+0x2f4>
   40eb8:	00800044 	movi	r2,1
   40ebc:	10c5c83a 	sub	r2,r2,r3
   40ec0:	10c00710 	cmplti	r3,r2,28
   40ec4:	183fd526 	beq	r3,zero,40e1c <__divsf3+0x284>
   40ec8:	a8c02784 	addi	r3,r21,158
   40ecc:	90c6983a 	sll	r3,r18,r3
   40ed0:	9088d83a 	srl	r4,r18,r2
   40ed4:	1806c03a 	cmpne	r3,r3,zero
   40ed8:	20c8b03a 	or	r4,r4,r3
   40edc:	208001cc 	andi	r2,r4,7
   40ee0:	10000426 	beq	r2,zero,40ef4 <__divsf3+0x35c>
   40ee4:	208003cc 	andi	r2,r4,15
   40ee8:	10800120 	cmpeqi	r2,r2,4
   40eec:	1000011e 	bne	r2,zero,40ef4 <__divsf3+0x35c>
   40ef0:	21000104 	addi	r4,r4,4
   40ef4:	2081002c 	andhi	r2,r4,1024
   40ef8:	10001f26 	beq	r2,zero,40f78 <__divsf3+0x3e0>
   40efc:	00c00044 	movi	r3,1
   40f00:	0009883a 	mov	r4,zero
   40f04:	003fab06 	br	40db4 <__divsf3+0x21c>
   40f08:	a004917a 	slli	r2,r20,5
   40f0c:	900c917a 	slli	r6,r18,5
   40f10:	1180102e 	bgeu	r2,r6,40f54 <__divsf3+0x3bc>
   40f14:	ad7fffc4 	addi	r21,r21,-1
   40f18:	014006c4 	movi	r5,27
   40f1c:	0009883a 	mov	r4,zero
   40f20:	1007883a 	mov	r3,r2
   40f24:	297fffc4 	addi	r5,r5,-1
   40f28:	1085883a 	add	r2,r2,r2
   40f2c:	2109883a 	add	r4,r4,r4
   40f30:	18000116 	blt	r3,zero,40f38 <__divsf3+0x3a0>
   40f34:	11800236 	bltu	r2,r6,40f40 <__divsf3+0x3a8>
   40f38:	1185c83a 	sub	r2,r2,r6
   40f3c:	21000054 	ori	r4,r4,1
   40f40:	283ff71e 	bne	r5,zero,40f20 <__divsf3+0x388>
   40f44:	1004c03a 	cmpne	r2,r2,zero
   40f48:	1124b03a 	or	r18,r2,r4
   40f4c:	9823883a 	mov	r17,r19
   40f50:	003fb806 	br	40e34 <__divsf3+0x29c>
   40f54:	1185c83a 	sub	r2,r2,r6
   40f58:	01400684 	movi	r5,26
   40f5c:	01000044 	movi	r4,1
   40f60:	003fef06 	br	40f20 <__divsf3+0x388>
   40f64:	108000a0 	cmpeqi	r2,r2,2
   40f68:	0087c83a 	sub	r3,zero,r2
   40f6c:	b023883a 	mov	r17,r22
   40f70:	0009883a 	mov	r4,zero
   40f74:	003f8f06 	br	40db4 <__divsf3+0x21c>
   40f78:	200891ba 	slli	r4,r4,6
   40f7c:	0007883a 	mov	r3,zero
   40f80:	2008d27a 	srli	r4,r4,9
   40f84:	003f8b06 	br	40db4 <__divsf3+0x21c>
   40f88:	00802034 	movhi	r2,128
   40f8c:	91001034 	orhi	r4,r18,64
   40f90:	10bfffc4 	addi	r2,r2,-1
   40f94:	2088703a 	and	r4,r4,r2
   40f98:	b023883a 	mov	r17,r22
   40f9c:	003fbb06 	br	40e8c <__divsf3+0x2f4>
   40fa0:	a025883a 	mov	r18,r20
   40fa4:	003fa306 	br	40e34 <__divsf3+0x29c>
   40fa8:	9029883a 	mov	r20,r18
   40fac:	003fbd06 	br	40ea4 <__divsf3+0x30c>

00040fb0 <__mulsf3>:
   40fb0:	defff504 	addi	sp,sp,-44
   40fb4:	2004d5fa 	srli	r2,r4,23
   40fb8:	dd800715 	stw	r22,28(sp)
   40fbc:	202cd7fa 	srli	r22,r4,31
   40fc0:	00c02034 	movhi	r3,128
   40fc4:	dd400615 	stw	r21,24(sp)
   40fc8:	dd000515 	stw	r20,20(sp)
   40fcc:	18ffffc4 	addi	r3,r3,-1
   40fd0:	dfc00a15 	stw	ra,40(sp)
   40fd4:	df000915 	stw	fp,36(sp)
   40fd8:	ddc00815 	stw	r23,32(sp)
   40fdc:	dcc00415 	stw	r19,16(sp)
   40fe0:	dc800315 	stw	r18,12(sp)
   40fe4:	dc400215 	stw	r17,8(sp)
   40fe8:	dc000115 	stw	r16,4(sp)
   40fec:	10803fcc 	andi	r2,r2,255
   40ff0:	192a703a 	and	r21,r3,r4
   40ff4:	b029883a 	mov	r20,r22
   40ff8:	10006d26 	beq	r2,zero,411b0 <__mulsf3+0x200>
   40ffc:	10c03fe0 	cmpeqi	r3,r2,255
   41000:	1800701e 	bne	r3,zero,411c4 <__mulsf3+0x214>
   41004:	a80890fa 	slli	r4,r21,3
   41008:	14ffe044 	addi	r19,r2,-127
   4100c:	0023883a 	mov	r17,zero
   41010:	25410034 	orhi	r21,r4,1024
   41014:	0039883a 	mov	fp,zero
   41018:	2804d5fa 	srli	r2,r5,23
   4101c:	04002034 	movhi	r16,128
   41020:	843fffc4 	addi	r16,r16,-1
   41024:	10803fcc 	andi	r2,r2,255
   41028:	282ed7fa 	srli	r23,r5,31
   4102c:	8160703a 	and	r16,r16,r5
   41030:	10005726 	beq	r2,zero,41190 <__mulsf3+0x1e0>
   41034:	10c03fe0 	cmpeqi	r3,r2,255
   41038:	1800251e 	bne	r3,zero,410d0 <__mulsf3+0x120>
   4103c:	802090fa 	slli	r16,r16,3
   41040:	10bfe044 	addi	r2,r2,-127
   41044:	14e5883a 	add	r18,r2,r19
   41048:	888002c8 	cmpgei	r2,r17,11
   4104c:	84010034 	orhi	r16,r16,1024
   41050:	0007883a 	mov	r3,zero
   41054:	94c00044 	addi	r19,r18,1
   41058:	10002a1e 	bne	r2,zero,41104 <__mulsf3+0x154>
   4105c:	bda8f03a 	xor	r20,r23,r22
   41060:	888000c8 	cmpgei	r2,r17,3
   41064:	1000231e 	bne	r2,zero,410f4 <__mulsf3+0x144>
   41068:	8c7fffc4 	addi	r17,r17,-1
   4106c:	8c4000a8 	cmpgeui	r17,r17,2
   41070:	8800961e 	bne	r17,zero,412cc <__mulsf3+0x31c>
   41074:	188000a0 	cmpeqi	r2,r3,2
   41078:	1000571e 	bne	r2,zero,411d8 <__mulsf3+0x228>
   4107c:	18c00060 	cmpeqi	r3,r3,1
   41080:	18002826 	beq	r3,zero,41124 <__mulsf3+0x174>
   41084:	0007883a 	mov	r3,zero
   41088:	0009883a 	mov	r4,zero
   4108c:	18803fcc 	andi	r2,r3,255
   41090:	100495fa 	slli	r2,r2,23
   41094:	a02897fa 	slli	r20,r20,31
   41098:	1104b03a 	or	r2,r2,r4
   4109c:	1504b03a 	or	r2,r2,r20
   410a0:	dfc00a17 	ldw	ra,40(sp)
   410a4:	df000917 	ldw	fp,36(sp)
   410a8:	ddc00817 	ldw	r23,32(sp)
   410ac:	dd800717 	ldw	r22,28(sp)
   410b0:	dd400617 	ldw	r21,24(sp)
   410b4:	dd000517 	ldw	r20,20(sp)
   410b8:	dcc00417 	ldw	r19,16(sp)
   410bc:	dc800317 	ldw	r18,12(sp)
   410c0:	dc400217 	ldw	r17,8(sp)
   410c4:	dc000117 	ldw	r16,4(sp)
   410c8:	dec00b04 	addi	sp,sp,44
   410cc:	f800283a 	ret
   410d0:	9c803fc4 	addi	r18,r19,255
   410d4:	80004826 	beq	r16,zero,411f8 <__mulsf3+0x248>
   410d8:	8c4000d4 	ori	r17,r17,3
   410dc:	888002c8 	cmpgei	r2,r17,11
   410e0:	bdacf03a 	xor	r22,r23,r22
   410e4:	9cc04004 	addi	r19,r19,256
   410e8:	1000af1e 	bne	r2,zero,413a8 <__mulsf3+0x3f8>
   410ec:	b029883a 	mov	r20,r22
   410f0:	00c000c4 	movi	r3,3
   410f4:	00800044 	movi	r2,1
   410f8:	1444983a 	sll	r2,r2,r17
   410fc:	11014c0c 	andi	r4,r2,1328
   41100:	20001b26 	beq	r4,zero,41170 <__mulsf3+0x1c0>
   41104:	e08000a0 	cmpeqi	r2,fp,2
   41108:	1000331e 	bne	r2,zero,411d8 <__mulsf3+0x228>
   4110c:	e08000e0 	cmpeqi	r2,fp,3
   41110:	10009a1e 	bne	r2,zero,4137c <__mulsf3+0x3cc>
   41114:	e007883a 	mov	r3,fp
   41118:	18c00060 	cmpeqi	r3,r3,1
   4111c:	a821883a 	mov	r16,r21
   41120:	183fd81e 	bne	r3,zero,41084 <__mulsf3+0xd4>
   41124:	98c01fc4 	addi	r3,r19,127
   41128:	00c0540e 	bge	zero,r3,4127c <__mulsf3+0x2cc>
   4112c:	808001cc 	andi	r2,r16,7
   41130:	10000426 	beq	r2,zero,41144 <__mulsf3+0x194>
   41134:	808003cc 	andi	r2,r16,15
   41138:	10800120 	cmpeqi	r2,r2,4
   4113c:	1000011e 	bne	r2,zero,41144 <__mulsf3+0x194>
   41140:	84000104 	addi	r16,r16,4
   41144:	8082002c 	andhi	r2,r16,2048
   41148:	10000426 	beq	r2,zero,4115c <__mulsf3+0x1ac>
   4114c:	00be0034 	movhi	r2,63488
   41150:	10bfffc4 	addi	r2,r2,-1
   41154:	80a0703a 	and	r16,r16,r2
   41158:	98c02004 	addi	r3,r19,128
   4115c:	18803fc8 	cmpgei	r2,r3,255
   41160:	10001d1e 	bne	r2,zero,411d8 <__mulsf3+0x228>
   41164:	800891ba 	slli	r4,r16,6
   41168:	2008d27a 	srli	r4,r4,9
   4116c:	003fc706 	br	4108c <__mulsf3+0xdc>
   41170:	1100900c 	andi	r4,r2,576
   41174:	20001b1e 	bne	r4,zero,411e4 <__mulsf3+0x234>
   41178:	1080220c 	andi	r2,r2,136
   4117c:	10005326 	beq	r2,zero,412cc <__mulsf3+0x31c>
   41180:	b829883a 	mov	r20,r23
   41184:	802b883a 	mov	r21,r16
   41188:	1839883a 	mov	fp,r3
   4118c:	003fdd06 	br	41104 <__mulsf3+0x154>
   41190:	80002f1e 	bne	r16,zero,41250 <__mulsf3+0x2a0>
   41194:	8c400054 	ori	r17,r17,1
   41198:	9825883a 	mov	r18,r19
   4119c:	888002c8 	cmpgei	r2,r17,11
   411a0:	00c00044 	movi	r3,1
   411a4:	94c00044 	addi	r19,r18,1
   411a8:	103fac26 	beq	r2,zero,4105c <__mulsf3+0xac>
   411ac:	003fd506 	br	41104 <__mulsf3+0x154>
   411b0:	a8001c1e 	bne	r21,zero,41224 <__mulsf3+0x274>
   411b4:	04400104 	movi	r17,4
   411b8:	0027883a 	mov	r19,zero
   411bc:	07000044 	movi	fp,1
   411c0:	003f9506 	br	41018 <__mulsf3+0x68>
   411c4:	a800131e 	bne	r21,zero,41214 <__mulsf3+0x264>
   411c8:	04400204 	movi	r17,8
   411cc:	04c03fc4 	movi	r19,255
   411d0:	07000084 	movi	fp,2
   411d4:	003f9006 	br	41018 <__mulsf3+0x68>
   411d8:	00ffffc4 	movi	r3,-1
   411dc:	0009883a 	mov	r4,zero
   411e0:	003faa06 	br	4108c <__mulsf3+0xdc>
   411e4:	01002034 	movhi	r4,128
   411e8:	0029883a 	mov	r20,zero
   411ec:	213fffc4 	addi	r4,r4,-1
   411f0:	00ffffc4 	movi	r3,-1
   411f4:	003fa506 	br	4108c <__mulsf3+0xdc>
   411f8:	8c400094 	ori	r17,r17,2
   411fc:	888002c8 	cmpgei	r2,r17,11
   41200:	9cc04004 	addi	r19,r19,256
   41204:	103fbf1e 	bne	r2,zero,41104 <__mulsf3+0x154>
   41208:	bda8f03a 	xor	r20,r23,r22
   4120c:	00c00084 	movi	r3,2
   41210:	003f9306 	br	41060 <__mulsf3+0xb0>
   41214:	04400304 	movi	r17,12
   41218:	04c03fc4 	movi	r19,255
   4121c:	070000c4 	movi	fp,3
   41220:	003f7d06 	br	41018 <__mulsf3+0x68>
   41224:	a809883a 	mov	r4,r21
   41228:	d9400015 	stw	r5,0(sp)
   4122c:	0041fe40 	call	41fe4 <__clzsi2>
   41230:	10fffec4 	addi	r3,r2,-5
   41234:	04ffe284 	movi	r19,-118
   41238:	a8ea983a 	sll	r21,r21,r3
   4123c:	d9400017 	ldw	r5,0(sp)
   41240:	98a7c83a 	sub	r19,r19,r2
   41244:	0023883a 	mov	r17,zero
   41248:	0039883a 	mov	fp,zero
   4124c:	003f7206 	br	41018 <__mulsf3+0x68>
   41250:	8009883a 	mov	r4,r16
   41254:	0041fe40 	call	41fe4 <__clzsi2>
   41258:	10fffec4 	addi	r3,r2,-5
   4125c:	9885c83a 	sub	r2,r19,r2
   41260:	14bfe284 	addi	r18,r2,-118
   41264:	888002c8 	cmpgei	r2,r17,11
   41268:	80e0983a 	sll	r16,r16,r3
   4126c:	94c00044 	addi	r19,r18,1
   41270:	0007883a 	mov	r3,zero
   41274:	103f7926 	beq	r2,zero,4105c <__mulsf3+0xac>
   41278:	003fa206 	br	41104 <__mulsf3+0x154>
   4127c:	00800044 	movi	r2,1
   41280:	10c7c83a 	sub	r3,r2,r3
   41284:	18800708 	cmpgei	r2,r3,28
   41288:	103f7e1e 	bne	r2,zero,41084 <__mulsf3+0xd4>
   4128c:	98802784 	addi	r2,r19,158
   41290:	8084983a 	sll	r2,r16,r2
   41294:	80c6d83a 	srl	r3,r16,r3
   41298:	1004c03a 	cmpne	r2,r2,zero
   4129c:	1886b03a 	or	r3,r3,r2
   412a0:	188001cc 	andi	r2,r3,7
   412a4:	10000426 	beq	r2,zero,412b8 <__mulsf3+0x308>
   412a8:	188003cc 	andi	r2,r3,15
   412ac:	10800120 	cmpeqi	r2,r2,4
   412b0:	1000011e 	bne	r2,zero,412b8 <__mulsf3+0x308>
   412b4:	18c00104 	addi	r3,r3,4
   412b8:	1881002c 	andhi	r2,r3,1024
   412bc:	10003626 	beq	r2,zero,41398 <__mulsf3+0x3e8>
   412c0:	00c00044 	movi	r3,1
   412c4:	0009883a 	mov	r4,zero
   412c8:	003f7006 	br	4108c <__mulsf3+0xdc>
   412cc:	847fffcc 	andi	r17,r16,65535
   412d0:	a82ed43a 	srli	r23,r21,16
   412d4:	ad7fffcc 	andi	r21,r21,65535
   412d8:	880b883a 	mov	r5,r17
   412dc:	a809883a 	mov	r4,r21
   412e0:	0040b700 	call	40b70 <__mulsi3>
   412e4:	8020d43a 	srli	r16,r16,16
   412e8:	880b883a 	mov	r5,r17
   412ec:	b809883a 	mov	r4,r23
   412f0:	1023883a 	mov	r17,r2
   412f4:	0040b700 	call	40b70 <__mulsi3>
   412f8:	800b883a 	mov	r5,r16
   412fc:	b809883a 	mov	r4,r23
   41300:	102d883a 	mov	r22,r2
   41304:	0040b700 	call	40b70 <__mulsi3>
   41308:	a80b883a 	mov	r5,r21
   4130c:	8009883a 	mov	r4,r16
   41310:	102b883a 	mov	r21,r2
   41314:	0040b700 	call	40b70 <__mulsi3>
   41318:	8806d43a 	srli	r3,r17,16
   4131c:	1585883a 	add	r2,r2,r22
   41320:	1887883a 	add	r3,r3,r2
   41324:	1d80022e 	bgeu	r3,r22,41330 <__mulsf3+0x380>
   41328:	00800074 	movhi	r2,1
   4132c:	a8ab883a 	add	r21,r21,r2
   41330:	1808943a 	slli	r4,r3,16
   41334:	1820d43a 	srli	r16,r3,16
   41338:	8c7fffcc 	andi	r17,r17,65535
   4133c:	2447883a 	add	r3,r4,r17
   41340:	180491ba 	slli	r2,r3,6
   41344:	8561883a 	add	r16,r16,r21
   41348:	802091ba 	slli	r16,r16,6
   4134c:	1806d6ba 	srli	r3,r3,26
   41350:	1004c03a 	cmpne	r2,r2,zero
   41354:	8102002c 	andhi	r4,r16,2048
   41358:	10c4b03a 	or	r2,r2,r3
   4135c:	80a0b03a 	or	r16,r16,r2
   41360:	20000b26 	beq	r4,zero,41390 <__mulsf3+0x3e0>
   41364:	8004d07a 	srli	r2,r16,1
   41368:	8400004c 	andi	r16,r16,1
   4136c:	1420b03a 	or	r16,r2,r16
   41370:	003f6c06 	br	41124 <__mulsf3+0x174>
   41374:	b829883a 	mov	r20,r23
   41378:	802b883a 	mov	r21,r16
   4137c:	00802034 	movhi	r2,128
   41380:	a9001034 	orhi	r4,r21,64
   41384:	10bfffc4 	addi	r2,r2,-1
   41388:	2088703a 	and	r4,r4,r2
   4138c:	003f9806 	br	411f0 <__mulsf3+0x240>
   41390:	9027883a 	mov	r19,r18
   41394:	003f6306 	br	41124 <__mulsf3+0x174>
   41398:	180891ba 	slli	r4,r3,6
   4139c:	0007883a 	mov	r3,zero
   413a0:	2008d27a 	srli	r4,r4,9
   413a4:	003f3906 	br	4108c <__mulsf3+0xdc>
   413a8:	8c4003e0 	cmpeqi	r17,r17,15
   413ac:	883ff126 	beq	r17,zero,41374 <__mulsf3+0x3c4>
   413b0:	a880102c 	andhi	r2,r21,64
   413b4:	103ff126 	beq	r2,zero,4137c <__mulsf3+0x3cc>
   413b8:	2940102c 	andhi	r5,r5,64
   413bc:	283fef1e 	bne	r5,zero,4137c <__mulsf3+0x3cc>
   413c0:	81001034 	orhi	r4,r16,64
   413c4:	b829883a 	mov	r20,r23
   413c8:	003f8906 	br	411f0 <__mulsf3+0x240>

000413cc <__fixsfsi>:
   413cc:	200ad5fa 	srli	r5,r4,23
   413d0:	00c02034 	movhi	r3,128
   413d4:	18ffffc4 	addi	r3,r3,-1
   413d8:	29403fcc 	andi	r5,r5,255
   413dc:	28801fd0 	cmplti	r2,r5,127
   413e0:	200cd7fa 	srli	r6,r4,31
   413e4:	1906703a 	and	r3,r3,r4
   413e8:	1000061e 	bne	r2,zero,41404 <__fixsfsi+0x38>
   413ec:	28802790 	cmplti	r2,r5,158
   413f0:	1000061e 	bne	r2,zero,4140c <__fixsfsi+0x40>
   413f4:	00a00034 	movhi	r2,32768
   413f8:	10bfffc4 	addi	r2,r2,-1
   413fc:	3085883a 	add	r2,r6,r2
   41400:	f800283a 	ret
   41404:	0005883a 	mov	r2,zero
   41408:	f800283a 	ret
   4140c:	29002590 	cmplti	r4,r5,150
   41410:	18802034 	orhi	r2,r3,128
   41414:	2000051e 	bne	r4,zero,4142c <__fixsfsi+0x60>
   41418:	297fda84 	addi	r5,r5,-150
   4141c:	1144983a 	sll	r2,r2,r5
   41420:	303ff926 	beq	r6,zero,41408 <__fixsfsi+0x3c>
   41424:	0085c83a 	sub	r2,zero,r2
   41428:	f800283a 	ret
   4142c:	00c02584 	movi	r3,150
   41430:	1947c83a 	sub	r3,r3,r5
   41434:	10c4d83a 	srl	r2,r2,r3
   41438:	003ff906 	br	41420 <__fixsfsi+0x54>

0004143c <__floatsisf>:
   4143c:	defffd04 	addi	sp,sp,-12
   41440:	dfc00215 	stw	ra,8(sp)
   41444:	dc400115 	stw	r17,4(sp)
   41448:	dc000015 	stw	r16,0(sp)
   4144c:	20001226 	beq	r4,zero,41498 <__floatsisf+0x5c>
   41450:	2022d7fa 	srli	r17,r4,31
   41454:	2021883a 	mov	r16,r4
   41458:	20003316 	blt	r4,zero,41528 <__floatsisf+0xec>
   4145c:	8009883a 	mov	r4,r16
   41460:	0041fe40 	call	41fe4 <__clzsi2>
   41464:	1009883a 	mov	r4,r2
   41468:	00802784 	movi	r2,158
   4146c:	1105c83a 	sub	r2,r2,r4
   41470:	10c025c8 	cmpgei	r3,r2,151
   41474:	1800151e 	bne	r3,zero,414cc <__floatsisf+0x90>
   41478:	20c00218 	cmpnei	r3,r4,8
   4147c:	18003426 	beq	r3,zero,41550 <__floatsisf+0x114>
   41480:	20fffe04 	addi	r3,r4,-8
   41484:	80c6983a 	sll	r3,r16,r3
   41488:	01002034 	movhi	r4,128
   4148c:	213fffc4 	addi	r4,r4,-1
   41490:	1906703a 	and	r3,r3,r4
   41494:	00000306 	br	414a4 <__floatsisf+0x68>
   41498:	0023883a 	mov	r17,zero
   4149c:	0005883a 	mov	r2,zero
   414a0:	0007883a 	mov	r3,zero
   414a4:	10803fcc 	andi	r2,r2,255
   414a8:	100495fa 	slli	r2,r2,23
   414ac:	880897fa 	slli	r4,r17,31
   414b0:	10c4b03a 	or	r2,r2,r3
   414b4:	1104b03a 	or	r2,r2,r4
   414b8:	dfc00217 	ldw	ra,8(sp)
   414bc:	dc400117 	ldw	r17,4(sp)
   414c0:	dc000017 	ldw	r16,0(sp)
   414c4:	dec00304 	addi	sp,sp,12
   414c8:	f800283a 	ret
   414cc:	10c02690 	cmplti	r3,r2,154
   414d0:	18001726 	beq	r3,zero,41530 <__floatsisf+0xf4>
   414d4:	20c00160 	cmpeqi	r3,r4,5
   414d8:	217ffec4 	addi	r5,r4,-5
   414dc:	1800011e 	bne	r3,zero,414e4 <__floatsisf+0xa8>
   414e0:	8160983a 	sll	r16,r16,r5
   414e4:	017f0034 	movhi	r5,64512
   414e8:	297fffc4 	addi	r5,r5,-1
   414ec:	818001cc 	andi	r6,r16,7
   414f0:	8146703a 	and	r3,r16,r5
   414f4:	30000926 	beq	r6,zero,4151c <__floatsisf+0xe0>
   414f8:	840003cc 	andi	r16,r16,15
   414fc:	84000120 	cmpeqi	r16,r16,4
   41500:	8000061e 	bne	r16,zero,4151c <__floatsisf+0xe0>
   41504:	18c00104 	addi	r3,r3,4
   41508:	1981002c 	andhi	r6,r3,1024
   4150c:	30000326 	beq	r6,zero,4151c <__floatsisf+0xe0>
   41510:	008027c4 	movi	r2,159
   41514:	1946703a 	and	r3,r3,r5
   41518:	1105c83a 	sub	r2,r2,r4
   4151c:	180691ba 	slli	r3,r3,6
   41520:	1806d27a 	srli	r3,r3,9
   41524:	003fdf06 	br	414a4 <__floatsisf+0x68>
   41528:	0121c83a 	sub	r16,zero,r4
   4152c:	003fcb06 	br	4145c <__floatsisf+0x20>
   41530:	20c006c4 	addi	r3,r4,27
   41534:	01400144 	movi	r5,5
   41538:	80c6983a 	sll	r3,r16,r3
   4153c:	290bc83a 	sub	r5,r5,r4
   41540:	8160d83a 	srl	r16,r16,r5
   41544:	1806c03a 	cmpne	r3,r3,zero
   41548:	80e0b03a 	or	r16,r16,r3
   4154c:	003fe506 	br	414e4 <__floatsisf+0xa8>
   41550:	00c02034 	movhi	r3,128
   41554:	18ffffc4 	addi	r3,r3,-1
   41558:	80c6703a 	and	r3,r16,r3
   4155c:	00bfe584 	movi	r2,-106
   41560:	003fd006 	br	414a4 <__floatsisf+0x68>

00041564 <__adddf3>:
   41564:	00c00434 	movhi	r3,16
   41568:	18ffffc4 	addi	r3,r3,-1
   4156c:	defffa04 	addi	sp,sp,-24
   41570:	2810d7fa 	srli	r8,r5,31
   41574:	3804d53a 	srli	r2,r7,20
   41578:	28d4703a 	and	r10,r5,r3
   4157c:	38d2703a 	and	r9,r7,r3
   41580:	280ad53a 	srli	r5,r5,20
   41584:	501490fa 	slli	r10,r10,3
   41588:	481290fa 	slli	r9,r9,3
   4158c:	3016d77a 	srli	r11,r6,29
   41590:	dc400115 	stw	r17,4(sp)
   41594:	380ed7fa 	srli	r7,r7,31
   41598:	2022d77a 	srli	r17,r4,29
   4159c:	dd000415 	stw	r20,16(sp)
   415a0:	dcc00315 	stw	r19,12(sp)
   415a4:	dc000015 	stw	r16,0(sp)
   415a8:	1081ffcc 	andi	r2,r2,2047
   415ac:	2c01ffcc 	andi	r16,r5,2047
   415b0:	dfc00515 	stw	ra,20(sp)
   415b4:	dc800215 	stw	r18,8(sp)
   415b8:	201890fa 	slli	r12,r4,3
   415bc:	301a90fa 	slli	r13,r6,3
   415c0:	4027883a 	mov	r19,r8
   415c4:	45003fcc 	andi	r20,r8,255
   415c8:	8aa2b03a 	or	r17,r17,r10
   415cc:	5a56b03a 	or	r11,r11,r9
   415d0:	808bc83a 	sub	r5,r16,r2
   415d4:	41c07526 	beq	r8,r7,417ac <__adddf3+0x248>
   415d8:	0140540e 	bge	zero,r5,4172c <__adddf3+0x1c8>
   415dc:	10008b26 	beq	r2,zero,4180c <__adddf3+0x2a8>
   415e0:	8081ffe0 	cmpeqi	r2,r16,2047
   415e4:	10010d1e 	bne	r2,zero,41a1c <__adddf3+0x4b8>
   415e8:	28800e48 	cmpgei	r2,r5,57
   415ec:	1000c11e 	bne	r2,zero,418f4 <__adddf3+0x390>
   415f0:	5ac02034 	orhi	r11,r11,128
   415f4:	28800808 	cmpgei	r2,r5,32
   415f8:	1001461e 	bne	r2,zero,41b14 <__adddf3+0x5b0>
   415fc:	00800804 	movi	r2,32
   41600:	1145c83a 	sub	r2,r2,r5
   41604:	58a4983a 	sll	r18,r11,r2
   41608:	6946d83a 	srl	r3,r13,r5
   4160c:	6884983a 	sll	r2,r13,r2
   41610:	594ad83a 	srl	r5,r11,r5
   41614:	90e4b03a 	or	r18,r18,r3
   41618:	1004c03a 	cmpne	r2,r2,zero
   4161c:	90a4b03a 	or	r18,r18,r2
   41620:	8963c83a 	sub	r17,r17,r5
   41624:	64a5c83a 	sub	r18,r12,r18
   41628:	6485803a 	cmpltu	r2,r12,r18
   4162c:	88a3c83a 	sub	r17,r17,r2
   41630:	8880202c 	andhi	r2,r17,128
   41634:	1000b826 	beq	r2,zero,41918 <__adddf3+0x3b4>
   41638:	00802034 	movhi	r2,128
   4163c:	10bfffc4 	addi	r2,r2,-1
   41640:	88a2703a 	and	r17,r17,r2
   41644:	8800d026 	beq	r17,zero,41988 <__adddf3+0x424>
   41648:	8809883a 	mov	r4,r17
   4164c:	0041fe40 	call	41fe4 <__clzsi2>
   41650:	113ffe04 	addi	r4,r2,-8
   41654:	00c00804 	movi	r3,32
   41658:	1905c83a 	sub	r2,r3,r4
   4165c:	9084d83a 	srl	r2,r18,r2
   41660:	8922983a 	sll	r17,r17,r4
   41664:	9124983a 	sll	r18,r18,r4
   41668:	1444b03a 	or	r2,r2,r17
   4166c:	2400ff16 	blt	r4,r16,41a6c <__adddf3+0x508>
   41670:	2409c83a 	sub	r4,r4,r16
   41674:	21000044 	addi	r4,r4,1
   41678:	1907c83a 	sub	r3,r3,r4
   4167c:	90ca983a 	sll	r5,r18,r3
   41680:	9122d83a 	srl	r17,r18,r4
   41684:	280ac03a 	cmpne	r5,r5,zero
   41688:	10c6983a 	sll	r3,r2,r3
   4168c:	894ab03a 	or	r5,r17,r5
   41690:	1122d83a 	srl	r17,r2,r4
   41694:	0021883a 	mov	r16,zero
   41698:	1964b03a 	or	r18,r3,r5
   4169c:	908001cc 	andi	r2,r18,7
   416a0:	10000726 	beq	r2,zero,416c0 <__adddf3+0x15c>
   416a4:	908003cc 	andi	r2,r18,15
   416a8:	10800120 	cmpeqi	r2,r2,4
   416ac:	1000041e 	bne	r2,zero,416c0 <__adddf3+0x15c>
   416b0:	90800104 	addi	r2,r18,4
   416b4:	14a5803a 	cmpltu	r18,r2,r18
   416b8:	8ca3883a 	add	r17,r17,r18
   416bc:	1025883a 	mov	r18,r2
   416c0:	8880202c 	andhi	r2,r17,128
   416c4:	1000c926 	beq	r2,zero,419ec <__adddf3+0x488>
   416c8:	8081ffa0 	cmpeqi	r2,r16,2046
   416cc:	84000044 	addi	r16,r16,1
   416d0:	1000841e 	bne	r2,zero,418e4 <__adddf3+0x380>
   416d4:	013fe034 	movhi	r4,65408
   416d8:	213fffc4 	addi	r4,r4,-1
   416dc:	8908703a 	and	r4,r17,r4
   416e0:	2004977a 	slli	r2,r4,29
   416e4:	2008927a 	slli	r4,r4,9
   416e8:	9024d0fa 	srli	r18,r18,3
   416ec:	80c1ffcc 	andi	r3,r16,2047
   416f0:	2008d33a 	srli	r4,r4,12
   416f4:	1484b03a 	or	r2,r2,r18
   416f8:	a027883a 	mov	r19,r20
   416fc:	1806953a 	slli	r3,r3,20
   41700:	982697fa 	slli	r19,r19,31
   41704:	1906b03a 	or	r3,r3,r4
   41708:	1cc6b03a 	or	r3,r3,r19
   4170c:	dfc00517 	ldw	ra,20(sp)
   41710:	dd000417 	ldw	r20,16(sp)
   41714:	dcc00317 	ldw	r19,12(sp)
   41718:	dc800217 	ldw	r18,8(sp)
   4171c:	dc400117 	ldw	r17,4(sp)
   41720:	dc000017 	ldw	r16,0(sp)
   41724:	dec00604 	addi	sp,sp,24
   41728:	f800283a 	ret
   4172c:	3a803fcc 	andi	r10,r7,255
   41730:	28004026 	beq	r5,zero,41834 <__adddf3+0x2d0>
   41734:	140bc83a 	sub	r5,r2,r16
   41738:	8000e61e 	bne	r16,zero,41ad4 <__adddf3+0x570>
   4173c:	8b06b03a 	or	r3,r17,r12
   41740:	1800c426 	beq	r3,zero,41a54 <__adddf3+0x4f0>
   41744:	28ffffc4 	addi	r3,r5,-1
   41748:	18017a26 	beq	r3,zero,41d34 <__adddf3+0x7d0>
   4174c:	2941ffe0 	cmpeqi	r5,r5,2047
   41750:	28019a1e 	bne	r5,zero,41dbc <__adddf3+0x858>
   41754:	19000e48 	cmpgei	r4,r3,57
   41758:	20010c1e 	bne	r4,zero,41b8c <__adddf3+0x628>
   4175c:	180b883a 	mov	r5,r3
   41760:	28c00808 	cmpgei	r3,r5,32
   41764:	1801521e 	bne	r3,zero,41cb0 <__adddf3+0x74c>
   41768:	00c00804 	movi	r3,32
   4176c:	1947c83a 	sub	r3,r3,r5
   41770:	88e4983a 	sll	r18,r17,r3
   41774:	6148d83a 	srl	r4,r12,r5
   41778:	60c6983a 	sll	r3,r12,r3
   4177c:	894ad83a 	srl	r5,r17,r5
   41780:	9124b03a 	or	r18,r18,r4
   41784:	1806c03a 	cmpne	r3,r3,zero
   41788:	90e4b03a 	or	r18,r18,r3
   4178c:	5957c83a 	sub	r11,r11,r5
   41790:	6ca5c83a 	sub	r18,r13,r18
   41794:	6c9b803a 	cmpltu	r13,r13,r18
   41798:	5b63c83a 	sub	r17,r11,r13
   4179c:	3827883a 	mov	r19,r7
   417a0:	1021883a 	mov	r16,r2
   417a4:	5029883a 	mov	r20,r10
   417a8:	003fa106 	br	41630 <__adddf3+0xcc>
   417ac:	01405d0e 	bge	zero,r5,41924 <__adddf3+0x3c0>
   417b0:	1000351e 	bne	r2,zero,41888 <__adddf3+0x324>
   417b4:	5b44b03a 	or	r2,r11,r13
   417b8:	1000a926 	beq	r2,zero,41a60 <__adddf3+0x4fc>
   417bc:	28bfffc4 	addi	r2,r5,-1
   417c0:	10004e26 	beq	r2,zero,418fc <__adddf3+0x398>
   417c4:	2941ffe0 	cmpeqi	r5,r5,2047
   417c8:	2801121e 	bne	r5,zero,41c14 <__adddf3+0x6b0>
   417cc:	10c00e48 	cmpgei	r3,r2,57
   417d0:	1800311e 	bne	r3,zero,41898 <__adddf3+0x334>
   417d4:	100b883a 	mov	r5,r2
   417d8:	28800808 	cmpgei	r2,r5,32
   417dc:	1001181e 	bne	r2,zero,41c40 <__adddf3+0x6dc>
   417e0:	00800804 	movi	r2,32
   417e4:	1145c83a 	sub	r2,r2,r5
   417e8:	58a4983a 	sll	r18,r11,r2
   417ec:	6946d83a 	srl	r3,r13,r5
   417f0:	6884983a 	sll	r2,r13,r2
   417f4:	594ad83a 	srl	r5,r11,r5
   417f8:	90e4b03a 	or	r18,r18,r3
   417fc:	1004c03a 	cmpne	r2,r2,zero
   41800:	90a4b03a 	or	r18,r18,r2
   41804:	8963883a 	add	r17,r17,r5
   41808:	00002406 	br	4189c <__adddf3+0x338>
   4180c:	5b44b03a 	or	r2,r11,r13
   41810:	10009326 	beq	r2,zero,41a60 <__adddf3+0x4fc>
   41814:	28bfffc4 	addi	r2,r5,-1
   41818:	1000f826 	beq	r2,zero,41bfc <__adddf3+0x698>
   4181c:	2941ffe0 	cmpeqi	r5,r5,2047
   41820:	2800fc1e 	bne	r5,zero,41c14 <__adddf3+0x6b0>
   41824:	10c00e48 	cmpgei	r3,r2,57
   41828:	1800321e 	bne	r3,zero,418f4 <__adddf3+0x390>
   4182c:	100b883a 	mov	r5,r2
   41830:	003f7006 	br	415f4 <__adddf3+0x90>
   41834:	80800044 	addi	r2,r16,1
   41838:	1081ff8c 	andi	r2,r2,2046
   4183c:	1000ab1e 	bne	r2,zero,41aec <__adddf3+0x588>
   41840:	8b0ab03a 	or	r5,r17,r12
   41844:	5b44b03a 	or	r2,r11,r13
   41848:	8000e71e 	bne	r16,zero,41be8 <__adddf3+0x684>
   4184c:	28014126 	beq	r5,zero,41d54 <__adddf3+0x7f0>
   41850:	10010626 	beq	r2,zero,41c6c <__adddf3+0x708>
   41854:	6365c83a 	sub	r18,r12,r13
   41858:	6485803a 	cmpltu	r2,r12,r18
   4185c:	8ac7c83a 	sub	r3,r17,r11
   41860:	1887c83a 	sub	r3,r3,r2
   41864:	1880202c 	andhi	r2,r3,128
   41868:	10017326 	beq	r2,zero,41e38 <__adddf3+0x8d4>
   4186c:	6b25c83a 	sub	r18,r13,r12
   41870:	5c57c83a 	sub	r11,r11,r17
   41874:	6c9b803a 	cmpltu	r13,r13,r18
   41878:	5b63c83a 	sub	r17,r11,r13
   4187c:	3827883a 	mov	r19,r7
   41880:	5029883a 	mov	r20,r10
   41884:	003f8506 	br	4169c <__adddf3+0x138>
   41888:	8081ffe0 	cmpeqi	r2,r16,2047
   4188c:	1000631e 	bne	r2,zero,41a1c <__adddf3+0x4b8>
   41890:	28800e48 	cmpgei	r2,r5,57
   41894:	1000aa26 	beq	r2,zero,41b40 <__adddf3+0x5dc>
   41898:	04800044 	movi	r18,1
   4189c:	9325883a 	add	r18,r18,r12
   418a0:	9305803a 	cmpltu	r2,r18,r12
   418a4:	88a3883a 	add	r17,r17,r2
   418a8:	8880202c 	andhi	r2,r17,128
   418ac:	10001a26 	beq	r2,zero,41918 <__adddf3+0x3b4>
   418b0:	84000044 	addi	r16,r16,1
   418b4:	8081ffe0 	cmpeqi	r2,r16,2047
   418b8:	10000a1e 	bne	r2,zero,418e4 <__adddf3+0x380>
   418bc:	00bfe034 	movhi	r2,65408
   418c0:	10bfffc4 	addi	r2,r2,-1
   418c4:	9006d07a 	srli	r3,r18,1
   418c8:	8884703a 	and	r2,r17,r2
   418cc:	100897fa 	slli	r4,r2,31
   418d0:	9480004c 	andi	r18,r18,1
   418d4:	1c86b03a 	or	r3,r3,r18
   418d8:	1022d07a 	srli	r17,r2,1
   418dc:	20e4b03a 	or	r18,r4,r3
   418e0:	003f6e06 	br	4169c <__adddf3+0x138>
   418e4:	00c1ffc4 	movi	r3,2047
   418e8:	0009883a 	mov	r4,zero
   418ec:	0005883a 	mov	r2,zero
   418f0:	003f8206 	br	416fc <__adddf3+0x198>
   418f4:	04800044 	movi	r18,1
   418f8:	003f4a06 	br	41624 <__adddf3+0xc0>
   418fc:	6365883a 	add	r18,r12,r13
   41900:	8ad7883a 	add	r11,r17,r11
   41904:	9305803a 	cmpltu	r2,r18,r12
   41908:	58a3883a 	add	r17,r11,r2
   4190c:	8880202c 	andhi	r2,r17,128
   41910:	1001061e 	bne	r2,zero,41d2c <__adddf3+0x7c8>
   41914:	04000044 	movi	r16,1
   41918:	908001cc 	andi	r2,r18,7
   4191c:	103f611e 	bne	r2,zero,416a4 <__adddf3+0x140>
   41920:	00006906 	br	41ac8 <__adddf3+0x564>
   41924:	28005626 	beq	r5,zero,41a80 <__adddf3+0x51c>
   41928:	140bc83a 	sub	r5,r2,r16
   4192c:	80008626 	beq	r16,zero,41b48 <__adddf3+0x5e4>
   41930:	10c1ffe0 	cmpeqi	r3,r2,2047
   41934:	1801101e 	bne	r3,zero,41d78 <__adddf3+0x814>
   41938:	28c00e48 	cmpgei	r3,r5,57
   4193c:	1800da1e 	bne	r3,zero,41ca8 <__adddf3+0x744>
   41940:	8c402034 	orhi	r17,r17,128
   41944:	28c00808 	cmpgei	r3,r5,32
   41948:	1801241e 	bne	r3,zero,41ddc <__adddf3+0x878>
   4194c:	00c00804 	movi	r3,32
   41950:	1947c83a 	sub	r3,r3,r5
   41954:	88e4983a 	sll	r18,r17,r3
   41958:	6148d83a 	srl	r4,r12,r5
   4195c:	60c6983a 	sll	r3,r12,r3
   41960:	894ad83a 	srl	r5,r17,r5
   41964:	9124b03a 	or	r18,r18,r4
   41968:	1806c03a 	cmpne	r3,r3,zero
   4196c:	90e4b03a 	or	r18,r18,r3
   41970:	5957883a 	add	r11,r11,r5
   41974:	9365883a 	add	r18,r18,r13
   41978:	935b803a 	cmpltu	r13,r18,r13
   4197c:	6ae3883a 	add	r17,r13,r11
   41980:	1021883a 	mov	r16,r2
   41984:	003fc806 	br	418a8 <__adddf3+0x344>
   41988:	9009883a 	mov	r4,r18
   4198c:	0041fe40 	call	41fe4 <__clzsi2>
   41990:	11000604 	addi	r4,r2,24
   41994:	20c00808 	cmpgei	r3,r4,32
   41998:	183f2e26 	beq	r3,zero,41654 <__adddf3+0xf0>
   4199c:	10bffe04 	addi	r2,r2,-8
   419a0:	9084983a 	sll	r2,r18,r2
   419a4:	24007216 	blt	r4,r16,41b70 <__adddf3+0x60c>
   419a8:	2425c83a 	sub	r18,r4,r16
   419ac:	91000044 	addi	r4,r18,1
   419b0:	20c00808 	cmpgei	r3,r4,32
   419b4:	18012426 	beq	r3,zero,41e48 <__adddf3+0x8e4>
   419b8:	94bff844 	addi	r18,r18,-31
   419bc:	20c00820 	cmpeqi	r3,r4,32
   419c0:	14a4d83a 	srl	r18,r2,r18
   419c4:	1800051e 	bne	r3,zero,419dc <__adddf3+0x478>
   419c8:	00c01004 	movi	r3,64
   419cc:	1907c83a 	sub	r3,r3,r4
   419d0:	10c4983a 	sll	r2,r2,r3
   419d4:	1004c03a 	cmpne	r2,r2,zero
   419d8:	90a4b03a 	or	r18,r18,r2
   419dc:	908001cc 	andi	r2,r18,7
   419e0:	0021883a 	mov	r16,zero
   419e4:	103f2f1e 	bne	r2,zero,416a4 <__adddf3+0x140>
   419e8:	00003706 	br	41ac8 <__adddf3+0x564>
   419ec:	9004d0fa 	srli	r2,r18,3
   419f0:	880a977a 	slli	r5,r17,29
   419f4:	8101ffe0 	cmpeqi	r4,r16,2047
   419f8:	8806d0fa 	srli	r3,r17,3
   419fc:	2884b03a 	or	r2,r5,r2
   41a00:	20000c1e 	bne	r4,zero,41a34 <__adddf3+0x4d0>
   41a04:	01000434 	movhi	r4,16
   41a08:	213fffc4 	addi	r4,r4,-1
   41a0c:	1908703a 	and	r4,r3,r4
   41a10:	80c1ffcc 	andi	r3,r16,2047
   41a14:	003f3906 	br	416fc <__adddf3+0x198>
   41a18:	1000b31e 	bne	r2,zero,41ce8 <__adddf3+0x784>
   41a1c:	880a977a 	slli	r5,r17,29
   41a20:	00880034 	movhi	r2,8192
   41a24:	10bfffc4 	addi	r2,r2,-1
   41a28:	8806d0fa 	srli	r3,r17,3
   41a2c:	2084703a 	and	r2,r4,r2
   41a30:	1144b03a 	or	r2,r2,r5
   41a34:	10c8b03a 	or	r4,r2,r3
   41a38:	20010726 	beq	r4,zero,41e58 <__adddf3+0x8f4>
   41a3c:	01400434 	movhi	r5,16
   41a40:	19000234 	orhi	r4,r3,8
   41a44:	297fffc4 	addi	r5,r5,-1
   41a48:	2148703a 	and	r4,r4,r5
   41a4c:	00c1ffc4 	movi	r3,2047
   41a50:	003f2a06 	br	416fc <__adddf3+0x198>
   41a54:	6819883a 	mov	r12,r13
   41a58:	5823883a 	mov	r17,r11
   41a5c:	3827883a 	mov	r19,r7
   41a60:	6004d0fa 	srli	r2,r12,3
   41a64:	2821883a 	mov	r16,r5
   41a68:	003fe106 	br	419f0 <__adddf3+0x48c>
   41a6c:	047fe034 	movhi	r17,65408
   41a70:	8c7fffc4 	addi	r17,r17,-1
   41a74:	8121c83a 	sub	r16,r16,r4
   41a78:	1462703a 	and	r17,r2,r17
   41a7c:	003f0706 	br	4169c <__adddf3+0x138>
   41a80:	80c00044 	addi	r3,r16,1
   41a84:	1881ff8c 	andi	r2,r3,2046
   41a88:	1000421e 	bne	r2,zero,41b94 <__adddf3+0x630>
   41a8c:	8b04b03a 	or	r2,r17,r12
   41a90:	8000921e 	bne	r16,zero,41cdc <__adddf3+0x778>
   41a94:	1000c226 	beq	r2,zero,41da0 <__adddf3+0x83c>
   41a98:	5b44b03a 	or	r2,r11,r13
   41a9c:	10007326 	beq	r2,zero,41c6c <__adddf3+0x708>
   41aa0:	6365883a 	add	r18,r12,r13
   41aa4:	9305803a 	cmpltu	r2,r18,r12
   41aa8:	8ad7883a 	add	r11,r17,r11
   41aac:	58a3883a 	add	r17,r11,r2
   41ab0:	8880202c 	andhi	r2,r17,128
   41ab4:	10000426 	beq	r2,zero,41ac8 <__adddf3+0x564>
   41ab8:	00bfe034 	movhi	r2,65408
   41abc:	10bfffc4 	addi	r2,r2,-1
   41ac0:	88a2703a 	and	r17,r17,r2
   41ac4:	04000044 	movi	r16,1
   41ac8:	800b883a 	mov	r5,r16
   41acc:	9019883a 	mov	r12,r18
   41ad0:	003fe306 	br	41a60 <__adddf3+0x4fc>
   41ad4:	10c1ffe0 	cmpeqi	r3,r2,2047
   41ad8:	18006b1e 	bne	r3,zero,41c88 <__adddf3+0x724>
   41adc:	28c00e48 	cmpgei	r3,r5,57
   41ae0:	18002a1e 	bne	r3,zero,41b8c <__adddf3+0x628>
   41ae4:	8c402034 	orhi	r17,r17,128
   41ae8:	003f1d06 	br	41760 <__adddf3+0x1fc>
   41aec:	6365c83a 	sub	r18,r12,r13
   41af0:	6485803a 	cmpltu	r2,r12,r18
   41af4:	8ac7c83a 	sub	r3,r17,r11
   41af8:	1887c83a 	sub	r3,r3,r2
   41afc:	1880202c 	andhi	r2,r3,128
   41b00:	1000321e 	bne	r2,zero,41bcc <__adddf3+0x668>
   41b04:	90c4b03a 	or	r2,r18,r3
   41b08:	10004926 	beq	r2,zero,41c30 <__adddf3+0x6cc>
   41b0c:	1823883a 	mov	r17,r3
   41b10:	003ecc06 	br	41644 <__adddf3+0xe0>
   41b14:	28bff804 	addi	r2,r5,-32
   41b18:	28c00820 	cmpeqi	r3,r5,32
   41b1c:	5884d83a 	srl	r2,r11,r2
   41b20:	1800041e 	bne	r3,zero,41b34 <__adddf3+0x5d0>
   41b24:	00c01004 	movi	r3,64
   41b28:	1947c83a 	sub	r3,r3,r5
   41b2c:	58c6983a 	sll	r3,r11,r3
   41b30:	68dab03a 	or	r13,r13,r3
   41b34:	6824c03a 	cmpne	r18,r13,zero
   41b38:	90a4b03a 	or	r18,r18,r2
   41b3c:	003eb906 	br	41624 <__adddf3+0xc0>
   41b40:	5ac02034 	orhi	r11,r11,128
   41b44:	003f2406 	br	417d8 <__adddf3+0x274>
   41b48:	8b06b03a 	or	r3,r17,r12
   41b4c:	18009126 	beq	r3,zero,41d94 <__adddf3+0x830>
   41b50:	28ffffc4 	addi	r3,r5,-1
   41b54:	1800ac26 	beq	r3,zero,41e08 <__adddf3+0x8a4>
   41b58:	2941ffe0 	cmpeqi	r5,r5,2047
   41b5c:	2800861e 	bne	r5,zero,41d78 <__adddf3+0x814>
   41b60:	19000e48 	cmpgei	r4,r3,57
   41b64:	2000501e 	bne	r4,zero,41ca8 <__adddf3+0x744>
   41b68:	180b883a 	mov	r5,r3
   41b6c:	003f7506 	br	41944 <__adddf3+0x3e0>
   41b70:	00ffe034 	movhi	r3,65408
   41b74:	18ffffc4 	addi	r3,r3,-1
   41b78:	10c6703a 	and	r3,r2,r3
   41b7c:	1804977a 	slli	r2,r3,29
   41b80:	8121c83a 	sub	r16,r16,r4
   41b84:	1806d0fa 	srli	r3,r3,3
   41b88:	003f9e06 	br	41a04 <__adddf3+0x4a0>
   41b8c:	04800044 	movi	r18,1
   41b90:	003eff06 	br	41790 <__adddf3+0x22c>
   41b94:	1881ffe0 	cmpeqi	r2,r3,2047
   41b98:	103f521e 	bne	r2,zero,418e4 <__adddf3+0x380>
   41b9c:	6349883a 	add	r4,r12,r13
   41ba0:	8ad7883a 	add	r11,r17,r11
   41ba4:	2305803a 	cmpltu	r2,r4,r12
   41ba8:	5885883a 	add	r2,r11,r2
   41bac:	2008d07a 	srli	r4,r4,1
   41bb0:	102497fa 	slli	r18,r2,31
   41bb4:	1022d07a 	srli	r17,r2,1
   41bb8:	208001cc 	andi	r2,r4,7
   41bbc:	9124b03a 	or	r18,r18,r4
   41bc0:	1821883a 	mov	r16,r3
   41bc4:	103eb71e 	bne	r2,zero,416a4 <__adddf3+0x140>
   41bc8:	003fbf06 	br	41ac8 <__adddf3+0x564>
   41bcc:	6b25c83a 	sub	r18,r13,r12
   41bd0:	5c57c83a 	sub	r11,r11,r17
   41bd4:	6c9b803a 	cmpltu	r13,r13,r18
   41bd8:	5b63c83a 	sub	r17,r11,r13
   41bdc:	3827883a 	mov	r19,r7
   41be0:	5029883a 	mov	r20,r10
   41be4:	003e9706 	br	41644 <__adddf3+0xe0>
   41be8:	283f8b1e 	bne	r5,zero,41a18 <__adddf3+0x4b4>
   41bec:	1000261e 	bne	r2,zero,41c88 <__adddf3+0x724>
   41bf0:	00bfffc4 	movi	r2,-1
   41bf4:	0027883a 	mov	r19,zero
   41bf8:	003f9006 	br	41a3c <__adddf3+0x4d8>
   41bfc:	6365c83a 	sub	r18,r12,r13
   41c00:	8ad7c83a 	sub	r11,r17,r11
   41c04:	6485803a 	cmpltu	r2,r12,r18
   41c08:	58a3c83a 	sub	r17,r11,r2
   41c0c:	04000044 	movi	r16,1
   41c10:	003e8706 	br	41630 <__adddf3+0xcc>
   41c14:	8804977a 	slli	r2,r17,29
   41c18:	00c80034 	movhi	r3,8192
   41c1c:	18ffffc4 	addi	r3,r3,-1
   41c20:	20c8703a 	and	r4,r4,r3
   41c24:	2084b03a 	or	r2,r4,r2
   41c28:	8806d0fa 	srli	r3,r17,3
   41c2c:	003f8106 	br	41a34 <__adddf3+0x4d0>
   41c30:	0027883a 	mov	r19,zero
   41c34:	0007883a 	mov	r3,zero
   41c38:	0009883a 	mov	r4,zero
   41c3c:	003eaf06 	br	416fc <__adddf3+0x198>
   41c40:	28bff804 	addi	r2,r5,-32
   41c44:	28c00820 	cmpeqi	r3,r5,32
   41c48:	5884d83a 	srl	r2,r11,r2
   41c4c:	1800041e 	bne	r3,zero,41c60 <__adddf3+0x6fc>
   41c50:	00c01004 	movi	r3,64
   41c54:	1947c83a 	sub	r3,r3,r5
   41c58:	58c6983a 	sll	r3,r11,r3
   41c5c:	68dab03a 	or	r13,r13,r3
   41c60:	6824c03a 	cmpne	r18,r13,zero
   41c64:	90a4b03a 	or	r18,r18,r2
   41c68:	003f0c06 	br	4189c <__adddf3+0x338>
   41c6c:	880a977a 	slli	r5,r17,29
   41c70:	00880034 	movhi	r2,8192
   41c74:	10bfffc4 	addi	r2,r2,-1
   41c78:	2084703a 	and	r2,r4,r2
   41c7c:	8806d0fa 	srli	r3,r17,3
   41c80:	1144b03a 	or	r2,r2,r5
   41c84:	003f5f06 	br	41a04 <__adddf3+0x4a0>
   41c88:	5804977a 	slli	r2,r11,29
   41c8c:	00c80034 	movhi	r3,8192
   41c90:	18ffffc4 	addi	r3,r3,-1
   41c94:	30c8703a 	and	r4,r6,r3
   41c98:	1104b03a 	or	r2,r2,r4
   41c9c:	5806d0fa 	srli	r3,r11,3
   41ca0:	3827883a 	mov	r19,r7
   41ca4:	003f6306 	br	41a34 <__adddf3+0x4d0>
   41ca8:	04800044 	movi	r18,1
   41cac:	003f3106 	br	41974 <__adddf3+0x410>
   41cb0:	28fff804 	addi	r3,r5,-32
   41cb4:	29000820 	cmpeqi	r4,r5,32
   41cb8:	88c6d83a 	srl	r3,r17,r3
   41cbc:	2000041e 	bne	r4,zero,41cd0 <__adddf3+0x76c>
   41cc0:	01001004 	movi	r4,64
   41cc4:	2149c83a 	sub	r4,r4,r5
   41cc8:	8908983a 	sll	r4,r17,r4
   41ccc:	6118b03a 	or	r12,r12,r4
   41cd0:	6024c03a 	cmpne	r18,r12,zero
   41cd4:	90e4b03a 	or	r18,r18,r3
   41cd8:	003ead06 	br	41790 <__adddf3+0x22c>
   41cdc:	10004f26 	beq	r2,zero,41e1c <__adddf3+0x8b8>
   41ce0:	5b5ab03a 	or	r13,r11,r13
   41ce4:	683f4d26 	beq	r13,zero,41a1c <__adddf3+0x4b8>
   41ce8:	8806d0fa 	srli	r3,r17,3
   41cec:	01480034 	movhi	r5,8192
   41cf0:	8822977a 	slli	r17,r17,29
   41cf4:	297fffc4 	addi	r5,r5,-1
   41cf8:	2144703a 	and	r2,r4,r5
   41cfc:	1900022c 	andhi	r4,r3,8
   41d00:	1444b03a 	or	r2,r2,r17
   41d04:	203f4b26 	beq	r4,zero,41a34 <__adddf3+0x4d0>
   41d08:	5808d0fa 	srli	r4,r11,3
   41d0c:	2200022c 	andhi	r8,r4,8
   41d10:	403f481e 	bne	r8,zero,41a34 <__adddf3+0x4d0>
   41d14:	5804977a 	slli	r2,r11,29
   41d18:	314a703a 	and	r5,r6,r5
   41d1c:	3827883a 	mov	r19,r7
   41d20:	2884b03a 	or	r2,r5,r2
   41d24:	2007883a 	mov	r3,r4
   41d28:	003f4206 	br	41a34 <__adddf3+0x4d0>
   41d2c:	04000084 	movi	r16,2
   41d30:	003ee206 	br	418bc <__adddf3+0x358>
   41d34:	6b25c83a 	sub	r18,r13,r12
   41d38:	5c57c83a 	sub	r11,r11,r17
   41d3c:	6c9b803a 	cmpltu	r13,r13,r18
   41d40:	5b63c83a 	sub	r17,r11,r13
   41d44:	3827883a 	mov	r19,r7
   41d48:	5029883a 	mov	r20,r10
   41d4c:	04000044 	movi	r16,1
   41d50:	003e3706 	br	41630 <__adddf3+0xcc>
   41d54:	103fb626 	beq	r2,zero,41c30 <__adddf3+0x6cc>
   41d58:	5808977a 	slli	r4,r11,29
   41d5c:	00880034 	movhi	r2,8192
   41d60:	10bfffc4 	addi	r2,r2,-1
   41d64:	3084703a 	and	r2,r6,r2
   41d68:	5806d0fa 	srli	r3,r11,3
   41d6c:	1104b03a 	or	r2,r2,r4
   41d70:	3827883a 	mov	r19,r7
   41d74:	003f2306 	br	41a04 <__adddf3+0x4a0>
   41d78:	5808977a 	slli	r4,r11,29
   41d7c:	00880034 	movhi	r2,8192
   41d80:	10bfffc4 	addi	r2,r2,-1
   41d84:	3084703a 	and	r2,r6,r2
   41d88:	5806d0fa 	srli	r3,r11,3
   41d8c:	1104b03a 	or	r2,r2,r4
   41d90:	003f2806 	br	41a34 <__adddf3+0x4d0>
   41d94:	6819883a 	mov	r12,r13
   41d98:	5823883a 	mov	r17,r11
   41d9c:	003f3006 	br	41a60 <__adddf3+0x4fc>
   41da0:	5808977a 	slli	r4,r11,29
   41da4:	00880034 	movhi	r2,8192
   41da8:	10bfffc4 	addi	r2,r2,-1
   41dac:	3084703a 	and	r2,r6,r2
   41db0:	5806d0fa 	srli	r3,r11,3
   41db4:	1104b03a 	or	r2,r2,r4
   41db8:	003f1206 	br	41a04 <__adddf3+0x4a0>
   41dbc:	5808977a 	slli	r4,r11,29
   41dc0:	00880034 	movhi	r2,8192
   41dc4:	10bfffc4 	addi	r2,r2,-1
   41dc8:	3084703a 	and	r2,r6,r2
   41dcc:	5806d0fa 	srli	r3,r11,3
   41dd0:	1104b03a 	or	r2,r2,r4
   41dd4:	3827883a 	mov	r19,r7
   41dd8:	003f1606 	br	41a34 <__adddf3+0x4d0>
   41ddc:	28fff804 	addi	r3,r5,-32
   41de0:	29000820 	cmpeqi	r4,r5,32
   41de4:	88c6d83a 	srl	r3,r17,r3
   41de8:	2000041e 	bne	r4,zero,41dfc <__adddf3+0x898>
   41dec:	01001004 	movi	r4,64
   41df0:	2149c83a 	sub	r4,r4,r5
   41df4:	8908983a 	sll	r4,r17,r4
   41df8:	6118b03a 	or	r12,r12,r4
   41dfc:	6024c03a 	cmpne	r18,r12,zero
   41e00:	90e4b03a 	or	r18,r18,r3
   41e04:	003edb06 	br	41974 <__adddf3+0x410>
   41e08:	6365883a 	add	r18,r12,r13
   41e0c:	8ad7883a 	add	r11,r17,r11
   41e10:	935b803a 	cmpltu	r13,r18,r13
   41e14:	5b63883a 	add	r17,r11,r13
   41e18:	003ebc06 	br	4190c <__adddf3+0x3a8>
   41e1c:	5804977a 	slli	r2,r11,29
   41e20:	00c80034 	movhi	r3,8192
   41e24:	18ffffc4 	addi	r3,r3,-1
   41e28:	30cc703a 	and	r6,r6,r3
   41e2c:	1184b03a 	or	r2,r2,r6
   41e30:	5806d0fa 	srli	r3,r11,3
   41e34:	003eff06 	br	41a34 <__adddf3+0x4d0>
   41e38:	90c4b03a 	or	r2,r18,r3
   41e3c:	103f7c26 	beq	r2,zero,41c30 <__adddf3+0x6cc>
   41e40:	1823883a 	mov	r17,r3
   41e44:	003f2006 	br	41ac8 <__adddf3+0x564>
   41e48:	00c00804 	movi	r3,32
   41e4c:	1907c83a 	sub	r3,r3,r4
   41e50:	000b883a 	mov	r5,zero
   41e54:	003e0c06 	br	41688 <__adddf3+0x124>
   41e58:	0005883a 	mov	r2,zero
   41e5c:	00c1ffc4 	movi	r3,2047
   41e60:	0009883a 	mov	r4,zero
   41e64:	003e2506 	br	416fc <__adddf3+0x198>

00041e68 <__fixdfsi>:
   41e68:	2804d53a 	srli	r2,r5,20
   41e6c:	00c00434 	movhi	r3,16
   41e70:	18ffffc4 	addi	r3,r3,-1
   41e74:	1081ffcc 	andi	r2,r2,2047
   41e78:	1180ffd0 	cmplti	r6,r2,1023
   41e7c:	280ed7fa 	srli	r7,r5,31
   41e80:	28ca703a 	and	r5,r5,r3
   41e84:	3000061e 	bne	r6,zero,41ea0 <__fixdfsi+0x38>
   41e88:	10c10790 	cmplti	r3,r2,1054
   41e8c:	1800061e 	bne	r3,zero,41ea8 <__fixdfsi+0x40>
   41e90:	00a00034 	movhi	r2,32768
   41e94:	10bfffc4 	addi	r2,r2,-1
   41e98:	3885883a 	add	r2,r7,r2
   41e9c:	f800283a 	ret
   41ea0:	0005883a 	mov	r2,zero
   41ea4:	f800283a 	ret
   41ea8:	00c10cc4 	movi	r3,1075
   41eac:	1887c83a 	sub	r3,r3,r2
   41eb0:	19800808 	cmpgei	r6,r3,32
   41eb4:	29400434 	orhi	r5,r5,16
   41eb8:	3000071e 	bne	r6,zero,41ed8 <__fixdfsi+0x70>
   41ebc:	10befb44 	addi	r2,r2,-1043
   41ec0:	2884983a 	sll	r2,r5,r2
   41ec4:	20c8d83a 	srl	r4,r4,r3
   41ec8:	1104b03a 	or	r2,r2,r4
   41ecc:	383ff526 	beq	r7,zero,41ea4 <__fixdfsi+0x3c>
   41ed0:	0085c83a 	sub	r2,zero,r2
   41ed4:	f800283a 	ret
   41ed8:	00c104c4 	movi	r3,1043
   41edc:	1885c83a 	sub	r2,r3,r2
   41ee0:	2884d83a 	srl	r2,r5,r2
   41ee4:	003ff906 	br	41ecc <__fixdfsi+0x64>

00041ee8 <__extendsfdf2>:
   41ee8:	200ad5fa 	srli	r5,r4,23
   41eec:	defffd04 	addi	sp,sp,-12
   41ef0:	dc000015 	stw	r16,0(sp)
   41ef4:	29403fcc 	andi	r5,r5,255
   41ef8:	04002034 	movhi	r16,128
   41efc:	28800044 	addi	r2,r5,1
   41f00:	dc400115 	stw	r17,4(sp)
   41f04:	843fffc4 	addi	r16,r16,-1
   41f08:	dfc00215 	stw	ra,8(sp)
   41f0c:	10803f8c 	andi	r2,r2,254
   41f10:	2022d7fa 	srli	r17,r4,31
   41f14:	8120703a 	and	r16,r16,r4
   41f18:	10000d26 	beq	r2,zero,41f50 <__extendsfdf2+0x68>
   41f1c:	8008d0fa 	srli	r4,r16,3
   41f20:	8020977a 	slli	r16,r16,29
   41f24:	2940e004 	addi	r5,r5,896
   41f28:	280a953a 	slli	r5,r5,20
   41f2c:	880697fa 	slli	r3,r17,31
   41f30:	8005883a 	mov	r2,r16
   41f34:	290ab03a 	or	r5,r5,r4
   41f38:	28c6b03a 	or	r3,r5,r3
   41f3c:	dfc00217 	ldw	ra,8(sp)
   41f40:	dc400117 	ldw	r17,4(sp)
   41f44:	dc000017 	ldw	r16,0(sp)
   41f48:	dec00304 	addi	sp,sp,12
   41f4c:	f800283a 	ret
   41f50:	2800111e 	bne	r5,zero,41f98 <__extendsfdf2+0xb0>
   41f54:	80001926 	beq	r16,zero,41fbc <__extendsfdf2+0xd4>
   41f58:	8009883a 	mov	r4,r16
   41f5c:	0041fe40 	call	41fe4 <__clzsi2>
   41f60:	10c002c8 	cmpgei	r3,r2,11
   41f64:	18001b1e 	bne	r3,zero,41fd4 <__extendsfdf2+0xec>
   41f68:	010002c4 	movi	r4,11
   41f6c:	2089c83a 	sub	r4,r4,r2
   41f70:	10c00544 	addi	r3,r2,21
   41f74:	8108d83a 	srl	r4,r16,r4
   41f78:	80e0983a 	sll	r16,r16,r3
   41f7c:	00c00434 	movhi	r3,16
   41f80:	0140e244 	movi	r5,905
   41f84:	18ffffc4 	addi	r3,r3,-1
   41f88:	288bc83a 	sub	r5,r5,r2
   41f8c:	20c8703a 	and	r4,r4,r3
   41f90:	2941ffcc 	andi	r5,r5,2047
   41f94:	003fe406 	br	41f28 <__extendsfdf2+0x40>
   41f98:	80000b26 	beq	r16,zero,41fc8 <__extendsfdf2+0xe0>
   41f9c:	8008d0fa 	srli	r4,r16,3
   41fa0:	00800434 	movhi	r2,16
   41fa4:	10bfffc4 	addi	r2,r2,-1
   41fa8:	21000234 	orhi	r4,r4,8
   41fac:	8020977a 	slli	r16,r16,29
   41fb0:	2088703a 	and	r4,r4,r2
   41fb4:	0141ffc4 	movi	r5,2047
   41fb8:	003fdb06 	br	41f28 <__extendsfdf2+0x40>
   41fbc:	000b883a 	mov	r5,zero
   41fc0:	0009883a 	mov	r4,zero
   41fc4:	003fd806 	br	41f28 <__extendsfdf2+0x40>
   41fc8:	0141ffc4 	movi	r5,2047
   41fcc:	0009883a 	mov	r4,zero
   41fd0:	003fd506 	br	41f28 <__extendsfdf2+0x40>
   41fd4:	113ffd44 	addi	r4,r2,-11
   41fd8:	8108983a 	sll	r4,r16,r4
   41fdc:	0021883a 	mov	r16,zero
   41fe0:	003fe606 	br	41f7c <__extendsfdf2+0x94>

00041fe4 <__clzsi2>:
   41fe4:	00bfffd4 	movui	r2,65535
   41fe8:	11000a36 	bltu	r2,r4,42014 <__clzsi2+0x30>
   41fec:	20c04028 	cmpgeui	r3,r4,256
   41ff0:	180690fa 	slli	r3,r3,3
   41ff4:	00800804 	movi	r2,32
   41ff8:	10c5c83a 	sub	r2,r2,r3
   41ffc:	20c8d83a 	srl	r4,r4,r3
   42000:	00c00174 	movhi	r3,5
   42004:	20c7883a 	add	r3,r4,r3
   42008:	18d48f03 	ldbu	r3,21052(r3)
   4200c:	10c5c83a 	sub	r2,r2,r3
   42010:	f800283a 	ret
   42014:	00804034 	movhi	r2,256
   42018:	2080032e 	bgeu	r4,r2,42028 <__clzsi2+0x44>
   4201c:	00800404 	movi	r2,16
   42020:	00c00404 	movi	r3,16
   42024:	003ff506 	br	41ffc <__clzsi2+0x18>
   42028:	00800204 	movi	r2,8
   4202c:	00c00604 	movi	r3,24
   42030:	003ff206 	br	41ffc <__clzsi2+0x18>

00042034 <_asprintf_r>:
   42034:	deffe304 	addi	sp,sp,-116
   42038:	dc001a15 	stw	r16,104(sp)
   4203c:	2821883a 	mov	r16,r5
   42040:	dfc01b15 	stw	ra,108(sp)
   42044:	d9c01c15 	stw	r7,112(sp)
   42048:	00bffff4 	movhi	r2,65535
   4204c:	1080a204 	addi	r2,r2,648
   42050:	d9c01c04 	addi	r7,sp,112
   42054:	d80b883a 	mov	r5,sp
   42058:	d8000015 	stw	zero,0(sp)
   4205c:	d8000415 	stw	zero,16(sp)
   42060:	d8000215 	stw	zero,8(sp)
   42064:	d8000515 	stw	zero,20(sp)
   42068:	d8800315 	stw	r2,12(sp)
   4206c:	0042bd80 	call	42bd8 <___svfprintf_internal_r>
   42070:	10000416 	blt	r2,zero,42084 <_asprintf_r+0x50>
   42074:	d8c00017 	ldw	r3,0(sp)
   42078:	18000005 	stb	zero,0(r3)
   4207c:	d8c00417 	ldw	r3,16(sp)
   42080:	80c00015 	stw	r3,0(r16)
   42084:	dfc01b17 	ldw	ra,108(sp)
   42088:	dc001a17 	ldw	r16,104(sp)
   4208c:	dec01d04 	addi	sp,sp,116
   42090:	f800283a 	ret

00042094 <asprintf>:
   42094:	deffe204 	addi	sp,sp,-120
   42098:	dc001a15 	stw	r16,104(sp)
   4209c:	2021883a 	mov	r16,r4
   420a0:	dfc01b15 	stw	ra,108(sp)
   420a4:	d9801c15 	stw	r6,112(sp)
   420a8:	d9c01d15 	stw	r7,116(sp)
   420ac:	00800174 	movhi	r2,5
   420b0:	111d2c17 	ldw	r4,29872(r2)
   420b4:	00bffff4 	movhi	r2,65535
   420b8:	1080a204 	addi	r2,r2,648
   420bc:	280d883a 	mov	r6,r5
   420c0:	d9c01c04 	addi	r7,sp,112
   420c4:	d80b883a 	mov	r5,sp
   420c8:	d8000015 	stw	zero,0(sp)
   420cc:	d8000415 	stw	zero,16(sp)
   420d0:	d8000215 	stw	zero,8(sp)
   420d4:	d8000515 	stw	zero,20(sp)
   420d8:	d8800315 	stw	r2,12(sp)
   420dc:	0042bd80 	call	42bd8 <___svfprintf_internal_r>
   420e0:	10000416 	blt	r2,zero,420f4 <asprintf+0x60>
   420e4:	d8c00017 	ldw	r3,0(sp)
   420e8:	18000005 	stb	zero,0(r3)
   420ec:	d8c00417 	ldw	r3,16(sp)
   420f0:	80c00015 	stw	r3,0(r16)
   420f4:	dfc01b17 	ldw	ra,108(sp)
   420f8:	dc001a17 	ldw	r16,104(sp)
   420fc:	dec01e04 	addi	sp,sp,120
   42100:	f800283a 	ret

00042104 <malloc>:
   42104:	00800174 	movhi	r2,5
   42108:	200b883a 	mov	r5,r4
   4210c:	111d2c17 	ldw	r4,29872(r2)
   42110:	00421241 	jmpi	42124 <_malloc_r>

00042114 <free>:
   42114:	00800174 	movhi	r2,5
   42118:	200b883a 	mov	r5,r4
   4211c:	111d2c17 	ldw	r4,29872(r2)
   42120:	00498801 	jmpi	49880 <_free_r>

00042124 <_malloc_r>:
   42124:	defff604 	addi	sp,sp,-40
   42128:	dc400115 	stw	r17,4(sp)
   4212c:	2c4002c4 	addi	r17,r5,11
   42130:	dc800215 	stw	r18,8(sp)
   42134:	dfc00915 	stw	ra,36(sp)
   42138:	df000815 	stw	fp,32(sp)
   4213c:	ddc00715 	stw	r23,28(sp)
   42140:	dd800615 	stw	r22,24(sp)
   42144:	dd400515 	stw	r21,20(sp)
   42148:	dd000415 	stw	r20,16(sp)
   4214c:	dcc00315 	stw	r19,12(sp)
   42150:	dc000015 	stw	r16,0(sp)
   42154:	888005e8 	cmpgeui	r2,r17,23
   42158:	2025883a 	mov	r18,r4
   4215c:	1000261e 	bne	r2,zero,421f8 <_malloc_r+0xd4>
   42160:	29400468 	cmpgeui	r5,r5,17
   42164:	28008d1e 	bne	r5,zero,4239c <_malloc_r+0x278>
   42168:	00529e00 	call	529e0 <__malloc_lock>
   4216c:	04400404 	movi	r17,16
   42170:	00800604 	movi	r2,24
   42174:	01c00084 	movi	r7,2
   42178:	04c00174 	movhi	r19,5
   4217c:	9cd74104 	addi	r19,r19,23812
   42180:	9885883a 	add	r2,r19,r2
   42184:	14000117 	ldw	r16,4(r2)
   42188:	10fffe04 	addi	r3,r2,-8
   4218c:	80c0cb26 	beq	r16,r3,424bc <_malloc_r+0x398>
   42190:	80800117 	ldw	r2,4(r16)
   42194:	81000317 	ldw	r4,12(r16)
   42198:	00ffff04 	movi	r3,-4
   4219c:	10c4703a 	and	r2,r2,r3
   421a0:	81400217 	ldw	r5,8(r16)
   421a4:	8085883a 	add	r2,r16,r2
   421a8:	10c00117 	ldw	r3,4(r2)
   421ac:	29000315 	stw	r4,12(r5)
   421b0:	21400215 	stw	r5,8(r4)
   421b4:	18c00054 	ori	r3,r3,1
   421b8:	10c00115 	stw	r3,4(r2)
   421bc:	9009883a 	mov	r4,r18
   421c0:	0052a040 	call	52a04 <__malloc_unlock>
   421c4:	80800204 	addi	r2,r16,8
   421c8:	dfc00917 	ldw	ra,36(sp)
   421cc:	df000817 	ldw	fp,32(sp)
   421d0:	ddc00717 	ldw	r23,28(sp)
   421d4:	dd800617 	ldw	r22,24(sp)
   421d8:	dd400517 	ldw	r21,20(sp)
   421dc:	dd000417 	ldw	r20,16(sp)
   421e0:	dcc00317 	ldw	r19,12(sp)
   421e4:	dc800217 	ldw	r18,8(sp)
   421e8:	dc400117 	ldw	r17,4(sp)
   421ec:	dc000017 	ldw	r16,0(sp)
   421f0:	dec00a04 	addi	sp,sp,40
   421f4:	f800283a 	ret
   421f8:	00bffe04 	movi	r2,-8
   421fc:	88a2703a 	and	r17,r17,r2
   42200:	88006616 	blt	r17,zero,4239c <_malloc_r+0x278>
   42204:	89406536 	bltu	r17,r5,4239c <_malloc_r+0x278>
   42208:	00529e00 	call	529e0 <__malloc_lock>
   4220c:	88807e28 	cmpgeui	r2,r17,504
   42210:	1000ef26 	beq	r2,zero,425d0 <_malloc_r+0x4ac>
   42214:	8804d27a 	srli	r2,r17,9
   42218:	10006426 	beq	r2,zero,423ac <_malloc_r+0x288>
   4221c:	10c00168 	cmpgeui	r3,r2,5
   42220:	1800c31e 	bne	r3,zero,42530 <_malloc_r+0x40c>
   42224:	8804d1ba 	srli	r2,r17,6
   42228:	11c00e44 	addi	r7,r2,57
   4222c:	380890fa 	slli	r4,r7,3
   42230:	12000e04 	addi	r8,r2,56
   42234:	04c00174 	movhi	r19,5
   42238:	9cd74104 	addi	r19,r19,23812
   4223c:	9909883a 	add	r4,r19,r4
   42240:	24000117 	ldw	r16,4(r4)
   42244:	213ffe04 	addi	r4,r4,-8
   42248:	24000b26 	beq	r4,r16,42278 <_malloc_r+0x154>
   4224c:	01bfff04 	movi	r6,-4
   42250:	00000306 	br	42260 <_malloc_r+0x13c>
   42254:	1800970e 	bge	r3,zero,424b4 <_malloc_r+0x390>
   42258:	84000317 	ldw	r16,12(r16)
   4225c:	24000626 	beq	r4,r16,42278 <_malloc_r+0x154>
   42260:	80800117 	ldw	r2,4(r16)
   42264:	1184703a 	and	r2,r2,r6
   42268:	1447c83a 	sub	r3,r2,r17
   4226c:	19400408 	cmpgei	r5,r3,16
   42270:	283ff826 	beq	r5,zero,42254 <_malloc_r+0x130>
   42274:	400f883a 	mov	r7,r8
   42278:	9c000417 	ldw	r16,16(r19)
   4227c:	02400174 	movhi	r9,5
   42280:	4a574304 	addi	r9,r9,23820
   42284:	82407f26 	beq	r16,r9,42484 <_malloc_r+0x360>
   42288:	80800117 	ldw	r2,4(r16)
   4228c:	00ffff04 	movi	r3,-4
   42290:	10c4703a 	and	r2,r2,r3
   42294:	1447c83a 	sub	r3,r2,r17
   42298:	19000410 	cmplti	r4,r3,16
   4229c:	2000cf26 	beq	r4,zero,425dc <_malloc_r+0x4b8>
   422a0:	9a400515 	stw	r9,20(r19)
   422a4:	9a400415 	stw	r9,16(r19)
   422a8:	1800c10e 	bge	r3,zero,425b0 <_malloc_r+0x48c>
   422ac:	10c08028 	cmpgeui	r3,r2,512
   422b0:	99400117 	ldw	r5,4(r19)
   422b4:	1800851e 	bne	r3,zero,424cc <_malloc_r+0x3a8>
   422b8:	1006d0fa 	srli	r3,r2,3
   422bc:	1008d17a 	srli	r4,r2,5
   422c0:	18800044 	addi	r2,r3,1
   422c4:	100490fa 	slli	r2,r2,3
   422c8:	00c00044 	movi	r3,1
   422cc:	1906983a 	sll	r3,r3,r4
   422d0:	9885883a 	add	r2,r19,r2
   422d4:	11000017 	ldw	r4,0(r2)
   422d8:	28cab03a 	or	r5,r5,r3
   422dc:	10fffe04 	addi	r3,r2,-8
   422e0:	80c00315 	stw	r3,12(r16)
   422e4:	81000215 	stw	r4,8(r16)
   422e8:	99400115 	stw	r5,4(r19)
   422ec:	14000015 	stw	r16,0(r2)
   422f0:	24000315 	stw	r16,12(r4)
   422f4:	3805d0ba 	srai	r2,r7,2
   422f8:	01000044 	movi	r4,1
   422fc:	2088983a 	sll	r4,r4,r2
   42300:	29002e36 	bltu	r5,r4,423bc <_malloc_r+0x298>
   42304:	2144703a 	and	r2,r4,r5
   42308:	10000a1e 	bne	r2,zero,42334 <_malloc_r+0x210>
   4230c:	2109883a 	add	r4,r4,r4
   42310:	00bfff04 	movi	r2,-4
   42314:	3884703a 	and	r2,r7,r2
   42318:	2146703a 	and	r3,r4,r5
   4231c:	11c00104 	addi	r7,r2,4
   42320:	1800041e 	bne	r3,zero,42334 <_malloc_r+0x210>
   42324:	2109883a 	add	r4,r4,r4
   42328:	2144703a 	and	r2,r4,r5
   4232c:	39c00104 	addi	r7,r7,4
   42330:	103ffc26 	beq	r2,zero,42324 <_malloc_r+0x200>
   42334:	02bfff04 	movi	r10,-4
   42338:	381690fa 	slli	r11,r7,3
   4233c:	3819883a 	mov	r12,r7
   42340:	9ad7883a 	add	r11,r19,r11
   42344:	5811883a 	mov	r8,r11
   42348:	40800317 	ldw	r2,12(r8)
   4234c:	40808126 	beq	r8,r2,42554 <_malloc_r+0x430>
   42350:	10c00117 	ldw	r3,4(r2)
   42354:	1021883a 	mov	r16,r2
   42358:	10800317 	ldw	r2,12(r2)
   4235c:	1a86703a 	and	r3,r3,r10
   42360:	1c4bc83a 	sub	r5,r3,r17
   42364:	29800410 	cmplti	r6,r5,16
   42368:	30007f26 	beq	r6,zero,42568 <_malloc_r+0x444>
   4236c:	283ff716 	blt	r5,zero,4234c <_malloc_r+0x228>
   42370:	80c7883a 	add	r3,r16,r3
   42374:	19400117 	ldw	r5,4(r3)
   42378:	81800217 	ldw	r6,8(r16)
   4237c:	9009883a 	mov	r4,r18
   42380:	29400054 	ori	r5,r5,1
   42384:	19400115 	stw	r5,4(r3)
   42388:	30800315 	stw	r2,12(r6)
   4238c:	11800215 	stw	r6,8(r2)
   42390:	0052a040 	call	52a04 <__malloc_unlock>
   42394:	80800204 	addi	r2,r16,8
   42398:	003f8b06 	br	421c8 <_malloc_r+0xa4>
   4239c:	00800304 	movi	r2,12
   423a0:	90800015 	stw	r2,0(r18)
   423a4:	0005883a 	mov	r2,zero
   423a8:	003f8706 	br	421c8 <_malloc_r+0xa4>
   423ac:	01008004 	movi	r4,512
   423b0:	01c01004 	movi	r7,64
   423b4:	02000fc4 	movi	r8,63
   423b8:	003f9e06 	br	42234 <_malloc_r+0x110>
   423bc:	9c000217 	ldw	r16,8(r19)
   423c0:	00bfff04 	movi	r2,-4
   423c4:	80c00117 	ldw	r3,4(r16)
   423c8:	18aa703a 	and	r21,r3,r2
   423cc:	ac400336 	bltu	r21,r17,423dc <_malloc_r+0x2b8>
   423d0:	ac47c83a 	sub	r3,r21,r17
   423d4:	18800408 	cmpgei	r2,r3,16
   423d8:	10002c1e 	bne	r2,zero,4248c <_malloc_r+0x368>
   423dc:	00800174 	movhi	r2,5
   423e0:	109d2d17 	ldw	r2,29876(r2)
   423e4:	00c001b4 	movhi	r3,6
   423e8:	1d243e17 	ldw	r20,-28424(r3)
   423ec:	10bfffd8 	cmpnei	r2,r2,-1
   423f0:	856f883a 	add	r23,r16,r21
   423f4:	8d29883a 	add	r20,r17,r20
   423f8:	1000e726 	beq	r2,zero,42798 <_malloc_r+0x674>
   423fc:	a50403c4 	addi	r20,r20,4111
   42400:	00bc0004 	movi	r2,-4096
   42404:	a0a8703a 	and	r20,r20,r2
   42408:	a00b883a 	mov	r5,r20
   4240c:	9009883a 	mov	r4,r18
   42410:	0042b800 	call	42b80 <_sbrk_r>
   42414:	102d883a 	mov	r22,r2
   42418:	10bfffd8 	cmpnei	r2,r2,-1
   4241c:	10008426 	beq	r2,zero,42630 <_malloc_r+0x50c>
   42420:	b5c08236 	bltu	r22,r23,4262c <_malloc_r+0x508>
   42424:	008001b4 	movhi	r2,6
   42428:	11244917 	ldw	r4,-28380(r2)
   4242c:	a109883a 	add	r4,r20,r4
   42430:	11244915 	stw	r4,-28380(r2)
   42434:	2007883a 	mov	r3,r4
   42438:	bd80a51e 	bne	r23,r22,426d0 <_malloc_r+0x5ac>
   4243c:	b083ffcc 	andi	r2,r22,4095
   42440:	1000a31e 	bne	r2,zero,426d0 <_malloc_r+0x5ac>
   42444:	9d800217 	ldw	r22,8(r19)
   42448:	ad07883a 	add	r3,r21,r20
   4244c:	18c00054 	ori	r3,r3,1
   42450:	b0c00115 	stw	r3,4(r22)
   42454:	008001b4 	movhi	r2,6
   42458:	10a43d17 	ldw	r2,-28428(r2)
   4245c:	1100022e 	bgeu	r2,r4,42468 <_malloc_r+0x344>
   42460:	008001b4 	movhi	r2,6
   42464:	11243d15 	stw	r4,-28428(r2)
   42468:	008001b4 	movhi	r2,6
   4246c:	10a43c17 	ldw	r2,-28432(r2)
   42470:	1100022e 	bgeu	r2,r4,4247c <_malloc_r+0x358>
   42474:	008001b4 	movhi	r2,6
   42478:	11243c15 	stw	r4,-28432(r2)
   4247c:	b021883a 	mov	r16,r22
   42480:	00006d06 	br	42638 <_malloc_r+0x514>
   42484:	99400117 	ldw	r5,4(r19)
   42488:	003f9a06 	br	422f4 <_malloc_r+0x1d0>
   4248c:	88800054 	ori	r2,r17,1
   42490:	80800115 	stw	r2,4(r16)
   42494:	8463883a 	add	r17,r16,r17
   42498:	9c400215 	stw	r17,8(r19)
   4249c:	18c00054 	ori	r3,r3,1
   424a0:	88c00115 	stw	r3,4(r17)
   424a4:	9009883a 	mov	r4,r18
   424a8:	0052a040 	call	52a04 <__malloc_unlock>
   424ac:	80800204 	addi	r2,r16,8
   424b0:	003f4506 	br	421c8 <_malloc_r+0xa4>
   424b4:	81000317 	ldw	r4,12(r16)
   424b8:	003f3906 	br	421a0 <_malloc_r+0x7c>
   424bc:	14000317 	ldw	r16,12(r2)
   424c0:	143f331e 	bne	r2,r16,42190 <_malloc_r+0x6c>
   424c4:	39c00084 	addi	r7,r7,2
   424c8:	003f6b06 	br	42278 <_malloc_r+0x154>
   424cc:	1006d27a 	srli	r3,r2,9
   424d0:	19000168 	cmpgeui	r4,r3,5
   424d4:	20005026 	beq	r4,zero,42618 <_malloc_r+0x4f4>
   424d8:	19000568 	cmpgeui	r4,r3,21
   424dc:	2000c01e 	bne	r4,zero,427e0 <_malloc_r+0x6bc>
   424e0:	19801704 	addi	r6,r3,92
   424e4:	300c90fa 	slli	r6,r6,3
   424e8:	190016c4 	addi	r4,r3,91
   424ec:	998d883a 	add	r6,r19,r6
   424f0:	30c00017 	ldw	r3,0(r6)
   424f4:	31bffe04 	addi	r6,r6,-8
   424f8:	30c0a926 	beq	r6,r3,427a0 <_malloc_r+0x67c>
   424fc:	023fff04 	movi	r8,-4
   42500:	00000206 	br	4250c <_malloc_r+0x3e8>
   42504:	18c00217 	ldw	r3,8(r3)
   42508:	30c00326 	beq	r6,r3,42518 <_malloc_r+0x3f4>
   4250c:	19000117 	ldw	r4,4(r3)
   42510:	2208703a 	and	r4,r4,r8
   42514:	113ffb36 	bltu	r2,r4,42504 <_malloc_r+0x3e0>
   42518:	19800317 	ldw	r6,12(r3)
   4251c:	81800315 	stw	r6,12(r16)
   42520:	80c00215 	stw	r3,8(r16)
   42524:	34000215 	stw	r16,8(r6)
   42528:	1c000315 	stw	r16,12(r3)
   4252c:	003f7106 	br	422f4 <_malloc_r+0x1d0>
   42530:	10c00568 	cmpgeui	r3,r2,21
   42534:	18004926 	beq	r3,zero,4265c <_malloc_r+0x538>
   42538:	10c01568 	cmpgeui	r3,r2,85
   4253c:	1800af1e 	bne	r3,zero,427fc <_malloc_r+0x6d8>
   42540:	8804d33a 	srli	r2,r17,12
   42544:	11c01bc4 	addi	r7,r2,111
   42548:	380890fa 	slli	r4,r7,3
   4254c:	12001b84 	addi	r8,r2,110
   42550:	003f3806 	br	42234 <_malloc_r+0x110>
   42554:	63000044 	addi	r12,r12,1
   42558:	608000cc 	andi	r2,r12,3
   4255c:	42000204 	addi	r8,r8,8
   42560:	103f791e 	bne	r2,zero,42348 <_malloc_r+0x224>
   42564:	00004406 	br	42678 <_malloc_r+0x554>
   42568:	81000217 	ldw	r4,8(r16)
   4256c:	89800054 	ori	r6,r17,1
   42570:	81800115 	stw	r6,4(r16)
   42574:	20800315 	stw	r2,12(r4)
   42578:	11000215 	stw	r4,8(r2)
   4257c:	8463883a 	add	r17,r16,r17
   42580:	9c400515 	stw	r17,20(r19)
   42584:	9c400415 	stw	r17,16(r19)
   42588:	28800054 	ori	r2,r5,1
   4258c:	88800115 	stw	r2,4(r17)
   42590:	8a400315 	stw	r9,12(r17)
   42594:	8a400215 	stw	r9,8(r17)
   42598:	80c7883a 	add	r3,r16,r3
   4259c:	19400015 	stw	r5,0(r3)
   425a0:	9009883a 	mov	r4,r18
   425a4:	0052a040 	call	52a04 <__malloc_unlock>
   425a8:	80800204 	addi	r2,r16,8
   425ac:	003f0606 	br	421c8 <_malloc_r+0xa4>
   425b0:	8085883a 	add	r2,r16,r2
   425b4:	10c00117 	ldw	r3,4(r2)
   425b8:	9009883a 	mov	r4,r18
   425bc:	18c00054 	ori	r3,r3,1
   425c0:	10c00115 	stw	r3,4(r2)
   425c4:	0052a040 	call	52a04 <__malloc_unlock>
   425c8:	80800204 	addi	r2,r16,8
   425cc:	003efe06 	br	421c8 <_malloc_r+0xa4>
   425d0:	880ed0fa 	srli	r7,r17,3
   425d4:	88800204 	addi	r2,r17,8
   425d8:	003ee706 	br	42178 <_malloc_r+0x54>
   425dc:	89000054 	ori	r4,r17,1
   425e0:	81000115 	stw	r4,4(r16)
   425e4:	8463883a 	add	r17,r16,r17
   425e8:	9c400515 	stw	r17,20(r19)
   425ec:	9c400415 	stw	r17,16(r19)
   425f0:	19000054 	ori	r4,r3,1
   425f4:	89000115 	stw	r4,4(r17)
   425f8:	8085883a 	add	r2,r16,r2
   425fc:	8a400315 	stw	r9,12(r17)
   42600:	8a400215 	stw	r9,8(r17)
   42604:	10c00015 	stw	r3,0(r2)
   42608:	9009883a 	mov	r4,r18
   4260c:	0052a040 	call	52a04 <__malloc_unlock>
   42610:	80800204 	addi	r2,r16,8
   42614:	003eec06 	br	421c8 <_malloc_r+0xa4>
   42618:	1006d1ba 	srli	r3,r2,6
   4261c:	19800e44 	addi	r6,r3,57
   42620:	300c90fa 	slli	r6,r6,3
   42624:	19000e04 	addi	r4,r3,56
   42628:	003fb006 	br	424ec <_malloc_r+0x3c8>
   4262c:	84c02426 	beq	r16,r19,426c0 <_malloc_r+0x59c>
   42630:	9c000217 	ldw	r16,8(r19)
   42634:	80c00117 	ldw	r3,4(r16)
   42638:	00bfff04 	movi	r2,-4
   4263c:	1884703a 	and	r2,r3,r2
   42640:	1447c83a 	sub	r3,r2,r17
   42644:	14400236 	bltu	r2,r17,42650 <_malloc_r+0x52c>
   42648:	18800408 	cmpgei	r2,r3,16
   4264c:	103f8f1e 	bne	r2,zero,4248c <_malloc_r+0x368>
   42650:	9009883a 	mov	r4,r18
   42654:	0052a040 	call	52a04 <__malloc_unlock>
   42658:	003f5206 	br	423a4 <_malloc_r+0x280>
   4265c:	11c01704 	addi	r7,r2,92
   42660:	380890fa 	slli	r4,r7,3
   42664:	120016c4 	addi	r8,r2,91
   42668:	003ef206 	br	42234 <_malloc_r+0x110>
   4266c:	58800217 	ldw	r2,8(r11)
   42670:	39ffffc4 	addi	r7,r7,-1
   42674:	12c0961e 	bne	r2,r11,428d0 <_malloc_r+0x7ac>
   42678:	388000cc 	andi	r2,r7,3
   4267c:	5afffe04 	addi	r11,r11,-8
   42680:	103ffa1e 	bne	r2,zero,4266c <_malloc_r+0x548>
   42684:	98c00117 	ldw	r3,4(r19)
   42688:	0104303a 	nor	r2,zero,r4
   4268c:	10c4703a 	and	r2,r2,r3
   42690:	98800115 	stw	r2,4(r19)
   42694:	2109883a 	add	r4,r4,r4
   42698:	113f4836 	bltu	r2,r4,423bc <_malloc_r+0x298>
   4269c:	203f4726 	beq	r4,zero,423bc <_malloc_r+0x298>
   426a0:	2086703a 	and	r3,r4,r2
   426a4:	1800041e 	bne	r3,zero,426b8 <_malloc_r+0x594>
   426a8:	2109883a 	add	r4,r4,r4
   426ac:	2086703a 	and	r3,r4,r2
   426b0:	63000104 	addi	r12,r12,4
   426b4:	183ffc26 	beq	r3,zero,426a8 <_malloc_r+0x584>
   426b8:	600f883a 	mov	r7,r12
   426bc:	003f1e06 	br	42338 <_malloc_r+0x214>
   426c0:	008001b4 	movhi	r2,6
   426c4:	10e44917 	ldw	r3,-28380(r2)
   426c8:	a0c7883a 	add	r3,r20,r3
   426cc:	10e44915 	stw	r3,-28380(r2)
   426d0:	00800174 	movhi	r2,5
   426d4:	109d2d17 	ldw	r2,29876(r2)
   426d8:	10bfffd8 	cmpnei	r2,r2,-1
   426dc:	10004e26 	beq	r2,zero,42818 <_malloc_r+0x6f4>
   426e0:	b5c5c83a 	sub	r2,r22,r23
   426e4:	10c5883a 	add	r2,r2,r3
   426e8:	00c001b4 	movhi	r3,6
   426ec:	18a44915 	stw	r2,-28380(r3)
   426f0:	b70001cc 	andi	fp,r22,7
   426f4:	e0003026 	beq	fp,zero,427b8 <_malloc_r+0x694>
   426f8:	b72dc83a 	sub	r22,r22,fp
   426fc:	b5800204 	addi	r22,r22,8
   42700:	01040204 	movi	r4,4104
   42704:	2709c83a 	sub	r4,r4,fp
   42708:	b529883a 	add	r20,r22,r20
   4270c:	2509c83a 	sub	r4,r4,r20
   42710:	25c3ffcc 	andi	r23,r4,4095
   42714:	b80b883a 	mov	r5,r23
   42718:	9009883a 	mov	r4,r18
   4271c:	0042b800 	call	42b80 <_sbrk_r>
   42720:	10ffffe0 	cmpeqi	r3,r2,-1
   42724:	1800501e 	bne	r3,zero,42868 <_malloc_r+0x744>
   42728:	1585c83a 	sub	r2,r2,r22
   4272c:	15e9883a 	add	r20,r2,r23
   42730:	008001b4 	movhi	r2,6
   42734:	10a44917 	ldw	r2,-28380(r2)
   42738:	9d800215 	stw	r22,8(r19)
   4273c:	a0c00054 	ori	r3,r20,1
   42740:	b889883a 	add	r4,r23,r2
   42744:	008001b4 	movhi	r2,6
   42748:	11244915 	stw	r4,-28380(r2)
   4274c:	b0c00115 	stw	r3,4(r22)
   42750:	84ff4026 	beq	r16,r19,42454 <_malloc_r+0x330>
   42754:	a8800428 	cmpgeui	r2,r21,16
   42758:	10003226 	beq	r2,zero,42824 <_malloc_r+0x700>
   4275c:	80800117 	ldw	r2,4(r16)
   42760:	017ffe04 	movi	r5,-8
   42764:	a8fffd04 	addi	r3,r21,-12
   42768:	1946703a 	and	r3,r3,r5
   4276c:	1080004c 	andi	r2,r2,1
   42770:	10c4b03a 	or	r2,r2,r3
   42774:	80800115 	stw	r2,4(r16)
   42778:	01400144 	movi	r5,5
   4277c:	80c5883a 	add	r2,r16,r3
   42780:	11400115 	stw	r5,4(r2)
   42784:	11400215 	stw	r5,8(r2)
   42788:	18c00428 	cmpgeui	r3,r3,16
   4278c:	18003b1e 	bne	r3,zero,4287c <_malloc_r+0x758>
   42790:	b0c00117 	ldw	r3,4(r22)
   42794:	003f2f06 	br	42454 <_malloc_r+0x330>
   42798:	a5000404 	addi	r20,r20,16
   4279c:	003f1a06 	br	42408 <_malloc_r+0x2e4>
   427a0:	2009d0ba 	srai	r4,r4,2
   427a4:	00800044 	movi	r2,1
   427a8:	1104983a 	sll	r2,r2,r4
   427ac:	288ab03a 	or	r5,r5,r2
   427b0:	99400115 	stw	r5,4(r19)
   427b4:	003f5906 	br	4251c <_malloc_r+0x3f8>
   427b8:	b509883a 	add	r4,r22,r20
   427bc:	0109c83a 	sub	r4,zero,r4
   427c0:	25c3ffcc 	andi	r23,r4,4095
   427c4:	b80b883a 	mov	r5,r23
   427c8:	9009883a 	mov	r4,r18
   427cc:	0042b800 	call	42b80 <_sbrk_r>
   427d0:	10ffffe0 	cmpeqi	r3,r2,-1
   427d4:	183fd426 	beq	r3,zero,42728 <_malloc_r+0x604>
   427d8:	002f883a 	mov	r23,zero
   427dc:	003fd406 	br	42730 <_malloc_r+0x60c>
   427e0:	19001568 	cmpgeui	r4,r3,85
   427e4:	2000121e 	bne	r4,zero,42830 <_malloc_r+0x70c>
   427e8:	1006d33a 	srli	r3,r2,12
   427ec:	19801bc4 	addi	r6,r3,111
   427f0:	300c90fa 	slli	r6,r6,3
   427f4:	19001b84 	addi	r4,r3,110
   427f8:	003f3c06 	br	424ec <_malloc_r+0x3c8>
   427fc:	10c05568 	cmpgeui	r3,r2,341
   42800:	1800121e 	bne	r3,zero,4284c <_malloc_r+0x728>
   42804:	8804d3fa 	srli	r2,r17,15
   42808:	11c01e04 	addi	r7,r2,120
   4280c:	380890fa 	slli	r4,r7,3
   42810:	12001dc4 	addi	r8,r2,119
   42814:	003e8706 	br	42234 <_malloc_r+0x110>
   42818:	00800174 	movhi	r2,5
   4281c:	159d2d15 	stw	r22,29876(r2)
   42820:	003fb306 	br	426f0 <_malloc_r+0x5cc>
   42824:	00800044 	movi	r2,1
   42828:	b0800115 	stw	r2,4(r22)
   4282c:	003f8806 	br	42650 <_malloc_r+0x52c>
   42830:	19005568 	cmpgeui	r4,r3,341
   42834:	2000181e 	bne	r4,zero,42898 <_malloc_r+0x774>
   42838:	1006d3fa 	srli	r3,r2,15
   4283c:	19801e04 	addi	r6,r3,120
   42840:	300c90fa 	slli	r6,r6,3
   42844:	19001dc4 	addi	r4,r3,119
   42848:	003f2806 	br	424ec <_malloc_r+0x3c8>
   4284c:	10815568 	cmpgeui	r2,r2,1365
   42850:	1000181e 	bne	r2,zero,428b4 <_malloc_r+0x790>
   42854:	8804d4ba 	srli	r2,r17,18
   42858:	11c01f44 	addi	r7,r2,125
   4285c:	380890fa 	slli	r4,r7,3
   42860:	12001f04 	addi	r8,r2,124
   42864:	003e7306 	br	42234 <_malloc_r+0x110>
   42868:	e73ffe04 	addi	fp,fp,-8
   4286c:	a729883a 	add	r20,r20,fp
   42870:	a5a9c83a 	sub	r20,r20,r22
   42874:	002f883a 	mov	r23,zero
   42878:	003fad06 	br	42730 <_malloc_r+0x60c>
   4287c:	9009883a 	mov	r4,r18
   42880:	81400204 	addi	r5,r16,8
   42884:	00498800 	call	49880 <_free_r>
   42888:	008001b4 	movhi	r2,6
   4288c:	9d800217 	ldw	r22,8(r19)
   42890:	11244917 	ldw	r4,-28380(r2)
   42894:	003fbe06 	br	42790 <_malloc_r+0x66c>
   42898:	18c15568 	cmpgeui	r3,r3,1365
   4289c:	1800091e 	bne	r3,zero,428c4 <_malloc_r+0x7a0>
   428a0:	1006d4ba 	srli	r3,r2,18
   428a4:	19801f44 	addi	r6,r3,125
   428a8:	300c90fa 	slli	r6,r6,3
   428ac:	19001f04 	addi	r4,r3,124
   428b0:	003f0e06 	br	424ec <_malloc_r+0x3c8>
   428b4:	0100fe04 	movi	r4,1016
   428b8:	01c01fc4 	movi	r7,127
   428bc:	02001f84 	movi	r8,126
   428c0:	003e5c06 	br	42234 <_malloc_r+0x110>
   428c4:	0180fe04 	movi	r6,1016
   428c8:	01001f84 	movi	r4,126
   428cc:	003f0706 	br	424ec <_malloc_r+0x3c8>
   428d0:	98800117 	ldw	r2,4(r19)
   428d4:	003f6f06 	br	42694 <_malloc_r+0x570>

000428d8 <memcpy>:
   428d8:	30c00428 	cmpgeui	r3,r6,16
   428dc:	2005883a 	mov	r2,r4
   428e0:	18000b1e 	bne	r3,zero,42910 <memcpy+0x38>
   428e4:	2007883a 	mov	r3,r4
   428e8:	31ffffc4 	addi	r7,r6,-1
   428ec:	30003426 	beq	r6,zero,429c0 <memcpy+0xe8>
   428f0:	39c00044 	addi	r7,r7,1
   428f4:	19cf883a 	add	r7,r3,r7
   428f8:	29800003 	ldbu	r6,0(r5)
   428fc:	18c00044 	addi	r3,r3,1
   42900:	29400044 	addi	r5,r5,1
   42904:	19bfffc5 	stb	r6,-1(r3)
   42908:	19fffb1e 	bne	r3,r7,428f8 <memcpy+0x20>
   4290c:	f800283a 	ret
   42910:	2146b03a 	or	r3,r4,r5
   42914:	18c000cc 	andi	r3,r3,3
   42918:	18002a1e 	bne	r3,zero,429c4 <memcpy+0xec>
   4291c:	333ffc04 	addi	r12,r6,-16
   42920:	6018d13a 	srli	r12,r12,4
   42924:	2811883a 	mov	r8,r5
   42928:	200f883a 	mov	r7,r4
   4292c:	63000044 	addi	r12,r12,1
   42930:	6018913a 	slli	r12,r12,4
   42934:	2307883a 	add	r3,r4,r12
   42938:	42c00017 	ldw	r11,0(r8)
   4293c:	42800117 	ldw	r10,4(r8)
   42940:	42400217 	ldw	r9,8(r8)
   42944:	41000317 	ldw	r4,12(r8)
   42948:	39c00404 	addi	r7,r7,16
   4294c:	3afffc15 	stw	r11,-16(r7)
   42950:	3abffd15 	stw	r10,-12(r7)
   42954:	3a7ffe15 	stw	r9,-8(r7)
   42958:	393fff15 	stw	r4,-4(r7)
   4295c:	42000404 	addi	r8,r8,16
   42960:	38fff51e 	bne	r7,r3,42938 <memcpy+0x60>
   42964:	3100030c 	andi	r4,r6,12
   42968:	2b0b883a 	add	r5,r5,r12
   4296c:	324003cc 	andi	r9,r6,15
   42970:	20001726 	beq	r4,zero,429d0 <memcpy+0xf8>
   42974:	2811883a 	mov	r8,r5
   42978:	1809883a 	mov	r4,r3
   4297c:	1a57883a 	add	r11,r3,r9
   42980:	42800017 	ldw	r10,0(r8)
   42984:	21000104 	addi	r4,r4,4
   42988:	590fc83a 	sub	r7,r11,r4
   4298c:	39c00128 	cmpgeui	r7,r7,4
   42990:	22bfff15 	stw	r10,-4(r4)
   42994:	42000104 	addi	r8,r8,4
   42998:	383ff91e 	bne	r7,zero,42980 <memcpy+0xa8>
   4299c:	493fff04 	addi	r4,r9,-4
   429a0:	2008d0ba 	srli	r4,r4,2
   429a4:	318000cc 	andi	r6,r6,3
   429a8:	31ffffc4 	addi	r7,r6,-1
   429ac:	21000044 	addi	r4,r4,1
   429b0:	200890ba 	slli	r4,r4,2
   429b4:	1907883a 	add	r3,r3,r4
   429b8:	290b883a 	add	r5,r5,r4
   429bc:	303fcc1e 	bne	r6,zero,428f0 <memcpy+0x18>
   429c0:	f800283a 	ret
   429c4:	31ffffc4 	addi	r7,r6,-1
   429c8:	2007883a 	mov	r3,r4
   429cc:	003fc806 	br	428f0 <memcpy+0x18>
   429d0:	480d883a 	mov	r6,r9
   429d4:	003fc406 	br	428e8 <memcpy+0x10>

000429d8 <memset>:
   429d8:	defffb04 	addi	sp,sp,-20
   429dc:	dc800215 	stw	r18,8(sp)
   429e0:	dc400115 	stw	r17,4(sp)
   429e4:	dfc00415 	stw	ra,16(sp)
   429e8:	dcc00315 	stw	r19,12(sp)
   429ec:	dc000015 	stw	r16,0(sp)
   429f0:	208000cc 	andi	r2,r4,3
   429f4:	2023883a 	mov	r17,r4
   429f8:	2825883a 	mov	r18,r5
   429fc:	10004026 	beq	r2,zero,42b00 <memset+0x128>
   42a00:	34ffffc4 	addi	r19,r6,-1
   42a04:	30003326 	beq	r6,zero,42ad4 <memset+0xfc>
   42a08:	280f883a 	mov	r7,r5
   42a0c:	2021883a 	mov	r16,r4
   42a10:	00000306 	br	42a20 <memset+0x48>
   42a14:	9cffffc4 	addi	r19,r19,-1
   42a18:	99bfffe0 	cmpeqi	r6,r19,-1
   42a1c:	30002d1e 	bne	r6,zero,42ad4 <memset+0xfc>
   42a20:	84000044 	addi	r16,r16,1
   42a24:	818000cc 	andi	r6,r16,3
   42a28:	81ffffc5 	stb	r7,-1(r16)
   42a2c:	303ff91e 	bne	r6,zero,42a14 <memset+0x3c>
   42a30:	98800128 	cmpgeui	r2,r19,4
   42a34:	10002126 	beq	r2,zero,42abc <memset+0xe4>
   42a38:	01404074 	movhi	r5,257
   42a3c:	29404044 	addi	r5,r5,257
   42a40:	91003fcc 	andi	r4,r18,255
   42a44:	0040b700 	call	40b70 <__mulsi3>
   42a48:	98c00430 	cmpltui	r3,r19,16
   42a4c:	18002f1e 	bne	r3,zero,42b0c <memset+0x134>
   42a50:	99bffc04 	addi	r6,r19,-16
   42a54:	300cd13a 	srli	r6,r6,4
   42a58:	31800044 	addi	r6,r6,1
   42a5c:	300c913a 	slli	r6,r6,4
   42a60:	818d883a 	add	r6,r16,r6
   42a64:	80800015 	stw	r2,0(r16)
   42a68:	80800115 	stw	r2,4(r16)
   42a6c:	80800215 	stw	r2,8(r16)
   42a70:	80800315 	stw	r2,12(r16)
   42a74:	84000404 	addi	r16,r16,16
   42a78:	81bffa1e 	bne	r16,r6,42a64 <memset+0x8c>
   42a7c:	9900030c 	andi	r4,r19,12
   42a80:	98c003cc 	andi	r3,r19,15
   42a84:	20001b26 	beq	r4,zero,42af4 <memset+0x11c>
   42a88:	3009883a 	mov	r4,r6
   42a8c:	30cb883a 	add	r5,r6,r3
   42a90:	21000104 	addi	r4,r4,4
   42a94:	290fc83a 	sub	r7,r5,r4
   42a98:	39c00128 	cmpgeui	r7,r7,4
   42a9c:	20bfff15 	stw	r2,-4(r4)
   42aa0:	383ffb1e 	bne	r7,zero,42a90 <memset+0xb8>
   42aa4:	1c3fff04 	addi	r16,r3,-4
   42aa8:	8020d0ba 	srli	r16,r16,2
   42aac:	1cc000cc 	andi	r19,r3,3
   42ab0:	84000044 	addi	r16,r16,1
   42ab4:	802090ba 	slli	r16,r16,2
   42ab8:	3421883a 	add	r16,r6,r16
   42abc:	98000526 	beq	r19,zero,42ad4 <memset+0xfc>
   42ac0:	900b883a 	mov	r5,r18
   42ac4:	84c7883a 	add	r3,r16,r19
   42ac8:	84000044 	addi	r16,r16,1
   42acc:	817fffc5 	stb	r5,-1(r16)
   42ad0:	1c3ffd1e 	bne	r3,r16,42ac8 <memset+0xf0>
   42ad4:	8805883a 	mov	r2,r17
   42ad8:	dfc00417 	ldw	ra,16(sp)
   42adc:	dcc00317 	ldw	r19,12(sp)
   42ae0:	dc800217 	ldw	r18,8(sp)
   42ae4:	dc400117 	ldw	r17,4(sp)
   42ae8:	dc000017 	ldw	r16,0(sp)
   42aec:	dec00504 	addi	sp,sp,20
   42af0:	f800283a 	ret
   42af4:	1827883a 	mov	r19,r3
   42af8:	983ff11e 	bne	r19,zero,42ac0 <memset+0xe8>
   42afc:	003ff506 	br	42ad4 <memset+0xfc>
   42b00:	2021883a 	mov	r16,r4
   42b04:	3027883a 	mov	r19,r6
   42b08:	003fc906 	br	42a30 <memset+0x58>
   42b0c:	800d883a 	mov	r6,r16
   42b10:	9807883a 	mov	r3,r19
   42b14:	003fdc06 	br	42a88 <memset+0xb0>

00042b18 <_printf_r>:
   42b18:	defffd04 	addi	sp,sp,-12
   42b1c:	2805883a 	mov	r2,r5
   42b20:	dfc00015 	stw	ra,0(sp)
   42b24:	d9800115 	stw	r6,4(sp)
   42b28:	d9c00215 	stw	r7,8(sp)
   42b2c:	21400217 	ldw	r5,8(r4)
   42b30:	d9c00104 	addi	r7,sp,4
   42b34:	100d883a 	mov	r6,r2
   42b38:	00450080 	call	45008 <___vfprintf_internal_r>
   42b3c:	dfc00017 	ldw	ra,0(sp)
   42b40:	dec00304 	addi	sp,sp,12
   42b44:	f800283a 	ret

00042b48 <printf>:
   42b48:	defffc04 	addi	sp,sp,-16
   42b4c:	dfc00015 	stw	ra,0(sp)
   42b50:	d9400115 	stw	r5,4(sp)
   42b54:	d9800215 	stw	r6,8(sp)
   42b58:	d9c00315 	stw	r7,12(sp)
   42b5c:	00800174 	movhi	r2,5
   42b60:	109d2c17 	ldw	r2,29872(r2)
   42b64:	200b883a 	mov	r5,r4
   42b68:	d9800104 	addi	r6,sp,4
   42b6c:	11000217 	ldw	r4,8(r2)
   42b70:	00474b80 	call	474b8 <__vfprintf_internal>
   42b74:	dfc00017 	ldw	ra,0(sp)
   42b78:	dec00404 	addi	sp,sp,16
   42b7c:	f800283a 	ret

00042b80 <_sbrk_r>:
   42b80:	defffe04 	addi	sp,sp,-8
   42b84:	dc000015 	stw	r16,0(sp)
   42b88:	008001b4 	movhi	r2,6
   42b8c:	2021883a 	mov	r16,r4
   42b90:	2809883a 	mov	r4,r5
   42b94:	dfc00115 	stw	ra,4(sp)
   42b98:	10243f15 	stw	zero,-28420(r2)
   42b9c:	0052c180 	call	52c18 <sbrk>
   42ba0:	10ffffd8 	cmpnei	r3,r2,-1
   42ba4:	18000426 	beq	r3,zero,42bb8 <_sbrk_r+0x38>
   42ba8:	dfc00117 	ldw	ra,4(sp)
   42bac:	dc000017 	ldw	r16,0(sp)
   42bb0:	dec00204 	addi	sp,sp,8
   42bb4:	f800283a 	ret
   42bb8:	00c001b4 	movhi	r3,6
   42bbc:	18e43f17 	ldw	r3,-28420(r3)
   42bc0:	183ff926 	beq	r3,zero,42ba8 <_sbrk_r+0x28>
   42bc4:	80c00015 	stw	r3,0(r16)
   42bc8:	dfc00117 	ldw	ra,4(sp)
   42bcc:	dc000017 	ldw	r16,0(sp)
   42bd0:	dec00204 	addi	sp,sp,8
   42bd4:	f800283a 	ret

00042bd8 <___svfprintf_internal_r>:
   42bd8:	deffbc04 	addi	sp,sp,-272
   42bdc:	dfc04315 	stw	ra,268(sp)
   42be0:	dc803c15 	stw	r18,240(sp)
   42be4:	dc003a15 	stw	r16,232(sp)
   42be8:	d9400415 	stw	r5,16(sp)
   42bec:	2821883a 	mov	r16,r5
   42bf0:	d9000515 	stw	r4,20(sp)
   42bf4:	3025883a 	mov	r18,r6
   42bf8:	d9c00715 	stw	r7,28(sp)
   42bfc:	df004215 	stw	fp,264(sp)
   42c00:	ddc04115 	stw	r23,260(sp)
   42c04:	dd804015 	stw	r22,256(sp)
   42c08:	dd403f15 	stw	r21,252(sp)
   42c0c:	dd003e15 	stw	r20,248(sp)
   42c10:	dcc03d15 	stw	r19,244(sp)
   42c14:	dc403b15 	stw	r17,236(sp)
   42c18:	0049cd00 	call	49cd0 <_localeconv_r>
   42c1c:	10800017 	ldw	r2,0(r2)
   42c20:	1009883a 	mov	r4,r2
   42c24:	d8800d15 	stw	r2,52(sp)
   42c28:	004b3340 	call	4b334 <strlen>
   42c2c:	80c0030b 	ldhu	r3,12(r16)
   42c30:	d8800c15 	stw	r2,48(sp)
   42c34:	18c0200c 	andi	r3,r3,128
   42c38:	18000226 	beq	r3,zero,42c44 <___svfprintf_internal_r+0x6c>
   42c3c:	80800417 	ldw	r2,16(r16)
   42c40:	10055f26 	beq	r2,zero,441c0 <___svfprintf_internal_r+0x15e8>
   42c44:	dc002a04 	addi	r16,sp,168
   42c48:	04c00174 	movhi	r19,5
   42c4c:	dc001d15 	stw	r16,116(sp)
   42c50:	d8001f15 	stw	zero,124(sp)
   42c54:	d8001e15 	stw	zero,120(sp)
   42c58:	d8000915 	stw	zero,36(sp)
   42c5c:	d8000a15 	stw	zero,40(sp)
   42c60:	d8000b15 	stw	zero,44(sp)
   42c64:	d8000e15 	stw	zero,56(sp)
   42c68:	d8001215 	stw	zero,72(sp)
   42c6c:	d8000615 	stw	zero,24(sp)
   42c70:	9cd4e004 	addi	r19,r19,21376
   42c74:	8023883a 	mov	r17,r16
   42c78:	9029883a 	mov	r20,r18
   42c7c:	a0800007 	ldb	r2,0(r20)
   42c80:	1000ce26 	beq	r2,zero,42fbc <___svfprintf_internal_r+0x3e4>
   42c84:	a025883a 	mov	r18,r20
   42c88:	00000306 	br	42c98 <___svfprintf_internal_r+0xc0>
   42c8c:	90800047 	ldb	r2,1(r18)
   42c90:	94800044 	addi	r18,r18,1
   42c94:	10013726 	beq	r2,zero,43174 <___svfprintf_internal_r+0x59c>
   42c98:	10800958 	cmpnei	r2,r2,37
   42c9c:	103ffb1e 	bne	r2,zero,42c8c <___svfprintf_internal_r+0xb4>
   42ca0:	952fc83a 	sub	r23,r18,r20
   42ca4:	9501351e 	bne	r18,r20,4317c <___svfprintf_internal_r+0x5a4>
   42ca8:	90800003 	ldbu	r2,0(r18)
   42cac:	10803fcc 	andi	r2,r2,255
   42cb0:	1080201c 	xori	r2,r2,128
   42cb4:	10bfe004 	addi	r2,r2,-128
   42cb8:	1000c026 	beq	r2,zero,42fbc <___svfprintf_internal_r+0x3e4>
   42cbc:	92c00047 	ldb	r11,1(r18)
   42cc0:	95000044 	addi	r20,r18,1
   42cc4:	d8001645 	stb	zero,89(sp)
   42cc8:	04bfffc4 	movi	r18,-1
   42ccc:	0015883a 	mov	r10,zero
   42cd0:	0019883a 	mov	r12,zero
   42cd4:	a5000044 	addi	r20,r20,1
   42cd8:	58bff804 	addi	r2,r11,-32
   42cdc:	10c01668 	cmpgeui	r3,r2,89
   42ce0:	18006c1e 	bne	r3,zero,42e94 <___svfprintf_internal_r+0x2bc>
   42ce4:	100490ba 	slli	r2,r2,2
   42ce8:	00c00134 	movhi	r3,4
   42cec:	10c7883a 	add	r3,r2,r3
   42cf0:	188b3e17 	ldw	r2,11512(r3)
   42cf4:	1000683a 	jmp	r2
   42cf8:	00043510 	cmplti	zero,zero,4308
   42cfc:	00042e94 	movui	zero,4282
   42d00:	00042e94 	movui	zero,4282
   42d04:	00043504 	movi	zero,4308
   42d08:	00042e94 	movui	zero,4282
   42d0c:	00042e94 	movui	zero,4282
   42d10:	00042e94 	movui	zero,4282
   42d14:	00042e94 	movui	zero,4282
   42d18:	00042e94 	movui	zero,4282
   42d1c:	00042e94 	movui	zero,4282
   42d20:	00043478 	rdprs	zero,zero,4305
   42d24:	000434f4 	movhi	zero,4307
   42d28:	00042e94 	movui	zero,4282
   42d2c:	00043490 	cmplti	zero,zero,4306
   42d30:	0004349c 	xori	zero,zero,4306
   42d34:	00042e94 	movui	zero,4282
   42d38:	000434e8 	cmpgeui	zero,zero,4307
   42d3c:	00042e5c 	xori	zero,zero,4281
   42d40:	00042e5c 	xori	zero,zero,4281
   42d44:	00042e5c 	xori	zero,zero,4281
   42d48:	00042e5c 	xori	zero,zero,4281
   42d4c:	00042e5c 	xori	zero,zero,4281
   42d50:	00042e5c 	xori	zero,zero,4281
   42d54:	00042e5c 	xori	zero,zero,4281
   42d58:	00042e5c 	xori	zero,zero,4281
   42d5c:	00042e5c 	xori	zero,zero,4281
   42d60:	00042e94 	movui	zero,4282
   42d64:	00042e94 	movui	zero,4282
   42d68:	00042e94 	movui	zero,4282
   42d6c:	00042e94 	movui	zero,4282
   42d70:	00042e94 	movui	zero,4282
   42d74:	00042e94 	movui	zero,4282
   42d78:	00042e94 	movui	zero,4282
   42d7c:	00042e94 	movui	zero,4282
   42d80:	00042e94 	movui	zero,4282
   42d84:	00042e94 	movui	zero,4282
   42d88:	00043008 	cmpgei	zero,zero,4288
   42d8c:	000432c8 	cmpgei	zero,zero,4299
   42d90:	00042e94 	movui	zero,4282
   42d94:	000432c8 	cmpgei	zero,zero,4299
   42d98:	00042e94 	movui	zero,4282
   42d9c:	00042e94 	movui	zero,4282
   42da0:	00042e94 	movui	zero,4282
   42da4:	00042e94 	movui	zero,4282
   42da8:	0004355c 	xori	zero,zero,4309
   42dac:	00042e94 	movui	zero,4282
   42db0:	00042e94 	movui	zero,4282
   42db4:	00043074 	movhi	zero,4289
   42db8:	00042e94 	movui	zero,4282
   42dbc:	00042e94 	movui	zero,4282
   42dc0:	00042e94 	movui	zero,4282
   42dc4:	00042e94 	movui	zero,4282
   42dc8:	00042e94 	movui	zero,4282
   42dcc:	0004314c 	andi	zero,zero,4293
   42dd0:	00042e94 	movui	zero,4282
   42dd4:	00042e94 	movui	zero,4282
   42dd8:	00044160 	cmpeqi	zero,zero,4357
   42ddc:	00042e94 	movui	zero,4282
   42de0:	00042e94 	movui	zero,4282
   42de4:	00042e94 	movui	zero,4282
   42de8:	00042e94 	movui	zero,4282
   42dec:	00042e94 	movui	zero,4282
   42df0:	00042e94 	movui	zero,4282
   42df4:	00042e94 	movui	zero,4282
   42df8:	00042e94 	movui	zero,4282
   42dfc:	00042e94 	movui	zero,4282
   42e00:	00042e94 	movui	zero,4282
   42e04:	00043640 	call	4364 <__reset-0x3bc9c>
   42e08:	0004300c 	andi	zero,zero,4288
   42e0c:	000432c8 	cmpgei	zero,zero,4299
   42e10:	000432c8 	cmpgei	zero,zero,4299
   42e14:	000432c8 	cmpgei	zero,zero,4299
   42e18:	00043634 	movhi	zero,4312
   42e1c:	0004300c 	andi	zero,zero,4288
   42e20:	00042e94 	movui	zero,4282
   42e24:	00042e94 	movui	zero,4282
   42e28:	00043534 	movhi	zero,4308
   42e2c:	00042e94 	movui	zero,4282
   42e30:	00043604 	movi	zero,4312
   42e34:	00043078 	rdprs	zero,zero,4289
   42e38:	000435cc 	andi	zero,zero,4311
   42e3c:	000435c0 	call	435c <__reset-0x3bca4>
   42e40:	00042e94 	movui	zero,4282
   42e44:	00043568 	cmpgeui	zero,zero,4309
   42e48:	00042e94 	movui	zero,4282
   42e4c:	00043150 	cmplti	zero,zero,4293
   42e50:	00042e94 	movui	zero,4282
   42e54:	00042e94 	movui	zero,4282
   42e58:	000441b0 	cmpltui	zero,zero,4358
   42e5c:	0015883a 	mov	r10,zero
   42e60:	58fff404 	addi	r3,r11,-48
   42e64:	500490ba 	slli	r2,r10,2
   42e68:	a2c00007 	ldb	r11,0(r20)
   42e6c:	a5000044 	addi	r20,r20,1
   42e70:	1295883a 	add	r10,r2,r10
   42e74:	5295883a 	add	r10,r10,r10
   42e78:	1a95883a 	add	r10,r3,r10
   42e7c:	58fff404 	addi	r3,r11,-48
   42e80:	188002b0 	cmpltui	r2,r3,10
   42e84:	103ff71e 	bne	r2,zero,42e64 <___svfprintf_internal_r+0x28c>
   42e88:	58bff804 	addi	r2,r11,-32
   42e8c:	10c01668 	cmpgeui	r3,r2,89
   42e90:	183f9426 	beq	r3,zero,42ce4 <___svfprintf_internal_r+0x10c>
   42e94:	58004926 	beq	r11,zero,42fbc <___svfprintf_internal_r+0x3e4>
   42e98:	dac02005 	stb	r11,128(sp)
   42e9c:	d8001645 	stb	zero,89(sp)
   42ea0:	03400044 	movi	r13,1
   42ea4:	07000044 	movi	fp,1
   42ea8:	dd402004 	addi	r21,sp,128
   42eac:	6007883a 	mov	r3,r12
   42eb0:	0025883a 	mov	r18,zero
   42eb4:	d8000815 	stw	zero,32(sp)
   42eb8:	1b80008c 	andi	r14,r3,2
   42ebc:	70000126 	beq	r14,zero,42ec4 <___svfprintf_internal_r+0x2ec>
   42ec0:	6b400084 	addi	r13,r13,2
   42ec4:	1b00210c 	andi	r12,r3,132
   42ec8:	6000021e 	bne	r12,zero,42ed4 <___svfprintf_internal_r+0x2fc>
   42ecc:	536dc83a 	sub	r22,r10,r13
   42ed0:	05831416 	blt	zero,r22,43b24 <___svfprintf_internal_r+0xf4c>
   42ed4:	d8801647 	ldb	r2,89(sp)
   42ed8:	dd801f17 	ldw	r22,124(sp)
   42edc:	10000c26 	beq	r2,zero,42f10 <___svfprintf_internal_r+0x338>
   42ee0:	d8801e17 	ldw	r2,120(sp)
   42ee4:	d9001644 	addi	r4,sp,89
   42ee8:	b5800044 	addi	r22,r22,1
   42eec:	10800044 	addi	r2,r2,1
   42ef0:	89000015 	stw	r4,0(r17)
   42ef4:	01000044 	movi	r4,1
   42ef8:	d8801e15 	stw	r2,120(sp)
   42efc:	89000115 	stw	r4,4(r17)
   42f00:	dd801f15 	stw	r22,124(sp)
   42f04:	10800208 	cmpgei	r2,r2,8
   42f08:	1003681e 	bne	r2,zero,43cac <___svfprintf_internal_r+0x10d4>
   42f0c:	8c400204 	addi	r17,r17,8
   42f10:	70000c26 	beq	r14,zero,42f44 <___svfprintf_internal_r+0x36c>
   42f14:	d8801e17 	ldw	r2,120(sp)
   42f18:	d9001684 	addi	r4,sp,90
   42f1c:	b5800084 	addi	r22,r22,2
   42f20:	10800044 	addi	r2,r2,1
   42f24:	89000015 	stw	r4,0(r17)
   42f28:	01000084 	movi	r4,2
   42f2c:	d8801e15 	stw	r2,120(sp)
   42f30:	89000115 	stw	r4,4(r17)
   42f34:	dd801f15 	stw	r22,124(sp)
   42f38:	10800208 	cmpgei	r2,r2,8
   42f3c:	10036f1e 	bne	r2,zero,43cfc <___svfprintf_internal_r+0x1124>
   42f40:	8c400204 	addi	r17,r17,8
   42f44:	63002018 	cmpnei	r12,r12,128
   42f48:	60021a26 	beq	r12,zero,437b4 <___svfprintf_internal_r+0xbdc>
   42f4c:	9725c83a 	sub	r18,r18,fp
   42f50:	04825a16 	blt	zero,r18,438bc <___svfprintf_internal_r+0xce4>
   42f54:	1880400c 	andi	r2,r3,256
   42f58:	1001c31e 	bne	r2,zero,43668 <___svfprintf_internal_r+0xa90>
   42f5c:	d8801e17 	ldw	r2,120(sp)
   42f60:	e589883a 	add	r4,fp,r22
   42f64:	8d400015 	stw	r21,0(r17)
   42f68:	10800044 	addi	r2,r2,1
   42f6c:	d8801e15 	stw	r2,120(sp)
   42f70:	8f000115 	stw	fp,4(r17)
   42f74:	d9001f15 	stw	r4,124(sp)
   42f78:	10800208 	cmpgei	r2,r2,8
   42f7c:	10033d1e 	bne	r2,zero,43c74 <___svfprintf_internal_r+0x109c>
   42f80:	8c400204 	addi	r17,r17,8
   42f84:	18c0010c 	andi	r3,r3,4
   42f88:	18000226 	beq	r3,zero,42f94 <___svfprintf_internal_r+0x3bc>
   42f8c:	5365c83a 	sub	r18,r10,r13
   42f90:	04809116 	blt	zero,r18,431d8 <___svfprintf_internal_r+0x600>
   42f94:	5340010e 	bge	r10,r13,42f9c <___svfprintf_internal_r+0x3c4>
   42f98:	6815883a 	mov	r10,r13
   42f9c:	d8800617 	ldw	r2,24(sp)
   42fa0:	1285883a 	add	r2,r2,r10
   42fa4:	d8800615 	stw	r2,24(sp)
   42fa8:	2002921e 	bne	r4,zero,439f4 <___svfprintf_internal_r+0xe1c>
   42fac:	a0800007 	ldb	r2,0(r20)
   42fb0:	d8001e15 	stw	zero,120(sp)
   42fb4:	8023883a 	mov	r17,r16
   42fb8:	103f321e 	bne	r2,zero,42c84 <___svfprintf_internal_r+0xac>
   42fbc:	d8801f17 	ldw	r2,124(sp)
   42fc0:	1006941e 	bne	r2,zero,44a14 <___svfprintf_internal_r+0x1e3c>
   42fc4:	d8800417 	ldw	r2,16(sp)
   42fc8:	1080030b 	ldhu	r2,12(r2)
   42fcc:	1080100c 	andi	r2,r2,64
   42fd0:	1007b51e 	bne	r2,zero,44ea8 <___svfprintf_internal_r+0x22d0>
   42fd4:	d8800617 	ldw	r2,24(sp)
   42fd8:	dfc04317 	ldw	ra,268(sp)
   42fdc:	df004217 	ldw	fp,264(sp)
   42fe0:	ddc04117 	ldw	r23,260(sp)
   42fe4:	dd804017 	ldw	r22,256(sp)
   42fe8:	dd403f17 	ldw	r21,252(sp)
   42fec:	dd003e17 	ldw	r20,248(sp)
   42ff0:	dcc03d17 	ldw	r19,244(sp)
   42ff4:	dc803c17 	ldw	r18,240(sp)
   42ff8:	dc403b17 	ldw	r17,236(sp)
   42ffc:	dc003a17 	ldw	r16,232(sp)
   43000:	dec04404 	addi	sp,sp,272
   43004:	f800283a 	ret
   43008:	63000414 	ori	r12,r12,16
   4300c:	6080080c 	andi	r2,r12,32
   43010:	1000e826 	beq	r2,zero,433b4 <___svfprintf_internal_r+0x7dc>
   43014:	d8c00717 	ldw	r3,28(sp)
   43018:	18800117 	ldw	r2,4(r3)
   4301c:	1d800017 	ldw	r22,0(r3)
   43020:	18c00204 	addi	r3,r3,8
   43024:	d8c00715 	stw	r3,28(sp)
   43028:	1039883a 	mov	fp,r2
   4302c:	1000ef16 	blt	r2,zero,433ec <___svfprintf_internal_r+0x814>
   43030:	90bfffd8 	cmpnei	r2,r18,-1
   43034:	ddc01643 	ldbu	r23,89(sp)
   43038:	10000526 	beq	r2,zero,43050 <___svfprintf_internal_r+0x478>
   4303c:	00ffdfc4 	movi	r3,-129
   43040:	b704b03a 	or	r2,r22,fp
   43044:	60c6703a 	and	r3,r12,r3
   43048:	1002ad26 	beq	r2,zero,43b00 <___svfprintf_internal_r+0xf28>
   4304c:	1819883a 	mov	r12,r3
   43050:	e004961e 	bne	fp,zero,442ac <___svfprintf_internal_r+0x16d4>
   43054:	b08002a8 	cmpgeui	r2,r22,10
   43058:	1004941e 	bne	r2,zero,442ac <___svfprintf_internal_r+0x16d4>
   4305c:	b5800c04 	addi	r22,r22,48
   43060:	dd8029c5 	stb	r22,167(sp)
   43064:	6007883a 	mov	r3,r12
   43068:	07000044 	movi	fp,1
   4306c:	dd4029c4 	addi	r21,sp,167
   43070:	00002c06 	br	43124 <___svfprintf_internal_r+0x54c>
   43074:	63000414 	ori	r12,r12,16
   43078:	6080080c 	andi	r2,r12,32
   4307c:	1000ee26 	beq	r2,zero,43438 <___svfprintf_internal_r+0x860>
   43080:	d8c00717 	ldw	r3,28(sp)
   43084:	0005883a 	mov	r2,zero
   43088:	1d800017 	ldw	r22,0(r3)
   4308c:	1f000117 	ldw	fp,4(r3)
   43090:	18c00204 	addi	r3,r3,8
   43094:	d8c00715 	stw	r3,28(sp)
   43098:	002f883a 	mov	r23,zero
   4309c:	ddc01645 	stb	r23,89(sp)
   430a0:	90ffffe0 	cmpeqi	r3,r18,-1
   430a4:	1800051e 	bne	r3,zero,430bc <___svfprintf_internal_r+0x4e4>
   430a8:	00ffdfc4 	movi	r3,-129
   430ac:	b708b03a 	or	r4,r22,fp
   430b0:	60c6703a 	and	r3,r12,r3
   430b4:	20029326 	beq	r4,zero,43b04 <___svfprintf_internal_r+0xf2c>
   430b8:	1819883a 	mov	r12,r3
   430bc:	10c00060 	cmpeqi	r3,r2,1
   430c0:	183fe31e 	bne	r3,zero,43050 <___svfprintf_internal_r+0x478>
   430c4:	108000a0 	cmpeqi	r2,r2,2
   430c8:	10023a1e 	bne	r2,zero,439b4 <___svfprintf_internal_r+0xddc>
   430cc:	802b883a 	mov	r21,r16
   430d0:	b006d0fa 	srli	r3,r22,3
   430d4:	e00a977a 	slli	r5,fp,29
   430d8:	e038d0fa 	srli	fp,fp,3
   430dc:	b58001cc 	andi	r22,r22,7
   430e0:	b0800c04 	addi	r2,r22,48
   430e4:	28ecb03a 	or	r22,r5,r3
   430e8:	a8bfffc5 	stb	r2,-1(r21)
   430ec:	b706b03a 	or	r3,r22,fp
   430f0:	a809883a 	mov	r4,r21
   430f4:	ad7fffc4 	addi	r21,r21,-1
   430f8:	183ff51e 	bne	r3,zero,430d0 <___svfprintf_internal_r+0x4f8>
   430fc:	60c0004c 	andi	r3,r12,1
   43100:	18023926 	beq	r3,zero,439e8 <___svfprintf_internal_r+0xe10>
   43104:	10800c18 	cmpnei	r2,r2,48
   43108:	10023726 	beq	r2,zero,439e8 <___svfprintf_internal_r+0xe10>
   4310c:	213fff84 	addi	r4,r4,-2
   43110:	00800c04 	movi	r2,48
   43114:	a8bfffc5 	stb	r2,-1(r21)
   43118:	8139c83a 	sub	fp,r16,r4
   4311c:	6007883a 	mov	r3,r12
   43120:	202b883a 	mov	r21,r4
   43124:	901b883a 	mov	r13,r18
   43128:	9700010e 	bge	r18,fp,43130 <___svfprintf_internal_r+0x558>
   4312c:	e01b883a 	mov	r13,fp
   43130:	d8000815 	stw	zero,32(sp)
   43134:	bdc03fcc 	andi	r23,r23,255
   43138:	bdc0201c 	xori	r23,r23,128
   4313c:	bdffe004 	addi	r23,r23,-128
   43140:	b83f5d26 	beq	r23,zero,42eb8 <___svfprintf_internal_r+0x2e0>
   43144:	6b400044 	addi	r13,r13,1
   43148:	003f5b06 	br	42eb8 <___svfprintf_internal_r+0x2e0>
   4314c:	63000414 	ori	r12,r12,16
   43150:	6080080c 	andi	r2,r12,32
   43154:	1000ac26 	beq	r2,zero,43408 <___svfprintf_internal_r+0x830>
   43158:	d8c00717 	ldw	r3,28(sp)
   4315c:	00800044 	movi	r2,1
   43160:	1d800017 	ldw	r22,0(r3)
   43164:	1f000117 	ldw	fp,4(r3)
   43168:	18c00204 	addi	r3,r3,8
   4316c:	d8c00715 	stw	r3,28(sp)
   43170:	003fc906 	br	43098 <___svfprintf_internal_r+0x4c0>
   43174:	952fc83a 	sub	r23,r18,r20
   43178:	953f9026 	beq	r18,r20,42fbc <___svfprintf_internal_r+0x3e4>
   4317c:	dd801f17 	ldw	r22,124(sp)
   43180:	d8801e17 	ldw	r2,120(sp)
   43184:	8d000015 	stw	r20,0(r17)
   43188:	b5ed883a 	add	r22,r22,r23
   4318c:	10800044 	addi	r2,r2,1
   43190:	d8801e15 	stw	r2,120(sp)
   43194:	8dc00115 	stw	r23,4(r17)
   43198:	dd801f15 	stw	r22,124(sp)
   4319c:	10800208 	cmpgei	r2,r2,8
   431a0:	1000061e 	bne	r2,zero,431bc <___svfprintf_internal_r+0x5e4>
   431a4:	8c400204 	addi	r17,r17,8
   431a8:	d8c00617 	ldw	r3,24(sp)
   431ac:	90800003 	ldbu	r2,0(r18)
   431b0:	1dc7883a 	add	r3,r3,r23
   431b4:	d8c00615 	stw	r3,24(sp)
   431b8:	003ebc06 	br	42cac <___svfprintf_internal_r+0xd4>
   431bc:	d9400417 	ldw	r5,16(sp)
   431c0:	d9000517 	ldw	r4,20(sp)
   431c4:	d9801d04 	addi	r6,sp,116
   431c8:	004b3cc0 	call	4b3cc <__ssprint_r>
   431cc:	103f7d1e 	bne	r2,zero,42fc4 <___svfprintf_internal_r+0x3ec>
   431d0:	8023883a 	mov	r17,r16
   431d4:	003ff406 	br	431a8 <___svfprintf_internal_r+0x5d0>
   431d8:	05c00174 	movhi	r23,5
   431dc:	90c00450 	cmplti	r3,r18,17
   431e0:	d8801e17 	ldw	r2,120(sp)
   431e4:	bdd4e404 	addi	r23,r23,21392
   431e8:	1800241e 	bne	r3,zero,4327c <___svfprintf_internal_r+0x6a4>
   431ec:	8807883a 	mov	r3,r17
   431f0:	b839883a 	mov	fp,r23
   431f4:	dd400517 	ldw	r21,20(sp)
   431f8:	902f883a 	mov	r23,r18
   431fc:	05800404 	movi	r22,16
   43200:	5023883a 	mov	r17,r10
   43204:	6825883a 	mov	r18,r13
   43208:	00000406 	br	4321c <___svfprintf_internal_r+0x644>
   4320c:	bdfffc04 	addi	r23,r23,-16
   43210:	b9400448 	cmpgei	r5,r23,17
   43214:	18c00204 	addi	r3,r3,8
   43218:	28001326 	beq	r5,zero,43268 <___svfprintf_internal_r+0x690>
   4321c:	10800044 	addi	r2,r2,1
   43220:	21000404 	addi	r4,r4,16
   43224:	1f000015 	stw	fp,0(r3)
   43228:	1d800115 	stw	r22,4(r3)
   4322c:	d9001f15 	stw	r4,124(sp)
   43230:	d8801e15 	stw	r2,120(sp)
   43234:	11400208 	cmpgei	r5,r2,8
   43238:	283ff426 	beq	r5,zero,4320c <___svfprintf_internal_r+0x634>
   4323c:	d9400417 	ldw	r5,16(sp)
   43240:	d9801d04 	addi	r6,sp,116
   43244:	a809883a 	mov	r4,r21
   43248:	004b3cc0 	call	4b3cc <__ssprint_r>
   4324c:	103f5d1e 	bne	r2,zero,42fc4 <___svfprintf_internal_r+0x3ec>
   43250:	bdfffc04 	addi	r23,r23,-16
   43254:	b9400448 	cmpgei	r5,r23,17
   43258:	d9001f17 	ldw	r4,124(sp)
   4325c:	d8801e17 	ldw	r2,120(sp)
   43260:	8007883a 	mov	r3,r16
   43264:	283fed1e 	bne	r5,zero,4321c <___svfprintf_internal_r+0x644>
   43268:	8815883a 	mov	r10,r17
   4326c:	901b883a 	mov	r13,r18
   43270:	1823883a 	mov	r17,r3
   43274:	b825883a 	mov	r18,r23
   43278:	e02f883a 	mov	r23,fp
   4327c:	10800044 	addi	r2,r2,1
   43280:	2489883a 	add	r4,r4,r18
   43284:	d8801e15 	stw	r2,120(sp)
   43288:	8dc00015 	stw	r23,0(r17)
   4328c:	8c800115 	stw	r18,4(r17)
   43290:	d9001f15 	stw	r4,124(sp)
   43294:	10800210 	cmplti	r2,r2,8
   43298:	103f3e1e 	bne	r2,zero,42f94 <___svfprintf_internal_r+0x3bc>
   4329c:	d9400417 	ldw	r5,16(sp)
   432a0:	d9000517 	ldw	r4,20(sp)
   432a4:	d9801d04 	addi	r6,sp,116
   432a8:	db400f15 	stw	r13,60(sp)
   432ac:	da800815 	stw	r10,32(sp)
   432b0:	004b3cc0 	call	4b3cc <__ssprint_r>
   432b4:	103f431e 	bne	r2,zero,42fc4 <___svfprintf_internal_r+0x3ec>
   432b8:	d9001f17 	ldw	r4,124(sp)
   432bc:	db400f17 	ldw	r13,60(sp)
   432c0:	da800817 	ldw	r10,32(sp)
   432c4:	003f3306 	br	42f94 <___svfprintf_internal_r+0x3bc>
   432c8:	d8c00717 	ldw	r3,28(sp)
   432cc:	6080020c 	andi	r2,r12,8
   432d0:	1d800204 	addi	r22,r3,8
   432d4:	10038d1e 	bne	r2,zero,4410c <___svfprintf_internal_r+0x1534>
   432d8:	d8800717 	ldw	r2,28(sp)
   432dc:	10c00017 	ldw	r3,0(r2)
   432e0:	10800117 	ldw	r2,4(r2)
   432e4:	d8c00a15 	stw	r3,40(sp)
   432e8:	d8800b15 	stw	r2,44(sp)
   432ec:	df000b17 	ldw	fp,44(sp)
   432f0:	ddc00a17 	ldw	r23,40(sp)
   432f4:	00a00034 	movhi	r2,32768
   432f8:	10bfffc4 	addi	r2,r2,-1
   432fc:	e0aa703a 	and	r21,fp,r2
   43300:	01dffc34 	movhi	r7,32752
   43304:	01bfffc4 	movi	r6,-1
   43308:	39ffffc4 	addi	r7,r7,-1
   4330c:	b809883a 	mov	r4,r23
   43310:	a80b883a 	mov	r5,r21
   43314:	da800f15 	stw	r10,60(sp)
   43318:	db000815 	stw	r12,32(sp)
   4331c:	dac00715 	stw	r11,28(sp)
   43320:	0051f680 	call	51f68 <__unorddf2>
   43324:	dac00717 	ldw	r11,28(sp)
   43328:	db000817 	ldw	r12,32(sp)
   4332c:	da800f17 	ldw	r10,60(sp)
   43330:	10045b1e 	bne	r2,zero,444a0 <___svfprintf_internal_r+0x18c8>
   43334:	01dffc34 	movhi	r7,32752
   43338:	01bfffc4 	movi	r6,-1
   4333c:	39ffffc4 	addi	r7,r7,-1
   43340:	b809883a 	mov	r4,r23
   43344:	a80b883a 	mov	r5,r21
   43348:	0050ccc0 	call	50ccc <__ledf2>
   4334c:	dac00717 	ldw	r11,28(sp)
   43350:	db000817 	ldw	r12,32(sp)
   43354:	da800f17 	ldw	r10,60(sp)
   43358:	0084510e 	bge	zero,r2,444a0 <___svfprintf_internal_r+0x18c8>
   4335c:	000d883a 	mov	r6,zero
   43360:	000f883a 	mov	r7,zero
   43364:	b809883a 	mov	r4,r23
   43368:	e00b883a 	mov	r5,fp
   4336c:	0050ccc0 	call	50ccc <__ledf2>
   43370:	dac00717 	ldw	r11,28(sp)
   43374:	db000817 	ldw	r12,32(sp)
   43378:	da800f17 	ldw	r10,60(sp)
   4337c:	10054416 	blt	r2,zero,44890 <___svfprintf_internal_r+0x1cb8>
   43380:	ddc01643 	ldbu	r23,89(sp)
   43384:	58801210 	cmplti	r2,r11,72
   43388:	1005291e 	bne	r2,zero,44830 <___svfprintf_internal_r+0x1c58>
   4338c:	05400174 	movhi	r21,5
   43390:	ad54d004 	addi	r21,r21,21312
   43394:	00ffdfc4 	movi	r3,-129
   43398:	60c6703a 	and	r3,r12,r3
   4339c:	dd800715 	stw	r22,28(sp)
   433a0:	034000c4 	movi	r13,3
   433a4:	070000c4 	movi	fp,3
   433a8:	0025883a 	mov	r18,zero
   433ac:	d8000815 	stw	zero,32(sp)
   433b0:	003f6006 	br	43134 <___svfprintf_internal_r+0x55c>
   433b4:	d8c00717 	ldw	r3,28(sp)
   433b8:	6080040c 	andi	r2,r12,16
   433bc:	1d800017 	ldw	r22,0(r3)
   433c0:	1d400104 	addi	r21,r3,4
   433c4:	1000281e 	bne	r2,zero,43468 <___svfprintf_internal_r+0x890>
   433c8:	6080100c 	andi	r2,r12,64
   433cc:	10002626 	beq	r2,zero,43468 <___svfprintf_internal_r+0x890>
   433d0:	b5bfffcc 	andi	r22,r22,65535
   433d4:	b5a0001c 	xori	r22,r22,32768
   433d8:	b5a00004 	addi	r22,r22,-32768
   433dc:	b039d7fa 	srai	fp,r22,31
   433e0:	dd400715 	stw	r21,28(sp)
   433e4:	e005883a 	mov	r2,fp
   433e8:	103f110e 	bge	r2,zero,43030 <___svfprintf_internal_r+0x458>
   433ec:	b004c03a 	cmpne	r2,r22,zero
   433f0:	0739c83a 	sub	fp,zero,fp
   433f4:	e0b9c83a 	sub	fp,fp,r2
   433f8:	05adc83a 	sub	r22,zero,r22
   433fc:	05c00b44 	movi	r23,45
   43400:	00800044 	movi	r2,1
   43404:	003f2506 	br	4309c <___svfprintf_internal_r+0x4c4>
   43408:	d8c00717 	ldw	r3,28(sp)
   4340c:	6080040c 	andi	r2,r12,16
   43410:	1d800017 	ldw	r22,0(r3)
   43414:	1d400104 	addi	r21,r3,4
   43418:	1000031e 	bne	r2,zero,43428 <___svfprintf_internal_r+0x850>
   4341c:	6080100c 	andi	r2,r12,64
   43420:	10000126 	beq	r2,zero,43428 <___svfprintf_internal_r+0x850>
   43424:	b5bfffcc 	andi	r22,r22,65535
   43428:	0039883a 	mov	fp,zero
   4342c:	dd400715 	stw	r21,28(sp)
   43430:	00800044 	movi	r2,1
   43434:	003f1806 	br	43098 <___svfprintf_internal_r+0x4c0>
   43438:	d8c00717 	ldw	r3,28(sp)
   4343c:	6080040c 	andi	r2,r12,16
   43440:	1d800017 	ldw	r22,0(r3)
   43444:	1d400104 	addi	r21,r3,4
   43448:	1000031e 	bne	r2,zero,43458 <___svfprintf_internal_r+0x880>
   4344c:	6080100c 	andi	r2,r12,64
   43450:	10000126 	beq	r2,zero,43458 <___svfprintf_internal_r+0x880>
   43454:	b5bfffcc 	andi	r22,r22,65535
   43458:	0039883a 	mov	fp,zero
   4345c:	dd400715 	stw	r21,28(sp)
   43460:	0005883a 	mov	r2,zero
   43464:	003f0c06 	br	43098 <___svfprintf_internal_r+0x4c0>
   43468:	b039d7fa 	srai	fp,r22,31
   4346c:	dd400715 	stw	r21,28(sp)
   43470:	e005883a 	mov	r2,fp
   43474:	003eed06 	br	4302c <___svfprintf_internal_r+0x454>
   43478:	d8800717 	ldw	r2,28(sp)
   4347c:	12800017 	ldw	r10,0(r2)
   43480:	10800104 	addi	r2,r2,4
   43484:	5003130e 	bge	r10,zero,440d4 <___svfprintf_internal_r+0x14fc>
   43488:	0295c83a 	sub	r10,zero,r10
   4348c:	d8800715 	stw	r2,28(sp)
   43490:	a2c00007 	ldb	r11,0(r20)
   43494:	63000114 	ori	r12,r12,4
   43498:	003e0e06 	br	42cd4 <___svfprintf_internal_r+0xfc>
   4349c:	a2c00007 	ldb	r11,0(r20)
   434a0:	a0800044 	addi	r2,r20,1
   434a4:	58c00aa0 	cmpeqi	r3,r11,42
   434a8:	1806cb1e 	bne	r3,zero,44fd8 <___svfprintf_internal_r+0x2400>
   434ac:	58fff404 	addi	r3,r11,-48
   434b0:	190002b0 	cmpltui	r4,r3,10
   434b4:	1029883a 	mov	r20,r2
   434b8:	0025883a 	mov	r18,zero
   434bc:	203e0626 	beq	r4,zero,42cd8 <___svfprintf_internal_r+0x100>
   434c0:	900490ba 	slli	r2,r18,2
   434c4:	a2c00007 	ldb	r11,0(r20)
   434c8:	a5000044 	addi	r20,r20,1
   434cc:	14a5883a 	add	r18,r2,r18
   434d0:	94a5883a 	add	r18,r18,r18
   434d4:	90e5883a 	add	r18,r18,r3
   434d8:	58fff404 	addi	r3,r11,-48
   434dc:	188002b0 	cmpltui	r2,r3,10
   434e0:	103ff71e 	bne	r2,zero,434c0 <___svfprintf_internal_r+0x8e8>
   434e4:	003dfc06 	br	42cd8 <___svfprintf_internal_r+0x100>
   434e8:	a2c00007 	ldb	r11,0(r20)
   434ec:	63002014 	ori	r12,r12,128
   434f0:	003df806 	br	42cd4 <___svfprintf_internal_r+0xfc>
   434f4:	00800ac4 	movi	r2,43
   434f8:	a2c00007 	ldb	r11,0(r20)
   434fc:	d8801645 	stb	r2,89(sp)
   43500:	003df406 	br	42cd4 <___svfprintf_internal_r+0xfc>
   43504:	a2c00007 	ldb	r11,0(r20)
   43508:	63000054 	ori	r12,r12,1
   4350c:	003df106 	br	42cd4 <___svfprintf_internal_r+0xfc>
   43510:	d8801647 	ldb	r2,89(sp)
   43514:	a2c00003 	ldbu	r11,0(r20)
   43518:	10000c1e 	bne	r2,zero,4354c <___svfprintf_internal_r+0x974>
   4351c:	5ac03fcc 	andi	r11,r11,255
   43520:	00800804 	movi	r2,32
   43524:	5ac0201c 	xori	r11,r11,128
   43528:	d8801645 	stb	r2,89(sp)
   4352c:	5affe004 	addi	r11,r11,-128
   43530:	003de806 	br	42cd4 <___svfprintf_internal_r+0xfc>
   43534:	a2c00007 	ldb	r11,0(r20)
   43538:	58801b18 	cmpnei	r2,r11,108
   4353c:	1002e31e 	bne	r2,zero,440cc <___svfprintf_internal_r+0x14f4>
   43540:	a2c00043 	ldbu	r11,1(r20)
   43544:	63000814 	ori	r12,r12,32
   43548:	a5000044 	addi	r20,r20,1
   4354c:	5ac03fcc 	andi	r11,r11,255
   43550:	5ac0201c 	xori	r11,r11,128
   43554:	5affe004 	addi	r11,r11,-128
   43558:	003dde06 	br	42cd4 <___svfprintf_internal_r+0xfc>
   4355c:	a2c00007 	ldb	r11,0(r20)
   43560:	63000214 	ori	r12,r12,8
   43564:	003ddb06 	br	42cd4 <___svfprintf_internal_r+0xfc>
   43568:	d8800717 	ldw	r2,28(sp)
   4356c:	d8001645 	stb	zero,89(sp)
   43570:	15400017 	ldw	r21,0(r2)
   43574:	15800104 	addi	r22,r2,4
   43578:	a8046926 	beq	r21,zero,44720 <___svfprintf_internal_r+0x1b48>
   4357c:	90bfffe0 	cmpeqi	r2,r18,-1
   43580:	10033e1e 	bne	r2,zero,4427c <___svfprintf_internal_r+0x16a4>
   43584:	900d883a 	mov	r6,r18
   43588:	000b883a 	mov	r5,zero
   4358c:	a809883a 	mov	r4,r21
   43590:	da800f15 	stw	r10,60(sp)
   43594:	db000815 	stw	r12,32(sp)
   43598:	dac00715 	stw	r11,28(sp)
   4359c:	0049f140 	call	49f14 <memchr>
   435a0:	dac00717 	ldw	r11,28(sp)
   435a4:	db000817 	ldw	r12,32(sp)
   435a8:	da800f17 	ldw	r10,60(sp)
   435ac:	1005fe26 	beq	r2,zero,44da8 <___svfprintf_internal_r+0x21d0>
   435b0:	1579c83a 	sub	fp,r2,r21
   435b4:	e01b883a 	mov	r13,fp
   435b8:	dd800715 	stw	r22,28(sp)
   435bc:	003e3b06 	br	42eac <___svfprintf_internal_r+0x2d4>
   435c0:	a2c00007 	ldb	r11,0(r20)
   435c4:	63000814 	ori	r12,r12,32
   435c8:	003dc206 	br	42cd4 <___svfprintf_internal_r+0xfc>
   435cc:	d8c00717 	ldw	r3,28(sp)
   435d0:	009e0c04 	movi	r2,30768
   435d4:	01000174 	movhi	r4,5
   435d8:	d880168d 	sth	r2,90(sp)
   435dc:	18800104 	addi	r2,r3,4
   435e0:	d8800715 	stw	r2,28(sp)
   435e4:	2094d804 	addi	r2,r4,21344
   435e8:	d8800e15 	stw	r2,56(sp)
   435ec:	1d800017 	ldw	r22,0(r3)
   435f0:	0039883a 	mov	fp,zero
   435f4:	63000094 	ori	r12,r12,2
   435f8:	00800084 	movi	r2,2
   435fc:	02c01e04 	movi	r11,120
   43600:	003ea506 	br	43098 <___svfprintf_internal_r+0x4c0>
   43604:	6080080c 	andi	r2,r12,32
   43608:	1002b726 	beq	r2,zero,440e8 <___svfprintf_internal_r+0x1510>
   4360c:	d9000617 	ldw	r4,24(sp)
   43610:	d8800717 	ldw	r2,28(sp)
   43614:	2007d7fa 	srai	r3,r4,31
   43618:	10800017 	ldw	r2,0(r2)
   4361c:	11000015 	stw	r4,0(r2)
   43620:	10c00115 	stw	r3,4(r2)
   43624:	d8800717 	ldw	r2,28(sp)
   43628:	10800104 	addi	r2,r2,4
   4362c:	d8800715 	stw	r2,28(sp)
   43630:	003d9206 	br	42c7c <___svfprintf_internal_r+0xa4>
   43634:	a2c00007 	ldb	r11,0(r20)
   43638:	63001014 	ori	r12,r12,64
   4363c:	003da506 	br	42cd4 <___svfprintf_internal_r+0xfc>
   43640:	d8c00717 	ldw	r3,28(sp)
   43644:	d8001645 	stb	zero,89(sp)
   43648:	03400044 	movi	r13,1
   4364c:	18800017 	ldw	r2,0(r3)
   43650:	18c00104 	addi	r3,r3,4
   43654:	d8c00715 	stw	r3,28(sp)
   43658:	d8802005 	stb	r2,128(sp)
   4365c:	07000044 	movi	fp,1
   43660:	dd402004 	addi	r21,sp,128
   43664:	003e1106 	br	42eac <___svfprintf_internal_r+0x2d4>
   43668:	5ac01990 	cmplti	r11,r11,102
   4366c:	5800e71e 	bne	r11,zero,43a0c <___svfprintf_internal_r+0xe34>
   43670:	d9000a17 	ldw	r4,40(sp)
   43674:	d9400b17 	ldw	r5,44(sp)
   43678:	000d883a 	mov	r6,zero
   4367c:	000f883a 	mov	r7,zero
   43680:	db401115 	stw	r13,68(sp)
   43684:	da801015 	stw	r10,64(sp)
   43688:	d8c00f15 	stw	r3,60(sp)
   4368c:	0050b3c0 	call	50b3c <__eqdf2>
   43690:	d8c00f17 	ldw	r3,60(sp)
   43694:	da801017 	ldw	r10,64(sp)
   43698:	db401117 	ldw	r13,68(sp)
   4369c:	1001a91e 	bne	r2,zero,43d44 <___svfprintf_internal_r+0x116c>
   436a0:	d8801e17 	ldw	r2,120(sp)
   436a4:	01000174 	movhi	r4,5
   436a8:	2114df04 	addi	r4,r4,21372
   436ac:	10800044 	addi	r2,r2,1
   436b0:	b5800044 	addi	r22,r22,1
   436b4:	89000015 	stw	r4,0(r17)
   436b8:	01000044 	movi	r4,1
   436bc:	d8801e15 	stw	r2,120(sp)
   436c0:	89000115 	stw	r4,4(r17)
   436c4:	dd801f15 	stw	r22,124(sp)
   436c8:	10800208 	cmpgei	r2,r2,8
   436cc:	1003d91e 	bne	r2,zero,44634 <___svfprintf_internal_r+0x1a5c>
   436d0:	8c400204 	addi	r17,r17,8
   436d4:	d8801717 	ldw	r2,92(sp)
   436d8:	d9000917 	ldw	r4,36(sp)
   436dc:	11000216 	blt	r2,r4,436e8 <___svfprintf_internal_r+0xb10>
   436e0:	1880004c 	andi	r2,r3,1
   436e4:	10029a26 	beq	r2,zero,44150 <___svfprintf_internal_r+0x1578>
   436e8:	d8800d17 	ldw	r2,52(sp)
   436ec:	d9400c17 	ldw	r5,48(sp)
   436f0:	88800015 	stw	r2,0(r17)
   436f4:	d8801e17 	ldw	r2,120(sp)
   436f8:	2d89883a 	add	r4,r5,r22
   436fc:	89400115 	stw	r5,4(r17)
   43700:	10800044 	addi	r2,r2,1
   43704:	d8801e15 	stw	r2,120(sp)
   43708:	d9001f15 	stw	r4,124(sp)
   4370c:	10800208 	cmpgei	r2,r2,8
   43710:	1003f51e 	bne	r2,zero,446e8 <___svfprintf_internal_r+0x1b10>
   43714:	8c400204 	addi	r17,r17,8
   43718:	d8800917 	ldw	r2,36(sp)
   4371c:	14bfffc4 	addi	r18,r2,-1
   43720:	04be180e 	bge	zero,r18,42f84 <___svfprintf_internal_r+0x3ac>
   43724:	05800174 	movhi	r22,5
   43728:	91400450 	cmplti	r5,r18,17
   4372c:	d8801e17 	ldw	r2,120(sp)
   43730:	b594e004 	addi	r22,r22,21376
   43734:	2801471e 	bne	r5,zero,43c54 <___svfprintf_internal_r+0x107c>
   43738:	880b883a 	mov	r5,r17
   4373c:	9039883a 	mov	fp,r18
   43740:	1823883a 	mov	r17,r3
   43744:	b02b883a 	mov	r21,r22
   43748:	05c00404 	movi	r23,16
   4374c:	982d883a 	mov	r22,r19
   43750:	5025883a 	mov	r18,r10
   43754:	6827883a 	mov	r19,r13
   43758:	2807883a 	mov	r3,r5
   4375c:	00000406 	br	43770 <___svfprintf_internal_r+0xb98>
   43760:	18c00204 	addi	r3,r3,8
   43764:	e73ffc04 	addi	fp,fp,-16
   43768:	e1400448 	cmpgei	r5,fp,17
   4376c:	28013126 	beq	r5,zero,43c34 <___svfprintf_internal_r+0x105c>
   43770:	10800044 	addi	r2,r2,1
   43774:	21000404 	addi	r4,r4,16
   43778:	1d400015 	stw	r21,0(r3)
   4377c:	1dc00115 	stw	r23,4(r3)
   43780:	d9001f15 	stw	r4,124(sp)
   43784:	d8801e15 	stw	r2,120(sp)
   43788:	11400208 	cmpgei	r5,r2,8
   4378c:	283ff426 	beq	r5,zero,43760 <___svfprintf_internal_r+0xb88>
   43790:	d9400417 	ldw	r5,16(sp)
   43794:	d9000517 	ldw	r4,20(sp)
   43798:	d9801d04 	addi	r6,sp,116
   4379c:	004b3cc0 	call	4b3cc <__ssprint_r>
   437a0:	103e081e 	bne	r2,zero,42fc4 <___svfprintf_internal_r+0x3ec>
   437a4:	d9001f17 	ldw	r4,124(sp)
   437a8:	d8801e17 	ldw	r2,120(sp)
   437ac:	8007883a 	mov	r3,r16
   437b0:	003fec06 	br	43764 <___svfprintf_internal_r+0xb8c>
   437b4:	536fc83a 	sub	r23,r10,r13
   437b8:	05fde40e 	bge	zero,r23,42f4c <___svfprintf_internal_r+0x374>
   437bc:	b009883a 	mov	r4,r22
   437c0:	b9400450 	cmplti	r5,r23,17
   437c4:	05800174 	movhi	r22,5
   437c8:	d8801e17 	ldw	r2,120(sp)
   437cc:	b594e004 	addi	r22,r22,21376
   437d0:	28002e1e 	bne	r5,zero,4388c <___svfprintf_internal_r+0xcb4>
   437d4:	d8c01015 	stw	r3,64(sp)
   437d8:	03000404 	movi	r12,16
   437dc:	8807883a 	mov	r3,r17
   437e0:	dac00f15 	stw	r11,60(sp)
   437e4:	b823883a 	mov	r17,r23
   437e8:	da801115 	stw	r10,68(sp)
   437ec:	982f883a 	mov	r23,r19
   437f0:	9027883a 	mov	r19,r18
   437f4:	b025883a 	mov	r18,r22
   437f8:	a02d883a 	mov	r22,r20
   437fc:	6829883a 	mov	r20,r13
   43800:	00000406 	br	43814 <___svfprintf_internal_r+0xc3c>
   43804:	8c7ffc04 	addi	r17,r17,-16
   43808:	89400448 	cmpgei	r5,r17,17
   4380c:	18c00204 	addi	r3,r3,8
   43810:	28001426 	beq	r5,zero,43864 <___svfprintf_internal_r+0xc8c>
   43814:	10800044 	addi	r2,r2,1
   43818:	21000404 	addi	r4,r4,16
   4381c:	1c800015 	stw	r18,0(r3)
   43820:	1b000115 	stw	r12,4(r3)
   43824:	d9001f15 	stw	r4,124(sp)
   43828:	d8801e15 	stw	r2,120(sp)
   4382c:	11400208 	cmpgei	r5,r2,8
   43830:	283ff426 	beq	r5,zero,43804 <___svfprintf_internal_r+0xc2c>
   43834:	d9400417 	ldw	r5,16(sp)
   43838:	d9000517 	ldw	r4,20(sp)
   4383c:	d9801d04 	addi	r6,sp,116
   43840:	004b3cc0 	call	4b3cc <__ssprint_r>
   43844:	103ddf1e 	bne	r2,zero,42fc4 <___svfprintf_internal_r+0x3ec>
   43848:	8c7ffc04 	addi	r17,r17,-16
   4384c:	89400448 	cmpgei	r5,r17,17
   43850:	d9001f17 	ldw	r4,124(sp)
   43854:	d8801e17 	ldw	r2,120(sp)
   43858:	8007883a 	mov	r3,r16
   4385c:	03000404 	movi	r12,16
   43860:	283fec1e 	bne	r5,zero,43814 <___svfprintf_internal_r+0xc3c>
   43864:	a01b883a 	mov	r13,r20
   43868:	dac00f17 	ldw	r11,60(sp)
   4386c:	b029883a 	mov	r20,r22
   43870:	da801117 	ldw	r10,68(sp)
   43874:	902d883a 	mov	r22,r18
   43878:	9825883a 	mov	r18,r19
   4387c:	b827883a 	mov	r19,r23
   43880:	882f883a 	mov	r23,r17
   43884:	1823883a 	mov	r17,r3
   43888:	d8c01017 	ldw	r3,64(sp)
   4388c:	10800044 	addi	r2,r2,1
   43890:	b909883a 	add	r4,r23,r4
   43894:	d8801e15 	stw	r2,120(sp)
   43898:	8d800015 	stw	r22,0(r17)
   4389c:	8dc00115 	stw	r23,4(r17)
   438a0:	d9001f15 	stw	r4,124(sp)
   438a4:	10800208 	cmpgei	r2,r2,8
   438a8:	10037f1e 	bne	r2,zero,446a8 <___svfprintf_internal_r+0x1ad0>
   438ac:	9725c83a 	sub	r18,r18,fp
   438b0:	8c400204 	addi	r17,r17,8
   438b4:	202d883a 	mov	r22,r4
   438b8:	04bda60e 	bge	zero,r18,42f54 <___svfprintf_internal_r+0x37c>
   438bc:	91400450 	cmplti	r5,r18,17
   438c0:	d8801e17 	ldw	r2,120(sp)
   438c4:	b009883a 	mov	r4,r22
   438c8:	2803dc1e 	bne	r5,zero,4483c <___svfprintf_internal_r+0x1c64>
   438cc:	982d883a 	mov	r22,r19
   438d0:	d8c01015 	stw	r3,64(sp)
   438d4:	05c00404 	movi	r23,16
   438d8:	8807883a 	mov	r3,r17
   438dc:	dac00f15 	stw	r11,60(sp)
   438e0:	9023883a 	mov	r17,r18
   438e4:	da801115 	stw	r10,68(sp)
   438e8:	9825883a 	mov	r18,r19
   438ec:	6827883a 	mov	r19,r13
   438f0:	00000406 	br	43904 <___svfprintf_internal_r+0xd2c>
   438f4:	8c7ffc04 	addi	r17,r17,-16
   438f8:	89400448 	cmpgei	r5,r17,17
   438fc:	18c00204 	addi	r3,r3,8
   43900:	28001326 	beq	r5,zero,43950 <___svfprintf_internal_r+0xd78>
   43904:	10800044 	addi	r2,r2,1
   43908:	21000404 	addi	r4,r4,16
   4390c:	1c800015 	stw	r18,0(r3)
   43910:	1dc00115 	stw	r23,4(r3)
   43914:	d9001f15 	stw	r4,124(sp)
   43918:	d8801e15 	stw	r2,120(sp)
   4391c:	11400208 	cmpgei	r5,r2,8
   43920:	283ff426 	beq	r5,zero,438f4 <___svfprintf_internal_r+0xd1c>
   43924:	d9400417 	ldw	r5,16(sp)
   43928:	d9000517 	ldw	r4,20(sp)
   4392c:	d9801d04 	addi	r6,sp,116
   43930:	004b3cc0 	call	4b3cc <__ssprint_r>
   43934:	103da31e 	bne	r2,zero,42fc4 <___svfprintf_internal_r+0x3ec>
   43938:	8c7ffc04 	addi	r17,r17,-16
   4393c:	89400448 	cmpgei	r5,r17,17
   43940:	d9001f17 	ldw	r4,124(sp)
   43944:	d8801e17 	ldw	r2,120(sp)
   43948:	8007883a 	mov	r3,r16
   4394c:	283fed1e 	bne	r5,zero,43904 <___svfprintf_internal_r+0xd2c>
   43950:	981b883a 	mov	r13,r19
   43954:	dac00f17 	ldw	r11,60(sp)
   43958:	9027883a 	mov	r19,r18
   4395c:	da801117 	ldw	r10,68(sp)
   43960:	8825883a 	mov	r18,r17
   43964:	1823883a 	mov	r17,r3
   43968:	d8c01017 	ldw	r3,64(sp)
   4396c:	10800044 	addi	r2,r2,1
   43970:	9109883a 	add	r4,r18,r4
   43974:	d8801e15 	stw	r2,120(sp)
   43978:	8d800015 	stw	r22,0(r17)
   4397c:	8c800115 	stw	r18,4(r17)
   43980:	d9001f15 	stw	r4,124(sp)
   43984:	10800208 	cmpgei	r2,r2,8
   43988:	1001941e 	bne	r2,zero,43fdc <___svfprintf_internal_r+0x1404>
   4398c:	8c400204 	addi	r17,r17,8
   43990:	202d883a 	mov	r22,r4
   43994:	003d6f06 	br	42f54 <___svfprintf_internal_r+0x37c>
   43998:	11000060 	cmpeqi	r4,r2,1
   4399c:	1819883a 	mov	r12,r3
   439a0:	002d883a 	mov	r22,zero
   439a4:	203dad1e 	bne	r4,zero,4305c <___svfprintf_internal_r+0x484>
   439a8:	108000a0 	cmpeqi	r2,r2,2
   439ac:	0039883a 	mov	fp,zero
   439b0:	103dc626 	beq	r2,zero,430cc <___svfprintf_internal_r+0x4f4>
   439b4:	d9000e17 	ldw	r4,56(sp)
   439b8:	802b883a 	mov	r21,r16
   439bc:	b08003cc 	andi	r2,r22,15
   439c0:	e006973a 	slli	r3,fp,28
   439c4:	b02cd13a 	srli	r22,r22,4
   439c8:	2085883a 	add	r2,r4,r2
   439cc:	10800003 	ldbu	r2,0(r2)
   439d0:	e038d13a 	srli	fp,fp,4
   439d4:	1dacb03a 	or	r22,r3,r22
   439d8:	a8bfffc5 	stb	r2,-1(r21)
   439dc:	b704b03a 	or	r2,r22,fp
   439e0:	ad7fffc4 	addi	r21,r21,-1
   439e4:	103ff51e 	bne	r2,zero,439bc <___svfprintf_internal_r+0xde4>
   439e8:	8579c83a 	sub	fp,r16,r21
   439ec:	6007883a 	mov	r3,r12
   439f0:	003dcc06 	br	43124 <___svfprintf_internal_r+0x54c>
   439f4:	d9400417 	ldw	r5,16(sp)
   439f8:	d9000517 	ldw	r4,20(sp)
   439fc:	d9801d04 	addi	r6,sp,116
   43a00:	004b3cc0 	call	4b3cc <__ssprint_r>
   43a04:	103d6926 	beq	r2,zero,42fac <___svfprintf_internal_r+0x3d4>
   43a08:	003d6e06 	br	42fc4 <___svfprintf_internal_r+0x3ec>
   43a0c:	d8800917 	ldw	r2,36(sp)
   43a10:	8c800204 	addi	r18,r17,8
   43a14:	10800088 	cmpgei	r2,r2,2
   43a18:	10012d26 	beq	r2,zero,43ed0 <___svfprintf_internal_r+0x12f8>
   43a1c:	df001e17 	ldw	fp,120(sp)
   43a20:	00800044 	movi	r2,1
   43a24:	b5800044 	addi	r22,r22,1
   43a28:	e7000044 	addi	fp,fp,1
   43a2c:	88800115 	stw	r2,4(r17)
   43a30:	8d400015 	stw	r21,0(r17)
   43a34:	dd801f15 	stw	r22,124(sp)
   43a38:	df001e15 	stw	fp,120(sp)
   43a3c:	e0800210 	cmplti	r2,fp,8
   43a40:	10018426 	beq	r2,zero,44054 <___svfprintf_internal_r+0x147c>
   43a44:	d8800c17 	ldw	r2,48(sp)
   43a48:	d9000d17 	ldw	r4,52(sp)
   43a4c:	e7000044 	addi	fp,fp,1
   43a50:	15af883a 	add	r23,r2,r22
   43a54:	90800115 	stw	r2,4(r18)
   43a58:	91000015 	stw	r4,0(r18)
   43a5c:	ddc01f15 	stw	r23,124(sp)
   43a60:	df001e15 	stw	fp,120(sp)
   43a64:	e0800208 	cmpgei	r2,fp,8
   43a68:	1001891e 	bne	r2,zero,44090 <___svfprintf_internal_r+0x14b8>
   43a6c:	94800204 	addi	r18,r18,8
   43a70:	d9000a17 	ldw	r4,40(sp)
   43a74:	d9400b17 	ldw	r5,44(sp)
   43a78:	000d883a 	mov	r6,zero
   43a7c:	000f883a 	mov	r7,zero
   43a80:	db401015 	stw	r13,64(sp)
   43a84:	da800f15 	stw	r10,60(sp)
   43a88:	d8c00815 	stw	r3,32(sp)
   43a8c:	0050b3c0 	call	50b3c <__eqdf2>
   43a90:	d8c00917 	ldw	r3,36(sp)
   43a94:	da800f17 	ldw	r10,60(sp)
   43a98:	db401017 	ldw	r13,64(sp)
   43a9c:	1c7fffc4 	addi	r17,r3,-1
   43aa0:	d8c00817 	ldw	r3,32(sp)
   43aa4:	10012526 	beq	r2,zero,43f3c <___svfprintf_internal_r+0x1364>
   43aa8:	aa000044 	addi	r8,r21,1
   43aac:	e7000044 	addi	fp,fp,1
   43ab0:	bc6f883a 	add	r23,r23,r17
   43ab4:	92000015 	stw	r8,0(r18)
   43ab8:	94400115 	stw	r17,4(r18)
   43abc:	ddc01f15 	stw	r23,124(sp)
   43ac0:	df001e15 	stw	fp,120(sp)
   43ac4:	e0800208 	cmpgei	r2,fp,8
   43ac8:	1002e81e 	bne	r2,zero,4466c <___svfprintf_internal_r+0x1a94>
   43acc:	94800204 	addi	r18,r18,8
   43ad0:	d9401217 	ldw	r5,72(sp)
   43ad4:	e7000044 	addi	fp,fp,1
   43ad8:	d8801904 	addi	r2,sp,100
   43adc:	2dc9883a 	add	r4,r5,r23
   43ae0:	df001e15 	stw	fp,120(sp)
   43ae4:	90800015 	stw	r2,0(r18)
   43ae8:	91400115 	stw	r5,4(r18)
   43aec:	d9001f15 	stw	r4,124(sp)
   43af0:	e7000208 	cmpgei	fp,fp,8
   43af4:	e001491e 	bne	fp,zero,4401c <___svfprintf_internal_r+0x1444>
   43af8:	94400204 	addi	r17,r18,8
   43afc:	003d2106 	br	42f84 <___svfprintf_internal_r+0x3ac>
   43b00:	00800044 	movi	r2,1
   43b04:	903fa41e 	bne	r18,zero,43998 <___svfprintf_internal_r+0xdc0>
   43b08:	1000ee1e 	bne	r2,zero,43ec4 <___svfprintf_internal_r+0x12ec>
   43b0c:	6700004c 	andi	fp,r12,1
   43b10:	e0017326 	beq	fp,zero,440e0 <___svfprintf_internal_r+0x1508>
   43b14:	00800c04 	movi	r2,48
   43b18:	d88029c5 	stb	r2,167(sp)
   43b1c:	dd4029c4 	addi	r21,sp,167
   43b20:	003d8006 	br	43124 <___svfprintf_internal_r+0x54c>
   43b24:	05c00174 	movhi	r23,5
   43b28:	b1400450 	cmplti	r5,r22,17
   43b2c:	d9001f17 	ldw	r4,124(sp)
   43b30:	d8801e17 	ldw	r2,120(sp)
   43b34:	bdd4e404 	addi	r23,r23,21392
   43b38:	2800341e 	bne	r5,zero,43c0c <___svfprintf_internal_r+0x1034>
   43b3c:	980b883a 	mov	r5,r19
   43b40:	d8c01315 	stw	r3,76(sp)
   43b44:	9027883a 	mov	r19,r18
   43b48:	8807883a 	mov	r3,r17
   43b4c:	b825883a 	mov	r18,r23
   43b50:	b023883a 	mov	r17,r22
   43b54:	03c00404 	movi	r15,16
   43b58:	a02d883a 	mov	r22,r20
   43b5c:	db800f15 	stw	r14,60(sp)
   43b60:	db001015 	stw	r12,64(sp)
   43b64:	dac01115 	stw	r11,68(sp)
   43b68:	da801415 	stw	r10,80(sp)
   43b6c:	6829883a 	mov	r20,r13
   43b70:	282f883a 	mov	r23,r5
   43b74:	00000406 	br	43b88 <___svfprintf_internal_r+0xfb0>
   43b78:	8c7ffc04 	addi	r17,r17,-16
   43b7c:	89400448 	cmpgei	r5,r17,17
   43b80:	18c00204 	addi	r3,r3,8
   43b84:	28001426 	beq	r5,zero,43bd8 <___svfprintf_internal_r+0x1000>
   43b88:	10800044 	addi	r2,r2,1
   43b8c:	21000404 	addi	r4,r4,16
   43b90:	1c800015 	stw	r18,0(r3)
   43b94:	1bc00115 	stw	r15,4(r3)
   43b98:	d9001f15 	stw	r4,124(sp)
   43b9c:	d8801e15 	stw	r2,120(sp)
   43ba0:	11400208 	cmpgei	r5,r2,8
   43ba4:	283ff426 	beq	r5,zero,43b78 <___svfprintf_internal_r+0xfa0>
   43ba8:	d9400417 	ldw	r5,16(sp)
   43bac:	d9000517 	ldw	r4,20(sp)
   43bb0:	d9801d04 	addi	r6,sp,116
   43bb4:	004b3cc0 	call	4b3cc <__ssprint_r>
   43bb8:	103d021e 	bne	r2,zero,42fc4 <___svfprintf_internal_r+0x3ec>
   43bbc:	8c7ffc04 	addi	r17,r17,-16
   43bc0:	89400448 	cmpgei	r5,r17,17
   43bc4:	d9001f17 	ldw	r4,124(sp)
   43bc8:	d8801e17 	ldw	r2,120(sp)
   43bcc:	8007883a 	mov	r3,r16
   43bd0:	03c00404 	movi	r15,16
   43bd4:	283fec1e 	bne	r5,zero,43b88 <___svfprintf_internal_r+0xfb0>
   43bd8:	a01b883a 	mov	r13,r20
   43bdc:	db800f17 	ldw	r14,60(sp)
   43be0:	b029883a 	mov	r20,r22
   43be4:	db001017 	ldw	r12,64(sp)
   43be8:	882d883a 	mov	r22,r17
   43bec:	dac01117 	ldw	r11,68(sp)
   43bf0:	1823883a 	mov	r17,r3
   43bf4:	da801417 	ldw	r10,80(sp)
   43bf8:	d8c01317 	ldw	r3,76(sp)
   43bfc:	b80b883a 	mov	r5,r23
   43c00:	902f883a 	mov	r23,r18
   43c04:	9825883a 	mov	r18,r19
   43c08:	2827883a 	mov	r19,r5
   43c0c:	10800044 	addi	r2,r2,1
   43c10:	b109883a 	add	r4,r22,r4
   43c14:	d8801e15 	stw	r2,120(sp)
   43c18:	8dc00015 	stw	r23,0(r17)
   43c1c:	8d800115 	stw	r22,4(r17)
   43c20:	d9001f15 	stw	r4,124(sp)
   43c24:	10800208 	cmpgei	r2,r2,8
   43c28:	1001e21e 	bne	r2,zero,443b4 <___svfprintf_internal_r+0x17dc>
   43c2c:	8c400204 	addi	r17,r17,8
   43c30:	003ca806 	br	42ed4 <___svfprintf_internal_r+0x2fc>
   43c34:	180b883a 	mov	r5,r3
   43c38:	9015883a 	mov	r10,r18
   43c3c:	8807883a 	mov	r3,r17
   43c40:	981b883a 	mov	r13,r19
   43c44:	e025883a 	mov	r18,fp
   43c48:	b027883a 	mov	r19,r22
   43c4c:	2823883a 	mov	r17,r5
   43c50:	a82d883a 	mov	r22,r21
   43c54:	10800044 	addi	r2,r2,1
   43c58:	8d800015 	stw	r22,0(r17)
   43c5c:	8c800115 	stw	r18,4(r17)
   43c60:	2489883a 	add	r4,r4,r18
   43c64:	d8801e15 	stw	r2,120(sp)
   43c68:	d9001f15 	stw	r4,124(sp)
   43c6c:	10800208 	cmpgei	r2,r2,8
   43c70:	103cc326 	beq	r2,zero,42f80 <___svfprintf_internal_r+0x3a8>
   43c74:	d9400417 	ldw	r5,16(sp)
   43c78:	d9000517 	ldw	r4,20(sp)
   43c7c:	d9801d04 	addi	r6,sp,116
   43c80:	db401015 	stw	r13,64(sp)
   43c84:	da800f15 	stw	r10,60(sp)
   43c88:	d8c00815 	stw	r3,32(sp)
   43c8c:	004b3cc0 	call	4b3cc <__ssprint_r>
   43c90:	103ccc1e 	bne	r2,zero,42fc4 <___svfprintf_internal_r+0x3ec>
   43c94:	d9001f17 	ldw	r4,124(sp)
   43c98:	d8c00817 	ldw	r3,32(sp)
   43c9c:	da800f17 	ldw	r10,60(sp)
   43ca0:	db401017 	ldw	r13,64(sp)
   43ca4:	8023883a 	mov	r17,r16
   43ca8:	003cb606 	br	42f84 <___svfprintf_internal_r+0x3ac>
   43cac:	d9400417 	ldw	r5,16(sp)
   43cb0:	d9000517 	ldw	r4,20(sp)
   43cb4:	d9801d04 	addi	r6,sp,116
   43cb8:	db401515 	stw	r13,84(sp)
   43cbc:	da801415 	stw	r10,80(sp)
   43cc0:	d8c01315 	stw	r3,76(sp)
   43cc4:	dac01115 	stw	r11,68(sp)
   43cc8:	db001015 	stw	r12,64(sp)
   43ccc:	db800f15 	stw	r14,60(sp)
   43cd0:	004b3cc0 	call	4b3cc <__ssprint_r>
   43cd4:	103cbb1e 	bne	r2,zero,42fc4 <___svfprintf_internal_r+0x3ec>
   43cd8:	dd801f17 	ldw	r22,124(sp)
   43cdc:	db401517 	ldw	r13,84(sp)
   43ce0:	da801417 	ldw	r10,80(sp)
   43ce4:	d8c01317 	ldw	r3,76(sp)
   43ce8:	dac01117 	ldw	r11,68(sp)
   43cec:	db001017 	ldw	r12,64(sp)
   43cf0:	db800f17 	ldw	r14,60(sp)
   43cf4:	8023883a 	mov	r17,r16
   43cf8:	003c8506 	br	42f10 <___svfprintf_internal_r+0x338>
   43cfc:	d9400417 	ldw	r5,16(sp)
   43d00:	d9000517 	ldw	r4,20(sp)
   43d04:	d9801d04 	addi	r6,sp,116
   43d08:	db401415 	stw	r13,80(sp)
   43d0c:	da801315 	stw	r10,76(sp)
   43d10:	d8c01115 	stw	r3,68(sp)
   43d14:	dac01015 	stw	r11,64(sp)
   43d18:	db000f15 	stw	r12,60(sp)
   43d1c:	004b3cc0 	call	4b3cc <__ssprint_r>
   43d20:	103ca81e 	bne	r2,zero,42fc4 <___svfprintf_internal_r+0x3ec>
   43d24:	dd801f17 	ldw	r22,124(sp)
   43d28:	db401417 	ldw	r13,80(sp)
   43d2c:	da801317 	ldw	r10,76(sp)
   43d30:	d8c01117 	ldw	r3,68(sp)
   43d34:	dac01017 	ldw	r11,64(sp)
   43d38:	db000f17 	ldw	r12,60(sp)
   43d3c:	8023883a 	mov	r17,r16
   43d40:	003c8006 	br	42f44 <___svfprintf_internal_r+0x36c>
   43d44:	dc801717 	ldw	r18,92(sp)
   43d48:	0481ad0e 	bge	zero,r18,44400 <___svfprintf_internal_r+0x1828>
   43d4c:	d8800917 	ldw	r2,36(sp)
   43d50:	d9000817 	ldw	r4,32(sp)
   43d54:	1025883a 	mov	r18,r2
   43d58:	2080f116 	blt	r4,r2,44120 <___svfprintf_internal_r+0x1548>
   43d5c:	04800a0e 	bge	zero,r18,43d88 <___svfprintf_internal_r+0x11b0>
   43d60:	d8801e17 	ldw	r2,120(sp)
   43d64:	b4ad883a 	add	r22,r22,r18
   43d68:	8d400015 	stw	r21,0(r17)
   43d6c:	10800044 	addi	r2,r2,1
   43d70:	d8801e15 	stw	r2,120(sp)
   43d74:	8c800115 	stw	r18,4(r17)
   43d78:	dd801f15 	stw	r22,124(sp)
   43d7c:	10800208 	cmpgei	r2,r2,8
   43d80:	1003d61e 	bne	r2,zero,44cdc <___svfprintf_internal_r+0x2104>
   43d84:	8c400204 	addi	r17,r17,8
   43d88:	9000f316 	blt	r18,zero,44158 <___svfprintf_internal_r+0x1580>
   43d8c:	d8800817 	ldw	r2,32(sp)
   43d90:	14a5c83a 	sub	r18,r2,r18
   43d94:	04811516 	blt	zero,r18,441ec <___svfprintf_internal_r+0x1614>
   43d98:	dc801717 	ldw	r18,92(sp)
   43d9c:	d9000917 	ldw	r4,36(sp)
   43da0:	9100e20e 	bge	r18,r4,4412c <___svfprintf_internal_r+0x1554>
   43da4:	d8800d17 	ldw	r2,52(sp)
   43da8:	d9400c17 	ldw	r5,48(sp)
   43dac:	88800015 	stw	r2,0(r17)
   43db0:	d8801e17 	ldw	r2,120(sp)
   43db4:	2d89883a 	add	r4,r5,r22
   43db8:	89400115 	stw	r5,4(r17)
   43dbc:	10800044 	addi	r2,r2,1
   43dc0:	d8801e15 	stw	r2,120(sp)
   43dc4:	d9001f15 	stw	r4,124(sp)
   43dc8:	10800208 	cmpgei	r2,r2,8
   43dcc:	1002f11e 	bne	r2,zero,44994 <___svfprintf_internal_r+0x1dbc>
   43dd0:	8c400204 	addi	r17,r17,8
   43dd4:	d8800917 	ldw	r2,36(sp)
   43dd8:	d9400817 	ldw	r5,32(sp)
   43ddc:	14a5c83a 	sub	r18,r2,r18
   43de0:	116fc83a 	sub	r23,r2,r5
   43de4:	95c0010e 	bge	r18,r23,43dec <___svfprintf_internal_r+0x1214>
   43de8:	902f883a 	mov	r23,r18
   43dec:	05c00c0e 	bge	zero,r23,43e20 <___svfprintf_internal_r+0x1248>
   43df0:	d8800817 	ldw	r2,32(sp)
   43df4:	25c9883a 	add	r4,r4,r23
   43df8:	8dc00115 	stw	r23,4(r17)
   43dfc:	a891883a 	add	r8,r21,r2
   43e00:	d8801e17 	ldw	r2,120(sp)
   43e04:	8a000015 	stw	r8,0(r17)
   43e08:	d9001f15 	stw	r4,124(sp)
   43e0c:	10800044 	addi	r2,r2,1
   43e10:	d8801e15 	stw	r2,120(sp)
   43e14:	10800208 	cmpgei	r2,r2,8
   43e18:	1003c11e 	bne	r2,zero,44d20 <___svfprintf_internal_r+0x2148>
   43e1c:	8c400204 	addi	r17,r17,8
   43e20:	b800010e 	bge	r23,zero,43e28 <___svfprintf_internal_r+0x1250>
   43e24:	002f883a 	mov	r23,zero
   43e28:	95e5c83a 	sub	r18,r18,r23
   43e2c:	04bc550e 	bge	zero,r18,42f84 <___svfprintf_internal_r+0x3ac>
   43e30:	05800174 	movhi	r22,5
   43e34:	91400450 	cmplti	r5,r18,17
   43e38:	d8801e17 	ldw	r2,120(sp)
   43e3c:	b594e004 	addi	r22,r22,21376
   43e40:	283f841e 	bne	r5,zero,43c54 <___svfprintf_internal_r+0x107c>
   43e44:	d8c00815 	stw	r3,32(sp)
   43e48:	dd400517 	ldw	r21,20(sp)
   43e4c:	8807883a 	mov	r3,r17
   43e50:	df000417 	ldw	fp,16(sp)
   43e54:	9023883a 	mov	r17,r18
   43e58:	05c00404 	movi	r23,16
   43e5c:	b025883a 	mov	r18,r22
   43e60:	da800f15 	stw	r10,60(sp)
   43e64:	982d883a 	mov	r22,r19
   43e68:	6827883a 	mov	r19,r13
   43e6c:	00000406 	br	43e80 <___svfprintf_internal_r+0x12a8>
   43e70:	18c00204 	addi	r3,r3,8
   43e74:	8c7ffc04 	addi	r17,r17,-16
   43e78:	89400448 	cmpgei	r5,r17,17
   43e7c:	2802db26 	beq	r5,zero,449ec <___svfprintf_internal_r+0x1e14>
   43e80:	10800044 	addi	r2,r2,1
   43e84:	21000404 	addi	r4,r4,16
   43e88:	1c800015 	stw	r18,0(r3)
   43e8c:	1dc00115 	stw	r23,4(r3)
   43e90:	d9001f15 	stw	r4,124(sp)
   43e94:	d8801e15 	stw	r2,120(sp)
   43e98:	11400208 	cmpgei	r5,r2,8
   43e9c:	283ff426 	beq	r5,zero,43e70 <___svfprintf_internal_r+0x1298>
   43ea0:	d9801d04 	addi	r6,sp,116
   43ea4:	e00b883a 	mov	r5,fp
   43ea8:	a809883a 	mov	r4,r21
   43eac:	004b3cc0 	call	4b3cc <__ssprint_r>
   43eb0:	103c441e 	bne	r2,zero,42fc4 <___svfprintf_internal_r+0x3ec>
   43eb4:	d9001f17 	ldw	r4,124(sp)
   43eb8:	d8801e17 	ldw	r2,120(sp)
   43ebc:	8007883a 	mov	r3,r16
   43ec0:	003fec06 	br	43e74 <___svfprintf_internal_r+0x129c>
   43ec4:	0039883a 	mov	fp,zero
   43ec8:	802b883a 	mov	r21,r16
   43ecc:	003c9506 	br	43124 <___svfprintf_internal_r+0x54c>
   43ed0:	1880004c 	andi	r2,r3,1
   43ed4:	103ed11e 	bne	r2,zero,43a1c <___svfprintf_internal_r+0xe44>
   43ed8:	df001e17 	ldw	fp,120(sp)
   43edc:	00800044 	movi	r2,1
   43ee0:	b5c00044 	addi	r23,r22,1
   43ee4:	e7000044 	addi	fp,fp,1
   43ee8:	88800115 	stw	r2,4(r17)
   43eec:	8d400015 	stw	r21,0(r17)
   43ef0:	ddc01f15 	stw	r23,124(sp)
   43ef4:	df001e15 	stw	fp,120(sp)
   43ef8:	e0800210 	cmplti	r2,fp,8
   43efc:	103ef41e 	bne	r2,zero,43ad0 <___svfprintf_internal_r+0xef8>
   43f00:	d9400417 	ldw	r5,16(sp)
   43f04:	d9000517 	ldw	r4,20(sp)
   43f08:	d9801d04 	addi	r6,sp,116
   43f0c:	db401015 	stw	r13,64(sp)
   43f10:	da800f15 	stw	r10,60(sp)
   43f14:	d8c00815 	stw	r3,32(sp)
   43f18:	004b3cc0 	call	4b3cc <__ssprint_r>
   43f1c:	103c291e 	bne	r2,zero,42fc4 <___svfprintf_internal_r+0x3ec>
   43f20:	ddc01f17 	ldw	r23,124(sp)
   43f24:	df001e17 	ldw	fp,120(sp)
   43f28:	db401017 	ldw	r13,64(sp)
   43f2c:	da800f17 	ldw	r10,60(sp)
   43f30:	d8c00817 	ldw	r3,32(sp)
   43f34:	8025883a 	mov	r18,r16
   43f38:	003ee506 	br	43ad0 <___svfprintf_internal_r+0xef8>
   43f3c:	d8800917 	ldw	r2,36(sp)
   43f40:	10800090 	cmplti	r2,r2,2
   43f44:	103ee21e 	bne	r2,zero,43ad0 <___svfprintf_internal_r+0xef8>
   43f48:	d8800917 	ldw	r2,36(sp)
   43f4c:	05800174 	movhi	r22,5
   43f50:	b594e004 	addi	r22,r22,21376
   43f54:	10800490 	cmplti	r2,r2,18
   43f58:	1002311e 	bne	r2,zero,44820 <___svfprintf_internal_r+0x1c48>
   43f5c:	b809883a 	mov	r4,r23
   43f60:	e005883a 	mov	r2,fp
   43f64:	a02f883a 	mov	r23,r20
   43f68:	9839883a 	mov	fp,r19
   43f6c:	05400404 	movi	r21,16
   43f70:	1827883a 	mov	r19,r3
   43f74:	5029883a 	mov	r20,r10
   43f78:	9007883a 	mov	r3,r18
   43f7c:	b025883a 	mov	r18,r22
   43f80:	682d883a 	mov	r22,r13
   43f84:	00000406 	br	43f98 <___svfprintf_internal_r+0x13c0>
   43f88:	18c00204 	addi	r3,r3,8
   43f8c:	8c7ffc04 	addi	r17,r17,-16
   43f90:	89400448 	cmpgei	r5,r17,17
   43f94:	28021926 	beq	r5,zero,447fc <___svfprintf_internal_r+0x1c24>
   43f98:	10800044 	addi	r2,r2,1
   43f9c:	21000404 	addi	r4,r4,16
   43fa0:	1c800015 	stw	r18,0(r3)
   43fa4:	1d400115 	stw	r21,4(r3)
   43fa8:	d9001f15 	stw	r4,124(sp)
   43fac:	d8801e15 	stw	r2,120(sp)
   43fb0:	11400208 	cmpgei	r5,r2,8
   43fb4:	283ff426 	beq	r5,zero,43f88 <___svfprintf_internal_r+0x13b0>
   43fb8:	d9400417 	ldw	r5,16(sp)
   43fbc:	d9000517 	ldw	r4,20(sp)
   43fc0:	d9801d04 	addi	r6,sp,116
   43fc4:	004b3cc0 	call	4b3cc <__ssprint_r>
   43fc8:	103bfe1e 	bne	r2,zero,42fc4 <___svfprintf_internal_r+0x3ec>
   43fcc:	d9001f17 	ldw	r4,124(sp)
   43fd0:	d8801e17 	ldw	r2,120(sp)
   43fd4:	8007883a 	mov	r3,r16
   43fd8:	003fec06 	br	43f8c <___svfprintf_internal_r+0x13b4>
   43fdc:	d9400417 	ldw	r5,16(sp)
   43fe0:	d9000517 	ldw	r4,20(sp)
   43fe4:	d9801d04 	addi	r6,sp,116
   43fe8:	db401315 	stw	r13,76(sp)
   43fec:	da801115 	stw	r10,68(sp)
   43ff0:	d8c01015 	stw	r3,64(sp)
   43ff4:	dac00f15 	stw	r11,60(sp)
   43ff8:	004b3cc0 	call	4b3cc <__ssprint_r>
   43ffc:	103bf11e 	bne	r2,zero,42fc4 <___svfprintf_internal_r+0x3ec>
   44000:	dd801f17 	ldw	r22,124(sp)
   44004:	db401317 	ldw	r13,76(sp)
   44008:	da801117 	ldw	r10,68(sp)
   4400c:	d8c01017 	ldw	r3,64(sp)
   44010:	dac00f17 	ldw	r11,60(sp)
   44014:	8023883a 	mov	r17,r16
   44018:	003bce06 	br	42f54 <___svfprintf_internal_r+0x37c>
   4401c:	d9400417 	ldw	r5,16(sp)
   44020:	d9000517 	ldw	r4,20(sp)
   44024:	d9801d04 	addi	r6,sp,116
   44028:	db401015 	stw	r13,64(sp)
   4402c:	da800f15 	stw	r10,60(sp)
   44030:	d8c00815 	stw	r3,32(sp)
   44034:	004b3cc0 	call	4b3cc <__ssprint_r>
   44038:	103be21e 	bne	r2,zero,42fc4 <___svfprintf_internal_r+0x3ec>
   4403c:	d9001f17 	ldw	r4,124(sp)
   44040:	db401017 	ldw	r13,64(sp)
   44044:	da800f17 	ldw	r10,60(sp)
   44048:	d8c00817 	ldw	r3,32(sp)
   4404c:	8023883a 	mov	r17,r16
   44050:	003bcc06 	br	42f84 <___svfprintf_internal_r+0x3ac>
   44054:	d9400417 	ldw	r5,16(sp)
   44058:	d9000517 	ldw	r4,20(sp)
   4405c:	d9801d04 	addi	r6,sp,116
   44060:	db401015 	stw	r13,64(sp)
   44064:	da800f15 	stw	r10,60(sp)
   44068:	d8c00815 	stw	r3,32(sp)
   4406c:	004b3cc0 	call	4b3cc <__ssprint_r>
   44070:	103bd41e 	bne	r2,zero,42fc4 <___svfprintf_internal_r+0x3ec>
   44074:	dd801f17 	ldw	r22,124(sp)
   44078:	df001e17 	ldw	fp,120(sp)
   4407c:	db401017 	ldw	r13,64(sp)
   44080:	da800f17 	ldw	r10,60(sp)
   44084:	d8c00817 	ldw	r3,32(sp)
   44088:	8025883a 	mov	r18,r16
   4408c:	003e6d06 	br	43a44 <___svfprintf_internal_r+0xe6c>
   44090:	d9400417 	ldw	r5,16(sp)
   44094:	d9000517 	ldw	r4,20(sp)
   44098:	d9801d04 	addi	r6,sp,116
   4409c:	db401015 	stw	r13,64(sp)
   440a0:	da800f15 	stw	r10,60(sp)
   440a4:	d8c00815 	stw	r3,32(sp)
   440a8:	004b3cc0 	call	4b3cc <__ssprint_r>
   440ac:	103bc51e 	bne	r2,zero,42fc4 <___svfprintf_internal_r+0x3ec>
   440b0:	ddc01f17 	ldw	r23,124(sp)
   440b4:	df001e17 	ldw	fp,120(sp)
   440b8:	db401017 	ldw	r13,64(sp)
   440bc:	da800f17 	ldw	r10,60(sp)
   440c0:	d8c00817 	ldw	r3,32(sp)
   440c4:	8025883a 	mov	r18,r16
   440c8:	003e6906 	br	43a70 <___svfprintf_internal_r+0xe98>
   440cc:	63000414 	ori	r12,r12,16
   440d0:	003b0006 	br	42cd4 <___svfprintf_internal_r+0xfc>
   440d4:	a2c00007 	ldb	r11,0(r20)
   440d8:	d8800715 	stw	r2,28(sp)
   440dc:	003afd06 	br	42cd4 <___svfprintf_internal_r+0xfc>
   440e0:	802b883a 	mov	r21,r16
   440e4:	003c0f06 	br	43124 <___svfprintf_internal_r+0x54c>
   440e8:	6080040c 	andi	r2,r12,16
   440ec:	10009c1e 	bne	r2,zero,44360 <___svfprintf_internal_r+0x1788>
   440f0:	6300100c 	andi	r12,r12,64
   440f4:	60009a26 	beq	r12,zero,44360 <___svfprintf_internal_r+0x1788>
   440f8:	d8800717 	ldw	r2,28(sp)
   440fc:	d8c00617 	ldw	r3,24(sp)
   44100:	10800017 	ldw	r2,0(r2)
   44104:	10c0000d 	sth	r3,0(r2)
   44108:	003d4606 	br	43624 <___svfprintf_internal_r+0xa4c>
   4410c:	18800017 	ldw	r2,0(r3)
   44110:	d8800a15 	stw	r2,40(sp)
   44114:	18800117 	ldw	r2,4(r3)
   44118:	d8800b15 	stw	r2,44(sp)
   4411c:	003c7306 	br	432ec <___svfprintf_internal_r+0x714>
   44120:	2025883a 	mov	r18,r4
   44124:	04bf0e16 	blt	zero,r18,43d60 <___svfprintf_internal_r+0x1188>
   44128:	003f1706 	br	43d88 <___svfprintf_internal_r+0x11b0>
   4412c:	1880004c 	andi	r2,r3,1
   44130:	103f1c1e 	bne	r2,zero,43da4 <___svfprintf_internal_r+0x11cc>
   44134:	d8800817 	ldw	r2,32(sp)
   44138:	24a5c83a 	sub	r18,r4,r18
   4413c:	20afc83a 	sub	r23,r4,r2
   44140:	b009883a 	mov	r4,r22
   44144:	95ff360e 	bge	r18,r23,43e20 <___svfprintf_internal_r+0x1248>
   44148:	902f883a 	mov	r23,r18
   4414c:	003f3406 	br	43e20 <___svfprintf_internal_r+0x1248>
   44150:	b009883a 	mov	r4,r22
   44154:	003b8b06 	br	42f84 <___svfprintf_internal_r+0x3ac>
   44158:	0025883a 	mov	r18,zero
   4415c:	003f0b06 	br	43d8c <___svfprintf_internal_r+0x11b4>
   44160:	00800174 	movhi	r2,5
   44164:	1094d304 	addi	r2,r2,21324
   44168:	d8800e15 	stw	r2,56(sp)
   4416c:	6080080c 	andi	r2,r12,32
   44170:	10008226 	beq	r2,zero,4437c <___svfprintf_internal_r+0x17a4>
   44174:	d8800717 	ldw	r2,28(sp)
   44178:	15800017 	ldw	r22,0(r2)
   4417c:	17000117 	ldw	fp,4(r2)
   44180:	10800204 	addi	r2,r2,8
   44184:	d8800715 	stw	r2,28(sp)
   44188:	6080004c 	andi	r2,r12,1
   4418c:	10007926 	beq	r2,zero,44374 <___svfprintf_internal_r+0x179c>
   44190:	b704b03a 	or	r2,r22,fp
   44194:	10007726 	beq	r2,zero,44374 <___svfprintf_internal_r+0x179c>
   44198:	00800c04 	movi	r2,48
   4419c:	d8801685 	stb	r2,90(sp)
   441a0:	dac016c5 	stb	r11,91(sp)
   441a4:	63000094 	ori	r12,r12,2
   441a8:	00800084 	movi	r2,2
   441ac:	003bba06 	br	43098 <___svfprintf_internal_r+0x4c0>
   441b0:	00800174 	movhi	r2,5
   441b4:	1094d804 	addi	r2,r2,21344
   441b8:	d8800e15 	stw	r2,56(sp)
   441bc:	003feb06 	br	4416c <___svfprintf_internal_r+0x1594>
   441c0:	d9000517 	ldw	r4,20(sp)
   441c4:	01401004 	movi	r5,64
   441c8:	00421240 	call	42124 <_malloc_r>
   441cc:	d8c00417 	ldw	r3,16(sp)
   441d0:	18800015 	stw	r2,0(r3)
   441d4:	18800415 	stw	r2,16(r3)
   441d8:	10033026 	beq	r2,zero,44e9c <___svfprintf_internal_r+0x22c4>
   441dc:	d8c00417 	ldw	r3,16(sp)
   441e0:	00801004 	movi	r2,64
   441e4:	18800515 	stw	r2,20(r3)
   441e8:	003a9606 	br	42c44 <___svfprintf_internal_r+0x6c>
   441ec:	b009883a 	mov	r4,r22
   441f0:	91400450 	cmplti	r5,r18,17
   441f4:	05800174 	movhi	r22,5
   441f8:	d8801e17 	ldw	r2,120(sp)
   441fc:	b594e004 	addi	r22,r22,21376
   44200:	2801981e 	bne	r5,zero,44864 <___svfprintf_internal_r+0x1c8c>
   44204:	9039883a 	mov	fp,r18
   44208:	d8c00f15 	stw	r3,60(sp)
   4420c:	05c00404 	movi	r23,16
   44210:	8807883a 	mov	r3,r17
   44214:	5025883a 	mov	r18,r10
   44218:	b023883a 	mov	r17,r22
   4421c:	982d883a 	mov	r22,r19
   44220:	6827883a 	mov	r19,r13
   44224:	00000406 	br	44238 <___svfprintf_internal_r+0x1660>
   44228:	18c00204 	addi	r3,r3,8
   4422c:	e73ffc04 	addi	fp,fp,-16
   44230:	e1400448 	cmpgei	r5,fp,17
   44234:	28018426 	beq	r5,zero,44848 <___svfprintf_internal_r+0x1c70>
   44238:	10800044 	addi	r2,r2,1
   4423c:	21000404 	addi	r4,r4,16
   44240:	1c400015 	stw	r17,0(r3)
   44244:	1dc00115 	stw	r23,4(r3)
   44248:	d9001f15 	stw	r4,124(sp)
   4424c:	d8801e15 	stw	r2,120(sp)
   44250:	11400208 	cmpgei	r5,r2,8
   44254:	283ff426 	beq	r5,zero,44228 <___svfprintf_internal_r+0x1650>
   44258:	d9400417 	ldw	r5,16(sp)
   4425c:	d9000517 	ldw	r4,20(sp)
   44260:	d9801d04 	addi	r6,sp,116
   44264:	004b3cc0 	call	4b3cc <__ssprint_r>
   44268:	103b561e 	bne	r2,zero,42fc4 <___svfprintf_internal_r+0x3ec>
   4426c:	d9001f17 	ldw	r4,124(sp)
   44270:	d8801e17 	ldw	r2,120(sp)
   44274:	8007883a 	mov	r3,r16
   44278:	003fec06 	br	4422c <___svfprintf_internal_r+0x1654>
   4427c:	a809883a 	mov	r4,r21
   44280:	da801015 	stw	r10,64(sp)
   44284:	db000f15 	stw	r12,60(sp)
   44288:	dac00815 	stw	r11,32(sp)
   4428c:	004b3340 	call	4b334 <strlen>
   44290:	dac00817 	ldw	r11,32(sp)
   44294:	db000f17 	ldw	r12,60(sp)
   44298:	da801017 	ldw	r10,64(sp)
   4429c:	1039883a 	mov	fp,r2
   442a0:	101b883a 	mov	r13,r2
   442a4:	dd800715 	stw	r22,28(sp)
   442a8:	003b0006 	br	42eac <___svfprintf_internal_r+0x2d4>
   442ac:	8809883a 	mov	r4,r17
   442b0:	b007883a 	mov	r3,r22
   442b4:	9805883a 	mov	r2,r19
   442b8:	a02d883a 	mov	r22,r20
   442bc:	e027883a 	mov	r19,fp
   442c0:	9029883a 	mov	r20,r18
   442c4:	dac00815 	stw	r11,32(sp)
   442c8:	db000f15 	stw	r12,60(sp)
   442cc:	da801015 	stw	r10,64(sp)
   442d0:	8023883a 	mov	r17,r16
   442d4:	1039883a 	mov	fp,r2
   442d8:	1825883a 	mov	r18,r3
   442dc:	202b883a 	mov	r21,r4
   442e0:	9009883a 	mov	r4,r18
   442e4:	980b883a 	mov	r5,r19
   442e8:	01800284 	movi	r6,10
   442ec:	000f883a 	mov	r7,zero
   442f0:	004fcf40 	call	4fcf4 <__umoddi3>
   442f4:	10800c04 	addi	r2,r2,48
   442f8:	9009883a 	mov	r4,r18
   442fc:	980b883a 	mov	r5,r19
   44300:	01800284 	movi	r6,10
   44304:	000f883a 	mov	r7,zero
   44308:	88bfffc5 	stb	r2,-1(r17)
   4430c:	004f71c0 	call	4f71c <__udivdi3>
   44310:	980d883a 	mov	r6,r19
   44314:	900f883a 	mov	r7,r18
   44318:	8c7fffc4 	addi	r17,r17,-1
   4431c:	1025883a 	mov	r18,r2
   44320:	1827883a 	mov	r19,r3
   44324:	303fee1e 	bne	r6,zero,442e0 <___svfprintf_internal_r+0x1708>
   44328:	39c002a8 	cmpgeui	r7,r7,10
   4432c:	383fec1e 	bne	r7,zero,442e0 <___svfprintf_internal_r+0x1708>
   44330:	db000f17 	ldw	r12,60(sp)
   44334:	a805883a 	mov	r2,r21
   44338:	882b883a 	mov	r21,r17
   4433c:	a025883a 	mov	r18,r20
   44340:	e027883a 	mov	r19,fp
   44344:	dac00817 	ldw	r11,32(sp)
   44348:	da801017 	ldw	r10,64(sp)
   4434c:	b029883a 	mov	r20,r22
   44350:	1023883a 	mov	r17,r2
   44354:	8579c83a 	sub	fp,r16,r21
   44358:	6007883a 	mov	r3,r12
   4435c:	003b7106 	br	43124 <___svfprintf_internal_r+0x54c>
   44360:	d8800717 	ldw	r2,28(sp)
   44364:	d8c00617 	ldw	r3,24(sp)
   44368:	10800017 	ldw	r2,0(r2)
   4436c:	10c00015 	stw	r3,0(r2)
   44370:	003cac06 	br	43624 <___svfprintf_internal_r+0xa4c>
   44374:	00800084 	movi	r2,2
   44378:	003b4706 	br	43098 <___svfprintf_internal_r+0x4c0>
   4437c:	d8c00717 	ldw	r3,28(sp)
   44380:	6080040c 	andi	r2,r12,16
   44384:	1d800017 	ldw	r22,0(r3)
   44388:	1d400104 	addi	r21,r3,4
   4438c:	1000061e 	bne	r2,zero,443a8 <___svfprintf_internal_r+0x17d0>
   44390:	6080100c 	andi	r2,r12,64
   44394:	10000426 	beq	r2,zero,443a8 <___svfprintf_internal_r+0x17d0>
   44398:	b5bfffcc 	andi	r22,r22,65535
   4439c:	0039883a 	mov	fp,zero
   443a0:	dd400715 	stw	r21,28(sp)
   443a4:	003f7806 	br	44188 <___svfprintf_internal_r+0x15b0>
   443a8:	0039883a 	mov	fp,zero
   443ac:	dd400715 	stw	r21,28(sp)
   443b0:	003f7506 	br	44188 <___svfprintf_internal_r+0x15b0>
   443b4:	d9400417 	ldw	r5,16(sp)
   443b8:	d9000517 	ldw	r4,20(sp)
   443bc:	d9801d04 	addi	r6,sp,116
   443c0:	db401515 	stw	r13,84(sp)
   443c4:	da801415 	stw	r10,80(sp)
   443c8:	d8c01315 	stw	r3,76(sp)
   443cc:	dac01115 	stw	r11,68(sp)
   443d0:	db001015 	stw	r12,64(sp)
   443d4:	db800f15 	stw	r14,60(sp)
   443d8:	004b3cc0 	call	4b3cc <__ssprint_r>
   443dc:	103af91e 	bne	r2,zero,42fc4 <___svfprintf_internal_r+0x3ec>
   443e0:	db401517 	ldw	r13,84(sp)
   443e4:	da801417 	ldw	r10,80(sp)
   443e8:	d8c01317 	ldw	r3,76(sp)
   443ec:	dac01117 	ldw	r11,68(sp)
   443f0:	db001017 	ldw	r12,64(sp)
   443f4:	db800f17 	ldw	r14,60(sp)
   443f8:	8023883a 	mov	r17,r16
   443fc:	003ab506 	br	42ed4 <___svfprintf_internal_r+0x2fc>
   44400:	d8801e17 	ldw	r2,120(sp)
   44404:	01400174 	movhi	r5,5
   44408:	2954df04 	addi	r5,r5,21372
   4440c:	10800044 	addi	r2,r2,1
   44410:	b1000044 	addi	r4,r22,1
   44414:	89400015 	stw	r5,0(r17)
   44418:	01400044 	movi	r5,1
   4441c:	d8801e15 	stw	r2,120(sp)
   44420:	89400115 	stw	r5,4(r17)
   44424:	d9001f15 	stw	r4,124(sp)
   44428:	10800208 	cmpgei	r2,r2,8
   4442c:	10011c1e 	bne	r2,zero,448a0 <___svfprintf_internal_r+0x1cc8>
   44430:	8c400204 	addi	r17,r17,8
   44434:	9000c21e 	bne	r18,zero,44740 <___svfprintf_internal_r+0x1b68>
   44438:	d9400917 	ldw	r5,36(sp)
   4443c:	1880004c 	andi	r2,r3,1
   44440:	1144b03a 	or	r2,r2,r5
   44444:	103acf26 	beq	r2,zero,42f84 <___svfprintf_internal_r+0x3ac>
   44448:	d8800d17 	ldw	r2,52(sp)
   4444c:	d9400c17 	ldw	r5,48(sp)
   44450:	88800015 	stw	r2,0(r17)
   44454:	d8801e17 	ldw	r2,120(sp)
   44458:	2909883a 	add	r4,r5,r4
   4445c:	89400115 	stw	r5,4(r17)
   44460:	10800044 	addi	r2,r2,1
   44464:	d9001f15 	stw	r4,124(sp)
   44468:	d8801e15 	stw	r2,120(sp)
   4446c:	11400208 	cmpgei	r5,r2,8
   44470:	28016d1e 	bne	r5,zero,44a28 <___svfprintf_internal_r+0x1e50>
   44474:	8c400204 	addi	r17,r17,8
   44478:	d9400917 	ldw	r5,36(sp)
   4447c:	10800044 	addi	r2,r2,1
   44480:	d8801e15 	stw	r2,120(sp)
   44484:	2909883a 	add	r4,r5,r4
   44488:	8d400015 	stw	r21,0(r17)
   4448c:	89400115 	stw	r5,4(r17)
   44490:	d9001f15 	stw	r4,124(sp)
   44494:	10800208 	cmpgei	r2,r2,8
   44498:	103ab926 	beq	r2,zero,42f80 <___svfprintf_internal_r+0x3a8>
   4449c:	003df506 	br	43c74 <___svfprintf_internal_r+0x109c>
   444a0:	d9000a17 	ldw	r4,40(sp)
   444a4:	d9400b17 	ldw	r5,44(sp)
   444a8:	da800f15 	stw	r10,60(sp)
   444ac:	200d883a 	mov	r6,r4
   444b0:	280f883a 	mov	r7,r5
   444b4:	db000815 	stw	r12,32(sp)
   444b8:	dac00715 	stw	r11,28(sp)
   444bc:	0051f680 	call	51f68 <__unorddf2>
   444c0:	dac00717 	ldw	r11,28(sp)
   444c4:	db000817 	ldw	r12,32(sp)
   444c8:	da800f17 	ldw	r10,60(sp)
   444cc:	1002801e 	bne	r2,zero,44ed0 <___svfprintf_internal_r+0x22f8>
   444d0:	057ff7c4 	movi	r21,-33
   444d4:	90bfffe0 	cmpeqi	r2,r18,-1
   444d8:	5d6e703a 	and	r23,r11,r21
   444dc:	10020e1e 	bne	r2,zero,44d18 <___svfprintf_internal_r+0x2140>
   444e0:	b88011d8 	cmpnei	r2,r23,71
   444e4:	10013e26 	beq	r2,zero,449e0 <___svfprintf_internal_r+0x1e08>
   444e8:	d8800b17 	ldw	r2,44(sp)
   444ec:	60c04014 	ori	r3,r12,256
   444f0:	10013716 	blt	r2,zero,449d0 <___svfprintf_internal_r+0x1df8>
   444f4:	df000b17 	ldw	fp,44(sp)
   444f8:	d8000705 	stb	zero,28(sp)
   444fc:	588019a0 	cmpeqi	r2,r11,102
   44500:	d8800f15 	stw	r2,60(sp)
   44504:	1000f51e 	bne	r2,zero,448dc <___svfprintf_internal_r+0x1d04>
   44508:	b8801158 	cmpnei	r2,r23,69
   4450c:	10015726 	beq	r2,zero,44a6c <___svfprintf_internal_r+0x1e94>
   44510:	d8801b04 	addi	r2,sp,108
   44514:	d9000517 	ldw	r4,20(sp)
   44518:	d8800315 	stw	r2,12(sp)
   4451c:	d9400a17 	ldw	r5,40(sp)
   44520:	d8801804 	addi	r2,sp,96
   44524:	d8800215 	stw	r2,8(sp)
   44528:	d8801704 	addi	r2,sp,92
   4452c:	d8800115 	stw	r2,4(sp)
   44530:	dc800015 	stw	r18,0(sp)
   44534:	01c00084 	movi	r7,2
   44538:	e00d883a 	mov	r6,fp
   4453c:	da801115 	stw	r10,68(sp)
   44540:	d8c01015 	stw	r3,64(sp)
   44544:	db000915 	stw	r12,36(sp)
   44548:	dac00815 	stw	r11,32(sp)
   4454c:	00478fc0 	call	478fc <_dtoa_r>
   44550:	dac00817 	ldw	r11,32(sp)
   44554:	db000917 	ldw	r12,36(sp)
   44558:	d8c01017 	ldw	r3,64(sp)
   4455c:	590019e0 	cmpeqi	r4,r11,103
   44560:	da801117 	ldw	r10,68(sp)
   44564:	102b883a 	mov	r21,r2
   44568:	20017e26 	beq	r4,zero,44b64 <___svfprintf_internal_r+0x1f8c>
   4456c:	6080004c 	andi	r2,r12,1
   44570:	10017e26 	beq	r2,zero,44b6c <___svfprintf_internal_r+0x1f94>
   44574:	ac9b883a 	add	r13,r21,r18
   44578:	d9000a17 	ldw	r4,40(sp)
   4457c:	000d883a 	mov	r6,zero
   44580:	000f883a 	mov	r7,zero
   44584:	e00b883a 	mov	r5,fp
   44588:	db401315 	stw	r13,76(sp)
   4458c:	da801115 	stw	r10,68(sp)
   44590:	d8c01015 	stw	r3,64(sp)
   44594:	db000915 	stw	r12,36(sp)
   44598:	dac00815 	stw	r11,32(sp)
   4459c:	0050b3c0 	call	50b3c <__eqdf2>
   445a0:	dac00817 	ldw	r11,32(sp)
   445a4:	db000917 	ldw	r12,36(sp)
   445a8:	d8c01017 	ldw	r3,64(sp)
   445ac:	da801117 	ldw	r10,68(sp)
   445b0:	db401317 	ldw	r13,76(sp)
   445b4:	10024e26 	beq	r2,zero,44ef0 <___svfprintf_internal_r+0x2318>
   445b8:	d8801b17 	ldw	r2,108(sp)
   445bc:	1340062e 	bgeu	r2,r13,445d8 <___svfprintf_internal_r+0x1a00>
   445c0:	01400c04 	movi	r5,48
   445c4:	11000044 	addi	r4,r2,1
   445c8:	d9001b15 	stw	r4,108(sp)
   445cc:	11400005 	stb	r5,0(r2)
   445d0:	d8801b17 	ldw	r2,108(sp)
   445d4:	137ffb36 	bltu	r2,r13,445c4 <___svfprintf_internal_r+0x19ec>
   445d8:	d9c01717 	ldw	r7,92(sp)
   445dc:	1545c83a 	sub	r2,r2,r21
   445e0:	b90011d8 	cmpnei	r4,r23,71
   445e4:	d8800915 	stw	r2,36(sp)
   445e8:	d9c00815 	stw	r7,32(sp)
   445ec:	20016326 	beq	r4,zero,44b7c <___svfprintf_internal_r+0x1fa4>
   445f0:	d8800f17 	ldw	r2,60(sp)
   445f4:	10025a26 	beq	r2,zero,44f60 <___svfprintf_internal_r+0x2388>
   445f8:	d9000817 	ldw	r4,32(sp)
   445fc:	6080004c 	andi	r2,r12,1
   44600:	1484b03a 	or	r2,r2,r18
   44604:	0102690e 	bge	zero,r4,44fac <___svfprintf_internal_r+0x23d4>
   44608:	10023d1e 	bne	r2,zero,44f00 <___svfprintf_internal_r+0x2328>
   4460c:	df000817 	ldw	fp,32(sp)
   44610:	e01b883a 	mov	r13,fp
   44614:	02c01984 	movi	r11,102
   44618:	ddc00707 	ldb	r23,28(sp)
   4461c:	b801ab26 	beq	r23,zero,44ccc <___svfprintf_internal_r+0x20f4>
   44620:	00800b44 	movi	r2,45
   44624:	d8801645 	stb	r2,89(sp)
   44628:	dd800715 	stw	r22,28(sp)
   4462c:	0025883a 	mov	r18,zero
   44630:	003ac406 	br	43144 <___svfprintf_internal_r+0x56c>
   44634:	d9400417 	ldw	r5,16(sp)
   44638:	d9000517 	ldw	r4,20(sp)
   4463c:	d9801d04 	addi	r6,sp,116
   44640:	db401015 	stw	r13,64(sp)
   44644:	da800f15 	stw	r10,60(sp)
   44648:	d8c00815 	stw	r3,32(sp)
   4464c:	004b3cc0 	call	4b3cc <__ssprint_r>
   44650:	103a5c1e 	bne	r2,zero,42fc4 <___svfprintf_internal_r+0x3ec>
   44654:	dd801f17 	ldw	r22,124(sp)
   44658:	db401017 	ldw	r13,64(sp)
   4465c:	da800f17 	ldw	r10,60(sp)
   44660:	d8c00817 	ldw	r3,32(sp)
   44664:	8023883a 	mov	r17,r16
   44668:	003c1a06 	br	436d4 <___svfprintf_internal_r+0xafc>
   4466c:	d9400417 	ldw	r5,16(sp)
   44670:	d9000517 	ldw	r4,20(sp)
   44674:	d9801d04 	addi	r6,sp,116
   44678:	db401015 	stw	r13,64(sp)
   4467c:	da800f15 	stw	r10,60(sp)
   44680:	d8c00815 	stw	r3,32(sp)
   44684:	004b3cc0 	call	4b3cc <__ssprint_r>
   44688:	103a4e1e 	bne	r2,zero,42fc4 <___svfprintf_internal_r+0x3ec>
   4468c:	ddc01f17 	ldw	r23,124(sp)
   44690:	df001e17 	ldw	fp,120(sp)
   44694:	d8c00817 	ldw	r3,32(sp)
   44698:	da800f17 	ldw	r10,60(sp)
   4469c:	db401017 	ldw	r13,64(sp)
   446a0:	8025883a 	mov	r18,r16
   446a4:	003d0a06 	br	43ad0 <___svfprintf_internal_r+0xef8>
   446a8:	d9400417 	ldw	r5,16(sp)
   446ac:	d9000517 	ldw	r4,20(sp)
   446b0:	d9801d04 	addi	r6,sp,116
   446b4:	db401315 	stw	r13,76(sp)
   446b8:	da801115 	stw	r10,68(sp)
   446bc:	d8c01015 	stw	r3,64(sp)
   446c0:	dac00f15 	stw	r11,60(sp)
   446c4:	004b3cc0 	call	4b3cc <__ssprint_r>
   446c8:	103a3e1e 	bne	r2,zero,42fc4 <___svfprintf_internal_r+0x3ec>
   446cc:	dd801f17 	ldw	r22,124(sp)
   446d0:	db401317 	ldw	r13,76(sp)
   446d4:	da801117 	ldw	r10,68(sp)
   446d8:	d8c01017 	ldw	r3,64(sp)
   446dc:	dac00f17 	ldw	r11,60(sp)
   446e0:	8023883a 	mov	r17,r16
   446e4:	003a1906 	br	42f4c <___svfprintf_internal_r+0x374>
   446e8:	d9400417 	ldw	r5,16(sp)
   446ec:	d9000517 	ldw	r4,20(sp)
   446f0:	d9801d04 	addi	r6,sp,116
   446f4:	db401015 	stw	r13,64(sp)
   446f8:	da800f15 	stw	r10,60(sp)
   446fc:	d8c00815 	stw	r3,32(sp)
   44700:	004b3cc0 	call	4b3cc <__ssprint_r>
   44704:	103a2f1e 	bne	r2,zero,42fc4 <___svfprintf_internal_r+0x3ec>
   44708:	d9001f17 	ldw	r4,124(sp)
   4470c:	db401017 	ldw	r13,64(sp)
   44710:	da800f17 	ldw	r10,60(sp)
   44714:	d8c00817 	ldw	r3,32(sp)
   44718:	8023883a 	mov	r17,r16
   4471c:	003bfe06 	br	43718 <___svfprintf_internal_r+0xb40>
   44720:	908001f0 	cmpltui	r2,r18,7
   44724:	9039883a 	mov	fp,r18
   44728:	1000b826 	beq	r2,zero,44a0c <___svfprintf_internal_r+0x1e34>
   4472c:	05400174 	movhi	r21,5
   44730:	e01b883a 	mov	r13,fp
   44734:	dd800715 	stw	r22,28(sp)
   44738:	ad54dd04 	addi	r21,r21,21364
   4473c:	0039db06 	br	42eac <___svfprintf_internal_r+0x2d4>
   44740:	d8800d17 	ldw	r2,52(sp)
   44744:	d9400c17 	ldw	r5,48(sp)
   44748:	88800015 	stw	r2,0(r17)
   4474c:	d8801e17 	ldw	r2,120(sp)
   44750:	2909883a 	add	r4,r5,r4
   44754:	89400115 	stw	r5,4(r17)
   44758:	10800044 	addi	r2,r2,1
   4475c:	d9001f15 	stw	r4,124(sp)
   44760:	d8801e15 	stw	r2,120(sp)
   44764:	11400208 	cmpgei	r5,r2,8
   44768:	2800af1e 	bne	r5,zero,44a28 <___svfprintf_internal_r+0x1e50>
   4476c:	8c400204 	addi	r17,r17,8
   44770:	903f410e 	bge	r18,zero,44478 <___svfprintf_internal_r+0x18a0>
   44774:	05800174 	movhi	r22,5
   44778:	917ffc08 	cmpgei	r5,r18,-16
   4477c:	b594e004 	addi	r22,r22,21376
   44780:	04a5c83a 	sub	r18,zero,r18
   44784:	2801a51e 	bne	r5,zero,44e1c <___svfprintf_internal_r+0x2244>
   44788:	1839883a 	mov	fp,r3
   4478c:	05c00404 	movi	r23,16
   44790:	8807883a 	mov	r3,r17
   44794:	da800815 	stw	r10,32(sp)
   44798:	b023883a 	mov	r17,r22
   4479c:	902d883a 	mov	r22,r18
   447a0:	6825883a 	mov	r18,r13
   447a4:	00000406 	br	447b8 <___svfprintf_internal_r+0x1be0>
   447a8:	18c00204 	addi	r3,r3,8
   447ac:	b5bffc04 	addi	r22,r22,-16
   447b0:	b1400448 	cmpgei	r5,r22,17
   447b4:	28019326 	beq	r5,zero,44e04 <___svfprintf_internal_r+0x222c>
   447b8:	10800044 	addi	r2,r2,1
   447bc:	21000404 	addi	r4,r4,16
   447c0:	1c400015 	stw	r17,0(r3)
   447c4:	1dc00115 	stw	r23,4(r3)
   447c8:	d9001f15 	stw	r4,124(sp)
   447cc:	d8801e15 	stw	r2,120(sp)
   447d0:	11400208 	cmpgei	r5,r2,8
   447d4:	283ff426 	beq	r5,zero,447a8 <___svfprintf_internal_r+0x1bd0>
   447d8:	d9400417 	ldw	r5,16(sp)
   447dc:	d9000517 	ldw	r4,20(sp)
   447e0:	d9801d04 	addi	r6,sp,116
   447e4:	004b3cc0 	call	4b3cc <__ssprint_r>
   447e8:	1039f61e 	bne	r2,zero,42fc4 <___svfprintf_internal_r+0x3ec>
   447ec:	d9001f17 	ldw	r4,124(sp)
   447f0:	d8801e17 	ldw	r2,120(sp)
   447f4:	8007883a 	mov	r3,r16
   447f8:	003fec06 	br	447ac <___svfprintf_internal_r+0x1bd4>
   447fc:	a015883a 	mov	r10,r20
   44800:	b01b883a 	mov	r13,r22
   44804:	b829883a 	mov	r20,r23
   44808:	902d883a 	mov	r22,r18
   4480c:	202f883a 	mov	r23,r4
   44810:	1825883a 	mov	r18,r3
   44814:	9807883a 	mov	r3,r19
   44818:	e027883a 	mov	r19,fp
   4481c:	1039883a 	mov	fp,r2
   44820:	e7000044 	addi	fp,fp,1
   44824:	bc6f883a 	add	r23,r23,r17
   44828:	95800015 	stw	r22,0(r18)
   4482c:	003ca206 	br	43ab8 <___svfprintf_internal_r+0xee0>
   44830:	05400174 	movhi	r21,5
   44834:	ad54cf04 	addi	r21,r21,21308
   44838:	003ad606 	br	43394 <___svfprintf_internal_r+0x7bc>
   4483c:	05800174 	movhi	r22,5
   44840:	b594e004 	addi	r22,r22,21376
   44844:	003c4906 	br	4396c <___svfprintf_internal_r+0xd94>
   44848:	981b883a 	mov	r13,r19
   4484c:	b027883a 	mov	r19,r22
   44850:	882d883a 	mov	r22,r17
   44854:	1823883a 	mov	r17,r3
   44858:	d8c00f17 	ldw	r3,60(sp)
   4485c:	9015883a 	mov	r10,r18
   44860:	e025883a 	mov	r18,fp
   44864:	10800044 	addi	r2,r2,1
   44868:	9109883a 	add	r4,r18,r4
   4486c:	d8801e15 	stw	r2,120(sp)
   44870:	8d800015 	stw	r22,0(r17)
   44874:	8c800115 	stw	r18,4(r17)
   44878:	d9001f15 	stw	r4,124(sp)
   4487c:	10800208 	cmpgei	r2,r2,8
   44880:	1000aa1e 	bne	r2,zero,44b2c <___svfprintf_internal_r+0x1f54>
   44884:	8c400204 	addi	r17,r17,8
   44888:	202d883a 	mov	r22,r4
   4488c:	003d4206 	br	43d98 <___svfprintf_internal_r+0x11c0>
   44890:	00800b44 	movi	r2,45
   44894:	d8801645 	stb	r2,89(sp)
   44898:	05c00b44 	movi	r23,45
   4489c:	003ab906 	br	43384 <___svfprintf_internal_r+0x7ac>
   448a0:	d9400417 	ldw	r5,16(sp)
   448a4:	d9000517 	ldw	r4,20(sp)
   448a8:	d9801d04 	addi	r6,sp,116
   448ac:	db401015 	stw	r13,64(sp)
   448b0:	da800f15 	stw	r10,60(sp)
   448b4:	d8c00815 	stw	r3,32(sp)
   448b8:	004b3cc0 	call	4b3cc <__ssprint_r>
   448bc:	1039c11e 	bne	r2,zero,42fc4 <___svfprintf_internal_r+0x3ec>
   448c0:	dc801717 	ldw	r18,92(sp)
   448c4:	d9001f17 	ldw	r4,124(sp)
   448c8:	db401017 	ldw	r13,64(sp)
   448cc:	da800f17 	ldw	r10,60(sp)
   448d0:	d8c00817 	ldw	r3,32(sp)
   448d4:	8023883a 	mov	r17,r16
   448d8:	003ed606 	br	44434 <___svfprintf_internal_r+0x185c>
   448dc:	d8801b04 	addi	r2,sp,108
   448e0:	d8800315 	stw	r2,12(sp)
   448e4:	d9400a17 	ldw	r5,40(sp)
   448e8:	d8801804 	addi	r2,sp,96
   448ec:	d9000517 	ldw	r4,20(sp)
   448f0:	d8800215 	stw	r2,8(sp)
   448f4:	d8801704 	addi	r2,sp,92
   448f8:	d8800115 	stw	r2,4(sp)
   448fc:	dc800015 	stw	r18,0(sp)
   44900:	01c000c4 	movi	r7,3
   44904:	e00d883a 	mov	r6,fp
   44908:	da801115 	stw	r10,68(sp)
   4490c:	d8c01015 	stw	r3,64(sp)
   44910:	db000915 	stw	r12,36(sp)
   44914:	dac00815 	stw	r11,32(sp)
   44918:	00478fc0 	call	478fc <_dtoa_r>
   4491c:	102b883a 	mov	r21,r2
   44920:	10800007 	ldb	r2,0(r2)
   44924:	dac00817 	ldw	r11,32(sp)
   44928:	db000917 	ldw	r12,36(sp)
   4492c:	10800c20 	cmpeqi	r2,r2,48
   44930:	d8c01017 	ldw	r3,64(sp)
   44934:	da801117 	ldw	r10,68(sp)
   44938:	10006a1e 	bne	r2,zero,44ae4 <___svfprintf_internal_r+0x1f0c>
   4493c:	d8801717 	ldw	r2,92(sp)
   44940:	d9000a17 	ldw	r4,40(sp)
   44944:	149b883a 	add	r13,r2,r18
   44948:	000d883a 	mov	r6,zero
   4494c:	000f883a 	mov	r7,zero
   44950:	e00b883a 	mov	r5,fp
   44954:	da801315 	stw	r10,76(sp)
   44958:	d8c01115 	stw	r3,68(sp)
   4495c:	db001015 	stw	r12,64(sp)
   44960:	dac00915 	stw	r11,36(sp)
   44964:	db400815 	stw	r13,32(sp)
   44968:	0050b3c0 	call	50b3c <__eqdf2>
   4496c:	db400817 	ldw	r13,32(sp)
   44970:	dac00917 	ldw	r11,36(sp)
   44974:	db001017 	ldw	r12,64(sp)
   44978:	d8c01117 	ldw	r3,68(sp)
   4497c:	da801317 	ldw	r10,76(sp)
   44980:	1001441e 	bne	r2,zero,44e94 <___svfprintf_internal_r+0x22bc>
   44984:	d8801717 	ldw	r2,92(sp)
   44988:	db400915 	stw	r13,36(sp)
   4498c:	d8800815 	stw	r2,32(sp)
   44990:	003f1906 	br	445f8 <___svfprintf_internal_r+0x1a20>
   44994:	d9400417 	ldw	r5,16(sp)
   44998:	d9000517 	ldw	r4,20(sp)
   4499c:	d9801d04 	addi	r6,sp,116
   449a0:	db401115 	stw	r13,68(sp)
   449a4:	da801015 	stw	r10,64(sp)
   449a8:	d8c00f15 	stw	r3,60(sp)
   449ac:	004b3cc0 	call	4b3cc <__ssprint_r>
   449b0:	1039841e 	bne	r2,zero,42fc4 <___svfprintf_internal_r+0x3ec>
   449b4:	dc801717 	ldw	r18,92(sp)
   449b8:	d9001f17 	ldw	r4,124(sp)
   449bc:	db401117 	ldw	r13,68(sp)
   449c0:	da801017 	ldw	r10,64(sp)
   449c4:	d8c00f17 	ldw	r3,60(sp)
   449c8:	8023883a 	mov	r17,r16
   449cc:	003d0106 	br	43dd4 <___svfprintf_internal_r+0x11fc>
   449d0:	1720003c 	xorhi	fp,r2,32768
   449d4:	00800b44 	movi	r2,45
   449d8:	d8800705 	stb	r2,28(sp)
   449dc:	003ec706 	br	444fc <___svfprintf_internal_r+0x1924>
   449e0:	903ec11e 	bne	r18,zero,444e8 <___svfprintf_internal_r+0x1910>
   449e4:	04800044 	movi	r18,1
   449e8:	003ebf06 	br	444e8 <___svfprintf_internal_r+0x1910>
   449ec:	981b883a 	mov	r13,r19
   449f0:	da800f17 	ldw	r10,60(sp)
   449f4:	b027883a 	mov	r19,r22
   449f8:	902d883a 	mov	r22,r18
   449fc:	8825883a 	mov	r18,r17
   44a00:	1823883a 	mov	r17,r3
   44a04:	d8c00817 	ldw	r3,32(sp)
   44a08:	003c9206 	br	43c54 <___svfprintf_internal_r+0x107c>
   44a0c:	07000184 	movi	fp,6
   44a10:	003f4606 	br	4472c <___svfprintf_internal_r+0x1b54>
   44a14:	d9400417 	ldw	r5,16(sp)
   44a18:	d9000517 	ldw	r4,20(sp)
   44a1c:	d9801d04 	addi	r6,sp,116
   44a20:	004b3cc0 	call	4b3cc <__ssprint_r>
   44a24:	00396706 	br	42fc4 <___svfprintf_internal_r+0x3ec>
   44a28:	d9400417 	ldw	r5,16(sp)
   44a2c:	d9000517 	ldw	r4,20(sp)
   44a30:	d9801d04 	addi	r6,sp,116
   44a34:	db401015 	stw	r13,64(sp)
   44a38:	da800f15 	stw	r10,60(sp)
   44a3c:	d8c00815 	stw	r3,32(sp)
   44a40:	004b3cc0 	call	4b3cc <__ssprint_r>
   44a44:	10395f1e 	bne	r2,zero,42fc4 <___svfprintf_internal_r+0x3ec>
   44a48:	dc801717 	ldw	r18,92(sp)
   44a4c:	d9001f17 	ldw	r4,124(sp)
   44a50:	d8801e17 	ldw	r2,120(sp)
   44a54:	db401017 	ldw	r13,64(sp)
   44a58:	da800f17 	ldw	r10,60(sp)
   44a5c:	d8c00817 	ldw	r3,32(sp)
   44a60:	8023883a 	mov	r17,r16
   44a64:	903e840e 	bge	r18,zero,44478 <___svfprintf_internal_r+0x18a0>
   44a68:	003f4206 	br	44774 <___svfprintf_internal_r+0x1b9c>
   44a6c:	d8801b04 	addi	r2,sp,108
   44a70:	d8800315 	stw	r2,12(sp)
   44a74:	d9400a17 	ldw	r5,40(sp)
   44a78:	d8801804 	addi	r2,sp,96
   44a7c:	d9000517 	ldw	r4,20(sp)
   44a80:	d8c01115 	stw	r3,68(sp)
   44a84:	d8800215 	stw	r2,8(sp)
   44a88:	90c00044 	addi	r3,r18,1
   44a8c:	d8801704 	addi	r2,sp,92
   44a90:	d8c00015 	stw	r3,0(sp)
   44a94:	d8800115 	stw	r2,4(sp)
   44a98:	01c00084 	movi	r7,2
   44a9c:	e00d883a 	mov	r6,fp
   44aa0:	da801315 	stw	r10,76(sp)
   44aa4:	db001015 	stw	r12,64(sp)
   44aa8:	dac00815 	stw	r11,32(sp)
   44aac:	d8c00915 	stw	r3,36(sp)
   44ab0:	00478fc0 	call	478fc <_dtoa_r>
   44ab4:	dac00817 	ldw	r11,32(sp)
   44ab8:	db001017 	ldw	r12,64(sp)
   44abc:	d8c01117 	ldw	r3,68(sp)
   44ac0:	da801317 	ldw	r10,76(sp)
   44ac4:	102b883a 	mov	r21,r2
   44ac8:	588011d8 	cmpnei	r2,r11,71
   44acc:	1001131e 	bne	r2,zero,44f1c <___svfprintf_internal_r+0x2344>
   44ad0:	6080004c 	andi	r2,r12,1
   44ad4:	10002526 	beq	r2,zero,44b6c <___svfprintf_internal_r+0x1f94>
   44ad8:	d8800917 	ldw	r2,36(sp)
   44adc:	a89b883a 	add	r13,r21,r2
   44ae0:	003ea506 	br	44578 <___svfprintf_internal_r+0x19a0>
   44ae4:	d9000a17 	ldw	r4,40(sp)
   44ae8:	000d883a 	mov	r6,zero
   44aec:	000f883a 	mov	r7,zero
   44af0:	e00b883a 	mov	r5,fp
   44af4:	da801115 	stw	r10,68(sp)
   44af8:	d8c01015 	stw	r3,64(sp)
   44afc:	db000915 	stw	r12,36(sp)
   44b00:	dac00815 	stw	r11,32(sp)
   44b04:	0050b3c0 	call	50b3c <__eqdf2>
   44b08:	dac00817 	ldw	r11,32(sp)
   44b0c:	db000917 	ldw	r12,36(sp)
   44b10:	d8c01017 	ldw	r3,64(sp)
   44b14:	da801117 	ldw	r10,68(sp)
   44b18:	103f8826 	beq	r2,zero,4493c <___svfprintf_internal_r+0x1d64>
   44b1c:	00800044 	movi	r2,1
   44b20:	1485c83a 	sub	r2,r2,r18
   44b24:	d8801715 	stw	r2,92(sp)
   44b28:	003f8506 	br	44940 <___svfprintf_internal_r+0x1d68>
   44b2c:	d9400417 	ldw	r5,16(sp)
   44b30:	d9000517 	ldw	r4,20(sp)
   44b34:	d9801d04 	addi	r6,sp,116
   44b38:	db401115 	stw	r13,68(sp)
   44b3c:	da801015 	stw	r10,64(sp)
   44b40:	d8c00f15 	stw	r3,60(sp)
   44b44:	004b3cc0 	call	4b3cc <__ssprint_r>
   44b48:	10391e1e 	bne	r2,zero,42fc4 <___svfprintf_internal_r+0x3ec>
   44b4c:	dd801f17 	ldw	r22,124(sp)
   44b50:	db401117 	ldw	r13,68(sp)
   44b54:	da801017 	ldw	r10,64(sp)
   44b58:	d8c00f17 	ldw	r3,60(sp)
   44b5c:	8023883a 	mov	r17,r16
   44b60:	003c8d06 	br	43d98 <___svfprintf_internal_r+0x11c0>
   44b64:	dc800915 	stw	r18,36(sp)
   44b68:	003fd706 	br	44ac8 <___svfprintf_internal_r+0x1ef0>
   44b6c:	d8801b17 	ldw	r2,108(sp)
   44b70:	d9c01717 	ldw	r7,92(sp)
   44b74:	1545c83a 	sub	r2,r2,r21
   44b78:	d8800915 	stw	r2,36(sp)
   44b7c:	38bfff48 	cmpgei	r2,r7,-3
   44b80:	d9c00815 	stw	r7,32(sp)
   44b84:	1000771e 	bne	r2,zero,44d64 <___svfprintf_internal_r+0x218c>
   44b88:	5affff84 	addi	r11,r11,-2
   44b8c:	397fffc4 	addi	r5,r7,-1
   44b90:	5805883a 	mov	r2,r11
   44b94:	01000044 	movi	r4,1
   44b98:	21efc83a 	sub	r23,r4,r7
   44b9c:	01000b44 	movi	r4,45
   44ba0:	21003fcc 	andi	r4,r4,255
   44ba4:	2008923a 	slli	r4,r4,8
   44ba8:	10803fcc 	andi	r2,r2,255
   44bac:	d9401715 	stw	r5,92(sp)
   44bb0:	1104b03a 	or	r2,r2,r4
   44bb4:	d880190d 	sth	r2,100(sp)
   44bb8:	b8800290 	cmplti	r2,r23,10
   44bbc:	10007e1e 	bne	r2,zero,44db8 <___svfprintf_internal_r+0x21e0>
   44bc0:	df001cc4 	addi	fp,sp,115
   44bc4:	9805883a 	mov	r2,r19
   44bc8:	d8c01015 	stw	r3,64(sp)
   44bcc:	a007883a 	mov	r3,r20
   44bd0:	e027883a 	mov	r19,fp
   44bd4:	8829883a 	mov	r20,r17
   44bd8:	dac00815 	stw	r11,32(sp)
   44bdc:	b823883a 	mov	r17,r23
   44be0:	db000f15 	stw	r12,60(sp)
   44be4:	da801115 	stw	r10,68(sp)
   44be8:	1039883a 	mov	fp,r2
   44bec:	182f883a 	mov	r23,r3
   44bf0:	8809883a 	mov	r4,r17
   44bf4:	01400284 	movi	r5,10
   44bf8:	0040a3c0 	call	40a3c <__modsi3>
   44bfc:	10800c04 	addi	r2,r2,48
   44c00:	8809883a 	mov	r4,r17
   44c04:	01400284 	movi	r5,10
   44c08:	98bfffc5 	stb	r2,-1(r19)
   44c0c:	00409bc0 	call	409bc <__divsi3>
   44c10:	89401908 	cmpgei	r5,r17,100
   44c14:	9825883a 	mov	r18,r19
   44c18:	1023883a 	mov	r17,r2
   44c1c:	9cffffc4 	addi	r19,r19,-1
   44c20:	283ff31e 	bne	r5,zero,44bf0 <___svfprintf_internal_r+0x2018>
   44c24:	b809883a 	mov	r4,r23
   44c28:	102f883a 	mov	r23,r2
   44c2c:	e005883a 	mov	r2,fp
   44c30:	9839883a 	mov	fp,r19
   44c34:	1027883a 	mov	r19,r2
   44c38:	b8800c04 	addi	r2,r23,48
   44c3c:	e0bfffc5 	stb	r2,-1(fp)
   44c40:	917fff84 	addi	r5,r18,-2
   44c44:	d8801cc4 	addi	r2,sp,115
   44c48:	a023883a 	mov	r17,r20
   44c4c:	dac00817 	ldw	r11,32(sp)
   44c50:	db000f17 	ldw	r12,60(sp)
   44c54:	d8c01017 	ldw	r3,64(sp)
   44c58:	da801117 	ldw	r10,68(sp)
   44c5c:	2029883a 	mov	r20,r4
   44c60:	2880cc2e 	bgeu	r5,r2,44f94 <___svfprintf_internal_r+0x23bc>
   44c64:	d8801d44 	addi	r2,sp,117
   44c68:	14a5c83a 	sub	r18,r2,r18
   44c6c:	d9001984 	addi	r4,sp,102
   44c70:	900d883a 	mov	r6,r18
   44c74:	00428d80 	call	428d8 <memcpy>
   44c78:	d8801984 	addi	r2,sp,102
   44c7c:	1485883a 	add	r2,r2,r18
   44c80:	d9001904 	addi	r4,sp,100
   44c84:	dac00817 	ldw	r11,32(sp)
   44c88:	db000f17 	ldw	r12,60(sp)
   44c8c:	d8c01017 	ldw	r3,64(sp)
   44c90:	da801117 	ldw	r10,68(sp)
   44c94:	1105c83a 	sub	r2,r2,r4
   44c98:	d8801215 	stw	r2,72(sp)
   44c9c:	d9000917 	ldw	r4,36(sp)
   44ca0:	d9401217 	ldw	r5,72(sp)
   44ca4:	20800088 	cmpgei	r2,r4,2
   44ca8:	2179883a 	add	fp,r4,r5
   44cac:	10007226 	beq	r2,zero,44e78 <___svfprintf_internal_r+0x22a0>
   44cb0:	d8800c17 	ldw	r2,48(sp)
   44cb4:	e0b9883a 	add	fp,fp,r2
   44cb8:	e01b883a 	mov	r13,fp
   44cbc:	e000010e 	bge	fp,zero,44cc4 <___svfprintf_internal_r+0x20ec>
   44cc0:	001b883a 	mov	r13,zero
   44cc4:	d8000815 	stw	zero,32(sp)
   44cc8:	003e5306 	br	44618 <___svfprintf_internal_r+0x1a40>
   44ccc:	ddc01643 	ldbu	r23,89(sp)
   44cd0:	dd800715 	stw	r22,28(sp)
   44cd4:	0025883a 	mov	r18,zero
   44cd8:	00391606 	br	43134 <___svfprintf_internal_r+0x55c>
   44cdc:	d9400417 	ldw	r5,16(sp)
   44ce0:	d9000517 	ldw	r4,20(sp)
   44ce4:	d9801d04 	addi	r6,sp,116
   44ce8:	db401115 	stw	r13,68(sp)
   44cec:	da801015 	stw	r10,64(sp)
   44cf0:	d8c00f15 	stw	r3,60(sp)
   44cf4:	004b3cc0 	call	4b3cc <__ssprint_r>
   44cf8:	1038b21e 	bne	r2,zero,42fc4 <___svfprintf_internal_r+0x3ec>
   44cfc:	dd801f17 	ldw	r22,124(sp)
   44d00:	db401117 	ldw	r13,68(sp)
   44d04:	da801017 	ldw	r10,64(sp)
   44d08:	d8c00f17 	ldw	r3,60(sp)
   44d0c:	8023883a 	mov	r17,r16
   44d10:	903c1e0e 	bge	r18,zero,43d8c <___svfprintf_internal_r+0x11b4>
   44d14:	003d1006 	br	44158 <___svfprintf_internal_r+0x1580>
   44d18:	04800184 	movi	r18,6
   44d1c:	003df206 	br	444e8 <___svfprintf_internal_r+0x1910>
   44d20:	d9400417 	ldw	r5,16(sp)
   44d24:	d9000517 	ldw	r4,20(sp)
   44d28:	d9801d04 	addi	r6,sp,116
   44d2c:	db401015 	stw	r13,64(sp)
   44d30:	da800f15 	stw	r10,60(sp)
   44d34:	d8c00815 	stw	r3,32(sp)
   44d38:	004b3cc0 	call	4b3cc <__ssprint_r>
   44d3c:	1038a11e 	bne	r2,zero,42fc4 <___svfprintf_internal_r+0x3ec>
   44d40:	dc801717 	ldw	r18,92(sp)
   44d44:	d8800917 	ldw	r2,36(sp)
   44d48:	d9001f17 	ldw	r4,124(sp)
   44d4c:	db401017 	ldw	r13,64(sp)
   44d50:	da800f17 	ldw	r10,60(sp)
   44d54:	d8c00817 	ldw	r3,32(sp)
   44d58:	8023883a 	mov	r17,r16
   44d5c:	14a5c83a 	sub	r18,r2,r18
   44d60:	003c2f06 	br	43e20 <___svfprintf_internal_r+0x1248>
   44d64:	91c0060e 	bge	r18,r7,44d80 <___svfprintf_internal_r+0x21a8>
   44d68:	5affff84 	addi	r11,r11,-2
   44d6c:	3dffffc4 	addi	r23,r7,-1
   44d70:	5805883a 	mov	r2,r11
   44d74:	b80b883a 	mov	r5,r23
   44d78:	01000ac4 	movi	r4,43
   44d7c:	003f8806 	br	44ba0 <___svfprintf_internal_r+0x1fc8>
   44d80:	d9000917 	ldw	r4,36(sp)
   44d84:	39001316 	blt	r7,r4,44dd4 <___svfprintf_internal_r+0x21fc>
   44d88:	6300004c 	andi	r12,r12,1
   44d8c:	6000491e 	bne	r12,zero,44eb4 <___svfprintf_internal_r+0x22dc>
   44d90:	381b883a 	mov	r13,r7
   44d94:	3800010e 	bge	r7,zero,44d9c <___svfprintf_internal_r+0x21c4>
   44d98:	001b883a 	mov	r13,zero
   44d9c:	3839883a 	mov	fp,r7
   44da0:	02c019c4 	movi	r11,103
   44da4:	003e1c06 	br	44618 <___svfprintf_internal_r+0x1a40>
   44da8:	901b883a 	mov	r13,r18
   44dac:	dd800715 	stw	r22,28(sp)
   44db0:	9039883a 	mov	fp,r18
   44db4:	00383d06 	br	42eac <___svfprintf_internal_r+0x2d4>
   44db8:	b8800c04 	addi	r2,r23,48
   44dbc:	01000c04 	movi	r4,48
   44dc0:	d88019c5 	stb	r2,103(sp)
   44dc4:	00800104 	movi	r2,4
   44dc8:	d9001985 	stb	r4,102(sp)
   44dcc:	d8801215 	stw	r2,72(sp)
   44dd0:	003fb206 	br	44c9c <___svfprintf_internal_r+0x20c4>
   44dd4:	d8800917 	ldw	r2,36(sp)
   44dd8:	d9000c17 	ldw	r4,48(sp)
   44ddc:	1139883a 	add	fp,r2,r4
   44de0:	d8800817 	ldw	r2,32(sp)
   44de4:	00800316 	blt	zero,r2,44df4 <___svfprintf_internal_r+0x221c>
   44de8:	d8800817 	ldw	r2,32(sp)
   44dec:	e08fc83a 	sub	r7,fp,r2
   44df0:	3f000044 	addi	fp,r7,1
   44df4:	e01b883a 	mov	r13,fp
   44df8:	e0003316 	blt	fp,zero,44ec8 <___svfprintf_internal_r+0x22f0>
   44dfc:	02c019c4 	movi	r11,103
   44e00:	003e0506 	br	44618 <___svfprintf_internal_r+0x1a40>
   44e04:	da800817 	ldw	r10,32(sp)
   44e08:	901b883a 	mov	r13,r18
   44e0c:	b025883a 	mov	r18,r22
   44e10:	882d883a 	mov	r22,r17
   44e14:	1823883a 	mov	r17,r3
   44e18:	e007883a 	mov	r3,fp
   44e1c:	10800044 	addi	r2,r2,1
   44e20:	2489883a 	add	r4,r4,r18
   44e24:	8d800015 	stw	r22,0(r17)
   44e28:	8c800115 	stw	r18,4(r17)
   44e2c:	d9001f15 	stw	r4,124(sp)
   44e30:	d8801e15 	stw	r2,120(sp)
   44e34:	11400208 	cmpgei	r5,r2,8
   44e38:	283d8e26 	beq	r5,zero,44474 <___svfprintf_internal_r+0x189c>
   44e3c:	d9400417 	ldw	r5,16(sp)
   44e40:	d9000517 	ldw	r4,20(sp)
   44e44:	d9801d04 	addi	r6,sp,116
   44e48:	db401015 	stw	r13,64(sp)
   44e4c:	da800f15 	stw	r10,60(sp)
   44e50:	d8c00815 	stw	r3,32(sp)
   44e54:	004b3cc0 	call	4b3cc <__ssprint_r>
   44e58:	10385a1e 	bne	r2,zero,42fc4 <___svfprintf_internal_r+0x3ec>
   44e5c:	d9001f17 	ldw	r4,124(sp)
   44e60:	d8801e17 	ldw	r2,120(sp)
   44e64:	db401017 	ldw	r13,64(sp)
   44e68:	da800f17 	ldw	r10,60(sp)
   44e6c:	d8c00817 	ldw	r3,32(sp)
   44e70:	8023883a 	mov	r17,r16
   44e74:	003d8006 	br	44478 <___svfprintf_internal_r+0x18a0>
   44e78:	6080004c 	andi	r2,r12,1
   44e7c:	d8800815 	stw	r2,32(sp)
   44e80:	103f8b1e 	bne	r2,zero,44cb0 <___svfprintf_internal_r+0x20d8>
   44e84:	e01b883a 	mov	r13,fp
   44e88:	e03de30e 	bge	fp,zero,44618 <___svfprintf_internal_r+0x1a40>
   44e8c:	001b883a 	mov	r13,zero
   44e90:	003de106 	br	44618 <___svfprintf_internal_r+0x1a40>
   44e94:	ab5b883a 	add	r13,r21,r13
   44e98:	003dc706 	br	445b8 <___svfprintf_internal_r+0x19e0>
   44e9c:	d8c00517 	ldw	r3,20(sp)
   44ea0:	00800304 	movi	r2,12
   44ea4:	18800015 	stw	r2,0(r3)
   44ea8:	00bfffc4 	movi	r2,-1
   44eac:	d8800615 	stw	r2,24(sp)
   44eb0:	00384806 	br	42fd4 <___svfprintf_internal_r+0x3fc>
   44eb4:	d8800817 	ldw	r2,32(sp)
   44eb8:	d9000c17 	ldw	r4,48(sp)
   44ebc:	1139883a 	add	fp,r2,r4
   44ec0:	e01b883a 	mov	r13,fp
   44ec4:	e03fcd0e 	bge	fp,zero,44dfc <___svfprintf_internal_r+0x2224>
   44ec8:	001b883a 	mov	r13,zero
   44ecc:	003fcb06 	br	44dfc <___svfprintf_internal_r+0x2224>
   44ed0:	d8800b17 	ldw	r2,44(sp)
   44ed4:	10002b16 	blt	r2,zero,44f84 <___svfprintf_internal_r+0x23ac>
   44ed8:	ddc01643 	ldbu	r23,89(sp)
   44edc:	58801210 	cmplti	r2,r11,72
   44ee0:	1000251e 	bne	r2,zero,44f78 <___svfprintf_internal_r+0x23a0>
   44ee4:	05400174 	movhi	r21,5
   44ee8:	ad54d204 	addi	r21,r21,21320
   44eec:	00392906 	br	43394 <___svfprintf_internal_r+0x7bc>
   44ef0:	6d45c83a 	sub	r2,r13,r21
   44ef4:	d9c01717 	ldw	r7,92(sp)
   44ef8:	d8800915 	stw	r2,36(sp)
   44efc:	003f1f06 	br	44b7c <___svfprintf_internal_r+0x1fa4>
   44f00:	d8800c17 	ldw	r2,48(sp)
   44f04:	208f883a 	add	r7,r4,r2
   44f08:	3cb9883a 	add	fp,r7,r18
   44f0c:	e01b883a 	mov	r13,fp
   44f10:	e03dc00e 	bge	fp,zero,44614 <___svfprintf_internal_r+0x1a3c>
   44f14:	001b883a 	mov	r13,zero
   44f18:	003dbe06 	br	44614 <___svfprintf_internal_r+0x1a3c>
   44f1c:	d9000a17 	ldw	r4,40(sp)
   44f20:	000d883a 	mov	r6,zero
   44f24:	000f883a 	mov	r7,zero
   44f28:	e00b883a 	mov	r5,fp
   44f2c:	da801315 	stw	r10,76(sp)
   44f30:	d8c01115 	stw	r3,68(sp)
   44f34:	db001015 	stw	r12,64(sp)
   44f38:	dac00815 	stw	r11,32(sp)
   44f3c:	0050b3c0 	call	50b3c <__eqdf2>
   44f40:	dac00817 	ldw	r11,32(sp)
   44f44:	db001017 	ldw	r12,64(sp)
   44f48:	d8c01117 	ldw	r3,68(sp)
   44f4c:	da801317 	ldw	r10,76(sp)
   44f50:	1000131e 	bne	r2,zero,44fa0 <___svfprintf_internal_r+0x23c8>
   44f54:	b88011e0 	cmpeqi	r2,r23,71
   44f58:	d9c01717 	ldw	r7,92(sp)
   44f5c:	103f071e 	bne	r2,zero,44b7c <___svfprintf_internal_r+0x1fa4>
   44f60:	397fffc4 	addi	r5,r7,-1
   44f64:	5805883a 	mov	r2,r11
   44f68:	283f0a16 	blt	r5,zero,44b94 <___svfprintf_internal_r+0x1fbc>
   44f6c:	282f883a 	mov	r23,r5
   44f70:	01000ac4 	movi	r4,43
   44f74:	003f0a06 	br	44ba0 <___svfprintf_internal_r+0x1fc8>
   44f78:	05400174 	movhi	r21,5
   44f7c:	ad54d104 	addi	r21,r21,21316
   44f80:	00390406 	br	43394 <___svfprintf_internal_r+0x7bc>
   44f84:	00800b44 	movi	r2,45
   44f88:	d8801645 	stb	r2,89(sp)
   44f8c:	05c00b44 	movi	r23,45
   44f90:	003fd206 	br	44edc <___svfprintf_internal_r+0x2304>
   44f94:	00800084 	movi	r2,2
   44f98:	d8801215 	stw	r2,72(sp)
   44f9c:	003f3f06 	br	44c9c <___svfprintf_internal_r+0x20c4>
   44fa0:	d8800917 	ldw	r2,36(sp)
   44fa4:	a89b883a 	add	r13,r21,r2
   44fa8:	003d8306 	br	445b8 <___svfprintf_internal_r+0x19e0>
   44fac:	1000041e 	bne	r2,zero,44fc0 <___svfprintf_internal_r+0x23e8>
   44fb0:	03400044 	movi	r13,1
   44fb4:	02c01984 	movi	r11,102
   44fb8:	07000044 	movi	fp,1
   44fbc:	003d9606 	br	44618 <___svfprintf_internal_r+0x1a40>
   44fc0:	d8800c17 	ldw	r2,48(sp)
   44fc4:	11c00044 	addi	r7,r2,1
   44fc8:	3cb9883a 	add	fp,r7,r18
   44fcc:	e01b883a 	mov	r13,fp
   44fd0:	e03d900e 	bge	fp,zero,44614 <___svfprintf_internal_r+0x1a3c>
   44fd4:	003fcf06 	br	44f14 <___svfprintf_internal_r+0x233c>
   44fd8:	d8c00717 	ldw	r3,28(sp)
   44fdc:	1c800017 	ldw	r18,0(r3)
   44fe0:	18c00104 	addi	r3,r3,4
   44fe4:	9000010e 	bge	r18,zero,44fec <___svfprintf_internal_r+0x2414>
   44fe8:	04bfffc4 	movi	r18,-1
   44fec:	a2c00043 	ldbu	r11,1(r20)
   44ff0:	d8c00715 	stw	r3,28(sp)
   44ff4:	1029883a 	mov	r20,r2
   44ff8:	5ac03fcc 	andi	r11,r11,255
   44ffc:	5ac0201c 	xori	r11,r11,128
   45000:	5affe004 	addi	r11,r11,-128
   45004:	00373306 	br	42cd4 <___svfprintf_internal_r+0xfc>

00045008 <___vfprintf_internal_r>:
   45008:	deffbc04 	addi	sp,sp,-272
   4500c:	dfc04315 	stw	ra,268(sp)
   45010:	dc803c15 	stw	r18,240(sp)
   45014:	dc003a15 	stw	r16,232(sp)
   45018:	d9000515 	stw	r4,20(sp)
   4501c:	2021883a 	mov	r16,r4
   45020:	d9400415 	stw	r5,16(sp)
   45024:	3025883a 	mov	r18,r6
   45028:	d9c00715 	stw	r7,28(sp)
   4502c:	df004215 	stw	fp,264(sp)
   45030:	ddc04115 	stw	r23,260(sp)
   45034:	dd804015 	stw	r22,256(sp)
   45038:	dd403f15 	stw	r21,252(sp)
   4503c:	dd003e15 	stw	r20,248(sp)
   45040:	dcc03d15 	stw	r19,244(sp)
   45044:	dc403b15 	stw	r17,236(sp)
   45048:	0049cd00 	call	49cd0 <_localeconv_r>
   4504c:	10800017 	ldw	r2,0(r2)
   45050:	1009883a 	mov	r4,r2
   45054:	d8800d15 	stw	r2,52(sp)
   45058:	004b3340 	call	4b334 <strlen>
   4505c:	d8800c15 	stw	r2,48(sp)
   45060:	80000226 	beq	r16,zero,4506c <___vfprintf_internal_r+0x64>
   45064:	80800e17 	ldw	r2,56(r16)
   45068:	10023726 	beq	r2,zero,45948 <___vfprintf_internal_r+0x940>
   4506c:	d9400417 	ldw	r5,16(sp)
   45070:	2880030b 	ldhu	r2,12(r5)
   45074:	10c8000c 	andi	r3,r2,8192
   45078:	1800071e 	bne	r3,zero,45098 <___vfprintf_internal_r+0x90>
   4507c:	28c01917 	ldw	r3,100(r5)
   45080:	11080014 	ori	r4,r2,8192
   45084:	00b7ffc4 	movi	r2,-8193
   45088:	1886703a 	and	r3,r3,r2
   4508c:	2900030d 	sth	r4,12(r5)
   45090:	2005883a 	mov	r2,r4
   45094:	28c01915 	stw	r3,100(r5)
   45098:	10c0020c 	andi	r3,r2,8
   4509c:	1800f726 	beq	r3,zero,4547c <___vfprintf_internal_r+0x474>
   450a0:	d8c00417 	ldw	r3,16(sp)
   450a4:	18c00417 	ldw	r3,16(r3)
   450a8:	1800f426 	beq	r3,zero,4547c <___vfprintf_internal_r+0x474>
   450ac:	1080068c 	andi	r2,r2,26
   450b0:	10800298 	cmpnei	r2,r2,10
   450b4:	1000fa26 	beq	r2,zero,454a0 <___vfprintf_internal_r+0x498>
   450b8:	dc402a04 	addi	r17,sp,168
   450bc:	04c00174 	movhi	r19,5
   450c0:	dc401d15 	stw	r17,116(sp)
   450c4:	d8001f15 	stw	zero,124(sp)
   450c8:	d8001e15 	stw	zero,120(sp)
   450cc:	d8000915 	stw	zero,36(sp)
   450d0:	d8000a15 	stw	zero,40(sp)
   450d4:	d8000b15 	stw	zero,44(sp)
   450d8:	d8000e15 	stw	zero,56(sp)
   450dc:	d8001215 	stw	zero,72(sp)
   450e0:	d8000615 	stw	zero,24(sp)
   450e4:	9cd4e804 	addi	r19,r19,21408
   450e8:	8821883a 	mov	r16,r17
   450ec:	9029883a 	mov	r20,r18
   450f0:	a0800007 	ldb	r2,0(r20)
   450f4:	1000ce26 	beq	r2,zero,45430 <___vfprintf_internal_r+0x428>
   450f8:	a025883a 	mov	r18,r20
   450fc:	00000306 	br	4510c <___vfprintf_internal_r+0x104>
   45100:	90800047 	ldb	r2,1(r18)
   45104:	94800044 	addi	r18,r18,1
   45108:	10015226 	beq	r2,zero,45654 <___vfprintf_internal_r+0x64c>
   4510c:	10800958 	cmpnei	r2,r2,37
   45110:	103ffb1e 	bne	r2,zero,45100 <___vfprintf_internal_r+0xf8>
   45114:	952fc83a 	sub	r23,r18,r20
   45118:	9501501e 	bne	r18,r20,4565c <___vfprintf_internal_r+0x654>
   4511c:	90800003 	ldbu	r2,0(r18)
   45120:	10803fcc 	andi	r2,r2,255
   45124:	1080201c 	xori	r2,r2,128
   45128:	10bfe004 	addi	r2,r2,-128
   4512c:	1000c026 	beq	r2,zero,45430 <___vfprintf_internal_r+0x428>
   45130:	92c00047 	ldb	r11,1(r18)
   45134:	95000044 	addi	r20,r18,1
   45138:	d8001645 	stb	zero,89(sp)
   4513c:	04bfffc4 	movi	r18,-1
   45140:	0015883a 	mov	r10,zero
   45144:	0019883a 	mov	r12,zero
   45148:	a5000044 	addi	r20,r20,1
   4514c:	58bff804 	addi	r2,r11,-32
   45150:	10c01668 	cmpgeui	r3,r2,89
   45154:	18006c1e 	bne	r3,zero,45308 <___vfprintf_internal_r+0x300>
   45158:	100490ba 	slli	r2,r2,2
   4515c:	00c00134 	movhi	r3,4
   45160:	10c7883a 	add	r3,r2,r3
   45164:	18945b17 	ldw	r2,20844(r3)
   45168:	1000683a 	jmp	r2
   4516c:	00045a20 	cmpeqi	zero,zero,4456
   45170:	00045308 	cmpgei	zero,zero,4428
   45174:	00045308 	cmpgei	zero,zero,4428
   45178:	00045a14 	movui	zero,4456
   4517c:	00045308 	cmpgei	zero,zero,4428
   45180:	00045308 	cmpgei	zero,zero,4428
   45184:	00045308 	cmpgei	zero,zero,4428
   45188:	00045308 	cmpgei	zero,zero,4428
   4518c:	00045308 	cmpgei	zero,zero,4428
   45190:	00045308 	cmpgei	zero,zero,4428
   45194:	00045988 	cmpgei	zero,zero,4454
   45198:	00045a04 	movi	zero,4456
   4519c:	00045308 	cmpgei	zero,zero,4428
   451a0:	000459a0 	cmpeqi	zero,zero,4454
   451a4:	000459ac 	andhi	zero,zero,4454
   451a8:	00045308 	cmpgei	zero,zero,4428
   451ac:	000459f8 	rdprs	zero,zero,4455
   451b0:	000452d0 	cmplti	zero,zero,4427
   451b4:	000452d0 	cmplti	zero,zero,4427
   451b8:	000452d0 	cmplti	zero,zero,4427
   451bc:	000452d0 	cmplti	zero,zero,4427
   451c0:	000452d0 	cmplti	zero,zero,4427
   451c4:	000452d0 	cmplti	zero,zero,4427
   451c8:	000452d0 	cmplti	zero,zero,4427
   451cc:	000452d0 	cmplti	zero,zero,4427
   451d0:	000452d0 	cmplti	zero,zero,4427
   451d4:	00045308 	cmpgei	zero,zero,4428
   451d8:	00045308 	cmpgei	zero,zero,4428
   451dc:	00045308 	cmpgei	zero,zero,4428
   451e0:	00045308 	cmpgei	zero,zero,4428
   451e4:	00045308 	cmpgei	zero,zero,4428
   451e8:	00045308 	cmpgei	zero,zero,4428
   451ec:	00045308 	cmpgei	zero,zero,4428
   451f0:	00045308 	cmpgei	zero,zero,4428
   451f4:	00045308 	cmpgei	zero,zero,4428
   451f8:	00045308 	cmpgei	zero,zero,4428
   451fc:	000454ec 	andhi	zero,zero,4435
   45200:	000457a8 	cmpgeui	zero,zero,4446
   45204:	00045308 	cmpgei	zero,zero,4428
   45208:	000457a8 	cmpgeui	zero,zero,4446
   4520c:	00045308 	cmpgei	zero,zero,4428
   45210:	00045308 	cmpgei	zero,zero,4428
   45214:	00045308 	cmpgei	zero,zero,4428
   45218:	00045308 	cmpgei	zero,zero,4428
   4521c:	00045a6c 	andhi	zero,zero,4457
   45220:	00045308 	cmpgei	zero,zero,4428
   45224:	00045308 	cmpgei	zero,zero,4428
   45228:	00045554 	movui	zero,4437
   4522c:	00045308 	cmpgei	zero,zero,4428
   45230:	00045308 	cmpgei	zero,zero,4428
   45234:	00045308 	cmpgei	zero,zero,4428
   45238:	00045308 	cmpgei	zero,zero,4428
   4523c:	00045308 	cmpgei	zero,zero,4428
   45240:	0004557c 	xorhi	zero,zero,4437
   45244:	00045308 	cmpgei	zero,zero,4428
   45248:	00045308 	cmpgei	zero,zero,4428
   4524c:	0004660c 	andi	zero,zero,4504
   45250:	00045308 	cmpgei	zero,zero,4428
   45254:	00045308 	cmpgei	zero,zero,4428
   45258:	00045308 	cmpgei	zero,zero,4428
   4525c:	00045308 	cmpgei	zero,zero,4428
   45260:	00045308 	cmpgei	zero,zero,4428
   45264:	00045308 	cmpgei	zero,zero,4428
   45268:	00045308 	cmpgei	zero,zero,4428
   4526c:	00045308 	cmpgei	zero,zero,4428
   45270:	00045308 	cmpgei	zero,zero,4428
   45274:	00045308 	cmpgei	zero,zero,4428
   45278:	00045a84 	movi	zero,4458
   4527c:	000454f0 	cmpltui	zero,zero,4435
   45280:	000457a8 	cmpgeui	zero,zero,4446
   45284:	000457a8 	cmpgeui	zero,zero,4446
   45288:	000457a8 	cmpgeui	zero,zero,4446
   4528c:	00045a78 	rdprs	zero,zero,4457
   45290:	000454f0 	cmpltui	zero,zero,4435
   45294:	00045308 	cmpgei	zero,zero,4428
   45298:	00045308 	cmpgei	zero,zero,4428
   4529c:	00045a44 	movi	zero,4457
   452a0:	00045308 	cmpgei	zero,zero,4428
   452a4:	00045b48 	cmpgei	zero,zero,4461
   452a8:	00045558 	cmpnei	zero,zero,4437
   452ac:	00045b10 	cmplti	zero,zero,4460
   452b0:	00045b04 	movi	zero,4460
   452b4:	00045308 	cmpgei	zero,zero,4428
   452b8:	00045aac 	andhi	zero,zero,4458
   452bc:	00045308 	cmpgei	zero,zero,4428
   452c0:	00045580 	call	4558 <__reset-0x3baa8>
   452c4:	00045308 	cmpgei	zero,zero,4428
   452c8:	00045308 	cmpgei	zero,zero,4428
   452cc:	0004667c 	xorhi	zero,zero,4505
   452d0:	0015883a 	mov	r10,zero
   452d4:	58fff404 	addi	r3,r11,-48
   452d8:	500490ba 	slli	r2,r10,2
   452dc:	a2c00007 	ldb	r11,0(r20)
   452e0:	a5000044 	addi	r20,r20,1
   452e4:	1295883a 	add	r10,r2,r10
   452e8:	5295883a 	add	r10,r10,r10
   452ec:	1a95883a 	add	r10,r3,r10
   452f0:	58fff404 	addi	r3,r11,-48
   452f4:	188002b0 	cmpltui	r2,r3,10
   452f8:	103ff71e 	bne	r2,zero,452d8 <___vfprintf_internal_r+0x2d0>
   452fc:	58bff804 	addi	r2,r11,-32
   45300:	10c01668 	cmpgeui	r3,r2,89
   45304:	183f9426 	beq	r3,zero,45158 <___vfprintf_internal_r+0x150>
   45308:	58004926 	beq	r11,zero,45430 <___vfprintf_internal_r+0x428>
   4530c:	dac02005 	stb	r11,128(sp)
   45310:	d8001645 	stb	zero,89(sp)
   45314:	03400044 	movi	r13,1
   45318:	07000044 	movi	fp,1
   4531c:	dd402004 	addi	r21,sp,128
   45320:	6007883a 	mov	r3,r12
   45324:	0025883a 	mov	r18,zero
   45328:	d8000815 	stw	zero,32(sp)
   4532c:	1b80008c 	andi	r14,r3,2
   45330:	70000126 	beq	r14,zero,45338 <___vfprintf_internal_r+0x330>
