
Send.elf:     file format elf32-littlenios2
Send.elf
architecture: nios2:r1, flags 0x00000112:
EXEC_P, HAS_SYMS, D_PAGED
start address 0x00040228

Program Header:
    LOAD off    0x00001000 vaddr 0x00040000 paddr 0x00040000 align 2**12
         filesz 0x00000020 memsz 0x00000020 flags r-x
    LOAD off    0x00001020 vaddr 0x00040020 paddr 0x00040020 align 2**12
         filesz 0x000158c0 memsz 0x000158c0 flags r-x
    LOAD off    0x000168e0 vaddr 0x000558e0 paddr 0x000574e4 align 2**12
         filesz 0x00001c04 memsz 0x00001c04 flags rw-
    LOAD off    0x000000e8 vaddr 0x000590e8 paddr 0x000590e8 align 2**12
         filesz 0x00000000 memsz 0x00000164 flags rw-

Sections:
Idx Name          Size      VMA       LMA       File off  Algn
  0 .entry        00000020  00040000  00040000  00001000  2**5
                  CONTENTS, ALLOC, LOAD, READONLY, CODE
  1 .exceptions   00000208  00040020  00040020  00001020  2**2
                  CONTENTS, ALLOC, LOAD, READONLY, CODE
  2 .text         00014ee0  00040228  00040228  00001228  2**2
                  CONTENTS, ALLOC, LOAD, READONLY, CODE
  3 .rodata       000007d8  00055108  00055108  00016108  2**2
                  CONTENTS, ALLOC, LOAD, READONLY, DATA
  4 .rwdata       00001c04  000558e0  000574e4  000168e0  2**2
                  CONTENTS, ALLOC, LOAD, DATA, SMALL_DATA
  5 .bss          00000164  000590e8  000590e8  000190e8  2**2
                  ALLOC, SMALL_DATA
  6 .onchip_memory 00000000  0005924c  0005924c  000184e4  2**0
                  CONTENTS
  7 .comment      0000002d  00000000  00000000  000184e4  2**0
                  CONTENTS, READONLY
  8 .debug_aranges 000012c8  00000000  00000000  00018518  2**3
                  CONTENTS, READONLY, DEBUGGING, OCTETS
  9 .debug_info   000361bc  00000000  00000000  000197e0  2**0
                  CONTENTS, READONLY, DEBUGGING, OCTETS
 10 .debug_abbrev 0000e113  00000000  00000000  0004f99c  2**0
                  CONTENTS, READONLY, DEBUGGING, OCTETS
 11 .debug_line   0001537f  00000000  00000000  0005daaf  2**0
                  CONTENTS, READONLY, DEBUGGING, OCTETS
 12 .debug_frame  00002ac8  00000000  00000000  00072e30  2**2
                  CONTENTS, READONLY, DEBUGGING, OCTETS
 13 .debug_str    00002bb8  00000000  00000000  000758f8  2**0
                  CONTENTS, READONLY, DEBUGGING, OCTETS
 14 .debug_alt_sim_info 00000010  00000000  00000000  000784b0  2**2
                  CONTENTS, READONLY, DEBUGGING, OCTETS
 15 .debug_ranges 00000070  00000000  00000000  000784c0  2**3
                  CONTENTS, READONLY, DEBUGGING, OCTETS
 16 .debug_line_str 00002716  00000000  00000000  00078530  2**0
                  CONTENTS, READONLY, DEBUGGING, OCTETS
 17 .debug_loclists 0001a2e2  00000000  00000000  0007ac46  2**0
                  CONTENTS, READONLY, DEBUGGING, OCTETS
 18 .debug_rnglists 00001bf7  00000000  00000000  00094f28  2**0
                  CONTENTS, READONLY, DEBUGGING, OCTETS
 19 .thread_model 00000003  00000000  00000000  0009a5ae  2**0
                  CONTENTS, READONLY
 20 .cpu          00000003  00000000  00000000  0009a5b1  2**0
                  CONTENTS, READONLY
 21 .qsys         00000001  00000000  00000000  0009a5b4  2**0
                  CONTENTS, READONLY
 22 .simulation_enabled 00000001  00000000  00000000  0009a5b5  2**0
                  CONTENTS, READONLY
 23 .sysid_hash   00000004  00000000  00000000  0009a5b6  2**0
                  CONTENTS, READONLY
 24 .sysid_base   00000004  00000000  00000000  0009a5ba  2**0
                  CONTENTS, READONLY
 25 .sysid_time   00000004  00000000  00000000  0009a5be  2**0
                  CONTENTS, READONLY
 26 .stderr_dev   00000009  00000000  00000000  0009a5c2  2**0
                  CONTENTS, READONLY
 27 .stdin_dev    00000009  00000000  00000000  0009a5cb  2**0
                  CONTENTS, READONLY
 28 .stdout_dev   00000009  00000000  00000000  0009a5d4  2**0
                  CONTENTS, READONLY
 29 .sopc_system_name 00000005  00000000  00000000  0009a5dd  2**0
                  CONTENTS, READONLY
 30 .quartus_project_dir 00000040  00000000  00000000  0009a5e2  2**0
                  CONTENTS, READONLY
 31 .jdi          00004332  00000000  00000000  0009a622  2**0
                  CONTENTS, READONLY
 32 .sopcinfo     000665fb  00000000  00000000  0009e954  2**0
                  CONTENTS, READONLY
SYMBOL TABLE:
00040000 l    d  .entry	00000000 .entry
00040020 l    d  .exceptions	00000000 .exceptions
00040228 l    d  .text	00000000 .text
00055108 l    d  .rodata	00000000 .rodata
000558e0 l    d  .rwdata	00000000 .rwdata
000590e8 l    d  .bss	00000000 .bss
0005924c l    d  .onchip_memory	00000000 .onchip_memory
00000000 l    d  .comment	00000000 .comment
00000000 l    d  .debug_aranges	00000000 .debug_aranges
00000000 l    d  .debug_info	00000000 .debug_info
00000000 l    d  .debug_abbrev	00000000 .debug_abbrev
00000000 l    d  .debug_line	00000000 .debug_line
00000000 l    d  .debug_frame	00000000 .debug_frame
00000000 l    d  .debug_str	00000000 .debug_str
00000000 l    d  .debug_alt_sim_info	00000000 .debug_alt_sim_info
00000000 l    d  .debug_ranges	00000000 .debug_ranges
00000000 l    d  .debug_line_str	00000000 .debug_line_str
00000000 l    d  .debug_loclists	00000000 .debug_loclists
00000000 l    d  .debug_rnglists	00000000 .debug_rnglists
00000000 l    df *ABS*	00000000 crt0.o
00040260 l       .text	00000000 alt_after_alt_main
00000000 l    df *ABS*	00000000 alt_irq_handler.c
00000000 l    df *ABS*	00000000 alt_instruction_exception_entry.c
00000000 l    df *ABS*	00000000 specs.c
00000000 l    df *ABS*	00000000 spec.c
00000000 l    df *ABS*	00000000 hello_world.c
00000000 l    df *ABS*	00000000 specs.c
00000000 l    df *ABS*	00000000 s_round.c
00000000 l    df *ABS*	00000000 lib2-divmod.c
00000000 l    df *ABS*	00000000 lib2-mul.c
00000000 l    df *ABS*	00000000 divsf3.c
00000000 l    df *ABS*	00000000 mulsf3.c
00000000 l    df *ABS*	00000000 fixsfsi.c
00000000 l    df *ABS*	00000000 floatsisf.c
00000000 l    df *ABS*	00000000 adddf3.c
00000000 l    df *ABS*	00000000 fixdfsi.c
00000000 l    df *ABS*	00000000 extendsfdf2.c
00000000 l    df *ABS*	00000000 libgcc2.c
00000000 l    df *ABS*	00000000 libgcc2.c
00000000 l    df *ABS*	00000000 asprintf.c
00000000 l    df *ABS*	00000000 impure.c
000558e0 l     O .rwdata	00000424 impure_data
00000000 l    df *ABS*	00000000 malloc.c
00000000 l    df *ABS*	00000000 mallocr.c
00000000 l    df *ABS*	00000000 memcpy.c
00000000 l    df *ABS*	00000000 memset.c
00000000 l    df *ABS*	00000000 printf.c
00000000 l    df *ABS*	00000000 sbrkr.c
00000000 l    df *ABS*	00000000 vfprintf.c
00055380 l     O .rodata	00000010 zeroes.0
00055390 l     O .rodata	00000010 blanks.1
00000000 l    df *ABS*	00000000 vfprintf.c
000553a0 l     O .rodata	00000010 zeroes.0
000474d4 l     F .text	000000c4 __sbprintf
000553b0 l     O .rodata	00000010 blanks.1
00000000 l    df *ABS*	00000000 wsetup.c
00000000 l    df *ABS*	00000000 dtoa.c
000476e4 l     F .text	00000218 quorem
00000000 l    df *ABS*	00000000 fflush.c
00000000 l    df *ABS*	00000000 findfp.c
000493d0 l     F .text	00000008 __fp_lock
000493e4 l     F .text	00000008 __fp_unlock
000493ec l     F .text	00000168 __sinit.part.0
00000000 l    df *ABS*	00000000 mallocr.c
00000000 l    df *ABS*	00000000 fwalk.c
00000000 l    df *ABS*	00000000 int_errno.c
00000000 l    df *ABS*	00000000 localeconv.c
00000000 l    df *ABS*	00000000 makebuf.c
00000000 l    df *ABS*	00000000 memchr.c
00000000 l    df *ABS*	00000000 mprec.c
00055464 l     O .rodata	0000000c p05.0
00000000 l    df *ABS*	00000000 stdio.c
00000000 l    df *ABS*	00000000 strlen.c
00000000 l    df *ABS*	00000000 vfprintf.c
00055588 l     O .rodata	00000010 zeroes.0
00055598 l     O .rodata	00000010 blanks.1
00000000 l    df *ABS*	00000000 vfprintf.c
0004c598 l     F .text	000000f4 __sprint_r.part.0
000555a8 l     O .rodata	00000010 zeroes.0
0004d940 l     F .text	000000c4 __sbprintf
000555b8 l     O .rodata	00000010 blanks.1
00000000 l    df *ABS*	00000000 writer.c
00000000 l    df *ABS*	00000000 closer.c
00000000 l    df *ABS*	00000000 assert.c
00000000 l    df *ABS*	00000000 mallocr.c
00000000 l    df *ABS*	00000000 errno.c
00000000 l    df *ABS*	00000000 fclose.c
00000000 l    df *ABS*	00000000 fiprintf.c
00000000 l    df *ABS*	00000000 fputwc.c
00000000 l    df *ABS*	00000000 fstatr.c
00000000 l    df *ABS*	00000000 fvwrite.c
00000000 l    df *ABS*	00000000 isattyr.c
00000000 l    df *ABS*	00000000 locale.c
00000000 l    df *ABS*	00000000 lseekr.c
00000000 l    df *ABS*	00000000 mbtowc_r.c
00000000 l    df *ABS*	00000000 memmove.c
00000000 l    df *ABS*	00000000 readr.c
00000000 l    df *ABS*	00000000 mallocr.c
00000000 l    df *ABS*	00000000 strcmp.c
00000000 l    df *ABS*	00000000 vfiprintfr_1.c
00000000 l    df *ABS*	00000000 wbuf.c
00000000 l    df *ABS*	00000000 wcrtomb.c
00000000 l    df *ABS*	00000000 wctomb_r.c
00000000 l    df *ABS*	00000000 abort.c
00000000 l    df *ABS*	00000000 ctype_.c
00000000 l    df *ABS*	00000000 signal.c
00000000 l    df *ABS*	00000000 signalr.c
00000000 l    df *ABS*	00000000 libgcc2.c
00000000 l    df *ABS*	00000000 libgcc2.c
00000000 l    df *ABS*	00000000 divdf3.c
00000000 l    df *ABS*	00000000 eqdf2.c
00000000 l    df *ABS*	00000000 gedf2.c
00000000 l    df *ABS*	00000000 ledf2.c
00000000 l    df *ABS*	00000000 muldf3.c
00000000 l    df *ABS*	00000000 subdf3.c
00000000 l    df *ABS*	00000000 unorddf2.c
00000000 l    df *ABS*	00000000 floatsidf.c
00000000 l    df *ABS*	00000000 floatunsidf.c
00000000 l    df *ABS*	00000000 alt_close.c
00052104 l     F .text	0000003c alt_get_errno
00000000 l    df *ABS*	00000000 alt_dev.c
0005221c l     F .text	0000002c alt_dev_null_write
00000000 l    df *ABS*	00000000 alt_errno.c
00000000 l    df *ABS*	00000000 alt_exit.c
00000000 l    df *ABS*	00000000 alt_fstat.c
00052284 l     F .text	0000003c alt_get_errno
00000000 l    df *ABS*	00000000 alt_getchar.c
00000000 l    df *ABS*	00000000 alt_getpid.c
00000000 l    df *ABS*	00000000 alt_irq_register.c
00000000 l    df *ABS*	00000000 alt_irq_vars.c
00000000 l    df *ABS*	00000000 alt_isatty.c
00052544 l     F .text	0000003c alt_get_errno
00000000 l    df *ABS*	00000000 alt_kill.c
00052630 l     F .text	0000003c alt_get_errno
00000000 l    df *ABS*	00000000 alt_load.c
0005275c l     F .text	00000068 alt_load_section
00000000 l    df *ABS*	00000000 alt_lseek.c
00052848 l     F .text	0000003c alt_get_errno
00000000 l    df *ABS*	00000000 alt_main.c
00000000 l    df *ABS*	00000000 alt_malloc_lock.c
00000000 l    df *ABS*	00000000 alt_putstr.c
00000000 l    df *ABS*	00000000 alt_read.c
00052a64 l     F .text	0000003c alt_get_errno
00000000 l    df *ABS*	00000000 alt_release_fd.c
00000000 l    df *ABS*	00000000 alt_sbrk.c
000574d8 l     O .rwdata	00000004 heap_end
00000000 l    df *ABS*	00000000 alt_write.c
00052cd0 l     F .text	0000003c alt_get_errno
00000000 l    df *ABS*	00000000 alt_sys_init.c
00052e10 l     F .text	00000034 alt_dev_reg
00056420 l     O .rwdata	00001060 jtag_uart
00057480 l     O .rwdata	0000002c accelerometer_spi
00000000 l    df *ABS*	00000000 altera_avalon_jtag_uart_fd.c
00000000 l    df *ABS*	00000000 altera_avalon_jtag_uart_init.c
00053108 l     F .text	00000218 altera_avalon_jtag_uart_irq
00053320 l     F .text	000000a8 altera_avalon_jtag_uart_timeout
00000000 l    df *ABS*	00000000 altera_avalon_jtag_uart_ioctl.c
00000000 l    df *ABS*	00000000 altera_avalon_jtag_uart_read.c
00000000 l    df *ABS*	00000000 altera_avalon_jtag_uart_write.c
00000000 l    df *ABS*	00000000 altera_avalon_timer_sc.c
0005396c l     F .text	00000080 alt_avalon_timer_sc_irq
00000000 l    df *ABS*	00000000 altera_up_avalon_accelerometer_spi.c
00000000 l    df *ABS*	00000000 alt_alarm_start.c
00000000 l    df *ABS*	00000000 alt_dcache_flush_all.c
00000000 l    df *ABS*	00000000 alt_dev_llist_insert.c
00053fb4 l     F .text	0000003c alt_get_errno
00000000 l    df *ABS*	00000000 alt_do_ctors.c
00000000 l    df *ABS*	00000000 alt_do_dtors.c
00000000 l    df *ABS*	00000000 alt_find_dev.c
00000000 l    df *ABS*	00000000 alt_icache_flush_all.c
00000000 l    df *ABS*	00000000 alt_io_redirect.c
00054210 l     F .text	000000d4 alt_open_fd
00000000 l    df *ABS*	00000000 alt_open.c
00054360 l     F .text	0000003c alt_get_errno
0005439c l     F .text	000000dc alt_file_locked
00000000 l    df *ABS*	00000000 alt_tick.c
00000000 l    df *ABS*	00000000 altera_nios2_gen2_irq.c
00000000 l    df *ABS*	00000000 alt_find_file.c
00000000 l    df *ABS*	00000000 alt_get_fd.c
00000000 l    df *ABS*	00000000 atexit.c
00000000 l    df *ABS*	00000000 exit.c
00000000 l    df *ABS*	00000000 fputs.c
00000000 l    df *ABS*	00000000 getchar.c
00000000 l    df *ABS*	00000000 memcmp.c
00000000 l    df *ABS*	00000000 __atexit.c
00000000 l    df *ABS*	00000000 __call_atexit.c
00000000 l    df *ABS*	00000000 getc.c
00000000 l    df *ABS*	00000000 rget.c
00000000 l    df *ABS*	00000000 refill.c
00054f34 l     F .text	0000001c lflush
00059120 g     O .bss	00000004 alt_instruction_exception_handler
0004b0a8 g     F .text	00000070 _mprec_log10
0004b194 g     F .text	00000060 __any_on
0004e514 g     F .text	00000058 _isatty_r
00055470 g     O .rodata	00000028 __mprec_tinytens
00052964 g     F .text	0000007c alt_main
0004031c g     F .text	00000034 led_write
0005914c g     O .bss	00000100 alt_irq
0004e660 g     F .text	00000064 _lseek_r
00040264 g     F .text	0000006c float_to_fixed
000574e4 g       *ABS*	00000000 __flash_rwdata_start
00050b3c g     F .text	00000094 .hidden __eqdf2
0005924c g       *ABS*	00000000 __alt_heap_start
000402d0 g     F .text	0000004c fixed_to_float
0004f6b8 g     F .text	00000060 _kill_r
00042b48 g     F .text	00000038 printf
0004f0b0 g     F .text	0000006c _wcrtomb_r
0004f254 g     F .text	00000090 _signal_r
0004b2d0 g     F .text	0000005c __sseek
00049714 g     F .text	00000010 __sinit
0004ef50 g     F .text	00000148 __swbuf_r
0004e56c g     F .text	00000074 _setlocale_r
00049554 g     F .text	00000078 __sfmoreglue
00052a04 g     F .text	00000024 __malloc_unlock
000408d4 g     F .text	000000e8 round
00040b98 g     F .text	00000418 .hidden __divsf3
0004e714 g     F .text	00000128 memmove
00049700 g     F .text	00000014 _cleanup
0004a010 g     F .text	000000a4 _Balloc
000413cc g     F .text	00000070 .hidden __fixsfsi
000403e0 g     F .text	000000cc sys_timer_isr
00040710 g     F .text	0000008c read_chars
00052a28 g     F .text	0000003c alt_putstr
00050bd0 g     F .text	000000fc .hidden __gtdf2
000547a8 g     F .text	00000024 altera_nios2_gen2_irq_init
0004dca0 g     F .text	0000000c __errno
00040000 g     F .entry	0000000c __reset
00049cc8 g     F .text	00000008 __localeconv_l
00053bb8 g     F .text	000000d4 alt_up_accelerometer_spi_read_x_axis
00040020 g       *ABS*	00000000 __flash_exceptions_start
0004e00c g     F .text	00000060 _fstat_r
000590fc g     O .bss	00000004 errno
00054eb8 g     F .text	0000007c __srget
0004b248 g     F .text	00000008 __seofread
0004b59c g     F .text	00000ffc ___svfiprintf_internal_r
0005910c g     O .bss	00000004 alt_argv
0005f4ac g       *ABS*	00000000 _gp
00040650 g     F .text	000000c0 generate_text
000523a4 g     F .text	00000020 getpid
000562a0 g     O .rwdata	00000180 alt_fd_list
00054d38 g     F .text	0000007c _getc_r
00054db4 g     F .text	00000090 getc
00054160 g     F .text	00000090 alt_find_dev
000428d8 g     F .text	00000100 memcpy
000493d8 g     F .text	0000000c _cleanup_r
00051fbc g     F .text	000000b8 .hidden __floatsidf
000542e4 g     F .text	0000007c alt_io_redirect
00050ccc g     F .text	000000f8 .hidden __ltdf2
00055108 g       *ABS*	00000000 __DTOR_END__
0005498c g     F .text	00000074 alt_exception_cause_generated_bad_addr
0004b004 g     F .text	000000a4 __ratio
0004d924 g     F .text	0000001c __vfiprintf_internal
00053524 g     F .text	00000220 altera_avalon_jtag_uart_read
00042104 g     F .text	00000010 malloc
00042b18 g     F .text	00000030 _printf_r
00040ab0 g     F .text	00000064 .hidden __udivsi3
00052580 g     F .text	000000b0 isatty
0004f2e4 g     F .text	000000b0 _raise_r
0004dac0 g     F .text	00000064 __assert_func
000554c0 g     O .rodata	000000c8 __mprec_tens
000590f8 g     O .bss	00000004 __malloc_top_pad
0004f718 g     F .text	00000004 _getpid_r
00049cd0 g     F .text	0000000c _localeconv_r
0004e06c g     F .text	000004a8 __sfvwrite_r
0004a488 g     F .text	000000b0 __i2b
0004f394 g     F .text	000000bc __sigtramp_r
00042b80 g     F .text	00000058 _sbrk_r
0004e83c g     F .text	00000064 _read_r
000574cc g     O .rwdata	00000004 alt_max_fd
0004dcac g     F .text	000000f8 _fclose_r
0004934c g     F .text	00000084 fflush
000590f4 g     O .bss	00000004 __malloc_max_sbrked_mem
000523c4 g     F .text	00000180 alt_irq_register
00041ee8 g     F .text	000000fc .hidden __extendsfdf2
00041564 g     F .text	00000904 .hidden __adddf3
0004adac g     F .text	00000100 __b2d
0004fcf4 g     F .text	0000055c .hidden __umoddi3
00052884 g     F .text	000000e0 lseek
000574ac g     O .rwdata	00000004 _global_impure_ptr
0004e8a0 g     F .text	000005f4 _realloc_r
0005924c g       *ABS*	00000000 __bss_end
0005237c g     F .text	00000028 alt_getchar
0005467c g     F .text	0000012c alt_tick
0004f71c g     F .text	000005d8 .hidden __udivdi3
0004df70 g     F .text	00000024 _fputwc_r
00055498 g     O .rodata	00000028 __mprec_bigtens
0004a22c g     F .text	00000138 __s2b
0004f1e0 g     F .text	00000018 abort
00052074 g     F .text	00000090 .hidden __floatunsidf
0004aac4 g     F .text	00000058 __mcmp
00049734 g     F .text	00000014 __fp_lock_all
000545d8 g     F .text	000000a4 alt_alarm_stop
00059104 g     O .bss	00000004 alt_irq_active
000400fc g     F .exceptions	000000cc alt_irq_handler
00056278 g     O .rwdata	00000028 alt_dev_null
00053f94 g     F .text	00000020 alt_dcache_flush_all
0004a364 g     F .text	00000074 __hi0bits
00041e68 g     F .text	00000080 .hidden __fixdfsi
000405d4 g     F .text	0000007c print_text
000574e4 g       *ABS*	00000000 __ram_rwdata_end
000404ac g     F .text	0000007c timer_init
00040000 g       *ABS*	00000000 __alt_mem_onchip_memory
000574c4 g     O .rwdata	00000008 alt_dev_list
00052d0c g     F .text	00000104 write
000558e0 g       *ABS*	00000000 __ram_rodata_end
000522c0 g     F .text	000000bc fstat
0005266c g     F .text	000000f0 kill
00050ccc g     F .text	000000f8 .hidden __ledf2
0004a7fc g     F .text	00000140 __pow5mult
000590e9 g     O .bss	00000001 led
0004c6a4 g     F .text	00001280 ___vfiprintf_internal_r
00040b14 g     F .text	0000005c .hidden __umodsi3
0005924c g       *ABS*	00000000 end
00053054 g     F .text	000000b4 altera_avalon_jtag_uart_init
000401c8 g     F .exceptions	00000060 alt_instruction_exception_entry
00055108 g       *ABS*	00000000 __CTOR_LIST__
000649f0 g       *ABS*	00000000 __alt_stack_pointer
000539ec g     F .text	0000007c alt_avalon_timer_sc_init
00041fe4 g     F .text	00000050 .hidden __clzsi2
00053744 g     F .text	00000228 altera_avalon_jtag_uart_write
00042034 g     F .text	00000060 _asprintf_r
00049724 g     F .text	00000004 __sfp_lock_acquire
00049f14 g     F .text	000000fc memchr
00045008 g     F .text	000024b0 ___vfprintf_internal_r
00049880 g     F .text	00000308 _free_r
0005571c g     O .rodata	00000180 _ctype_b
0004e5e0 g     F .text	0000000c __locale_mb_cur_max
00054e44 g     F .text	00000074 __srget_r
00054c18 g     F .text	00000120 __call_exitprocs
000574b4 g     O .rwdata	00000004 __malloc_sbrk_base
00040228 g     F .text	0000003c _start
000590ec g     O .bss	00000004 level
00059114 g     O .bss	00000004 _alt_tick_rate
0004a93c g     F .text	00000188 __lshift
00059118 g     O .bss	00000008 _alt_nticks
0004f504 g     F .text	00000098 signal
00052aa0 g     F .text	00000108 read
00052e80 g     F .text	00000070 alt_sys_init
00053aa4 g     F .text	00000044 alt_up_accelerometer_spi_read_address_register
0004143c g     F .text	00000128 .hidden __floatsisf
0004b3cc g     F .text	000001d0 __ssprint_r
00054b88 g     F .text	00000090 __register_exitproc
0004a538 g     F .text	000002c4 __multiply
000533c8 g     F .text	00000068 altera_avalon_jtag_uart_close
00040b70 g     F .text	00000028 .hidden __mulsi3
000558e0 g       *ABS*	00000000 __ram_rwdata_start
00055108 g       *ABS*	00000000 __ram_rodata_start
00059124 g     O .bss	00000028 __malloc_current_mallinfo
0004aeac g     F .text	00000158 __d2b
00052ef0 g     F .text	00000060 altera_avalon_jtag_uart_read_fd
000548d4 g     F .text	000000b8 alt_get_fd
00053c8c g     F .text	000000d4 alt_up_accelerometer_spi_read_y_axis
0004da68 g     F .text	00000058 _close_r
00054b10 g     F .text	00000078 memcmp
00052fb0 g     F .text	00000050 altera_avalon_jtag_uart_close_fd
0005924c g       *ABS*	00000000 __alt_stack_base
00053000 g     F .text	00000054 altera_avalon_jtag_uart_ioctl_fd
00047598 g     F .text	0000014c __swsetup_r
00050250 g     F .text	000008ec .hidden __divdf3
000495cc g     F .text	00000134 __sfp
0004b118 g     F .text	0000007c __copybits
00055d04 g     O .rwdata	00000408 __malloc_av_
00049730 g     F .text	00000004 __sinit_lock_release
00050dc4 g     F .text	00000808 .hidden __muldf3
0004b1f4 g     F .text	00000054 __sread
000547cc g     F .text	00000108 alt_find_file
00053ff0 g     F .text	000000a8 alt_dev_llist_insert
000529e0 g     F .text	00000024 __malloc_lock
00052c18 g     F .text	000000b8 sbrk
00042bd8 g     F .text	00002430 ___svfprintf_internal_r
000492ec g     F .text	00000060 _fflush_r
0004db38 g     F .text	00000168 _calloc_r
000590e8 g       *ABS*	00000000 __bss_start
000429d8 g     F .text	00000140 memset
0004079c g     F .text	00000138 main
00059110 g     O .bss	00000004 alt_envp
000590f0 g     O .bss	00000004 __malloc_max_total_mem
00052f50 g     F .text	00000060 altera_avalon_jtag_uart_write_fd
0004f098 g     F .text	00000018 __swbuf
0004b32c g     F .text	00000008 __sclose
000649f0 g       *ABS*	00000000 __alt_heap_limit
0004dda4 g     F .text	00000010 fclose
00054b00 g     F .text	00000010 getchar
000478fc g     F .text	000017e8 _dtoa_r
00042124 g     F .text	000007b4 _malloc_r
0004f1b0 g     F .text	00000030 __ascii_wctomb
000574d0 g     O .rwdata	00000004 alt_errno
0004ddb4 g     F .text	00000020 _fiprintf_r
0004f59c g     F .text	00000060 _init_signal
00049b88 g     F .text	00000098 _fwalk
0004e6c4 g     F .text	0000000c _mbtowc_r
000409bc g     F .text	00000080 .hidden __divsi3
0004975c g     F .text	00000124 _malloc_trim_r
00055108 g       *ABS*	00000000 __CTOR_END__
00040fb0 g     F .text	0000041c .hidden __mulsf3
0004ee94 g     F .text	000000b8 strcmp
00055108 g       *ABS*	00000000 __flash_rodata_start
00055108 g       *ABS*	00000000 __DTOR_LIST__
00050b3c g     F .text	00000094 .hidden __nedf2
00052e44 g     F .text	0000003c alt_irq_init
00052ba8 g     F .text	00000070 alt_release_fd
0005523c g     O .rodata	00000100 .hidden __clz_tab
00042094 g     F .text	00000070 asprintf
00059100 g     O .bss	00000004 _PathLocale
00054a00 g     F .text	00000014 atexit
0004da04 g     F .text	00000064 _write_r
0004e5ec g     F .text	00000074 setlocale
000574b0 g     O .rwdata	00000004 _impure_ptr
00059108 g     O .bss	00000004 alt_argc
000490e4 g     F .text	00000208 __sflush_r
000540fc g     F .text	00000064 _do_dtors
00054f50 g     F .text	000001b8 __srefill_r
00040020 g       .exceptions	00000000 alt_irq_entry
0004e6d0 g     F .text	00000044 __ascii_mbtowc
0004ad4c g     F .text	00000060 __ulp
00049748 g     F .text	00000014 __fp_unlock_all
000590e8 g     O .bss	00000001 pwm
000574bc g     O .rwdata	00000008 alt_fs_list
00040020 g       *ABS*	00000000 __ram_exceptions_start
00053a68 g     F .text	0000003c alt_up_accelerometer_spi_open_dev
00049cdc g     F .text	0000000c localeconv
00049e88 g     F .text	0000008c __swhatbuf_r
000574e4 g       *ABS*	00000000 _edata
0005924c g       *ABS*	00000000 _end
00054af8 g     F .text	00000008 _getchar_r
0004de0c g     F .text	00000164 __fputwc
00040228 g       *ABS*	00000000 __ram_exceptions_end
00053430 g     F .text	000000f4 altera_avalon_jtag_uart_ioctl
00054a48 g     F .text	00000098 _fputs_r
0004b250 g     F .text	00000080 __swrite
000574b8 g     O .rwdata	00000004 __malloc_trim_threshold
00054a14 g     F .text	00000034 exit
0004ddd4 g     F .text	00000038 fiprintf
0004ef4c g     F .text	00000004 _vfiprintf_r
00049c20 g     F .text	000000a8 _fwalk_reent
0004ab1c g     F .text	00000230 __mdiff
00040a3c g     F .text	00000074 .hidden __modsi3
00053d60 g     F .text	000000d4 alt_up_accelerometer_spi_read_z_axis
000649f0 g       *ABS*	00000000 __alt_data_end
00040020 g     F .exceptions	00000000 alt_exception
00049728 g     F .text	00000004 __sfp_lock_release
00055618 g     O .rodata	00000101 _ctype_
00051f68 g     F .text	00000054 .hidden __unorddf2
00040350 g     F .text	00000090 convert_read
00052248 g     F .text	0000003c _exit
00053e34 g     F .text	00000160 alt_alarm_start
00053ae8 g     F .text	00000068 alt_up_accelerometer_spi_read
00053b50 g     F .text	00000068 alt_up_accelerometer_spi_write
00049ce8 g     F .text	000001a0 __smakebuf_r
0004b334 g     F .text	00000098 strlen
0004f1f8 g     F .text	0000005c _init_signal_r
00054478 g     F .text	00000160 open
00050bd0 g     F .text	000000fc .hidden __gedf2
0004db24 g     F .text	00000014 __assert
0004c68c g     F .text	00000018 __sprint_r
000541f0 g     F .text	00000020 alt_icache_flush_all
00054ae0 g     F .text	00000018 fputs
000574d4 g     O .rwdata	00000004 alt_priority_mask
00040528 g     F .text	000000ac FIR
000474b8 g     F .text	0000001c __vfprintf_internal
0004f1a4 g     F .text	0000000c _wctomb_r
000515cc g     F .text	0000099c .hidden __subdf3
0004a3d8 g     F .text	000000b0 __lo0bits
000574dc g     O .rwdata	00000008 alt_alarm_list
00054098 g     F .text	00000064 _do_ctors
0004f5fc g     F .text	000000bc __sigtramp
0004f11c g     F .text	00000088 wcrtomb
00052140 g     F .text	000000dc close
0005610c g     O .rwdata	0000016c __global_locale
000527c4 g     F .text	00000084 alt_load
0004df94 g     F .text	00000078 fputwc
0004f450 g     F .text	000000b4 raise
00042114 g     F .text	00000010 free
0004972c g     F .text	00000004 __sinit_lock_acquire
0004a0d8 g     F .text	00000154 __multadd
0004a0b4 g     F .text	00000024 _Bfree



Disassembly of section .entry:

00040000 <__reset>:
 * Jump to the _start entry point in the .text section if reset code
 * is allowed or if optimizing for RTL simulation.
 */
#if defined(ALT_ALLOW_CODE_AT_RESET) || defined(ALT_SIM_OPTIMIZE)
    /* Jump to the _start entry point in the .text section. */
    movhi r1, %hi(_start)
   40000:	00400134 	movhi	at,4
    ori r1, r1, %lo(_start)
   40004:	08408a14 	ori	at,at,552
    jmp r1
   40008:	0800683a 	jmp	at
	...

Disassembly of section .exceptions:

00040020 <alt_exception>:

#else /* ALT_EXCEPTION_STACK disabled */
        /* 
         * Reserve space on normal stack for registers about to be pushed.
         */
        addi  sp, sp, -76
   40020:	deffed04 	addi	sp,sp,-76
         * documentation for details).
         *
         * Leave a gap in the stack frame at 4(sp) for the muldiv handler to
         * store zero into.
         */
        stw   ra,  0(sp)
   40024:	dfc00015 	stw	ra,0(sp)
        stw   r1,   8(sp)
   40028:	d8400215 	stw	at,8(sp)
        stw   r2,  12(sp)
   4002c:	d8800315 	stw	r2,12(sp)
        stw   r3,  16(sp)
   40030:	d8c00415 	stw	r3,16(sp)
        stw   r4,  20(sp)
   40034:	d9000515 	stw	r4,20(sp)
        stw   r5,  24(sp)
   40038:	d9400615 	stw	r5,24(sp)
        stw   r6,  28(sp)
   4003c:	d9800715 	stw	r6,28(sp)
        stw   r7,  32(sp)
   40040:	d9c00815 	stw	r7,32(sp)
        rdctl r5, estatus   /* Read early to avoid usage stall */
   40044:	000b307a 	rdctl	r5,estatus
        stw   r8,  36(sp)
   40048:	da000915 	stw	r8,36(sp)
        stw   r9,  40(sp)
   4004c:	da400a15 	stw	r9,40(sp)
        stw   r10, 44(sp)
   40050:	da800b15 	stw	r10,44(sp)
        stw   r11, 48(sp)
   40054:	dac00c15 	stw	r11,48(sp)
        stw   r12, 52(sp)
   40058:	db000d15 	stw	r12,52(sp)
        stw   r13, 56(sp)
   4005c:	db400e15 	stw	r13,56(sp)
        stw   r14, 60(sp)
   40060:	db800f15 	stw	r14,60(sp)
        stw   r15, 64(sp)
   40064:	dbc01015 	stw	r15,64(sp)
        /*
         * ea-4 contains the address of the instruction being executed
         * when the exception occured. For interrupt exceptions, we will
         * will be re-issue the isntruction. Store it in 72(sp)
         */
        stw   r5,  68(sp)  /* estatus */
   40068:	d9401115 	stw	r5,68(sp)
        addi  r15, ea, -4  /* instruction that caused exception */
   4006c:	ebffff04 	addi	r15,ea,-4
        stw   r15,  72(sp)
   40070:	dbc01215 	stw	r15,72(sp)
#else
        /*
         * Test to see if the exception was a software exception or caused 
         * by an external interrupt, and vector accordingly.
         */
        rdctl r4, ipending
   40074:	0009313a 	rdctl	r4,ipending
        andi  r2, r5, 1
   40078:	2880004c 	andi	r2,r5,1
        beq   r2, zero, .Lnot_irq
   4007c:	10000326 	beq	r2,zero,4008c <alt_exception+0x6c>
        beq   r4, zero, .Lnot_irq
   40080:	20000226 	beq	r4,zero,4008c <alt_exception+0x6c>
        /*
         * Now that all necessary registers have been preserved, call 
         * alt_irq_handler() to process the interrupts.
         */

        call alt_irq_handler
   40084:	00400fc0 	call	400fc <alt_irq_handler>

        .section .exceptions.irqreturn, "xa"

        br    .Lexception_exit
   40088:	00000706 	br	400a8 <alt_exception+0x88>
         * upon completion, so we write ea (address of instruction *after*
         * the one where the exception occured) into 72(sp). The actual
         * instruction that caused the exception is written in r2, which these
         * handlers will utilize.
         */
        stw ea, 72(sp) /* EA is PC+4 so will skip over instruction causing exception */
   4008c:	df401215 	stw	ea,72(sp)
.Lunknown_16bit:
        addi.n r4, r4, 2 /* Need PC+2 to skip over instruction causing exception */
        stw r4, 72(sp)

#else /* CDX is not Enabled and all instructions are 32bits */
        ldw r2, -4(ea) /* Instruction value that caused exception */
   40090:	e8bfff17 	ldw	r2,-4(ea)
   40094:	e93fff04 	addi	r4,ea,-4
   40098:	00401c80 	call	401c8 <alt_instruction_exception_entry>
   4009c:	1000021e 	bne	r2,zero,400a8 <alt_exception+0x88>
   400a0:	ebffff04 	addi	r15,ea,-4
   400a4:	dbc01215 	stw	r15,72(sp)
        /* 
         * Restore the saved registers, so that all general purpose registers 
         * have been restored to their state at the time the interrupt occured.
         */

        ldw   r5,  68(sp)
   400a8:	d9401117 	ldw	r5,68(sp)
        ldw   ea,  72(sp)  /* This becomes the PC once eret is executed */
   400ac:	df401217 	ldw	ea,72(sp)
        ldw   ra,   0(sp)
   400b0:	dfc00017 	ldw	ra,0(sp)

        wrctl estatus, r5
   400b4:	2801707a 	wrctl	estatus,r5

        ldw   r1,   8(sp)
   400b8:	d8400217 	ldw	at,8(sp)
        ldw   r2,  12(sp)
   400bc:	d8800317 	ldw	r2,12(sp)
        ldw   r3,  16(sp)
   400c0:	d8c00417 	ldw	r3,16(sp)
        ldw   r4,  20(sp)
   400c4:	d9000517 	ldw	r4,20(sp)
        ldw   r5,  24(sp)
   400c8:	d9400617 	ldw	r5,24(sp)
        ldw   r6,  28(sp)
   400cc:	d9800717 	ldw	r6,28(sp)
        ldw   r7,  32(sp)
   400d0:	d9c00817 	ldw	r7,32(sp)

#if defined(ALT_EXCEPTION_STACK) && defined(ALT_STACK_CHECK)
        ldw   et, %gprel(alt_exception_old_stack_limit)(gp)
#endif

        ldw   r8,  36(sp)
   400d4:	da000917 	ldw	r8,36(sp)
        ldw   r9,  40(sp)
   400d8:	da400a17 	ldw	r9,40(sp)
        ldw   r10, 44(sp)
   400dc:	da800b17 	ldw	r10,44(sp)
        ldw   r11, 48(sp)
   400e0:	dac00c17 	ldw	r11,48(sp)
        ldw   r12, 52(sp)
   400e4:	db000d17 	ldw	r12,52(sp)
        ldw   r13, 56(sp)
   400e8:	db400e17 	ldw	r13,56(sp)
        ldw   r14, 60(sp)
   400ec:	db800f17 	ldw	r14,60(sp)
        ldw   r15, 64(sp)
   400f0:	dbc01017 	ldw	r15,64(sp)
        stw   et, %gprel(alt_stack_limit_value)(gp)
        stw   zero, %gprel(alt_exception_old_stack_limit)(gp)
#endif /* ALT_STACK_CHECK */
        ldw   sp,  76(sp)
#else /* ALT_EXCEPTION_STACK disabled */
        addi  sp, sp, 76
   400f4:	dec01304 	addi	sp,sp,76

        /*
         * Return to the interrupted instruction.
         */

        eret
   400f8:	ef80083a 	eret

000400fc <alt_irq_handler>:
 * instruction is present if the macro ALT_CI_INTERRUPT_VECTOR defined.
 */

void alt_irq_handler (void) __attribute__ ((section (".exceptions")));
void alt_irq_handler (void)
{
   400fc:	defff904 	addi	sp,sp,-28
   40100:	dfc00615 	stw	ra,24(sp)
   40104:	df000515 	stw	fp,20(sp)
   40108:	df000504 	addi	fp,sp,20
  
  /*
   * Notify the operating system that we are at interrupt level.
   */ 
  
  ALT_OS_INT_ENTER();
   4010c:	0001883a 	nop
#ifndef NIOS2_EIC_PRESENT
static ALT_INLINE alt_u32 ALT_ALWAYS_INLINE alt_irq_pending (void)
{
  alt_u32 active;

  NIOS2_READ_IPENDING (active);
   40110:	0005313a 	rdctl	r2,ipending
   40114:	e0bffc15 	stw	r2,-16(fp)

  return active;
   40118:	e0bffc17 	ldw	r2,-16(fp)
   * Consider the case where the high priority interupt is asserted during
   * the interrupt entry sequence for a lower priority interrupt to see why
   * this is the case.
   */

  active = alt_irq_pending ();
   4011c:	e0bfff15 	stw	r2,-4(fp)

  do
  {
    i = 0;
   40120:	e03ffd15 	stw	zero,-12(fp)
    mask = 1;
   40124:	00800044 	movi	r2,1
   40128:	e0bffe15 	stw	r2,-8(fp)
     * called to clear the interrupt condition.
     */

    do
    {
      if (active & mask)
   4012c:	e0ffff17 	ldw	r3,-4(fp)
   40130:	e0bffe17 	ldw	r2,-8(fp)
   40134:	1884703a 	and	r2,r3,r2
   40138:	10001226 	beq	r2,zero,40184 <alt_irq_handler+0x88>
      { 
#ifdef ALT_ENHANCED_INTERRUPT_API_PRESENT
        alt_irq[i].handler(alt_irq[i].context); 
#else
        alt_irq[i].handler(alt_irq[i].context, i); 
   4013c:	e0bffd17 	ldw	r2,-12(fp)
   40140:	100690fa 	slli	r3,r2,3
   40144:	008001b4 	movhi	r2,6
   40148:	1885883a 	add	r2,r3,r2
   4014c:	10e45317 	ldw	r3,-28340(r2)
   40150:	e0bffd17 	ldw	r2,-12(fp)
   40154:	100890fa 	slli	r4,r2,3
   40158:	008001b4 	movhi	r2,6
   4015c:	2085883a 	add	r2,r4,r2
   40160:	10a45417 	ldw	r2,-28336(r2)
   40164:	e17ffd17 	ldw	r5,-12(fp)
   40168:	1009883a 	mov	r4,r2
   4016c:	183ee83a 	callr	r3
#endif
        break;
   40170:	0001883a 	nop
  NIOS2_READ_IPENDING (active);
   40174:	0005313a 	rdctl	r2,ipending
   40178:	e0bffb15 	stw	r2,-20(fp)
  return active;
   4017c:	e0bffb17 	ldw	r2,-20(fp)
   40180:	00000706 	br	401a0 <alt_irq_handler+0xa4>
      }
      mask <<= 1;
   40184:	e0bffe17 	ldw	r2,-8(fp)
   40188:	1085883a 	add	r2,r2,r2
   4018c:	e0bffe15 	stw	r2,-8(fp)
      i++;
   40190:	e0bffd17 	ldw	r2,-12(fp)
   40194:	10800044 	addi	r2,r2,1
   40198:	e0bffd15 	stw	r2,-12(fp)
      if (active & mask)
   4019c:	003fe306 	br	4012c <alt_irq_handler+0x30>

    } while (1);

    active = alt_irq_pending ();
   401a0:	e0bfff15 	stw	r2,-4(fp)
    
  } while (active);
   401a4:	e0bfff17 	ldw	r2,-4(fp)
   401a8:	103fdd1e 	bne	r2,zero,40120 <alt_irq_handler+0x24>

  /*
   * Notify the operating system that interrupt processing is complete.
   */ 

  ALT_OS_INT_EXIT();
   401ac:	0001883a 	nop
}
   401b0:	0001883a 	nop
   401b4:	e037883a 	mov	sp,fp
   401b8:	dfc00117 	ldw	ra,4(sp)
   401bc:	df000017 	ldw	fp,0(sp)
   401c0:	dec00204 	addi	sp,sp,8
   401c4:	f800283a 	ret

000401c8 <alt_instruction_exception_entry>:
 * that handler if it has been registered. Absent a handler, it will
 * break break or hang as discussed below.
 */
int 
alt_instruction_exception_entry (alt_u32 exception_pc)
{
   401c8:	defffb04 	addi	sp,sp,-20
   401cc:	dfc00415 	stw	ra,16(sp)
   401d0:	df000315 	stw	fp,12(sp)
   401d4:	df000304 	addi	fp,sp,12
   401d8:	e13ffd15 	stw	r4,-12(fp)
  cause = ( (cause & NIOS2_EXCEPTION_REG_CAUSE_MASK) >>
              NIOS2_EXCEPTION_REG_CAUSE_OFST );

  NIOS2_READ_BADADDR(badaddr);
#else
  cause = NIOS2_EXCEPTION_CAUSE_NOT_PRESENT;
   401dc:	00bfffc4 	movi	r2,-1
   401e0:	e0bfff15 	stw	r2,-4(fp)
  badaddr = 0;
   401e4:	e03ffe15 	stw	zero,-8(fp)
#endif /* NIOS2_HAS_EXTRA_EXCEPTION_INFO */

  if(alt_instruction_exception_handler) {
   401e8:	d0a71d17 	ldw	r2,-25484(gp)
   401ec:	10000726 	beq	r2,zero,4020c <alt_instruction_exception_entry+0x44>
     * Call handler. Its return value indicates whether the exception-causing
     * instruction should be re-issued. The code that called us,
     * alt_eceptions_entry.S, will look at this value and adjust the ea
     * register as necessary
     */
    return alt_instruction_exception_handler(cause, exception_pc, badaddr);
   401f0:	d0a71d17 	ldw	r2,-25484(gp)
   401f4:	e0ffff17 	ldw	r3,-4(fp)
   401f8:	e1bffe17 	ldw	r6,-8(fp)
   401fc:	e17ffd17 	ldw	r5,-12(fp)
   40200:	1809883a 	mov	r4,r3
   40204:	103ee83a 	callr	r2
   40208:	00000206 	br	40214 <alt_instruction_exception_entry+0x4c>
   *    (a peripheral which negates its interrupt output before its
   *    interrupt handler has been executed will cause spurious interrupts)
   */
  else {
#ifdef NIOS2_HAS_DEBUG_STUB
    NIOS2_BREAK();
   4020c:	003da03a 	break	0
      ;
#endif /* NIOS2_HAS_DEBUG_STUB */
  }

  /* We should not get here. Remove compiler warning. */
  return NIOS2_EXCEPTION_RETURN_REISSUE_INST;
   40210:	0005883a 	mov	r2,zero
}
   40214:	e037883a 	mov	sp,fp
   40218:	dfc00117 	ldw	ra,4(sp)
   4021c:	df000017 	ldw	fp,0(sp)
   40220:	dec00204 	addi	sp,sp,8
   40224:	f800283a 	ret

Disassembly of section .text:

00040228 <_start>:

    /*
     * Now that the caches are initialized, set up the stack pointer and global pointer.
     * The values provided by the linker are assumed to be correctly aligned.
     */
    movhi sp, %hi(__alt_stack_pointer)
   40228:	06c001b4 	movhi	sp,6
    ori sp, sp, %lo(__alt_stack_pointer)
   4022c:	ded27c14 	ori	sp,sp,18928
    movhi gp, %hi(_gp)
   40230:	06800174 	movhi	gp,5
    ori gp, gp, %lo(_gp)
   40234:	d6bd2b14 	ori	gp,gp,62636
 */
#ifndef ALT_SIM_OPTIMIZE
    /* Log that the BSS is about to be cleared. */
    ALT_LOG_PUTS(alt_log_msg_bss)

    movhi r2, %hi(__bss_start)
   40238:	00800174 	movhi	r2,5
    ori r2, r2, %lo(__bss_start)
   4023c:	10a43a14 	ori	r2,r2,37096

    movhi r3, %hi(__bss_end)
   40240:	00c00174 	movhi	r3,5
    ori r3, r3, %lo(__bss_end)
   40244:	18e49314 	ori	r3,r3,37452

    beq r2, r3, 1f
   40248:	10c00326 	beq	r2,r3,40258 <_start+0x30>

0:
    stw zero, (r2)
   4024c:	10000015 	stw	zero,0(r2)
    addi r2, r2, 4
   40250:	10800104 	addi	r2,r2,4
    bltu r2, r3, 0b
   40254:	10fffd36 	bltu	r2,r3,4024c <_start+0x24>
     * section aren't defined until alt_load() has been called).
     */
    mov   et, zero
#endif

    call alt_load
   40258:	00527c40 	call	527c4 <alt_load>

    /* Log that alt_main is about to be called. */
    ALT_LOG_PUTS(alt_log_msg_alt_main)

    /* Call the C entry point. It should never return. */
    call alt_main
   4025c:	00529640 	call	52964 <alt_main>

00040260 <alt_after_alt_main>:

    /* Wait in infinite loop in case alt_main does return. */
alt_after_alt_main:
    br alt_after_alt_main
   40260:	003fff06 	br	40260 <alt_after_alt_main>

00040264 <float_to_fixed>:


typedef int32_t fixed_32;


fixed_32 float_to_fixed(float x){
   40264:	defffd04 	addi	sp,sp,-12
   40268:	dfc00215 	stw	ra,8(sp)
   4026c:	df000115 	stw	fp,4(sp)
   40270:	df000104 	addi	fp,sp,4
   40274:	e13fff15 	stw	r4,-4(fp)

return (fixed_32)(round(x*(1<<FRACTION_BITS)));
   40278:	0152c034 	movhi	r5,19200
   4027c:	e13fff17 	ldw	r4,-4(fp)
   40280:	0040fb00 	call	40fb0 <__mulsf3>
   40284:	1007883a 	mov	r3,r2
   40288:	1805883a 	mov	r2,r3
   4028c:	1009883a 	mov	r4,r2
   40290:	0041ee80 	call	41ee8 <__extendsfdf2>
   40294:	100d883a 	mov	r6,r2
   40298:	180f883a 	mov	r7,r3
   4029c:	3009883a 	mov	r4,r6
   402a0:	380b883a 	mov	r5,r7
   402a4:	00408d40 	call	408d4 <round>
   402a8:	100d883a 	mov	r6,r2
   402ac:	180f883a 	mov	r7,r3
   402b0:	3009883a 	mov	r4,r6
   402b4:	380b883a 	mov	r5,r7
   402b8:	0041e680 	call	41e68 <__fixdfsi>

}
   402bc:	e037883a 	mov	sp,fp
   402c0:	dfc00117 	ldw	ra,4(sp)
   402c4:	df000017 	ldw	fp,0(sp)
   402c8:	dec00204 	addi	sp,sp,8
   402cc:	f800283a 	ret

000402d0 <fixed_to_float>:


float fixed_to_float(fixed_32 fixed){
   402d0:	defffd04 	addi	sp,sp,-12
   402d4:	dfc00215 	stw	ra,8(sp)
   402d8:	df000115 	stw	fp,4(sp)
   402dc:	df000104 	addi	fp,sp,4
   402e0:	e13fff15 	stw	r4,-4(fp)

return ((float)fixed / (float)(1 << FRACTION_BITS));
   402e4:	e13fff17 	ldw	r4,-4(fp)
   402e8:	004143c0 	call	4143c <__floatsisf>
   402ec:	1007883a 	mov	r3,r2
   402f0:	0152c034 	movhi	r5,19200
   402f4:	1809883a 	mov	r4,r3
   402f8:	0040b980 	call	40b98 <__divsf3>
   402fc:	1007883a 	mov	r3,r2
   40300:	1809883a 	mov	r4,r3
   40304:	2005883a 	mov	r2,r4

}
   40308:	e037883a 	mov	sp,fp
   4030c:	dfc00117 	ldw	ra,4(sp)
   40310:	df000017 	ldw	fp,0(sp)
   40314:	dec00204 	addi	sp,sp,8
   40318:	f800283a 	ret

0004031c <led_write>:

void led_write(alt_u8 led_pattern) {
   4031c:	defffe04 	addi	sp,sp,-8
   40320:	df000115 	stw	fp,4(sp)
   40324:	df000104 	addi	fp,sp,4
   40328:	2005883a 	mov	r2,r4
   4032c:	e0bfff05 	stb	r2,-4(fp)

    IOWR(LED_BASE, 0, led_pattern);
   40330:	e0ffff03 	ldbu	r3,-4(fp)
   40334:	00800234 	movhi	r2,8
   40338:	10c42035 	stwio	r3,4224(r2)
}
   4033c:	0001883a 	nop
   40340:	e037883a 	mov	sp,fp
   40344:	df000017 	ldw	fp,0(sp)
   40348:	dec00104 	addi	sp,sp,4
   4034c:	f800283a 	ret

00040350 <convert_read>:



void convert_read(alt_32 acc_read, int * level, alt_u8 * led) {
   40350:	defffb04 	addi	sp,sp,-20
   40354:	df000415 	stw	fp,16(sp)
   40358:	df000404 	addi	fp,sp,16
   4035c:	e13ffe15 	stw	r4,-8(fp)
   40360:	e17ffd15 	stw	r5,-12(fp)
   40364:	e1bffc15 	stw	r6,-16(fp)

    acc_read += OFFSET;
   40368:	e0bffe17 	ldw	r2,-8(fp)
   4036c:	10bff804 	addi	r2,r2,-32
   40370:	e0bffe15 	stw	r2,-8(fp)

    alt_u8 val = (acc_read >> 6) & 0x07;
   40374:	e0bffe17 	ldw	r2,-8(fp)
   40378:	1005d1ba 	srai	r2,r2,6
   4037c:	108001cc 	andi	r2,r2,7
   40380:	e0bfffc5 	stb	r2,-1(fp)

    * led = (8 >> val) | (8 << (8 - val));
   40384:	e0bfffc3 	ldbu	r2,-1(fp)
   40388:	00c00204 	movi	r3,8
   4038c:	1885d83a 	sra	r2,r3,r2
   40390:	1009883a 	mov	r4,r2
   40394:	e0bfffc3 	ldbu	r2,-1(fp)
   40398:	00c00204 	movi	r3,8
   4039c:	1885c83a 	sub	r2,r3,r2
   403a0:	00c00204 	movi	r3,8
   403a4:	1884983a 	sll	r2,r3,r2
   403a8:	2084b03a 	or	r2,r4,r2
   403ac:	1007883a 	mov	r3,r2
   403b0:	e0bffc17 	ldw	r2,-16(fp)
   403b4:	10c00005 	stb	r3,0(r2)

    * level = (acc_read >> 1) & 0x1f;
   403b8:	e0bffe17 	ldw	r2,-8(fp)
   403bc:	1005d07a 	srai	r2,r2,1
   403c0:	10c007cc 	andi	r3,r2,31
   403c4:	e0bffd17 	ldw	r2,-12(fp)
   403c8:	10c00015 	stw	r3,0(r2)

}
   403cc:	0001883a 	nop
   403d0:	e037883a 	mov	sp,fp
   403d4:	df000017 	ldw	fp,0(sp)
   403d8:	dec00104 	addi	sp,sp,4
   403dc:	f800283a 	ret

000403e0 <sys_timer_isr>:



void sys_timer_isr() {
   403e0:	defffe04 	addi	sp,sp,-8
   403e4:	dfc00115 	stw	ra,4(sp)
   403e8:	df000015 	stw	fp,0(sp)
   403ec:	d839883a 	mov	fp,sp

    IOWR_ALTERA_AVALON_TIMER_STATUS(TIMER_BASE, 0);
   403f0:	0007883a 	mov	r3,zero
   403f4:	00800234 	movhi	r2,8
   403f8:	10c40035 	stwio	r3,4096(r2)
    if (pwm < abs(level)) {
   403fc:	d0a70f03 	ldbu	r2,-25540(gp)
   40400:	10c03fcc 	andi	r3,r2,255
   40404:	18c0201c 	xori	r3,r3,128
   40408:	18ffe004 	addi	r3,r3,-128
   4040c:	d0a71017 	ldw	r2,-25536(gp)
   40410:	1000010e 	bge	r2,zero,40418 <sys_timer_isr+0x38>
   40414:	0085c83a 	sub	r2,zero,r2
   40418:	18800f0e 	bge	r3,r2,40458 <sys_timer_isr+0x78>
        if (level < 0) {
   4041c:	d0a71017 	ldw	r2,-25536(gp)
   40420:	1000060e 	bge	r2,zero,4043c <sys_timer_isr+0x5c>
            led_write(led << 1);
   40424:	d0a70f43 	ldbu	r2,-25539(gp)
   40428:	1085883a 	add	r2,r2,r2
   4042c:	10803fcc 	andi	r2,r2,255
   40430:	1009883a 	mov	r4,r2
   40434:	004031c0 	call	4031c <led_write>
   40438:	00000b06 	br	40468 <sys_timer_isr+0x88>
        }else{
            led_write(led >> 1);
   4043c:	d0a70f43 	ldbu	r2,-25539(gp)
   40440:	10803fcc 	andi	r2,r2,255
   40444:	1004d07a 	srli	r2,r2,1
   40448:	10803fcc 	andi	r2,r2,255
   4044c:	1009883a 	mov	r4,r2
   40450:	004031c0 	call	4031c <led_write>
   40454:	00000406 	br	40468 <sys_timer_isr+0x88>
        	}

    } else {

        led_write(led);
   40458:	d0a70f43 	ldbu	r2,-25539(gp)
   4045c:	10803fcc 	andi	r2,r2,255
   40460:	1009883a 	mov	r4,r2
   40464:	004031c0 	call	4031c <led_write>

    }
    if (pwm > PWM_PERIOD) {
   40468:	d0a70f03 	ldbu	r2,-25540(gp)
   4046c:	10803fcc 	andi	r2,r2,255
   40470:	1080201c 	xori	r2,r2,128
   40474:	10bfe004 	addi	r2,r2,-128
   40478:	10800450 	cmplti	r2,r2,17
   4047c:	1000021e 	bne	r2,zero,40488 <sys_timer_isr+0xa8>
        pwm = 0;
   40480:	d0270f05 	stb	zero,-25540(gp)
    } else {
        pwm++;
    }
}
   40484:	00000306 	br	40494 <sys_timer_isr+0xb4>
        pwm++;
   40488:	d0a70f03 	ldbu	r2,-25540(gp)
   4048c:	10800044 	addi	r2,r2,1
   40490:	d0a70f05 	stb	r2,-25540(gp)
}
   40494:	0001883a 	nop
   40498:	e037883a 	mov	sp,fp
   4049c:	dfc00117 	ldw	ra,4(sp)
   404a0:	df000017 	ldw	fp,0(sp)
   404a4:	dec00204 	addi	sp,sp,8
   404a8:	f800283a 	ret

000404ac <timer_init>:



void timer_init(void * isr) {
   404ac:	defffd04 	addi	sp,sp,-12
   404b0:	dfc00215 	stw	ra,8(sp)
   404b4:	df000115 	stw	fp,4(sp)
   404b8:	df000104 	addi	fp,sp,4
   404bc:	e13fff15 	stw	r4,-4(fp)

    IOWR_ALTERA_AVALON_TIMER_CONTROL(TIMER_BASE, 0x0003);
   404c0:	00c000c4 	movi	r3,3
   404c4:	00800234 	movhi	r2,8
   404c8:	10c40135 	stwio	r3,4100(r2)

    IOWR_ALTERA_AVALON_TIMER_STATUS(TIMER_BASE, 0);
   404cc:	0007883a 	mov	r3,zero
   404d0:	00800234 	movhi	r2,8
   404d4:	10c40035 	stwio	r3,4096(r2)

    IOWR_ALTERA_AVALON_TIMER_PERIODL(TIMER_BASE, 0x0900);
   404d8:	00c24004 	movi	r3,2304
   404dc:	00800234 	movhi	r2,8
   404e0:	10c40235 	stwio	r3,4104(r2)

    IOWR_ALTERA_AVALON_TIMER_PERIODH(TIMER_BASE, 0x0000);
   404e4:	0007883a 	mov	r3,zero
   404e8:	00800234 	movhi	r2,8
   404ec:	10c40335 	stwio	r3,4108(r2)

    alt_irq_register(TIMER_IRQ, 0, isr);
   404f0:	e0bfff17 	ldw	r2,-4(fp)
   404f4:	100d883a 	mov	r6,r2
   404f8:	000b883a 	mov	r5,zero
   404fc:	0009883a 	mov	r4,zero
   40500:	00523c40 	call	523c4 <alt_irq_register>

    IOWR_ALTERA_AVALON_TIMER_CONTROL(TIMER_BASE, 0x0007);
   40504:	00c001c4 	movi	r3,7
   40508:	00800234 	movhi	r2,8
   4050c:	10c40135 	stwio	r3,4100(r2)

}
   40510:	0001883a 	nop
   40514:	e037883a 	mov	sp,fp
   40518:	dfc00117 	ldw	ra,4(sp)
   4051c:	df000017 	ldw	fp,0(sp)
   40520:	dec00204 	addi	sp,sp,8
   40524:	f800283a 	ret

00040528 <FIR>:



alt_32 FIR(fixed_32 coeffs[], alt_32 *x){
   40528:	defffa04 	addi	sp,sp,-24
   4052c:	dfc00515 	stw	ra,20(sp)
   40530:	df000415 	stw	fp,16(sp)
   40534:	df000404 	addi	fp,sp,16
   40538:	e13ffd15 	stw	r4,-12(fp)
   4053c:	e17ffc15 	stw	r5,-16(fp)

	fixed_32 tmp=0;
   40540:	e03fff15 	stw	zero,-4(fp)

	for(int i = 0; i < F_ORDER;i++){
   40544:	e03ffe15 	stw	zero,-8(fp)
   40548:	00001306 	br	40598 <FIR+0x70>

		tmp+=coeffs[i]*x[i];
   4054c:	e0bffe17 	ldw	r2,-8(fp)
   40550:	100490ba 	slli	r2,r2,2
   40554:	e0fffd17 	ldw	r3,-12(fp)
   40558:	1885883a 	add	r2,r3,r2
   4055c:	11000017 	ldw	r4,0(r2)
   40560:	e0bffe17 	ldw	r2,-8(fp)
   40564:	100490ba 	slli	r2,r2,2
   40568:	e0fffc17 	ldw	r3,-16(fp)
   4056c:	1885883a 	add	r2,r3,r2
   40570:	10800017 	ldw	r2,0(r2)
   40574:	100b883a 	mov	r5,r2
   40578:	0040b700 	call	40b70 <__mulsi3>
   4057c:	1007883a 	mov	r3,r2
   40580:	e0bfff17 	ldw	r2,-4(fp)
   40584:	10c5883a 	add	r2,r2,r3
   40588:	e0bfff15 	stw	r2,-4(fp)
	for(int i = 0; i < F_ORDER;i++){
   4058c:	e0bffe17 	ldw	r2,-8(fp)
   40590:	10800044 	addi	r2,r2,1
   40594:	e0bffe15 	stw	r2,-8(fp)
   40598:	e0bffe17 	ldw	r2,-8(fp)
   4059c:	10800c50 	cmplti	r2,r2,49
   405a0:	103fea1e 	bne	r2,zero,4054c <FIR+0x24>

// printf("%d: %ld\n", i, (alt_32)tmp);

}
// printf("%ld\n", (alt_32)tmp);
	tmp=fixed_to_float(tmp);
   405a4:	e13fff17 	ldw	r4,-4(fp)
   405a8:	00402d00 	call	402d0 <fixed_to_float>
   405ac:	1007883a 	mov	r3,r2
   405b0:	1809883a 	mov	r4,r3
   405b4:	00413cc0 	call	413cc <__fixsfsi>
   405b8:	e0bfff15 	stw	r2,-4(fp)
	return (alt_32)tmp;
   405bc:	e0bfff17 	ldw	r2,-4(fp)
}
   405c0:	e037883a 	mov	sp,fp
   405c4:	dfc00117 	ldw	ra,4(sp)
   405c8:	df000017 	ldw	fp,0(sp)
   405cc:	dec00204 	addi	sp,sp,8
   405d0:	f800283a 	ret

000405d4 <print_text>:



void print_text(char *text, const int length) {
   405d4:	defffa04 	addi	sp,sp,-24
   405d8:	dfc00515 	stw	ra,20(sp)
   405dc:	df000415 	stw	fp,16(sp)
   405e0:	df000404 	addi	fp,sp,16
   405e4:	e13ffe15 	stw	r4,-8(fp)
   405e8:	e17ffd15 	stw	r5,-12(fp)
	char *printMsg;
	asprintf(&printMsg, "<--> Detected %d characters: %s <--> \n %c", length, text, 0x4); 	// Print out the strings
   405ec:	e0ffff04 	addi	r3,fp,-4
   405f0:	00800104 	movi	r2,4
   405f4:	d8800015 	stw	r2,0(sp)
   405f8:	e1fffe17 	ldw	r7,-8(fp)
   405fc:	e1bffd17 	ldw	r6,-12(fp)
   40600:	01400174 	movhi	r5,5
   40604:	29544204 	addi	r5,r5,20744
   40608:	1809883a 	mov	r4,r3
   4060c:	00420940 	call	42094 <asprintf>
	alt_putstr(printMsg);
   40610:	e0bfff17 	ldw	r2,-4(fp)
   40614:	1009883a 	mov	r4,r2
   40618:	0052a280 	call	52a28 <alt_putstr>
	free(printMsg);
   4061c:	e0bfff17 	ldw	r2,-4(fp)
   40620:	1009883a 	mov	r4,r2
   40624:	00421140 	call	42114 <free>
	memset(text, 0, 2*CHARLIM);								// Empty the text buffer for next input
   40628:	01808004 	movi	r6,512
   4062c:	000b883a 	mov	r5,zero
   40630:	e13ffe17 	ldw	r4,-8(fp)
   40634:	00429d80 	call	429d8 <memset>
}
   40638:	0001883a 	nop
   4063c:	e037883a 	mov	sp,fp
   40640:	dfc00117 	ldw	ra,4(sp)
   40644:	df000017 	ldw	fp,0(sp)
   40648:	dec00204 	addi	sp,sp,8
   4064c:	f800283a 	ret

00040650 <generate_text>:

char generate_text(char curr, int *length, char *text, int *running) {
   40650:	defff804 	addi	sp,sp,-32
   40654:	dfc00715 	stw	ra,28(sp)
   40658:	df000615 	stw	fp,24(sp)
   4065c:	df000604 	addi	fp,sp,24
   40660:	2005883a 	mov	r2,r4
   40664:	e17ffc15 	stw	r5,-16(fp)
   40668:	e1bffb15 	stw	r6,-20(fp)
   4066c:	e1fffa15 	stw	r7,-24(fp)
   40670:	e0bffd05 	stb	r2,-12(fp)
	if(curr == '\n') return curr;								// If the line is empty, return nothing.
   40674:	e0bffd07 	ldb	r2,-12(fp)
   40678:	10800298 	cmpnei	r2,r2,10
   4067c:	1000021e 	bne	r2,zero,40688 <generate_text+0x38>
   40680:	e0bffd03 	ldbu	r2,-12(fp)
   40684:	00001d06 	br	406fc <generate_text+0xac>
	int idx = 0;										// Keep track of how many characters have been sent down for later printing
   40688:	e03fff15 	stw	zero,-4(fp)
	char newCurr = curr;
   4068c:	e0bffd03 	ldbu	r2,-12(fp)
   40690:	e0bffec5 	stb	r2,-5(fp)

	while (newCurr != EOF && newCurr != '\n'){						// Keep reading characters until we get to the end of the line
   40694:	00000f06 	br	406d4 <generate_text+0x84>
		if (newCurr == QUITLETTER) { *running = 0; }					// If quitting letter is encountered, setting running to 0
   40698:	e0bffec7 	ldb	r2,-5(fp)
   4069c:	10801f98 	cmpnei	r2,r2,126
   406a0:	1000021e 	bne	r2,zero,406ac <generate_text+0x5c>
   406a4:	e0bffa17 	ldw	r2,-24(fp)
   406a8:	10000015 	stw	zero,0(r2)
		text[idx] = newCurr;								// Add the next letter to the text buffer
   406ac:	e0bfff17 	ldw	r2,-4(fp)
   406b0:	e0fffb17 	ldw	r3,-20(fp)
   406b4:	1885883a 	add	r2,r3,r2
   406b8:	e0fffec3 	ldbu	r3,-5(fp)
   406bc:	10c00005 	stb	r3,0(r2)
		idx++;										// Keep track of the number of characters read
   406c0:	e0bfff17 	ldw	r2,-4(fp)
   406c4:	10800044 	addi	r2,r2,1
   406c8:	e0bfff15 	stw	r2,-4(fp)
		newCurr = alt_getchar();							// Get the next character
   406cc:	005237c0 	call	5237c <alt_getchar>
   406d0:	e0bffec5 	stb	r2,-5(fp)
	while (newCurr != EOF && newCurr != '\n'){						// Keep reading characters until we get to the end of the line
   406d4:	e0bffec7 	ldb	r2,-5(fp)
   406d8:	10bfffe0 	cmpeqi	r2,r2,-1
   406dc:	1000031e 	bne	r2,zero,406ec <generate_text+0x9c>
   406e0:	e0bffec7 	ldb	r2,-5(fp)
   406e4:	10800298 	cmpnei	r2,r2,10
   406e8:	103feb1e 	bne	r2,zero,40698 <generate_text+0x48>
	}
	*length = idx;
   406ec:	e0bffc17 	ldw	r2,-16(fp)
   406f0:	e0ffff17 	ldw	r3,-4(fp)
   406f4:	10c00015 	stw	r3,0(r2)

	return newCurr;
   406f8:	e0bffec3 	ldbu	r2,-5(fp)
}
   406fc:	e037883a 	mov	sp,fp
   40700:	dfc00117 	ldw	ra,4(sp)
   40704:	df000017 	ldw	fp,0(sp)
   40708:	dec00204 	addi	sp,sp,8
   4070c:	f800283a 	ret

00040710 <read_chars>:

int read_chars() {
   40710:	deff7b04 	addi	sp,sp,-532
   40714:	dfc08415 	stw	ra,528(sp)
   40718:	df008315 	stw	fp,524(sp)
   4071c:	df008304 	addi	fp,sp,524
	char text[2*CHARLIM];									// The buffer for the printing text
	char prevLetter = '!';
   40720:	00800844 	movi	r2,33
   40724:	e0bfffc5 	stb	r2,-1(fp)
	int length = 0;
   40728:	e03f7e15 	stw	zero,-520(fp)
	int running = 1;
   4072c:	00800044 	movi	r2,1
   40730:	e0bf7d15 	stw	r2,-524(fp)

	while (running) {									// Keep running until QUITLETTER is encountered
   40734:	00001106 	br	4077c <read_chars+0x6c>
		prevLetter = alt_getchar();							// Extract the first character (and create a hold until one arrives)
   40738:	005237c0 	call	5237c <alt_getchar>
   4073c:	e0bfffc5 	stb	r2,-1(fp)
		prevLetter = generate_text(prevLetter, &length, text, &running);		// Process input text
   40740:	e0bfffc7 	ldb	r2,-1(fp)
   40744:	e17f7d04 	addi	r5,fp,-524
   40748:	e13f7fc4 	addi	r4,fp,-513
   4074c:	e0ff7e04 	addi	r3,fp,-520
   40750:	280f883a 	mov	r7,r5
   40754:	200d883a 	mov	r6,r4
   40758:	180b883a 	mov	r5,r3
   4075c:	1009883a 	mov	r4,r2
   40760:	00406500 	call	40650 <generate_text>
   40764:	e0bfffc5 	stb	r2,-1(fp)
		print_text(text, length);							// Print input text
   40768:	e0ff7e17 	ldw	r3,-520(fp)
   4076c:	e0bf7fc4 	addi	r2,fp,-513
   40770:	180b883a 	mov	r5,r3
   40774:	1009883a 	mov	r4,r2
   40778:	00405d40 	call	405d4 <print_text>
	while (running) {									// Keep running until QUITLETTER is encountered
   4077c:	e0bf7d17 	ldw	r2,-524(fp)
   40780:	103fed1e 	bne	r2,zero,40738 <read_chars+0x28>
	}

	return 0;
   40784:	0005883a 	mov	r2,zero
}
   40788:	e037883a 	mov	sp,fp
   4078c:	dfc00117 	ldw	ra,4(sp)
   40790:	df000017 	ldw	fp,0(sp)
   40794:	dec00204 	addi	sp,sp,8
   40798:	f800283a 	ret

0004079c <main>:

int main(){
   4079c:	deffc404 	addi	sp,sp,-240
   407a0:	dfc03b15 	stw	ra,236(sp)
   407a4:	df003a15 	stw	fp,232(sp)
   407a8:	df003a04 	addi	fp,sp,232
	alt_u32 exec_t2;
	fixed_32 coeffs[]={24538,25771,29318,35140,43158,53256,65279,79042,94325,110883,128450,146737,165444,184263,202883,220992,238291,254488,269314,282519,293881,303209,310346,315172,317606,317606,315172,310346,303209,293881,282519,269314,254488,238291,220992,202883,184263,165444,146737,128450,110883,94325,79042,65279,53256,43158,35140,29318,25771,24538};
   407ac:	e0ffca04 	addi	r3,fp,-216
   407b0:	00800174 	movhi	r2,5
   407b4:	10945d04 	addi	r2,r2,20852
   407b8:	01003204 	movi	r4,200
   407bc:	200d883a 	mov	r6,r4
   407c0:	100b883a 	mov	r5,r2
   407c4:	1809883a 	mov	r4,r3
   407c8:	00428d80 	call	428d8 <memcpy>
	alt_32 *x = malloc(F_ORDER*sizeof(alt_32));
   407cc:	01003104 	movi	r4,196
   407d0:	00421040 	call	42104 <malloc>
   407d4:	e0bffe15 	stw	r2,-8(fp)
	alt_32 x_read;
    alt_32 y_read;
    alt_32 z_read;
    int n = 0;
   407d8:	e03fff15 	stw	zero,-4(fp)
    alt_up_accelerometer_spi_dev * acc_dev;
    acc_dev = alt_up_accelerometer_spi_open_dev("/dev/accelerometer_spi");
   407dc:	01000174 	movhi	r4,5
   407e0:	21144d04 	addi	r4,r4,20788
   407e4:	0053a680 	call	53a68 <alt_up_accelerometer_spi_open_dev>
   407e8:	e0bffd15 	stw	r2,-12(fp)

    if (acc_dev == NULL) { // if return 1, check if the spi ip name is "accelerometer_spi"
   407ec:	e0bffd17 	ldw	r2,-12(fp)
   407f0:	1000021e 	bne	r2,zero,407fc <main+0x60>
        return 1;
   407f4:	00800044 	movi	r2,1
   407f8:	00003106 	br	408c0 <main+0x124>
    }

    timer_init(sys_timer_isr);
   407fc:	01000134 	movhi	r4,4
   40800:	2100f804 	addi	r4,r4,992
   40804:	00404ac0 	call	404ac <timer_init>
    //printf("filt\n");
    printf("x_axis,y_axis,z_axis\n%c",0x4);
   40808:	01400104 	movi	r5,4
   4080c:	01000174 	movhi	r4,5
   40810:	21145304 	addi	r4,r4,20812
   40814:	0042b480 	call	42b48 <printf>
    while (1) {
        alt_up_accelerometer_spi_read_x_axis(acc_dev, & x_read);
   40818:	e0bfc904 	addi	r2,fp,-220
   4081c:	100b883a 	mov	r5,r2
   40820:	e13ffd17 	ldw	r4,-12(fp)
   40824:	0053bb80 	call	53bb8 <alt_up_accelerometer_spi_read_x_axis>
        alt_up_accelerometer_spi_read_y_axis(acc_dev, & y_read);
   40828:	e0bfc804 	addi	r2,fp,-224
   4082c:	100b883a 	mov	r5,r2
   40830:	e13ffd17 	ldw	r4,-12(fp)
   40834:	0053c8c0 	call	53c8c <alt_up_accelerometer_spi_read_y_axis>
        alt_up_accelerometer_spi_read_z_axis(acc_dev, & z_read);
   40838:	e0bfc704 	addi	r2,fp,-228
   4083c:	100b883a 	mov	r5,r2
   40840:	e13ffd17 	ldw	r4,-12(fp)
   40844:	0053d600 	call	53d60 <alt_up_accelerometer_spi_read_z_axis>
        //}
        //x[0] = x_read;
        //alt_32 y = FIR(coeffs, x);
        //printf("%ld\n",y);
        // alt_printf("raw data: %x\n", x_read);
        printf("%ld,%ld,%ld\n%c",x_read,y_read,z_read,0x4);
   40848:	e0ffc917 	ldw	r3,-220(fp)
   4084c:	e13fc817 	ldw	r4,-224(fp)
   40850:	e17fc717 	ldw	r5,-228(fp)
   40854:	00800104 	movi	r2,4
   40858:	d8800015 	stw	r2,0(sp)
   4085c:	280f883a 	mov	r7,r5
   40860:	200d883a 	mov	r6,r4
   40864:	180b883a 	mov	r5,r3
   40868:	01000174 	movhi	r4,5
   4086c:	21145904 	addi	r4,r4,20836
   40870:	0042b480 	call	42b48 <printf>
        convert_read((x_read+y_read+z_read)/3, & level, & led);
   40874:	e0ffc917 	ldw	r3,-220(fp)
   40878:	e0bfc817 	ldw	r2,-224(fp)
   4087c:	1887883a 	add	r3,r3,r2
   40880:	e0bfc717 	ldw	r2,-228(fp)
   40884:	1885883a 	add	r2,r3,r2
   40888:	014000c4 	movi	r5,3
   4088c:	1009883a 	mov	r4,r2
   40890:	00409bc0 	call	409bc <__divsi3>
   40894:	d1a70f44 	addi	r6,gp,-25539
   40898:	d1671004 	addi	r5,gp,-25536
   4089c:	1009883a 	mov	r4,r2
   408a0:	00403500 	call	40350 <convert_read>
        int l=read_chars();
   408a4:	00407100 	call	40710 <read_chars>
   408a8:	e0bffc15 	stw	r2,-16(fp)
        n++;
   408ac:	e0bfff17 	ldw	r2,-4(fp)
   408b0:	10800044 	addi	r2,r2,1
   408b4:	e0bfff15 	stw	r2,-4(fp)
    while (1) {
   408b8:	0001883a 	nop
   408bc:	003fd606 	br	40818 <main+0x7c>
    }

    free(x);

    return 0;
}
   408c0:	e037883a 	mov	sp,fp
   408c4:	dfc00117 	ldw	ra,4(sp)
   408c8:	df000017 	ldw	fp,0(sp)
   408cc:	dec00204 	addi	sp,sp,8
   408d0:	f800283a 	ret

000408d4 <round>:
   408d4:	280fd53a 	srai	r7,r5,20
   408d8:	2807883a 	mov	r3,r5
   408dc:	2005883a 	mov	r2,r4
   408e0:	39c1ffcc 	andi	r7,r7,2047
   408e4:	39bf0044 	addi	r6,r7,-1023
   408e8:	32000508 	cmpgei	r8,r6,20
   408ec:	4000141e 	bne	r8,zero,40940 <round+0x6c>
   408f0:	30000716 	blt	r6,zero,40910 <round+0x3c>
   408f4:	01000434 	movhi	r4,16
   408f8:	213fffc4 	addi	r4,r4,-1
   408fc:	2189d83a 	sra	r4,r4,r6
   40900:	214a703a 	and	r5,r4,r5
   40904:	288ab03a 	or	r5,r5,r2
   40908:	2800061e 	bne	r5,zero,40924 <round+0x50>
   4090c:	f800283a 	ret
   40910:	31bfffd8 	cmpnei	r6,r6,-1
   40914:	28e0002c 	andhi	r3,r5,32768
   40918:	30002526 	beq	r6,zero,409b0 <round+0xdc>
   4091c:	0005883a 	mov	r2,zero
   40920:	f800283a 	ret
   40924:	01400234 	movhi	r5,8
   40928:	298bd83a 	sra	r5,r5,r6
   4092c:	0108303a 	nor	r4,zero,r4
   40930:	0005883a 	mov	r2,zero
   40934:	28cb883a 	add	r5,r5,r3
   40938:	2906703a 	and	r3,r5,r4
   4093c:	f800283a 	ret
   40940:	32000d10 	cmplti	r8,r6,52
   40944:	40000a1e 	bne	r8,zero,40970 <round+0x9c>
   40948:	31810018 	cmpnei	r6,r6,1024
   4094c:	303fef1e 	bne	r6,zero,4090c <round+0x38>
   40950:	deffff04 	addi	sp,sp,-4
   40954:	200d883a 	mov	r6,r4
   40958:	280f883a 	mov	r7,r5
   4095c:	dfc00015 	stw	ra,0(sp)
   40960:	00415640 	call	41564 <__adddf3>
   40964:	dfc00017 	ldw	ra,0(sp)
   40968:	dec00104 	addi	sp,sp,4
   4096c:	f800283a 	ret
   40970:	39fefb44 	addi	r7,r7,-1043
   40974:	013fffc4 	movi	r4,-1
   40978:	21c8d83a 	srl	r4,r4,r7
   4097c:	208a703a 	and	r5,r4,r2
   40980:	28000a26 	beq	r5,zero,409ac <round+0xd8>
   40984:	01400cc4 	movi	r5,51
   40988:	298dc83a 	sub	r6,r5,r6
   4098c:	01400044 	movi	r5,1
   40990:	298a983a 	sll	r5,r5,r6
   40994:	288b883a 	add	r5,r5,r2
   40998:	2880012e 	bgeu	r5,r2,409a0 <round+0xcc>
   4099c:	18c00044 	addi	r3,r3,1
   409a0:	0108303a 	nor	r4,zero,r4
   409a4:	2144703a 	and	r2,r4,r5
   409a8:	f800283a 	ret
   409ac:	f800283a 	ret
   409b0:	18cffc34 	orhi	r3,r3,16368
   409b4:	0005883a 	mov	r2,zero
   409b8:	f800283a 	ret

000409bc <__divsi3>:
   409bc:	20001a16 	blt	r4,zero,40a28 <__divsi3+0x6c>
   409c0:	000f883a 	mov	r7,zero
   409c4:	2800020e 	bge	r5,zero,409d0 <__divsi3+0x14>
   409c8:	014bc83a 	sub	r5,zero,r5
   409cc:	39c0005c 	xori	r7,r7,1
   409d0:	200d883a 	mov	r6,r4
   409d4:	00c00044 	movi	r3,1
   409d8:	2900092e 	bgeu	r5,r4,40a00 <__divsi3+0x44>
   409dc:	00800804 	movi	r2,32
   409e0:	00c00044 	movi	r3,1
   409e4:	00000106 	br	409ec <__divsi3+0x30>
   409e8:	10001226 	beq	r2,zero,40a34 <__divsi3+0x78>
   409ec:	294b883a 	add	r5,r5,r5
   409f0:	10bfffc4 	addi	r2,r2,-1
   409f4:	18c7883a 	add	r3,r3,r3
   409f8:	293ffb36 	bltu	r5,r4,409e8 <__divsi3+0x2c>
   409fc:	18000d26 	beq	r3,zero,40a34 <__divsi3+0x78>
   40a00:	0005883a 	mov	r2,zero
   40a04:	31400236 	bltu	r6,r5,40a10 <__divsi3+0x54>
   40a08:	314dc83a 	sub	r6,r6,r5
   40a0c:	10c4b03a 	or	r2,r2,r3
   40a10:	1806d07a 	srli	r3,r3,1
   40a14:	280ad07a 	srli	r5,r5,1
   40a18:	183ffa1e 	bne	r3,zero,40a04 <__divsi3+0x48>
   40a1c:	38000126 	beq	r7,zero,40a24 <__divsi3+0x68>
   40a20:	0085c83a 	sub	r2,zero,r2
   40a24:	f800283a 	ret
   40a28:	0109c83a 	sub	r4,zero,r4
   40a2c:	01c00044 	movi	r7,1
   40a30:	003fe406 	br	409c4 <__divsi3+0x8>
   40a34:	0005883a 	mov	r2,zero
   40a38:	003ff806 	br	40a1c <__divsi3+0x60>

00040a3c <__modsi3>:
   40a3c:	20001716 	blt	r4,zero,40a9c <__modsi3+0x60>
   40a40:	000f883a 	mov	r7,zero
   40a44:	2005883a 	mov	r2,r4
   40a48:	2800010e 	bge	r5,zero,40a50 <__modsi3+0x14>
   40a4c:	014bc83a 	sub	r5,zero,r5
   40a50:	00c00044 	movi	r3,1
   40a54:	2900092e 	bgeu	r5,r4,40a7c <__modsi3+0x40>
   40a58:	01800804 	movi	r6,32
   40a5c:	00c00044 	movi	r3,1
   40a60:	00000106 	br	40a68 <__modsi3+0x2c>
   40a64:	30001026 	beq	r6,zero,40aa8 <__modsi3+0x6c>
   40a68:	294b883a 	add	r5,r5,r5
   40a6c:	31bfffc4 	addi	r6,r6,-1
   40a70:	18c7883a 	add	r3,r3,r3
   40a74:	293ffb36 	bltu	r5,r4,40a64 <__modsi3+0x28>
   40a78:	18000b26 	beq	r3,zero,40aa8 <__modsi3+0x6c>
   40a7c:	1806d07a 	srli	r3,r3,1
   40a80:	11400136 	bltu	r2,r5,40a88 <__modsi3+0x4c>
   40a84:	1145c83a 	sub	r2,r2,r5
   40a88:	280ad07a 	srli	r5,r5,1
   40a8c:	183ffb1e 	bne	r3,zero,40a7c <__modsi3+0x40>
   40a90:	38000126 	beq	r7,zero,40a98 <__modsi3+0x5c>
   40a94:	0085c83a 	sub	r2,zero,r2
   40a98:	f800283a 	ret
   40a9c:	0109c83a 	sub	r4,zero,r4
   40aa0:	01c00044 	movi	r7,1
   40aa4:	003fe706 	br	40a44 <__modsi3+0x8>
   40aa8:	2005883a 	mov	r2,r4
   40aac:	003ff806 	br	40a90 <__modsi3+0x54>

00040ab0 <__udivsi3>:
   40ab0:	200d883a 	mov	r6,r4
   40ab4:	2900152e 	bgeu	r5,r4,40b0c <__udivsi3+0x5c>
   40ab8:	28001416 	blt	r5,zero,40b0c <__udivsi3+0x5c>
   40abc:	00800804 	movi	r2,32
   40ac0:	00c00044 	movi	r3,1
   40ac4:	00000206 	br	40ad0 <__udivsi3+0x20>
   40ac8:	10000e26 	beq	r2,zero,40b04 <__udivsi3+0x54>
   40acc:	28000416 	blt	r5,zero,40ae0 <__udivsi3+0x30>
   40ad0:	294b883a 	add	r5,r5,r5
   40ad4:	10bfffc4 	addi	r2,r2,-1
   40ad8:	18c7883a 	add	r3,r3,r3
   40adc:	293ffa36 	bltu	r5,r4,40ac8 <__udivsi3+0x18>
   40ae0:	18000826 	beq	r3,zero,40b04 <__udivsi3+0x54>
   40ae4:	0005883a 	mov	r2,zero
   40ae8:	31400236 	bltu	r6,r5,40af4 <__udivsi3+0x44>
   40aec:	314dc83a 	sub	r6,r6,r5
   40af0:	10c4b03a 	or	r2,r2,r3
   40af4:	1806d07a 	srli	r3,r3,1
   40af8:	280ad07a 	srli	r5,r5,1
   40afc:	183ffa1e 	bne	r3,zero,40ae8 <__udivsi3+0x38>
   40b00:	f800283a 	ret
   40b04:	0005883a 	mov	r2,zero
   40b08:	f800283a 	ret
   40b0c:	00c00044 	movi	r3,1
   40b10:	003ff406 	br	40ae4 <__udivsi3+0x34>

00040b14 <__umodsi3>:
   40b14:	2005883a 	mov	r2,r4
   40b18:	2900132e 	bgeu	r5,r4,40b68 <__umodsi3+0x54>
   40b1c:	28001216 	blt	r5,zero,40b68 <__umodsi3+0x54>
   40b20:	01800804 	movi	r6,32
   40b24:	00c00044 	movi	r3,1
   40b28:	00000206 	br	40b34 <__umodsi3+0x20>
   40b2c:	30000c26 	beq	r6,zero,40b60 <__umodsi3+0x4c>
   40b30:	28000416 	blt	r5,zero,40b44 <__umodsi3+0x30>
   40b34:	294b883a 	add	r5,r5,r5
   40b38:	31bfffc4 	addi	r6,r6,-1
   40b3c:	18c7883a 	add	r3,r3,r3
   40b40:	293ffa36 	bltu	r5,r4,40b2c <__umodsi3+0x18>
   40b44:	18000626 	beq	r3,zero,40b60 <__umodsi3+0x4c>
   40b48:	1806d07a 	srli	r3,r3,1
   40b4c:	11400136 	bltu	r2,r5,40b54 <__umodsi3+0x40>
   40b50:	1145c83a 	sub	r2,r2,r5
   40b54:	280ad07a 	srli	r5,r5,1
   40b58:	183ffb1e 	bne	r3,zero,40b48 <__umodsi3+0x34>
   40b5c:	f800283a 	ret
   40b60:	2005883a 	mov	r2,r4
   40b64:	f800283a 	ret
   40b68:	00c00044 	movi	r3,1
   40b6c:	003ff606 	br	40b48 <__umodsi3+0x34>

00040b70 <__mulsi3>:
   40b70:	0005883a 	mov	r2,zero
   40b74:	20000726 	beq	r4,zero,40b94 <__mulsi3+0x24>
   40b78:	20c0004c 	andi	r3,r4,1
   40b7c:	2008d07a 	srli	r4,r4,1
   40b80:	18000126 	beq	r3,zero,40b88 <__mulsi3+0x18>
   40b84:	1145883a 	add	r2,r2,r5
   40b88:	294b883a 	add	r5,r5,r5
   40b8c:	203ffa1e 	bne	r4,zero,40b78 <__mulsi3+0x8>
   40b90:	f800283a 	ret
   40b94:	f800283a 	ret

00040b98 <__divsf3>:
   40b98:	defff604 	addi	sp,sp,-40
   40b9c:	2006d5fa 	srli	r3,r4,23
   40ba0:	dcc00415 	stw	r19,16(sp)
   40ba4:	2026d7fa 	srli	r19,r4,31
   40ba8:	00802034 	movhi	r2,128
   40bac:	dd000515 	stw	r20,20(sp)
   40bb0:	dc400215 	stw	r17,8(sp)
   40bb4:	10bfffc4 	addi	r2,r2,-1
   40bb8:	dfc00915 	stw	ra,36(sp)
   40bbc:	ddc00815 	stw	r23,32(sp)
   40bc0:	dd800715 	stw	r22,28(sp)
   40bc4:	dd400615 	stw	r21,24(sp)
   40bc8:	dc800315 	stw	r18,12(sp)
   40bcc:	dc000115 	stw	r16,4(sp)
   40bd0:	18c03fcc 	andi	r3,r3,255
   40bd4:	1128703a 	and	r20,r2,r4
   40bd8:	9823883a 	mov	r17,r19
   40bdc:	18004d26 	beq	r3,zero,40d14 <__divsf3+0x17c>
   40be0:	18803fe0 	cmpeqi	r2,r3,255
   40be4:	1000501e 	bne	r2,zero,40d28 <__divsf3+0x190>
   40be8:	a00490fa 	slli	r2,r20,3
   40bec:	1d7fe044 	addi	r21,r3,-127
   40bf0:	0021883a 	mov	r16,zero
   40bf4:	15010034 	orhi	r20,r2,1024
   40bf8:	002f883a 	mov	r23,zero
   40bfc:	2806d5fa 	srli	r3,r5,23
   40c00:	01002034 	movhi	r4,128
   40c04:	213fffc4 	addi	r4,r4,-1
   40c08:	18c03fcc 	andi	r3,r3,255
   40c0c:	282cd7fa 	srli	r22,r5,31
   40c10:	2164703a 	and	r18,r4,r5
   40c14:	18002426 	beq	r3,zero,40ca8 <__divsf3+0x110>
   40c18:	18803fe0 	cmpeqi	r2,r3,255
   40c1c:	10001e1e 	bne	r2,zero,40c98 <__divsf3+0x100>
   40c20:	900890fa 	slli	r4,r18,3
   40c24:	18ffe044 	addi	r3,r3,-127
   40c28:	000b883a 	mov	r5,zero
   40c2c:	24810034 	orhi	r18,r4,1024
   40c30:	9da6f03a 	xor	r19,r19,r22
   40c34:	80800428 	cmpgeui	r2,r16,16
   40c38:	9809883a 	mov	r4,r19
   40c3c:	a8ebc83a 	sub	r21,r21,r3
   40c40:	1000b11e 	bne	r2,zero,40f08 <__divsf3+0x370>
   40c44:	802090ba 	slli	r16,r16,2
   40c48:	00800134 	movhi	r2,4
   40c4c:	8085883a 	add	r2,r16,r2
   40c50:	10831617 	ldw	r2,3160(r2)
   40c54:	1000683a 	jmp	r2
   40c58:	00040f08 	cmpgei	zero,zero,4156
   40c5c:	00040da8 	cmpgeui	zero,zero,4150
   40c60:	00040df4 	movhi	zero,4151
   40c64:	00040e28 	cmpgeui	zero,zero,4152
   40c68:	00040df4 	movhi	zero,4151
   40c6c:	00040e80 	call	40e8 <__reset-0x3bf18>
   40c70:	00040df4 	movhi	zero,4151
   40c74:	00040e28 	cmpgeui	zero,zero,4152
   40c78:	00040da8 	cmpgeui	zero,zero,4150
   40c7c:	00040da8 	cmpgeui	zero,zero,4150
   40c80:	00040e80 	call	40e8 <__reset-0x3bf18>
   40c84:	00040e28 	cmpgeui	zero,zero,4152
   40c88:	00040e04 	movi	zero,4152
   40c8c:	00040e04 	movi	zero,4152
   40c90:	00040e04 	movi	zero,4152
   40c94:	00040e94 	movui	zero,4154
   40c98:	90003f1e 	bne	r18,zero,40d98 <__divsf3+0x200>
   40c9c:	ad7fc044 	addi	r21,r21,-255
   40ca0:	00800084 	movi	r2,2
   40ca4:	00000206 	br	40cb0 <__divsf3+0x118>
   40ca8:	9000331e 	bne	r18,zero,40d78 <__divsf3+0x1e0>
   40cac:	00800044 	movi	r2,1
   40cb0:	1420b03a 	or	r16,r2,r16
   40cb4:	9da6f03a 	xor	r19,r19,r22
   40cb8:	80c003e8 	cmpgeui	r3,r16,15
   40cbc:	9809883a 	mov	r4,r19
   40cc0:	1800391e 	bne	r3,zero,40da8 <__divsf3+0x210>
   40cc4:	802090ba 	slli	r16,r16,2
   40cc8:	00c00134 	movhi	r3,4
   40ccc:	80c7883a 	add	r3,r16,r3
   40cd0:	18c33617 	ldw	r3,3288(r3)
   40cd4:	1800683a 	jmp	r3
   40cd8:	00040da8 	cmpgeui	zero,zero,4150
   40cdc:	00040da8 	cmpgeui	zero,zero,4150
   40ce0:	00040df4 	movhi	zero,4151
   40ce4:	00040f64 	muli	zero,zero,4157
   40ce8:	00040df4 	movhi	zero,4151
   40cec:	00040e80 	call	40e8 <__reset-0x3bf18>
   40cf0:	00040df4 	movhi	zero,4151
   40cf4:	00040f64 	muli	zero,zero,4157
   40cf8:	00040da8 	cmpgeui	zero,zero,4150
   40cfc:	00040da8 	cmpgeui	zero,zero,4150
   40d00:	00040e80 	call	40e8 <__reset-0x3bf18>
   40d04:	00040f64 	muli	zero,zero,4157
   40d08:	00040e04 	movi	zero,4152
   40d0c:	00040e04 	movi	zero,4152
   40d10:	00040e04 	movi	zero,4152
   40d14:	a0000d1e 	bne	r20,zero,40d4c <__divsf3+0x1b4>
   40d18:	04000104 	movi	r16,4
   40d1c:	002b883a 	mov	r21,zero
   40d20:	05c00044 	movi	r23,1
   40d24:	003fb506 	br	40bfc <__divsf3+0x64>
   40d28:	a000041e 	bne	r20,zero,40d3c <__divsf3+0x1a4>
   40d2c:	04000204 	movi	r16,8
   40d30:	05403fc4 	movi	r21,255
   40d34:	05c00084 	movi	r23,2
   40d38:	003fb006 	br	40bfc <__divsf3+0x64>
   40d3c:	04000304 	movi	r16,12
   40d40:	05403fc4 	movi	r21,255
   40d44:	05c000c4 	movi	r23,3
   40d48:	003fac06 	br	40bfc <__divsf3+0x64>
   40d4c:	a009883a 	mov	r4,r20
   40d50:	d9400015 	stw	r5,0(sp)
   40d54:	0041fe40 	call	41fe4 <__clzsi2>
   40d58:	10fffec4 	addi	r3,r2,-5
   40d5c:	a0e8983a 	sll	r20,r20,r3
   40d60:	00ffe284 	movi	r3,-118
   40d64:	d9400017 	ldw	r5,0(sp)
   40d68:	18abc83a 	sub	r21,r3,r2
   40d6c:	0021883a 	mov	r16,zero
   40d70:	002f883a 	mov	r23,zero
   40d74:	003fa106 	br	40bfc <__divsf3+0x64>
   40d78:	9009883a 	mov	r4,r18
   40d7c:	0041fe40 	call	41fe4 <__clzsi2>
   40d80:	10fffec4 	addi	r3,r2,-5
   40d84:	90e4983a 	sll	r18,r18,r3
   40d88:	00ffe284 	movi	r3,-118
   40d8c:	1887c83a 	sub	r3,r3,r2
   40d90:	000b883a 	mov	r5,zero
   40d94:	003fa606 	br	40c30 <__divsf3+0x98>
   40d98:	840000d4 	ori	r16,r16,3
   40d9c:	00c03fc4 	movi	r3,255
   40da0:	014000c4 	movi	r5,3
   40da4:	003fa206 	br	40c30 <__divsf3+0x98>
   40da8:	9823883a 	mov	r17,r19
   40dac:	00ffffc4 	movi	r3,-1
   40db0:	0009883a 	mov	r4,zero
   40db4:	18803fcc 	andi	r2,r3,255
   40db8:	100495fa 	slli	r2,r2,23
   40dbc:	882297fa 	slli	r17,r17,31
   40dc0:	1104b03a 	or	r2,r2,r4
   40dc4:	1444b03a 	or	r2,r2,r17
   40dc8:	dfc00917 	ldw	ra,36(sp)
   40dcc:	ddc00817 	ldw	r23,32(sp)
   40dd0:	dd800717 	ldw	r22,28(sp)
   40dd4:	dd400617 	ldw	r21,24(sp)
   40dd8:	dd000517 	ldw	r20,20(sp)
   40ddc:	dcc00417 	ldw	r19,16(sp)
   40de0:	dc800317 	ldw	r18,12(sp)
   40de4:	dc400217 	ldw	r17,8(sp)
   40de8:	dc000117 	ldw	r16,4(sp)
   40dec:	dec00a04 	addi	sp,sp,40
   40df0:	f800283a 	ret
   40df4:	2023883a 	mov	r17,r4
   40df8:	0007883a 	mov	r3,zero
   40dfc:	0009883a 	mov	r4,zero
   40e00:	003fec06 	br	40db4 <__divsf3+0x21c>
   40e04:	b88000a0 	cmpeqi	r2,r23,2
   40e08:	103fe81e 	bne	r2,zero,40dac <__divsf3+0x214>
   40e0c:	b88000e0 	cmpeqi	r2,r23,3
   40e10:	1000241e 	bne	r2,zero,40ea4 <__divsf3+0x30c>
   40e14:	bdc00060 	cmpeqi	r23,r23,1
   40e18:	b8006126 	beq	r23,zero,40fa0 <__divsf3+0x408>
   40e1c:	0007883a 	mov	r3,zero
   40e20:	0009883a 	mov	r4,zero
   40e24:	003fe306 	br	40db4 <__divsf3+0x21c>
   40e28:	294000e0 	cmpeqi	r5,r5,3
   40e2c:	b023883a 	mov	r17,r22
   40e30:	28005d1e 	bne	r5,zero,40fa8 <__divsf3+0x410>
   40e34:	a8c01fc4 	addi	r3,r21,127
   40e38:	00c01f0e 	bge	zero,r3,40eb8 <__divsf3+0x320>
   40e3c:	908001cc 	andi	r2,r18,7
   40e40:	10000426 	beq	r2,zero,40e54 <__divsf3+0x2bc>
   40e44:	908003cc 	andi	r2,r18,15
   40e48:	10800120 	cmpeqi	r2,r2,4
   40e4c:	1000011e 	bne	r2,zero,40e54 <__divsf3+0x2bc>
   40e50:	94800104 	addi	r18,r18,4
   40e54:	9082002c 	andhi	r2,r18,2048
   40e58:	10000426 	beq	r2,zero,40e6c <__divsf3+0x2d4>
   40e5c:	00be0034 	movhi	r2,63488
   40e60:	10bfffc4 	addi	r2,r2,-1
   40e64:	90a4703a 	and	r18,r18,r2
   40e68:	a8c02004 	addi	r3,r21,128
   40e6c:	18803fc8 	cmpgei	r2,r3,255
   40e70:	103fce1e 	bne	r2,zero,40dac <__divsf3+0x214>
   40e74:	900891ba 	slli	r4,r18,6
   40e78:	2008d27a 	srli	r4,r4,9
   40e7c:	003fcd06 	br	40db4 <__divsf3+0x21c>
   40e80:	01002034 	movhi	r4,128
   40e84:	0023883a 	mov	r17,zero
   40e88:	213fffc4 	addi	r4,r4,-1
   40e8c:	00ffffc4 	movi	r3,-1
   40e90:	003fc806 	br	40db4 <__divsf3+0x21c>
   40e94:	a080102c 	andhi	r2,r20,64
   40e98:	10000226 	beq	r2,zero,40ea4 <__divsf3+0x30c>
   40e9c:	9080102c 	andhi	r2,r18,64
   40ea0:	10003926 	beq	r2,zero,40f88 <__divsf3+0x3f0>
   40ea4:	00802034 	movhi	r2,128
   40ea8:	a1001034 	orhi	r4,r20,64
   40eac:	10bfffc4 	addi	r2,r2,-1
   40eb0:	2088703a 	and	r4,r4,r2
   40eb4:	003ff506 	br	40e8c <__divsf3+0x2f4>
   40eb8:	00800044 	movi	r2,1
   40ebc:	10c5c83a 	sub	r2,r2,r3
   40ec0:	10c00710 	cmplti	r3,r2,28
   40ec4:	183fd526 	beq	r3,zero,40e1c <__divsf3+0x284>
   40ec8:	a8c02784 	addi	r3,r21,158
   40ecc:	90c6983a 	sll	r3,r18,r3
   40ed0:	9088d83a 	srl	r4,r18,r2
   40ed4:	1806c03a 	cmpne	r3,r3,zero
   40ed8:	20c8b03a 	or	r4,r4,r3
   40edc:	208001cc 	andi	r2,r4,7
   40ee0:	10000426 	beq	r2,zero,40ef4 <__divsf3+0x35c>
   40ee4:	208003cc 	andi	r2,r4,15
   40ee8:	10800120 	cmpeqi	r2,r2,4
   40eec:	1000011e 	bne	r2,zero,40ef4 <__divsf3+0x35c>
   40ef0:	21000104 	addi	r4,r4,4
   40ef4:	2081002c 	andhi	r2,r4,1024
   40ef8:	10001f26 	beq	r2,zero,40f78 <__divsf3+0x3e0>
   40efc:	00c00044 	movi	r3,1
   40f00:	0009883a 	mov	r4,zero
   40f04:	003fab06 	br	40db4 <__divsf3+0x21c>
   40f08:	a004917a 	slli	r2,r20,5
   40f0c:	900c917a 	slli	r6,r18,5
   40f10:	1180102e 	bgeu	r2,r6,40f54 <__divsf3+0x3bc>
   40f14:	ad7fffc4 	addi	r21,r21,-1
   40f18:	014006c4 	movi	r5,27
   40f1c:	0009883a 	mov	r4,zero
   40f20:	1007883a 	mov	r3,r2
   40f24:	297fffc4 	addi	r5,r5,-1
   40f28:	1085883a 	add	r2,r2,r2
   40f2c:	2109883a 	add	r4,r4,r4
   40f30:	18000116 	blt	r3,zero,40f38 <__divsf3+0x3a0>
   40f34:	11800236 	bltu	r2,r6,40f40 <__divsf3+0x3a8>
   40f38:	1185c83a 	sub	r2,r2,r6
   40f3c:	21000054 	ori	r4,r4,1
   40f40:	283ff71e 	bne	r5,zero,40f20 <__divsf3+0x388>
   40f44:	1004c03a 	cmpne	r2,r2,zero
   40f48:	1124b03a 	or	r18,r2,r4
   40f4c:	9823883a 	mov	r17,r19
   40f50:	003fb806 	br	40e34 <__divsf3+0x29c>
   40f54:	1185c83a 	sub	r2,r2,r6
   40f58:	01400684 	movi	r5,26
   40f5c:	01000044 	movi	r4,1
   40f60:	003fef06 	br	40f20 <__divsf3+0x388>
   40f64:	108000a0 	cmpeqi	r2,r2,2
   40f68:	0087c83a 	sub	r3,zero,r2
   40f6c:	b023883a 	mov	r17,r22
   40f70:	0009883a 	mov	r4,zero
   40f74:	003f8f06 	br	40db4 <__divsf3+0x21c>
   40f78:	200891ba 	slli	r4,r4,6
   40f7c:	0007883a 	mov	r3,zero
   40f80:	2008d27a 	srli	r4,r4,9
   40f84:	003f8b06 	br	40db4 <__divsf3+0x21c>
   40f88:	00802034 	movhi	r2,128
   40f8c:	91001034 	orhi	r4,r18,64
   40f90:	10bfffc4 	addi	r2,r2,-1
   40f94:	2088703a 	and	r4,r4,r2
   40f98:	b023883a 	mov	r17,r22
   40f9c:	003fbb06 	br	40e8c <__divsf3+0x2f4>
   40fa0:	a025883a 	mov	r18,r20
   40fa4:	003fa306 	br	40e34 <__divsf3+0x29c>
   40fa8:	9029883a 	mov	r20,r18
   40fac:	003fbd06 	br	40ea4 <__divsf3+0x30c>

00040fb0 <__mulsf3>:
   40fb0:	defff504 	addi	sp,sp,-44
   40fb4:	2004d5fa 	srli	r2,r4,23
   40fb8:	dd800715 	stw	r22,28(sp)
   40fbc:	202cd7fa 	srli	r22,r4,31
   40fc0:	00c02034 	movhi	r3,128
   40fc4:	dd400615 	stw	r21,24(sp)
   40fc8:	dd000515 	stw	r20,20(sp)
   40fcc:	18ffffc4 	addi	r3,r3,-1
   40fd0:	dfc00a15 	stw	ra,40(sp)
   40fd4:	df000915 	stw	fp,36(sp)
   40fd8:	ddc00815 	stw	r23,32(sp)
   40fdc:	dcc00415 	stw	r19,16(sp)
   40fe0:	dc800315 	stw	r18,12(sp)
   40fe4:	dc400215 	stw	r17,8(sp)
   40fe8:	dc000115 	stw	r16,4(sp)
   40fec:	10803fcc 	andi	r2,r2,255
   40ff0:	192a703a 	and	r21,r3,r4
   40ff4:	b029883a 	mov	r20,r22
   40ff8:	10006d26 	beq	r2,zero,411b0 <__mulsf3+0x200>
   40ffc:	10c03fe0 	cmpeqi	r3,r2,255
   41000:	1800701e 	bne	r3,zero,411c4 <__mulsf3+0x214>
   41004:	a80890fa 	slli	r4,r21,3
   41008:	14ffe044 	addi	r19,r2,-127
   4100c:	0023883a 	mov	r17,zero
   41010:	25410034 	orhi	r21,r4,1024
   41014:	0039883a 	mov	fp,zero
   41018:	2804d5fa 	srli	r2,r5,23
   4101c:	04002034 	movhi	r16,128
   41020:	843fffc4 	addi	r16,r16,-1
   41024:	10803fcc 	andi	r2,r2,255
   41028:	282ed7fa 	srli	r23,r5,31
   4102c:	8160703a 	and	r16,r16,r5
   41030:	10005726 	beq	r2,zero,41190 <__mulsf3+0x1e0>
   41034:	10c03fe0 	cmpeqi	r3,r2,255
   41038:	1800251e 	bne	r3,zero,410d0 <__mulsf3+0x120>
   4103c:	802090fa 	slli	r16,r16,3
   41040:	10bfe044 	addi	r2,r2,-127
   41044:	14e5883a 	add	r18,r2,r19
   41048:	888002c8 	cmpgei	r2,r17,11
   4104c:	84010034 	orhi	r16,r16,1024
   41050:	0007883a 	mov	r3,zero
   41054:	94c00044 	addi	r19,r18,1
   41058:	10002a1e 	bne	r2,zero,41104 <__mulsf3+0x154>
   4105c:	bda8f03a 	xor	r20,r23,r22
   41060:	888000c8 	cmpgei	r2,r17,3
   41064:	1000231e 	bne	r2,zero,410f4 <__mulsf3+0x144>
   41068:	8c7fffc4 	addi	r17,r17,-1
   4106c:	8c4000a8 	cmpgeui	r17,r17,2
   41070:	8800961e 	bne	r17,zero,412cc <__mulsf3+0x31c>
   41074:	188000a0 	cmpeqi	r2,r3,2
   41078:	1000571e 	bne	r2,zero,411d8 <__mulsf3+0x228>
   4107c:	18c00060 	cmpeqi	r3,r3,1
   41080:	18002826 	beq	r3,zero,41124 <__mulsf3+0x174>
   41084:	0007883a 	mov	r3,zero
   41088:	0009883a 	mov	r4,zero
   4108c:	18803fcc 	andi	r2,r3,255
   41090:	100495fa 	slli	r2,r2,23
   41094:	a02897fa 	slli	r20,r20,31
   41098:	1104b03a 	or	r2,r2,r4
   4109c:	1504b03a 	or	r2,r2,r20
   410a0:	dfc00a17 	ldw	ra,40(sp)
   410a4:	df000917 	ldw	fp,36(sp)
   410a8:	ddc00817 	ldw	r23,32(sp)
   410ac:	dd800717 	ldw	r22,28(sp)
   410b0:	dd400617 	ldw	r21,24(sp)
   410b4:	dd000517 	ldw	r20,20(sp)
   410b8:	dcc00417 	ldw	r19,16(sp)
   410bc:	dc800317 	ldw	r18,12(sp)
   410c0:	dc400217 	ldw	r17,8(sp)
   410c4:	dc000117 	ldw	r16,4(sp)
   410c8:	dec00b04 	addi	sp,sp,44
   410cc:	f800283a 	ret
   410d0:	9c803fc4 	addi	r18,r19,255
   410d4:	80004826 	beq	r16,zero,411f8 <__mulsf3+0x248>
   410d8:	8c4000d4 	ori	r17,r17,3
   410dc:	888002c8 	cmpgei	r2,r17,11
   410e0:	bdacf03a 	xor	r22,r23,r22
   410e4:	9cc04004 	addi	r19,r19,256
   410e8:	1000af1e 	bne	r2,zero,413a8 <__mulsf3+0x3f8>
   410ec:	b029883a 	mov	r20,r22
   410f0:	00c000c4 	movi	r3,3
   410f4:	00800044 	movi	r2,1
   410f8:	1444983a 	sll	r2,r2,r17
   410fc:	11014c0c 	andi	r4,r2,1328
   41100:	20001b26 	beq	r4,zero,41170 <__mulsf3+0x1c0>
   41104:	e08000a0 	cmpeqi	r2,fp,2
   41108:	1000331e 	bne	r2,zero,411d8 <__mulsf3+0x228>
   4110c:	e08000e0 	cmpeqi	r2,fp,3
   41110:	10009a1e 	bne	r2,zero,4137c <__mulsf3+0x3cc>
   41114:	e007883a 	mov	r3,fp
   41118:	18c00060 	cmpeqi	r3,r3,1
   4111c:	a821883a 	mov	r16,r21
   41120:	183fd81e 	bne	r3,zero,41084 <__mulsf3+0xd4>
   41124:	98c01fc4 	addi	r3,r19,127
   41128:	00c0540e 	bge	zero,r3,4127c <__mulsf3+0x2cc>
   4112c:	808001cc 	andi	r2,r16,7
   41130:	10000426 	beq	r2,zero,41144 <__mulsf3+0x194>
   41134:	808003cc 	andi	r2,r16,15
   41138:	10800120 	cmpeqi	r2,r2,4
   4113c:	1000011e 	bne	r2,zero,41144 <__mulsf3+0x194>
   41140:	84000104 	addi	r16,r16,4
   41144:	8082002c 	andhi	r2,r16,2048
   41148:	10000426 	beq	r2,zero,4115c <__mulsf3+0x1ac>
   4114c:	00be0034 	movhi	r2,63488
   41150:	10bfffc4 	addi	r2,r2,-1
   41154:	80a0703a 	and	r16,r16,r2
   41158:	98c02004 	addi	r3,r19,128
   4115c:	18803fc8 	cmpgei	r2,r3,255
   41160:	10001d1e 	bne	r2,zero,411d8 <__mulsf3+0x228>
   41164:	800891ba 	slli	r4,r16,6
   41168:	2008d27a 	srli	r4,r4,9
   4116c:	003fc706 	br	4108c <__mulsf3+0xdc>
   41170:	1100900c 	andi	r4,r2,576
   41174:	20001b1e 	bne	r4,zero,411e4 <__mulsf3+0x234>
   41178:	1080220c 	andi	r2,r2,136
   4117c:	10005326 	beq	r2,zero,412cc <__mulsf3+0x31c>
   41180:	b829883a 	mov	r20,r23
   41184:	802b883a 	mov	r21,r16
   41188:	1839883a 	mov	fp,r3
   4118c:	003fdd06 	br	41104 <__mulsf3+0x154>
   41190:	80002f1e 	bne	r16,zero,41250 <__mulsf3+0x2a0>
   41194:	8c400054 	ori	r17,r17,1
   41198:	9825883a 	mov	r18,r19
   4119c:	888002c8 	cmpgei	r2,r17,11
   411a0:	00c00044 	movi	r3,1
   411a4:	94c00044 	addi	r19,r18,1
   411a8:	103fac26 	beq	r2,zero,4105c <__mulsf3+0xac>
   411ac:	003fd506 	br	41104 <__mulsf3+0x154>
   411b0:	a8001c1e 	bne	r21,zero,41224 <__mulsf3+0x274>
   411b4:	04400104 	movi	r17,4
   411b8:	0027883a 	mov	r19,zero
   411bc:	07000044 	movi	fp,1
   411c0:	003f9506 	br	41018 <__mulsf3+0x68>
   411c4:	a800131e 	bne	r21,zero,41214 <__mulsf3+0x264>
   411c8:	04400204 	movi	r17,8
   411cc:	04c03fc4 	movi	r19,255
   411d0:	07000084 	movi	fp,2
   411d4:	003f9006 	br	41018 <__mulsf3+0x68>
   411d8:	00ffffc4 	movi	r3,-1
   411dc:	0009883a 	mov	r4,zero
   411e0:	003faa06 	br	4108c <__mulsf3+0xdc>
   411e4:	01002034 	movhi	r4,128
   411e8:	0029883a 	mov	r20,zero
   411ec:	213fffc4 	addi	r4,r4,-1
   411f0:	00ffffc4 	movi	r3,-1
   411f4:	003fa506 	br	4108c <__mulsf3+0xdc>
   411f8:	8c400094 	ori	r17,r17,2
   411fc:	888002c8 	cmpgei	r2,r17,11
   41200:	9cc04004 	addi	r19,r19,256
   41204:	103fbf1e 	bne	r2,zero,41104 <__mulsf3+0x154>
   41208:	bda8f03a 	xor	r20,r23,r22
   4120c:	00c00084 	movi	r3,2
   41210:	003f9306 	br	41060 <__mulsf3+0xb0>
   41214:	04400304 	movi	r17,12
   41218:	04c03fc4 	movi	r19,255
   4121c:	070000c4 	movi	fp,3
   41220:	003f7d06 	br	41018 <__mulsf3+0x68>
   41224:	a809883a 	mov	r4,r21
   41228:	d9400015 	stw	r5,0(sp)
   4122c:	0041fe40 	call	41fe4 <__clzsi2>
   41230:	10fffec4 	addi	r3,r2,-5
   41234:	04ffe284 	movi	r19,-118
   41238:	a8ea983a 	sll	r21,r21,r3
   4123c:	d9400017 	ldw	r5,0(sp)
   41240:	98a7c83a 	sub	r19,r19,r2
   41244:	0023883a 	mov	r17,zero
   41248:	0039883a 	mov	fp,zero
   4124c:	003f7206 	br	41018 <__mulsf3+0x68>
   41250:	8009883a 	mov	r4,r16
   41254:	0041fe40 	call	41fe4 <__clzsi2>
   41258:	10fffec4 	addi	r3,r2,-5
   4125c:	9885c83a 	sub	r2,r19,r2
   41260:	14bfe284 	addi	r18,r2,-118
   41264:	888002c8 	cmpgei	r2,r17,11
   41268:	80e0983a 	sll	r16,r16,r3
   4126c:	94c00044 	addi	r19,r18,1
   41270:	0007883a 	mov	r3,zero
   41274:	103f7926 	beq	r2,zero,4105c <__mulsf3+0xac>
   41278:	003fa206 	br	41104 <__mulsf3+0x154>
   4127c:	00800044 	movi	r2,1
   41280:	10c7c83a 	sub	r3,r2,r3
   41284:	18800708 	cmpgei	r2,r3,28
   41288:	103f7e1e 	bne	r2,zero,41084 <__mulsf3+0xd4>
   4128c:	98802784 	addi	r2,r19,158
   41290:	8084983a 	sll	r2,r16,r2
   41294:	80c6d83a 	srl	r3,r16,r3
   41298:	1004c03a 	cmpne	r2,r2,zero
   4129c:	1886b03a 	or	r3,r3,r2
   412a0:	188001cc 	andi	r2,r3,7
   412a4:	10000426 	beq	r2,zero,412b8 <__mulsf3+0x308>
   412a8:	188003cc 	andi	r2,r3,15
   412ac:	10800120 	cmpeqi	r2,r2,4
   412b0:	1000011e 	bne	r2,zero,412b8 <__mulsf3+0x308>
   412b4:	18c00104 	addi	r3,r3,4
   412b8:	1881002c 	andhi	r2,r3,1024
   412bc:	10003626 	beq	r2,zero,41398 <__mulsf3+0x3e8>
   412c0:	00c00044 	movi	r3,1
   412c4:	0009883a 	mov	r4,zero
   412c8:	003f7006 	br	4108c <__mulsf3+0xdc>
   412cc:	847fffcc 	andi	r17,r16,65535
   412d0:	a82ed43a 	srli	r23,r21,16
   412d4:	ad7fffcc 	andi	r21,r21,65535
   412d8:	880b883a 	mov	r5,r17
   412dc:	a809883a 	mov	r4,r21
   412e0:	0040b700 	call	40b70 <__mulsi3>
   412e4:	8020d43a 	srli	r16,r16,16
   412e8:	880b883a 	mov	r5,r17
   412ec:	b809883a 	mov	r4,r23
   412f0:	1023883a 	mov	r17,r2
   412f4:	0040b700 	call	40b70 <__mulsi3>
   412f8:	800b883a 	mov	r5,r16
   412fc:	b809883a 	mov	r4,r23
   41300:	102d883a 	mov	r22,r2
   41304:	0040b700 	call	40b70 <__mulsi3>
   41308:	a80b883a 	mov	r5,r21
   4130c:	8009883a 	mov	r4,r16
   41310:	102b883a 	mov	r21,r2
   41314:	0040b700 	call	40b70 <__mulsi3>
   41318:	8806d43a 	srli	r3,r17,16
   4131c:	1585883a 	add	r2,r2,r22
   41320:	1887883a 	add	r3,r3,r2
   41324:	1d80022e 	bgeu	r3,r22,41330 <__mulsf3+0x380>
   41328:	00800074 	movhi	r2,1
   4132c:	a8ab883a 	add	r21,r21,r2
   41330:	1808943a 	slli	r4,r3,16
   41334:	1820d43a 	srli	r16,r3,16
   41338:	8c7fffcc 	andi	r17,r17,65535
   4133c:	2447883a 	add	r3,r4,r17
   41340:	180491ba 	slli	r2,r3,6
   41344:	8561883a 	add	r16,r16,r21
   41348:	802091ba 	slli	r16,r16,6
   4134c:	1806d6ba 	srli	r3,r3,26
   41350:	1004c03a 	cmpne	r2,r2,zero
   41354:	8102002c 	andhi	r4,r16,2048
   41358:	10c4b03a 	or	r2,r2,r3
   4135c:	80a0b03a 	or	r16,r16,r2
   41360:	20000b26 	beq	r4,zero,41390 <__mulsf3+0x3e0>
   41364:	8004d07a 	srli	r2,r16,1
   41368:	8400004c 	andi	r16,r16,1
   4136c:	1420b03a 	or	r16,r2,r16
   41370:	003f6c06 	br	41124 <__mulsf3+0x174>
   41374:	b829883a 	mov	r20,r23
   41378:	802b883a 	mov	r21,r16
   4137c:	00802034 	movhi	r2,128
   41380:	a9001034 	orhi	r4,r21,64
   41384:	10bfffc4 	addi	r2,r2,-1
   41388:	2088703a 	and	r4,r4,r2
   4138c:	003f9806 	br	411f0 <__mulsf3+0x240>
   41390:	9027883a 	mov	r19,r18
   41394:	003f6306 	br	41124 <__mulsf3+0x174>
   41398:	180891ba 	slli	r4,r3,6
   4139c:	0007883a 	mov	r3,zero
   413a0:	2008d27a 	srli	r4,r4,9
   413a4:	003f3906 	br	4108c <__mulsf3+0xdc>
   413a8:	8c4003e0 	cmpeqi	r17,r17,15
   413ac:	883ff126 	beq	r17,zero,41374 <__mulsf3+0x3c4>
   413b0:	a880102c 	andhi	r2,r21,64
   413b4:	103ff126 	beq	r2,zero,4137c <__mulsf3+0x3cc>
   413b8:	2940102c 	andhi	r5,r5,64
   413bc:	283fef1e 	bne	r5,zero,4137c <__mulsf3+0x3cc>
   413c0:	81001034 	orhi	r4,r16,64
   413c4:	b829883a 	mov	r20,r23
   413c8:	003f8906 	br	411f0 <__mulsf3+0x240>

000413cc <__fixsfsi>:
   413cc:	200ad5fa 	srli	r5,r4,23
   413d0:	00c02034 	movhi	r3,128
   413d4:	18ffffc4 	addi	r3,r3,-1
   413d8:	29403fcc 	andi	r5,r5,255
   413dc:	28801fd0 	cmplti	r2,r5,127
   413e0:	200cd7fa 	srli	r6,r4,31
   413e4:	1906703a 	and	r3,r3,r4
   413e8:	1000061e 	bne	r2,zero,41404 <__fixsfsi+0x38>
   413ec:	28802790 	cmplti	r2,r5,158
   413f0:	1000061e 	bne	r2,zero,4140c <__fixsfsi+0x40>
   413f4:	00a00034 	movhi	r2,32768
   413f8:	10bfffc4 	addi	r2,r2,-1
   413fc:	3085883a 	add	r2,r6,r2
   41400:	f800283a 	ret
   41404:	0005883a 	mov	r2,zero
   41408:	f800283a 	ret
   4140c:	29002590 	cmplti	r4,r5,150
   41410:	18802034 	orhi	r2,r3,128
   41414:	2000051e 	bne	r4,zero,4142c <__fixsfsi+0x60>
   41418:	297fda84 	addi	r5,r5,-150
   4141c:	1144983a 	sll	r2,r2,r5
   41420:	303ff926 	beq	r6,zero,41408 <__fixsfsi+0x3c>
   41424:	0085c83a 	sub	r2,zero,r2
   41428:	f800283a 	ret
   4142c:	00c02584 	movi	r3,150
   41430:	1947c83a 	sub	r3,r3,r5
   41434:	10c4d83a 	srl	r2,r2,r3
   41438:	003ff906 	br	41420 <__fixsfsi+0x54>

0004143c <__floatsisf>:
   4143c:	defffd04 	addi	sp,sp,-12
   41440:	dfc00215 	stw	ra,8(sp)
   41444:	dc400115 	stw	r17,4(sp)
   41448:	dc000015 	stw	r16,0(sp)
   4144c:	20001226 	beq	r4,zero,41498 <__floatsisf+0x5c>
   41450:	2022d7fa 	srli	r17,r4,31
   41454:	2021883a 	mov	r16,r4
   41458:	20003316 	blt	r4,zero,41528 <__floatsisf+0xec>
   4145c:	8009883a 	mov	r4,r16
   41460:	0041fe40 	call	41fe4 <__clzsi2>
   41464:	1009883a 	mov	r4,r2
   41468:	00802784 	movi	r2,158
   4146c:	1105c83a 	sub	r2,r2,r4
   41470:	10c025c8 	cmpgei	r3,r2,151
   41474:	1800151e 	bne	r3,zero,414cc <__floatsisf+0x90>
   41478:	20c00218 	cmpnei	r3,r4,8
   4147c:	18003426 	beq	r3,zero,41550 <__floatsisf+0x114>
   41480:	20fffe04 	addi	r3,r4,-8
   41484:	80c6983a 	sll	r3,r16,r3
   41488:	01002034 	movhi	r4,128
   4148c:	213fffc4 	addi	r4,r4,-1
   41490:	1906703a 	and	r3,r3,r4
   41494:	00000306 	br	414a4 <__floatsisf+0x68>
   41498:	0023883a 	mov	r17,zero
   4149c:	0005883a 	mov	r2,zero
   414a0:	0007883a 	mov	r3,zero
   414a4:	10803fcc 	andi	r2,r2,255
   414a8:	100495fa 	slli	r2,r2,23
   414ac:	880897fa 	slli	r4,r17,31
   414b0:	10c4b03a 	or	r2,r2,r3
   414b4:	1104b03a 	or	r2,r2,r4
   414b8:	dfc00217 	ldw	ra,8(sp)
   414bc:	dc400117 	ldw	r17,4(sp)
   414c0:	dc000017 	ldw	r16,0(sp)
   414c4:	dec00304 	addi	sp,sp,12
   414c8:	f800283a 	ret
   414cc:	10c02690 	cmplti	r3,r2,154
   414d0:	18001726 	beq	r3,zero,41530 <__floatsisf+0xf4>
   414d4:	20c00160 	cmpeqi	r3,r4,5
   414d8:	217ffec4 	addi	r5,r4,-5
   414dc:	1800011e 	bne	r3,zero,414e4 <__floatsisf+0xa8>
   414e0:	8160983a 	sll	r16,r16,r5
   414e4:	017f0034 	movhi	r5,64512
   414e8:	297fffc4 	addi	r5,r5,-1
   414ec:	818001cc 	andi	r6,r16,7
   414f0:	8146703a 	and	r3,r16,r5
   414f4:	30000926 	beq	r6,zero,4151c <__floatsisf+0xe0>
   414f8:	840003cc 	andi	r16,r16,15
   414fc:	84000120 	cmpeqi	r16,r16,4
   41500:	8000061e 	bne	r16,zero,4151c <__floatsisf+0xe0>
   41504:	18c00104 	addi	r3,r3,4
   41508:	1981002c 	andhi	r6,r3,1024
   4150c:	30000326 	beq	r6,zero,4151c <__floatsisf+0xe0>
   41510:	008027c4 	movi	r2,159
   41514:	1946703a 	and	r3,r3,r5
   41518:	1105c83a 	sub	r2,r2,r4
   4151c:	180691ba 	slli	r3,r3,6
   41520:	1806d27a 	srli	r3,r3,9
   41524:	003fdf06 	br	414a4 <__floatsisf+0x68>
   41528:	0121c83a 	sub	r16,zero,r4
   4152c:	003fcb06 	br	4145c <__floatsisf+0x20>
   41530:	20c006c4 	addi	r3,r4,27
   41534:	01400144 	movi	r5,5
   41538:	80c6983a 	sll	r3,r16,r3
   4153c:	290bc83a 	sub	r5,r5,r4
   41540:	8160d83a 	srl	r16,r16,r5
   41544:	1806c03a 	cmpne	r3,r3,zero
   41548:	80e0b03a 	or	r16,r16,r3
   4154c:	003fe506 	br	414e4 <__floatsisf+0xa8>
   41550:	00c02034 	movhi	r3,128
   41554:	18ffffc4 	addi	r3,r3,-1
   41558:	80c6703a 	and	r3,r16,r3
   4155c:	00bfe584 	movi	r2,-106
   41560:	003fd006 	br	414a4 <__floatsisf+0x68>

00041564 <__adddf3>:
   41564:	00c00434 	movhi	r3,16
   41568:	18ffffc4 	addi	r3,r3,-1
   4156c:	defffa04 	addi	sp,sp,-24
   41570:	2810d7fa 	srli	r8,r5,31
   41574:	3804d53a 	srli	r2,r7,20
   41578:	28d4703a 	and	r10,r5,r3
   4157c:	38d2703a 	and	r9,r7,r3
   41580:	280ad53a 	srli	r5,r5,20
   41584:	501490fa 	slli	r10,r10,3
   41588:	481290fa 	slli	r9,r9,3
   4158c:	3016d77a 	srli	r11,r6,29
   41590:	dc400115 	stw	r17,4(sp)
   41594:	380ed7fa 	srli	r7,r7,31
   41598:	2022d77a 	srli	r17,r4,29
   4159c:	dd000415 	stw	r20,16(sp)
   415a0:	dcc00315 	stw	r19,12(sp)
   415a4:	dc000015 	stw	r16,0(sp)
   415a8:	1081ffcc 	andi	r2,r2,2047
   415ac:	2c01ffcc 	andi	r16,r5,2047
   415b0:	dfc00515 	stw	ra,20(sp)
   415b4:	dc800215 	stw	r18,8(sp)
   415b8:	201890fa 	slli	r12,r4,3
   415bc:	301a90fa 	slli	r13,r6,3
   415c0:	4027883a 	mov	r19,r8
   415c4:	45003fcc 	andi	r20,r8,255
   415c8:	8aa2b03a 	or	r17,r17,r10
   415cc:	5a56b03a 	or	r11,r11,r9
   415d0:	808bc83a 	sub	r5,r16,r2
   415d4:	41c07526 	beq	r8,r7,417ac <__adddf3+0x248>
   415d8:	0140540e 	bge	zero,r5,4172c <__adddf3+0x1c8>
   415dc:	10008b26 	beq	r2,zero,4180c <__adddf3+0x2a8>
   415e0:	8081ffe0 	cmpeqi	r2,r16,2047
   415e4:	10010d1e 	bne	r2,zero,41a1c <__adddf3+0x4b8>
   415e8:	28800e48 	cmpgei	r2,r5,57
   415ec:	1000c11e 	bne	r2,zero,418f4 <__adddf3+0x390>
   415f0:	5ac02034 	orhi	r11,r11,128
   415f4:	28800808 	cmpgei	r2,r5,32
   415f8:	1001461e 	bne	r2,zero,41b14 <__adddf3+0x5b0>
   415fc:	00800804 	movi	r2,32
   41600:	1145c83a 	sub	r2,r2,r5
   41604:	58a4983a 	sll	r18,r11,r2
   41608:	6946d83a 	srl	r3,r13,r5
   4160c:	6884983a 	sll	r2,r13,r2
   41610:	594ad83a 	srl	r5,r11,r5
   41614:	90e4b03a 	or	r18,r18,r3
   41618:	1004c03a 	cmpne	r2,r2,zero
   4161c:	90a4b03a 	or	r18,r18,r2
   41620:	8963c83a 	sub	r17,r17,r5
   41624:	64a5c83a 	sub	r18,r12,r18
   41628:	6485803a 	cmpltu	r2,r12,r18
   4162c:	88a3c83a 	sub	r17,r17,r2
   41630:	8880202c 	andhi	r2,r17,128
   41634:	1000b826 	beq	r2,zero,41918 <__adddf3+0x3b4>
   41638:	00802034 	movhi	r2,128
   4163c:	10bfffc4 	addi	r2,r2,-1
   41640:	88a2703a 	and	r17,r17,r2
   41644:	8800d026 	beq	r17,zero,41988 <__adddf3+0x424>
   41648:	8809883a 	mov	r4,r17
   4164c:	0041fe40 	call	41fe4 <__clzsi2>
   41650:	113ffe04 	addi	r4,r2,-8
   41654:	00c00804 	movi	r3,32
   41658:	1905c83a 	sub	r2,r3,r4
   4165c:	9084d83a 	srl	r2,r18,r2
   41660:	8922983a 	sll	r17,r17,r4
   41664:	9124983a 	sll	r18,r18,r4
   41668:	1444b03a 	or	r2,r2,r17
   4166c:	2400ff16 	blt	r4,r16,41a6c <__adddf3+0x508>
   41670:	2409c83a 	sub	r4,r4,r16
   41674:	21000044 	addi	r4,r4,1
   41678:	1907c83a 	sub	r3,r3,r4
   4167c:	90ca983a 	sll	r5,r18,r3
   41680:	9122d83a 	srl	r17,r18,r4
   41684:	280ac03a 	cmpne	r5,r5,zero
   41688:	10c6983a 	sll	r3,r2,r3
   4168c:	894ab03a 	or	r5,r17,r5
   41690:	1122d83a 	srl	r17,r2,r4
   41694:	0021883a 	mov	r16,zero
   41698:	1964b03a 	or	r18,r3,r5
   4169c:	908001cc 	andi	r2,r18,7
   416a0:	10000726 	beq	r2,zero,416c0 <__adddf3+0x15c>
   416a4:	908003cc 	andi	r2,r18,15
   416a8:	10800120 	cmpeqi	r2,r2,4
   416ac:	1000041e 	bne	r2,zero,416c0 <__adddf3+0x15c>
   416b0:	90800104 	addi	r2,r18,4
   416b4:	14a5803a 	cmpltu	r18,r2,r18
   416b8:	8ca3883a 	add	r17,r17,r18
   416bc:	1025883a 	mov	r18,r2
   416c0:	8880202c 	andhi	r2,r17,128
   416c4:	1000c926 	beq	r2,zero,419ec <__adddf3+0x488>
   416c8:	8081ffa0 	cmpeqi	r2,r16,2046
   416cc:	84000044 	addi	r16,r16,1
   416d0:	1000841e 	bne	r2,zero,418e4 <__adddf3+0x380>
   416d4:	013fe034 	movhi	r4,65408
   416d8:	213fffc4 	addi	r4,r4,-1
   416dc:	8908703a 	and	r4,r17,r4
   416e0:	2004977a 	slli	r2,r4,29
   416e4:	2008927a 	slli	r4,r4,9
   416e8:	9024d0fa 	srli	r18,r18,3
   416ec:	80c1ffcc 	andi	r3,r16,2047
   416f0:	2008d33a 	srli	r4,r4,12
   416f4:	1484b03a 	or	r2,r2,r18
   416f8:	a027883a 	mov	r19,r20
   416fc:	1806953a 	slli	r3,r3,20
   41700:	982697fa 	slli	r19,r19,31
   41704:	1906b03a 	or	r3,r3,r4
   41708:	1cc6b03a 	or	r3,r3,r19
   4170c:	dfc00517 	ldw	ra,20(sp)
   41710:	dd000417 	ldw	r20,16(sp)
   41714:	dcc00317 	ldw	r19,12(sp)
   41718:	dc800217 	ldw	r18,8(sp)
   4171c:	dc400117 	ldw	r17,4(sp)
   41720:	dc000017 	ldw	r16,0(sp)
   41724:	dec00604 	addi	sp,sp,24
   41728:	f800283a 	ret
   4172c:	3a803fcc 	andi	r10,r7,255
   41730:	28004026 	beq	r5,zero,41834 <__adddf3+0x2d0>
   41734:	140bc83a 	sub	r5,r2,r16
   41738:	8000e61e 	bne	r16,zero,41ad4 <__adddf3+0x570>
   4173c:	8b06b03a 	or	r3,r17,r12
   41740:	1800c426 	beq	r3,zero,41a54 <__adddf3+0x4f0>
   41744:	28ffffc4 	addi	r3,r5,-1
   41748:	18017a26 	beq	r3,zero,41d34 <__adddf3+0x7d0>
   4174c:	2941ffe0 	cmpeqi	r5,r5,2047
   41750:	28019a1e 	bne	r5,zero,41dbc <__adddf3+0x858>
   41754:	19000e48 	cmpgei	r4,r3,57
   41758:	20010c1e 	bne	r4,zero,41b8c <__adddf3+0x628>
   4175c:	180b883a 	mov	r5,r3
   41760:	28c00808 	cmpgei	r3,r5,32
   41764:	1801521e 	bne	r3,zero,41cb0 <__adddf3+0x74c>
   41768:	00c00804 	movi	r3,32
   4176c:	1947c83a 	sub	r3,r3,r5
   41770:	88e4983a 	sll	r18,r17,r3
   41774:	6148d83a 	srl	r4,r12,r5
   41778:	60c6983a 	sll	r3,r12,r3
   4177c:	894ad83a 	srl	r5,r17,r5
   41780:	9124b03a 	or	r18,r18,r4
   41784:	1806c03a 	cmpne	r3,r3,zero
   41788:	90e4b03a 	or	r18,r18,r3
   4178c:	5957c83a 	sub	r11,r11,r5
   41790:	6ca5c83a 	sub	r18,r13,r18
   41794:	6c9b803a 	cmpltu	r13,r13,r18
   41798:	5b63c83a 	sub	r17,r11,r13
   4179c:	3827883a 	mov	r19,r7
   417a0:	1021883a 	mov	r16,r2
   417a4:	5029883a 	mov	r20,r10
   417a8:	003fa106 	br	41630 <__adddf3+0xcc>
   417ac:	01405d0e 	bge	zero,r5,41924 <__adddf3+0x3c0>
   417b0:	1000351e 	bne	r2,zero,41888 <__adddf3+0x324>
   417b4:	5b44b03a 	or	r2,r11,r13
   417b8:	1000a926 	beq	r2,zero,41a60 <__adddf3+0x4fc>
   417bc:	28bfffc4 	addi	r2,r5,-1
   417c0:	10004e26 	beq	r2,zero,418fc <__adddf3+0x398>
   417c4:	2941ffe0 	cmpeqi	r5,r5,2047
   417c8:	2801121e 	bne	r5,zero,41c14 <__adddf3+0x6b0>
   417cc:	10c00e48 	cmpgei	r3,r2,57
   417d0:	1800311e 	bne	r3,zero,41898 <__adddf3+0x334>
   417d4:	100b883a 	mov	r5,r2
   417d8:	28800808 	cmpgei	r2,r5,32
   417dc:	1001181e 	bne	r2,zero,41c40 <__adddf3+0x6dc>
   417e0:	00800804 	movi	r2,32
   417e4:	1145c83a 	sub	r2,r2,r5
   417e8:	58a4983a 	sll	r18,r11,r2
   417ec:	6946d83a 	srl	r3,r13,r5
   417f0:	6884983a 	sll	r2,r13,r2
   417f4:	594ad83a 	srl	r5,r11,r5
   417f8:	90e4b03a 	or	r18,r18,r3
   417fc:	1004c03a 	cmpne	r2,r2,zero
   41800:	90a4b03a 	or	r18,r18,r2
   41804:	8963883a 	add	r17,r17,r5
   41808:	00002406 	br	4189c <__adddf3+0x338>
   4180c:	5b44b03a 	or	r2,r11,r13
   41810:	10009326 	beq	r2,zero,41a60 <__adddf3+0x4fc>
   41814:	28bfffc4 	addi	r2,r5,-1
   41818:	1000f826 	beq	r2,zero,41bfc <__adddf3+0x698>
   4181c:	2941ffe0 	cmpeqi	r5,r5,2047
   41820:	2800fc1e 	bne	r5,zero,41c14 <__adddf3+0x6b0>
   41824:	10c00e48 	cmpgei	r3,r2,57
   41828:	1800321e 	bne	r3,zero,418f4 <__adddf3+0x390>
   4182c:	100b883a 	mov	r5,r2
   41830:	003f7006 	br	415f4 <__adddf3+0x90>
   41834:	80800044 	addi	r2,r16,1
   41838:	1081ff8c 	andi	r2,r2,2046
   4183c:	1000ab1e 	bne	r2,zero,41aec <__adddf3+0x588>
   41840:	8b0ab03a 	or	r5,r17,r12
   41844:	5b44b03a 	or	r2,r11,r13
   41848:	8000e71e 	bne	r16,zero,41be8 <__adddf3+0x684>
   4184c:	28014126 	beq	r5,zero,41d54 <__adddf3+0x7f0>
   41850:	10010626 	beq	r2,zero,41c6c <__adddf3+0x708>
   41854:	6365c83a 	sub	r18,r12,r13
   41858:	6485803a 	cmpltu	r2,r12,r18
   4185c:	8ac7c83a 	sub	r3,r17,r11
   41860:	1887c83a 	sub	r3,r3,r2
   41864:	1880202c 	andhi	r2,r3,128
   41868:	10017326 	beq	r2,zero,41e38 <__adddf3+0x8d4>
   4186c:	6b25c83a 	sub	r18,r13,r12
   41870:	5c57c83a 	sub	r11,r11,r17
   41874:	6c9b803a 	cmpltu	r13,r13,r18
   41878:	5b63c83a 	sub	r17,r11,r13
   4187c:	3827883a 	mov	r19,r7
   41880:	5029883a 	mov	r20,r10
   41884:	003f8506 	br	4169c <__adddf3+0x138>
   41888:	8081ffe0 	cmpeqi	r2,r16,2047
   4188c:	1000631e 	bne	r2,zero,41a1c <__adddf3+0x4b8>
   41890:	28800e48 	cmpgei	r2,r5,57
   41894:	1000aa26 	beq	r2,zero,41b40 <__adddf3+0x5dc>
   41898:	04800044 	movi	r18,1
   4189c:	9325883a 	add	r18,r18,r12
   418a0:	9305803a 	cmpltu	r2,r18,r12
   418a4:	88a3883a 	add	r17,r17,r2
   418a8:	8880202c 	andhi	r2,r17,128
   418ac:	10001a26 	beq	r2,zero,41918 <__adddf3+0x3b4>
   418b0:	84000044 	addi	r16,r16,1
   418b4:	8081ffe0 	cmpeqi	r2,r16,2047
   418b8:	10000a1e 	bne	r2,zero,418e4 <__adddf3+0x380>
   418bc:	00bfe034 	movhi	r2,65408
   418c0:	10bfffc4 	addi	r2,r2,-1
   418c4:	9006d07a 	srli	r3,r18,1
   418c8:	8884703a 	and	r2,r17,r2
   418cc:	100897fa 	slli	r4,r2,31
   418d0:	9480004c 	andi	r18,r18,1
   418d4:	1c86b03a 	or	r3,r3,r18
   418d8:	1022d07a 	srli	r17,r2,1
   418dc:	20e4b03a 	or	r18,r4,r3
   418e0:	003f6e06 	br	4169c <__adddf3+0x138>
   418e4:	00c1ffc4 	movi	r3,2047
   418e8:	0009883a 	mov	r4,zero
   418ec:	0005883a 	mov	r2,zero
   418f0:	003f8206 	br	416fc <__adddf3+0x198>
   418f4:	04800044 	movi	r18,1
   418f8:	003f4a06 	br	41624 <__adddf3+0xc0>
   418fc:	6365883a 	add	r18,r12,r13
   41900:	8ad7883a 	add	r11,r17,r11
   41904:	9305803a 	cmpltu	r2,r18,r12
   41908:	58a3883a 	add	r17,r11,r2
   4190c:	8880202c 	andhi	r2,r17,128
   41910:	1001061e 	bne	r2,zero,41d2c <__adddf3+0x7c8>
   41914:	04000044 	movi	r16,1
   41918:	908001cc 	andi	r2,r18,7
   4191c:	103f611e 	bne	r2,zero,416a4 <__adddf3+0x140>
   41920:	00006906 	br	41ac8 <__adddf3+0x564>
   41924:	28005626 	beq	r5,zero,41a80 <__adddf3+0x51c>
   41928:	140bc83a 	sub	r5,r2,r16
   4192c:	80008626 	beq	r16,zero,41b48 <__adddf3+0x5e4>
   41930:	10c1ffe0 	cmpeqi	r3,r2,2047
   41934:	1801101e 	bne	r3,zero,41d78 <__adddf3+0x814>
   41938:	28c00e48 	cmpgei	r3,r5,57
   4193c:	1800da1e 	bne	r3,zero,41ca8 <__adddf3+0x744>
   41940:	8c402034 	orhi	r17,r17,128
   41944:	28c00808 	cmpgei	r3,r5,32
   41948:	1801241e 	bne	r3,zero,41ddc <__adddf3+0x878>
   4194c:	00c00804 	movi	r3,32
   41950:	1947c83a 	sub	r3,r3,r5
   41954:	88e4983a 	sll	r18,r17,r3
   41958:	6148d83a 	srl	r4,r12,r5
   4195c:	60c6983a 	sll	r3,r12,r3
   41960:	894ad83a 	srl	r5,r17,r5
   41964:	9124b03a 	or	r18,r18,r4
   41968:	1806c03a 	cmpne	r3,r3,zero
   4196c:	90e4b03a 	or	r18,r18,r3
   41970:	5957883a 	add	r11,r11,r5
   41974:	9365883a 	add	r18,r18,r13
   41978:	935b803a 	cmpltu	r13,r18,r13
   4197c:	6ae3883a 	add	r17,r13,r11
   41980:	1021883a 	mov	r16,r2
   41984:	003fc806 	br	418a8 <__adddf3+0x344>
   41988:	9009883a 	mov	r4,r18
   4198c:	0041fe40 	call	41fe4 <__clzsi2>
   41990:	11000604 	addi	r4,r2,24
   41994:	20c00808 	cmpgei	r3,r4,32
   41998:	183f2e26 	beq	r3,zero,41654 <__adddf3+0xf0>
   4199c:	10bffe04 	addi	r2,r2,-8
   419a0:	9084983a 	sll	r2,r18,r2
   419a4:	24007216 	blt	r4,r16,41b70 <__adddf3+0x60c>
   419a8:	2425c83a 	sub	r18,r4,r16
   419ac:	91000044 	addi	r4,r18,1
   419b0:	20c00808 	cmpgei	r3,r4,32
   419b4:	18012426 	beq	r3,zero,41e48 <__adddf3+0x8e4>
   419b8:	94bff844 	addi	r18,r18,-31
   419bc:	20c00820 	cmpeqi	r3,r4,32
   419c0:	14a4d83a 	srl	r18,r2,r18
   419c4:	1800051e 	bne	r3,zero,419dc <__adddf3+0x478>
   419c8:	00c01004 	movi	r3,64
   419cc:	1907c83a 	sub	r3,r3,r4
   419d0:	10c4983a 	sll	r2,r2,r3
   419d4:	1004c03a 	cmpne	r2,r2,zero
   419d8:	90a4b03a 	or	r18,r18,r2
   419dc:	908001cc 	andi	r2,r18,7
   419e0:	0021883a 	mov	r16,zero
   419e4:	103f2f1e 	bne	r2,zero,416a4 <__adddf3+0x140>
   419e8:	00003706 	br	41ac8 <__adddf3+0x564>
   419ec:	9004d0fa 	srli	r2,r18,3
   419f0:	880a977a 	slli	r5,r17,29
   419f4:	8101ffe0 	cmpeqi	r4,r16,2047
   419f8:	8806d0fa 	srli	r3,r17,3
   419fc:	2884b03a 	or	r2,r5,r2
   41a00:	20000c1e 	bne	r4,zero,41a34 <__adddf3+0x4d0>
   41a04:	01000434 	movhi	r4,16
   41a08:	213fffc4 	addi	r4,r4,-1
   41a0c:	1908703a 	and	r4,r3,r4
   41a10:	80c1ffcc 	andi	r3,r16,2047
   41a14:	003f3906 	br	416fc <__adddf3+0x198>
   41a18:	1000b31e 	bne	r2,zero,41ce8 <__adddf3+0x784>
   41a1c:	880a977a 	slli	r5,r17,29
   41a20:	00880034 	movhi	r2,8192
   41a24:	10bfffc4 	addi	r2,r2,-1
   41a28:	8806d0fa 	srli	r3,r17,3
   41a2c:	2084703a 	and	r2,r4,r2
   41a30:	1144b03a 	or	r2,r2,r5
   41a34:	10c8b03a 	or	r4,r2,r3
   41a38:	20010726 	beq	r4,zero,41e58 <__adddf3+0x8f4>
   41a3c:	01400434 	movhi	r5,16
   41a40:	19000234 	orhi	r4,r3,8
   41a44:	297fffc4 	addi	r5,r5,-1
   41a48:	2148703a 	and	r4,r4,r5
   41a4c:	00c1ffc4 	movi	r3,2047
   41a50:	003f2a06 	br	416fc <__adddf3+0x198>
   41a54:	6819883a 	mov	r12,r13
   41a58:	5823883a 	mov	r17,r11
   41a5c:	3827883a 	mov	r19,r7
   41a60:	6004d0fa 	srli	r2,r12,3
   41a64:	2821883a 	mov	r16,r5
   41a68:	003fe106 	br	419f0 <__adddf3+0x48c>
   41a6c:	047fe034 	movhi	r17,65408
   41a70:	8c7fffc4 	addi	r17,r17,-1
   41a74:	8121c83a 	sub	r16,r16,r4
   41a78:	1462703a 	and	r17,r2,r17
   41a7c:	003f0706 	br	4169c <__adddf3+0x138>
   41a80:	80c00044 	addi	r3,r16,1
   41a84:	1881ff8c 	andi	r2,r3,2046
   41a88:	1000421e 	bne	r2,zero,41b94 <__adddf3+0x630>
   41a8c:	8b04b03a 	or	r2,r17,r12
   41a90:	8000921e 	bne	r16,zero,41cdc <__adddf3+0x778>
   41a94:	1000c226 	beq	r2,zero,41da0 <__adddf3+0x83c>
   41a98:	5b44b03a 	or	r2,r11,r13
   41a9c:	10007326 	beq	r2,zero,41c6c <__adddf3+0x708>
   41aa0:	6365883a 	add	r18,r12,r13
   41aa4:	9305803a 	cmpltu	r2,r18,r12
   41aa8:	8ad7883a 	add	r11,r17,r11
   41aac:	58a3883a 	add	r17,r11,r2
   41ab0:	8880202c 	andhi	r2,r17,128
   41ab4:	10000426 	beq	r2,zero,41ac8 <__adddf3+0x564>
   41ab8:	00bfe034 	movhi	r2,65408
   41abc:	10bfffc4 	addi	r2,r2,-1
   41ac0:	88a2703a 	and	r17,r17,r2
   41ac4:	04000044 	movi	r16,1
   41ac8:	800b883a 	mov	r5,r16
   41acc:	9019883a 	mov	r12,r18
   41ad0:	003fe306 	br	41a60 <__adddf3+0x4fc>
   41ad4:	10c1ffe0 	cmpeqi	r3,r2,2047
   41ad8:	18006b1e 	bne	r3,zero,41c88 <__adddf3+0x724>
   41adc:	28c00e48 	cmpgei	r3,r5,57
   41ae0:	18002a1e 	bne	r3,zero,41b8c <__adddf3+0x628>
   41ae4:	8c402034 	orhi	r17,r17,128
   41ae8:	003f1d06 	br	41760 <__adddf3+0x1fc>
   41aec:	6365c83a 	sub	r18,r12,r13
   41af0:	6485803a 	cmpltu	r2,r12,r18
   41af4:	8ac7c83a 	sub	r3,r17,r11
   41af8:	1887c83a 	sub	r3,r3,r2
   41afc:	1880202c 	andhi	r2,r3,128
   41b00:	1000321e 	bne	r2,zero,41bcc <__adddf3+0x668>
   41b04:	90c4b03a 	or	r2,r18,r3
   41b08:	10004926 	beq	r2,zero,41c30 <__adddf3+0x6cc>
   41b0c:	1823883a 	mov	r17,r3
   41b10:	003ecc06 	br	41644 <__adddf3+0xe0>
   41b14:	28bff804 	addi	r2,r5,-32
   41b18:	28c00820 	cmpeqi	r3,r5,32
   41b1c:	5884d83a 	srl	r2,r11,r2
   41b20:	1800041e 	bne	r3,zero,41b34 <__adddf3+0x5d0>
   41b24:	00c01004 	movi	r3,64
   41b28:	1947c83a 	sub	r3,r3,r5
   41b2c:	58c6983a 	sll	r3,r11,r3
   41b30:	68dab03a 	or	r13,r13,r3
   41b34:	6824c03a 	cmpne	r18,r13,zero
   41b38:	90a4b03a 	or	r18,r18,r2
   41b3c:	003eb906 	br	41624 <__adddf3+0xc0>
   41b40:	5ac02034 	orhi	r11,r11,128
   41b44:	003f2406 	br	417d8 <__adddf3+0x274>
   41b48:	8b06b03a 	or	r3,r17,r12
   41b4c:	18009126 	beq	r3,zero,41d94 <__adddf3+0x830>
   41b50:	28ffffc4 	addi	r3,r5,-1
   41b54:	1800ac26 	beq	r3,zero,41e08 <__adddf3+0x8a4>
   41b58:	2941ffe0 	cmpeqi	r5,r5,2047
   41b5c:	2800861e 	bne	r5,zero,41d78 <__adddf3+0x814>
   41b60:	19000e48 	cmpgei	r4,r3,57
   41b64:	2000501e 	bne	r4,zero,41ca8 <__adddf3+0x744>
   41b68:	180b883a 	mov	r5,r3
   41b6c:	003f7506 	br	41944 <__adddf3+0x3e0>
   41b70:	00ffe034 	movhi	r3,65408
   41b74:	18ffffc4 	addi	r3,r3,-1
   41b78:	10c6703a 	and	r3,r2,r3
   41b7c:	1804977a 	slli	r2,r3,29
   41b80:	8121c83a 	sub	r16,r16,r4
   41b84:	1806d0fa 	srli	r3,r3,3
   41b88:	003f9e06 	br	41a04 <__adddf3+0x4a0>
   41b8c:	04800044 	movi	r18,1
   41b90:	003eff06 	br	41790 <__adddf3+0x22c>
   41b94:	1881ffe0 	cmpeqi	r2,r3,2047
   41b98:	103f521e 	bne	r2,zero,418e4 <__adddf3+0x380>
   41b9c:	6349883a 	add	r4,r12,r13
   41ba0:	8ad7883a 	add	r11,r17,r11
   41ba4:	2305803a 	cmpltu	r2,r4,r12
   41ba8:	5885883a 	add	r2,r11,r2
   41bac:	2008d07a 	srli	r4,r4,1
   41bb0:	102497fa 	slli	r18,r2,31
   41bb4:	1022d07a 	srli	r17,r2,1
   41bb8:	208001cc 	andi	r2,r4,7
   41bbc:	9124b03a 	or	r18,r18,r4
   41bc0:	1821883a 	mov	r16,r3
   41bc4:	103eb71e 	bne	r2,zero,416a4 <__adddf3+0x140>
   41bc8:	003fbf06 	br	41ac8 <__adddf3+0x564>
   41bcc:	6b25c83a 	sub	r18,r13,r12
   41bd0:	5c57c83a 	sub	r11,r11,r17
   41bd4:	6c9b803a 	cmpltu	r13,r13,r18
   41bd8:	5b63c83a 	sub	r17,r11,r13
   41bdc:	3827883a 	mov	r19,r7
   41be0:	5029883a 	mov	r20,r10
   41be4:	003e9706 	br	41644 <__adddf3+0xe0>
   41be8:	283f8b1e 	bne	r5,zero,41a18 <__adddf3+0x4b4>
   41bec:	1000261e 	bne	r2,zero,41c88 <__adddf3+0x724>
   41bf0:	00bfffc4 	movi	r2,-1
   41bf4:	0027883a 	mov	r19,zero
   41bf8:	003f9006 	br	41a3c <__adddf3+0x4d8>
   41bfc:	6365c83a 	sub	r18,r12,r13
   41c00:	8ad7c83a 	sub	r11,r17,r11
   41c04:	6485803a 	cmpltu	r2,r12,r18
   41c08:	58a3c83a 	sub	r17,r11,r2
   41c0c:	04000044 	movi	r16,1
   41c10:	003e8706 	br	41630 <__adddf3+0xcc>
   41c14:	8804977a 	slli	r2,r17,29
   41c18:	00c80034 	movhi	r3,8192
   41c1c:	18ffffc4 	addi	r3,r3,-1
   41c20:	20c8703a 	and	r4,r4,r3
   41c24:	2084b03a 	or	r2,r4,r2
   41c28:	8806d0fa 	srli	r3,r17,3
   41c2c:	003f8106 	br	41a34 <__adddf3+0x4d0>
   41c30:	0027883a 	mov	r19,zero
   41c34:	0007883a 	mov	r3,zero
   41c38:	0009883a 	mov	r4,zero
   41c3c:	003eaf06 	br	416fc <__adddf3+0x198>
   41c40:	28bff804 	addi	r2,r5,-32
   41c44:	28c00820 	cmpeqi	r3,r5,32
   41c48:	5884d83a 	srl	r2,r11,r2
   41c4c:	1800041e 	bne	r3,zero,41c60 <__adddf3+0x6fc>
   41c50:	00c01004 	movi	r3,64
   41c54:	1947c83a 	sub	r3,r3,r5
   41c58:	58c6983a 	sll	r3,r11,r3
   41c5c:	68dab03a 	or	r13,r13,r3
   41c60:	6824c03a 	cmpne	r18,r13,zero
   41c64:	90a4b03a 	or	r18,r18,r2
   41c68:	003f0c06 	br	4189c <__adddf3+0x338>
   41c6c:	880a977a 	slli	r5,r17,29
   41c70:	00880034 	movhi	r2,8192
   41c74:	10bfffc4 	addi	r2,r2,-1
   41c78:	2084703a 	and	r2,r4,r2
   41c7c:	8806d0fa 	srli	r3,r17,3
   41c80:	1144b03a 	or	r2,r2,r5
   41c84:	003f5f06 	br	41a04 <__adddf3+0x4a0>
   41c88:	5804977a 	slli	r2,r11,29
   41c8c:	00c80034 	movhi	r3,8192
   41c90:	18ffffc4 	addi	r3,r3,-1
   41c94:	30c8703a 	and	r4,r6,r3
   41c98:	1104b03a 	or	r2,r2,r4
   41c9c:	5806d0fa 	srli	r3,r11,3
   41ca0:	3827883a 	mov	r19,r7
   41ca4:	003f6306 	br	41a34 <__adddf3+0x4d0>
   41ca8:	04800044 	movi	r18,1
   41cac:	003f3106 	br	41974 <__adddf3+0x410>
   41cb0:	28fff804 	addi	r3,r5,-32
   41cb4:	29000820 	cmpeqi	r4,r5,32
   41cb8:	88c6d83a 	srl	r3,r17,r3
   41cbc:	2000041e 	bne	r4,zero,41cd0 <__adddf3+0x76c>
   41cc0:	01001004 	movi	r4,64
   41cc4:	2149c83a 	sub	r4,r4,r5
   41cc8:	8908983a 	sll	r4,r17,r4
   41ccc:	6118b03a 	or	r12,r12,r4
   41cd0:	6024c03a 	cmpne	r18,r12,zero
   41cd4:	90e4b03a 	or	r18,r18,r3
   41cd8:	003ead06 	br	41790 <__adddf3+0x22c>
   41cdc:	10004f26 	beq	r2,zero,41e1c <__adddf3+0x8b8>
   41ce0:	5b5ab03a 	or	r13,r11,r13
   41ce4:	683f4d26 	beq	r13,zero,41a1c <__adddf3+0x4b8>
   41ce8:	8806d0fa 	srli	r3,r17,3
   41cec:	01480034 	movhi	r5,8192
   41cf0:	8822977a 	slli	r17,r17,29
   41cf4:	297fffc4 	addi	r5,r5,-1
   41cf8:	2144703a 	and	r2,r4,r5
   41cfc:	1900022c 	andhi	r4,r3,8
   41d00:	1444b03a 	or	r2,r2,r17
   41d04:	203f4b26 	beq	r4,zero,41a34 <__adddf3+0x4d0>
   41d08:	5808d0fa 	srli	r4,r11,3
   41d0c:	2200022c 	andhi	r8,r4,8
   41d10:	403f481e 	bne	r8,zero,41a34 <__adddf3+0x4d0>
   41d14:	5804977a 	slli	r2,r11,29
   41d18:	314a703a 	and	r5,r6,r5
   41d1c:	3827883a 	mov	r19,r7
   41d20:	2884b03a 	or	r2,r5,r2
   41d24:	2007883a 	mov	r3,r4
   41d28:	003f4206 	br	41a34 <__adddf3+0x4d0>
   41d2c:	04000084 	movi	r16,2
   41d30:	003ee206 	br	418bc <__adddf3+0x358>
   41d34:	6b25c83a 	sub	r18,r13,r12
   41d38:	5c57c83a 	sub	r11,r11,r17
   41d3c:	6c9b803a 	cmpltu	r13,r13,r18
   41d40:	5b63c83a 	sub	r17,r11,r13
   41d44:	3827883a 	mov	r19,r7
   41d48:	5029883a 	mov	r20,r10
   41d4c:	04000044 	movi	r16,1
   41d50:	003e3706 	br	41630 <__adddf3+0xcc>
   41d54:	103fb626 	beq	r2,zero,41c30 <__adddf3+0x6cc>
   41d58:	5808977a 	slli	r4,r11,29
   41d5c:	00880034 	movhi	r2,8192
   41d60:	10bfffc4 	addi	r2,r2,-1
   41d64:	3084703a 	and	r2,r6,r2
   41d68:	5806d0fa 	srli	r3,r11,3
   41d6c:	1104b03a 	or	r2,r2,r4
   41d70:	3827883a 	mov	r19,r7
   41d74:	003f2306 	br	41a04 <__adddf3+0x4a0>
   41d78:	5808977a 	slli	r4,r11,29
   41d7c:	00880034 	movhi	r2,8192
   41d80:	10bfffc4 	addi	r2,r2,-1
   41d84:	3084703a 	and	r2,r6,r2
   41d88:	5806d0fa 	srli	r3,r11,3
   41d8c:	1104b03a 	or	r2,r2,r4
   41d90:	003f2806 	br	41a34 <__adddf3+0x4d0>
   41d94:	6819883a 	mov	r12,r13
   41d98:	5823883a 	mov	r17,r11
   41d9c:	003f3006 	br	41a60 <__adddf3+0x4fc>
   41da0:	5808977a 	slli	r4,r11,29
   41da4:	00880034 	movhi	r2,8192
   41da8:	10bfffc4 	addi	r2,r2,-1
   41dac:	3084703a 	and	r2,r6,r2
   41db0:	5806d0fa 	srli	r3,r11,3
   41db4:	1104b03a 	or	r2,r2,r4
   41db8:	003f1206 	br	41a04 <__adddf3+0x4a0>
   41dbc:	5808977a 	slli	r4,r11,29
   41dc0:	00880034 	movhi	r2,8192
   41dc4:	10bfffc4 	addi	r2,r2,-1
   41dc8:	3084703a 	and	r2,r6,r2
   41dcc:	5806d0fa 	srli	r3,r11,3
   41dd0:	1104b03a 	or	r2,r2,r4
   41dd4:	3827883a 	mov	r19,r7
   41dd8:	003f1606 	br	41a34 <__adddf3+0x4d0>
   41ddc:	28fff804 	addi	r3,r5,-32
   41de0:	29000820 	cmpeqi	r4,r5,32
   41de4:	88c6d83a 	srl	r3,r17,r3
   41de8:	2000041e 	bne	r4,zero,41dfc <__adddf3+0x898>
   41dec:	01001004 	movi	r4,64
   41df0:	2149c83a 	sub	r4,r4,r5
   41df4:	8908983a 	sll	r4,r17,r4
   41df8:	6118b03a 	or	r12,r12,r4
   41dfc:	6024c03a 	cmpne	r18,r12,zero
   41e00:	90e4b03a 	or	r18,r18,r3
   41e04:	003edb06 	br	41974 <__adddf3+0x410>
   41e08:	6365883a 	add	r18,r12,r13
   41e0c:	8ad7883a 	add	r11,r17,r11
   41e10:	935b803a 	cmpltu	r13,r18,r13
   41e14:	5b63883a 	add	r17,r11,r13
   41e18:	003ebc06 	br	4190c <__adddf3+0x3a8>
   41e1c:	5804977a 	slli	r2,r11,29
   41e20:	00c80034 	movhi	r3,8192
   41e24:	18ffffc4 	addi	r3,r3,-1
   41e28:	30cc703a 	and	r6,r6,r3
   41e2c:	1184b03a 	or	r2,r2,r6
   41e30:	5806d0fa 	srli	r3,r11,3
   41e34:	003eff06 	br	41a34 <__adddf3+0x4d0>
   41e38:	90c4b03a 	or	r2,r18,r3
   41e3c:	103f7c26 	beq	r2,zero,41c30 <__adddf3+0x6cc>
   41e40:	1823883a 	mov	r17,r3
   41e44:	003f2006 	br	41ac8 <__adddf3+0x564>
   41e48:	00c00804 	movi	r3,32
   41e4c:	1907c83a 	sub	r3,r3,r4
   41e50:	000b883a 	mov	r5,zero
   41e54:	003e0c06 	br	41688 <__adddf3+0x124>
   41e58:	0005883a 	mov	r2,zero
   41e5c:	00c1ffc4 	movi	r3,2047
   41e60:	0009883a 	mov	r4,zero
   41e64:	003e2506 	br	416fc <__adddf3+0x198>

00041e68 <__fixdfsi>:
   41e68:	2804d53a 	srli	r2,r5,20
   41e6c:	00c00434 	movhi	r3,16
   41e70:	18ffffc4 	addi	r3,r3,-1
   41e74:	1081ffcc 	andi	r2,r2,2047
   41e78:	1180ffd0 	cmplti	r6,r2,1023
   41e7c:	280ed7fa 	srli	r7,r5,31
   41e80:	28ca703a 	and	r5,r5,r3
   41e84:	3000061e 	bne	r6,zero,41ea0 <__fixdfsi+0x38>
   41e88:	10c10790 	cmplti	r3,r2,1054
   41e8c:	1800061e 	bne	r3,zero,41ea8 <__fixdfsi+0x40>
   41e90:	00a00034 	movhi	r2,32768
   41e94:	10bfffc4 	addi	r2,r2,-1
   41e98:	3885883a 	add	r2,r7,r2
   41e9c:	f800283a 	ret
   41ea0:	0005883a 	mov	r2,zero
   41ea4:	f800283a 	ret
   41ea8:	00c10cc4 	movi	r3,1075
   41eac:	1887c83a 	sub	r3,r3,r2
   41eb0:	19800808 	cmpgei	r6,r3,32
   41eb4:	29400434 	orhi	r5,r5,16
   41eb8:	3000071e 	bne	r6,zero,41ed8 <__fixdfsi+0x70>
   41ebc:	10befb44 	addi	r2,r2,-1043
   41ec0:	2884983a 	sll	r2,r5,r2
   41ec4:	20c8d83a 	srl	r4,r4,r3
   41ec8:	1104b03a 	or	r2,r2,r4
   41ecc:	383ff526 	beq	r7,zero,41ea4 <__fixdfsi+0x3c>
   41ed0:	0085c83a 	sub	r2,zero,r2
   41ed4:	f800283a 	ret
   41ed8:	00c104c4 	movi	r3,1043
   41edc:	1885c83a 	sub	r2,r3,r2
   41ee0:	2884d83a 	srl	r2,r5,r2
   41ee4:	003ff906 	br	41ecc <__fixdfsi+0x64>

00041ee8 <__extendsfdf2>:
   41ee8:	200ad5fa 	srli	r5,r4,23
   41eec:	defffd04 	addi	sp,sp,-12
   41ef0:	dc000015 	stw	r16,0(sp)
   41ef4:	29403fcc 	andi	r5,r5,255
   41ef8:	04002034 	movhi	r16,128
   41efc:	28800044 	addi	r2,r5,1
   41f00:	dc400115 	stw	r17,4(sp)
   41f04:	843fffc4 	addi	r16,r16,-1
   41f08:	dfc00215 	stw	ra,8(sp)
   41f0c:	10803f8c 	andi	r2,r2,254
   41f10:	2022d7fa 	srli	r17,r4,31
   41f14:	8120703a 	and	r16,r16,r4
   41f18:	10000d26 	beq	r2,zero,41f50 <__extendsfdf2+0x68>
   41f1c:	8008d0fa 	srli	r4,r16,3
   41f20:	8020977a 	slli	r16,r16,29
   41f24:	2940e004 	addi	r5,r5,896
   41f28:	280a953a 	slli	r5,r5,20
   41f2c:	880697fa 	slli	r3,r17,31
   41f30:	8005883a 	mov	r2,r16
   41f34:	290ab03a 	or	r5,r5,r4
   41f38:	28c6b03a 	or	r3,r5,r3
   41f3c:	dfc00217 	ldw	ra,8(sp)
   41f40:	dc400117 	ldw	r17,4(sp)
   41f44:	dc000017 	ldw	r16,0(sp)
   41f48:	dec00304 	addi	sp,sp,12
   41f4c:	f800283a 	ret
   41f50:	2800111e 	bne	r5,zero,41f98 <__extendsfdf2+0xb0>
   41f54:	80001926 	beq	r16,zero,41fbc <__extendsfdf2+0xd4>
   41f58:	8009883a 	mov	r4,r16
   41f5c:	0041fe40 	call	41fe4 <__clzsi2>
   41f60:	10c002c8 	cmpgei	r3,r2,11
   41f64:	18001b1e 	bne	r3,zero,41fd4 <__extendsfdf2+0xec>
   41f68:	010002c4 	movi	r4,11
   41f6c:	2089c83a 	sub	r4,r4,r2
   41f70:	10c00544 	addi	r3,r2,21
   41f74:	8108d83a 	srl	r4,r16,r4
   41f78:	80e0983a 	sll	r16,r16,r3
   41f7c:	00c00434 	movhi	r3,16
   41f80:	0140e244 	movi	r5,905
   41f84:	18ffffc4 	addi	r3,r3,-1
   41f88:	288bc83a 	sub	r5,r5,r2
   41f8c:	20c8703a 	and	r4,r4,r3
   41f90:	2941ffcc 	andi	r5,r5,2047
   41f94:	003fe406 	br	41f28 <__extendsfdf2+0x40>
   41f98:	80000b26 	beq	r16,zero,41fc8 <__extendsfdf2+0xe0>
   41f9c:	8008d0fa 	srli	r4,r16,3
   41fa0:	00800434 	movhi	r2,16
   41fa4:	10bfffc4 	addi	r2,r2,-1
   41fa8:	21000234 	orhi	r4,r4,8
   41fac:	8020977a 	slli	r16,r16,29
   41fb0:	2088703a 	and	r4,r4,r2
   41fb4:	0141ffc4 	movi	r5,2047
   41fb8:	003fdb06 	br	41f28 <__extendsfdf2+0x40>
   41fbc:	000b883a 	mov	r5,zero
   41fc0:	0009883a 	mov	r4,zero
   41fc4:	003fd806 	br	41f28 <__extendsfdf2+0x40>
   41fc8:	0141ffc4 	movi	r5,2047
   41fcc:	0009883a 	mov	r4,zero
   41fd0:	003fd506 	br	41f28 <__extendsfdf2+0x40>
   41fd4:	113ffd44 	addi	r4,r2,-11
   41fd8:	8108983a 	sll	r4,r16,r4
   41fdc:	0021883a 	mov	r16,zero
   41fe0:	003fe606 	br	41f7c <__extendsfdf2+0x94>

00041fe4 <__clzsi2>:
   41fe4:	00bfffd4 	movui	r2,65535
   41fe8:	11000a36 	bltu	r2,r4,42014 <__clzsi2+0x30>
   41fec:	20c04028 	cmpgeui	r3,r4,256
   41ff0:	180690fa 	slli	r3,r3,3
   41ff4:	00800804 	movi	r2,32
   41ff8:	10c5c83a 	sub	r2,r2,r3
   41ffc:	20c8d83a 	srl	r4,r4,r3
   42000:	00c00174 	movhi	r3,5
   42004:	20c7883a 	add	r3,r4,r3
   42008:	18d48f03 	ldbu	r3,21052(r3)
   4200c:	10c5c83a 	sub	r2,r2,r3
   42010:	f800283a 	ret
   42014:	00804034 	movhi	r2,256
   42018:	2080032e 	bgeu	r4,r2,42028 <__clzsi2+0x44>
   4201c:	00800404 	movi	r2,16
   42020:	00c00404 	movi	r3,16
   42024:	003ff506 	br	41ffc <__clzsi2+0x18>
   42028:	00800204 	movi	r2,8
   4202c:	00c00604 	movi	r3,24
   42030:	003ff206 	br	41ffc <__clzsi2+0x18>

00042034 <_asprintf_r>:
   42034:	deffe304 	addi	sp,sp,-116
   42038:	dc001a15 	stw	r16,104(sp)
   4203c:	2821883a 	mov	r16,r5
   42040:	dfc01b15 	stw	ra,108(sp)
   42044:	d9c01c15 	stw	r7,112(sp)
   42048:	00bffff4 	movhi	r2,65535
   4204c:	1080a204 	addi	r2,r2,648
   42050:	d9c01c04 	addi	r7,sp,112
   42054:	d80b883a 	mov	r5,sp
   42058:	d8000015 	stw	zero,0(sp)
   4205c:	d8000415 	stw	zero,16(sp)
   42060:	d8000215 	stw	zero,8(sp)
   42064:	d8000515 	stw	zero,20(sp)
   42068:	d8800315 	stw	r2,12(sp)
   4206c:	0042bd80 	call	42bd8 <___svfprintf_internal_r>
   42070:	10000416 	blt	r2,zero,42084 <_asprintf_r+0x50>
   42074:	d8c00017 	ldw	r3,0(sp)
   42078:	18000005 	stb	zero,0(r3)
   4207c:	d8c00417 	ldw	r3,16(sp)
   42080:	80c00015 	stw	r3,0(r16)
   42084:	dfc01b17 	ldw	ra,108(sp)
   42088:	dc001a17 	ldw	r16,104(sp)
   4208c:	dec01d04 	addi	sp,sp,116
   42090:	f800283a 	ret

00042094 <asprintf>:
   42094:	deffe204 	addi	sp,sp,-120
   42098:	dc001a15 	stw	r16,104(sp)
   4209c:	2021883a 	mov	r16,r4
   420a0:	dfc01b15 	stw	ra,108(sp)
   420a4:	d9801c15 	stw	r6,112(sp)
   420a8:	d9c01d15 	stw	r7,116(sp)
   420ac:	00800174 	movhi	r2,5
   420b0:	111d2c17 	ldw	r4,29872(r2)
   420b4:	00bffff4 	movhi	r2,65535
   420b8:	1080a204 	addi	r2,r2,648
   420bc:	280d883a 	mov	r6,r5
   420c0:	d9c01c04 	addi	r7,sp,112
   420c4:	d80b883a 	mov	r5,sp
   420c8:	d8000015 	stw	zero,0(sp)
   420cc:	d8000415 	stw	zero,16(sp)
   420d0:	d8000215 	stw	zero,8(sp)
   420d4:	d8000515 	stw	zero,20(sp)
   420d8:	d8800315 	stw	r2,12(sp)
   420dc:	0042bd80 	call	42bd8 <___svfprintf_internal_r>
   420e0:	10000416 	blt	r2,zero,420f4 <asprintf+0x60>
   420e4:	d8c00017 	ldw	r3,0(sp)
   420e8:	18000005 	stb	zero,0(r3)
   420ec:	d8c00417 	ldw	r3,16(sp)
   420f0:	80c00015 	stw	r3,0(r16)
   420f4:	dfc01b17 	ldw	ra,108(sp)
   420f8:	dc001a17 	ldw	r16,104(sp)
   420fc:	dec01e04 	addi	sp,sp,120
   42100:	f800283a 	ret

00042104 <malloc>:
   42104:	00800174 	movhi	r2,5
   42108:	200b883a 	mov	r5,r4
   4210c:	111d2c17 	ldw	r4,29872(r2)
   42110:	00421241 	jmpi	42124 <_malloc_r>

00042114 <free>:
   42114:	00800174 	movhi	r2,5
   42118:	200b883a 	mov	r5,r4
   4211c:	111d2c17 	ldw	r4,29872(r2)
   42120:	00498801 	jmpi	49880 <_free_r>

00042124 <_malloc_r>:
   42124:	defff604 	addi	sp,sp,-40
   42128:	dc400115 	stw	r17,4(sp)
   4212c:	2c4002c4 	addi	r17,r5,11
   42130:	dc800215 	stw	r18,8(sp)
   42134:	dfc00915 	stw	ra,36(sp)
   42138:	df000815 	stw	fp,32(sp)
   4213c:	ddc00715 	stw	r23,28(sp)
   42140:	dd800615 	stw	r22,24(sp)
   42144:	dd400515 	stw	r21,20(sp)
   42148:	dd000415 	stw	r20,16(sp)
   4214c:	dcc00315 	stw	r19,12(sp)
   42150:	dc000015 	stw	r16,0(sp)
   42154:	888005e8 	cmpgeui	r2,r17,23
   42158:	2025883a 	mov	r18,r4
   4215c:	1000261e 	bne	r2,zero,421f8 <_malloc_r+0xd4>
   42160:	29400468 	cmpgeui	r5,r5,17
   42164:	28008d1e 	bne	r5,zero,4239c <_malloc_r+0x278>
   42168:	00529e00 	call	529e0 <__malloc_lock>
   4216c:	04400404 	movi	r17,16
   42170:	00800604 	movi	r2,24
   42174:	01c00084 	movi	r7,2
   42178:	04c00174 	movhi	r19,5
   4217c:	9cd74104 	addi	r19,r19,23812
   42180:	9885883a 	add	r2,r19,r2
   42184:	14000117 	ldw	r16,4(r2)
   42188:	10fffe04 	addi	r3,r2,-8
   4218c:	80c0cb26 	beq	r16,r3,424bc <_malloc_r+0x398>
   42190:	80800117 	ldw	r2,4(r16)
   42194:	81000317 	ldw	r4,12(r16)
   42198:	00ffff04 	movi	r3,-4
   4219c:	10c4703a 	and	r2,r2,r3
   421a0:	81400217 	ldw	r5,8(r16)
   421a4:	8085883a 	add	r2,r16,r2
   421a8:	10c00117 	ldw	r3,4(r2)
   421ac:	29000315 	stw	r4,12(r5)
   421b0:	21400215 	stw	r5,8(r4)
   421b4:	18c00054 	ori	r3,r3,1
   421b8:	10c00115 	stw	r3,4(r2)
   421bc:	9009883a 	mov	r4,r18
   421c0:	0052a040 	call	52a04 <__malloc_unlock>
   421c4:	80800204 	addi	r2,r16,8
   421c8:	dfc00917 	ldw	ra,36(sp)
   421cc:	df000817 	ldw	fp,32(sp)
   421d0:	ddc00717 	ldw	r23,28(sp)
   421d4:	dd800617 	ldw	r22,24(sp)
   421d8:	dd400517 	ldw	r21,20(sp)
   421dc:	dd000417 	ldw	r20,16(sp)
   421e0:	dcc00317 	ldw	r19,12(sp)
   421e4:	dc800217 	ldw	r18,8(sp)
   421e8:	dc400117 	ldw	r17,4(sp)
   421ec:	dc000017 	ldw	r16,0(sp)
   421f0:	dec00a04 	addi	sp,sp,40
   421f4:	f800283a 	ret
   421f8:	00bffe04 	movi	r2,-8
   421fc:	88a2703a 	and	r17,r17,r2
   42200:	88006616 	blt	r17,zero,4239c <_malloc_r+0x278>
   42204:	89406536 	bltu	r17,r5,4239c <_malloc_r+0x278>
   42208:	00529e00 	call	529e0 <__malloc_lock>
   4220c:	88807e28 	cmpgeui	r2,r17,504
   42210:	1000ef26 	beq	r2,zero,425d0 <_malloc_r+0x4ac>
   42214:	8804d27a 	srli	r2,r17,9
   42218:	10006426 	beq	r2,zero,423ac <_malloc_r+0x288>
   4221c:	10c00168 	cmpgeui	r3,r2,5
   42220:	1800c31e 	bne	r3,zero,42530 <_malloc_r+0x40c>
   42224:	8804d1ba 	srli	r2,r17,6
   42228:	11c00e44 	addi	r7,r2,57
   4222c:	380890fa 	slli	r4,r7,3
   42230:	12000e04 	addi	r8,r2,56
   42234:	04c00174 	movhi	r19,5
   42238:	9cd74104 	addi	r19,r19,23812
   4223c:	9909883a 	add	r4,r19,r4
   42240:	24000117 	ldw	r16,4(r4)
   42244:	213ffe04 	addi	r4,r4,-8
   42248:	24000b26 	beq	r4,r16,42278 <_malloc_r+0x154>
   4224c:	01bfff04 	movi	r6,-4
   42250:	00000306 	br	42260 <_malloc_r+0x13c>
   42254:	1800970e 	bge	r3,zero,424b4 <_malloc_r+0x390>
   42258:	84000317 	ldw	r16,12(r16)
   4225c:	24000626 	beq	r4,r16,42278 <_malloc_r+0x154>
   42260:	80800117 	ldw	r2,4(r16)
   42264:	1184703a 	and	r2,r2,r6
   42268:	1447c83a 	sub	r3,r2,r17
   4226c:	19400408 	cmpgei	r5,r3,16
   42270:	283ff826 	beq	r5,zero,42254 <_malloc_r+0x130>
   42274:	400f883a 	mov	r7,r8
   42278:	9c000417 	ldw	r16,16(r19)
   4227c:	02400174 	movhi	r9,5
   42280:	4a574304 	addi	r9,r9,23820
   42284:	82407f26 	beq	r16,r9,42484 <_malloc_r+0x360>
   42288:	80800117 	ldw	r2,4(r16)
   4228c:	00ffff04 	movi	r3,-4
   42290:	10c4703a 	and	r2,r2,r3
   42294:	1447c83a 	sub	r3,r2,r17
   42298:	19000410 	cmplti	r4,r3,16
   4229c:	2000cf26 	beq	r4,zero,425dc <_malloc_r+0x4b8>
   422a0:	9a400515 	stw	r9,20(r19)
   422a4:	9a400415 	stw	r9,16(r19)
   422a8:	1800c10e 	bge	r3,zero,425b0 <_malloc_r+0x48c>
   422ac:	10c08028 	cmpgeui	r3,r2,512
   422b0:	99400117 	ldw	r5,4(r19)
   422b4:	1800851e 	bne	r3,zero,424cc <_malloc_r+0x3a8>
   422b8:	1006d0fa 	srli	r3,r2,3
   422bc:	1008d17a 	srli	r4,r2,5
   422c0:	18800044 	addi	r2,r3,1
   422c4:	100490fa 	slli	r2,r2,3
   422c8:	00c00044 	movi	r3,1
   422cc:	1906983a 	sll	r3,r3,r4
   422d0:	9885883a 	add	r2,r19,r2
   422d4:	11000017 	ldw	r4,0(r2)
   422d8:	28cab03a 	or	r5,r5,r3
   422dc:	10fffe04 	addi	r3,r2,-8
   422e0:	80c00315 	stw	r3,12(r16)
   422e4:	81000215 	stw	r4,8(r16)
   422e8:	99400115 	stw	r5,4(r19)
   422ec:	14000015 	stw	r16,0(r2)
   422f0:	24000315 	stw	r16,12(r4)
   422f4:	3805d0ba 	srai	r2,r7,2
   422f8:	01000044 	movi	r4,1
   422fc:	2088983a 	sll	r4,r4,r2
   42300:	29002e36 	bltu	r5,r4,423bc <_malloc_r+0x298>
   42304:	2144703a 	and	r2,r4,r5
   42308:	10000a1e 	bne	r2,zero,42334 <_malloc_r+0x210>
   4230c:	2109883a 	add	r4,r4,r4
   42310:	00bfff04 	movi	r2,-4
   42314:	3884703a 	and	r2,r7,r2
   42318:	2146703a 	and	r3,r4,r5
   4231c:	11c00104 	addi	r7,r2,4
   42320:	1800041e 	bne	r3,zero,42334 <_malloc_r+0x210>
   42324:	2109883a 	add	r4,r4,r4
   42328:	2144703a 	and	r2,r4,r5
   4232c:	39c00104 	addi	r7,r7,4
   42330:	103ffc26 	beq	r2,zero,42324 <_malloc_r+0x200>
   42334:	02bfff04 	movi	r10,-4
   42338:	381690fa 	slli	r11,r7,3
   4233c:	3819883a 	mov	r12,r7
   42340:	9ad7883a 	add	r11,r19,r11
   42344:	5811883a 	mov	r8,r11
   42348:	40800317 	ldw	r2,12(r8)
   4234c:	40808126 	beq	r8,r2,42554 <_malloc_r+0x430>
   42350:	10c00117 	ldw	r3,4(r2)
   42354:	1021883a 	mov	r16,r2
   42358:	10800317 	ldw	r2,12(r2)
   4235c:	1a86703a 	and	r3,r3,r10
   42360:	1c4bc83a 	sub	r5,r3,r17
   42364:	29800410 	cmplti	r6,r5,16
   42368:	30007f26 	beq	r6,zero,42568 <_malloc_r+0x444>
   4236c:	283ff716 	blt	r5,zero,4234c <_malloc_r+0x228>
   42370:	80c7883a 	add	r3,r16,r3
   42374:	19400117 	ldw	r5,4(r3)
   42378:	81800217 	ldw	r6,8(r16)
   4237c:	9009883a 	mov	r4,r18
   42380:	29400054 	ori	r5,r5,1
   42384:	19400115 	stw	r5,4(r3)
   42388:	30800315 	stw	r2,12(r6)
   4238c:	11800215 	stw	r6,8(r2)
   42390:	0052a040 	call	52a04 <__malloc_unlock>
   42394:	80800204 	addi	r2,r16,8
   42398:	003f8b06 	br	421c8 <_malloc_r+0xa4>
   4239c:	00800304 	movi	r2,12
   423a0:	90800015 	stw	r2,0(r18)
   423a4:	0005883a 	mov	r2,zero
   423a8:	003f8706 	br	421c8 <_malloc_r+0xa4>
   423ac:	01008004 	movi	r4,512
   423b0:	01c01004 	movi	r7,64
   423b4:	02000fc4 	movi	r8,63
   423b8:	003f9e06 	br	42234 <_malloc_r+0x110>
   423bc:	9c000217 	ldw	r16,8(r19)
   423c0:	00bfff04 	movi	r2,-4
   423c4:	80c00117 	ldw	r3,4(r16)
   423c8:	18aa703a 	and	r21,r3,r2
   423cc:	ac400336 	bltu	r21,r17,423dc <_malloc_r+0x2b8>
   423d0:	ac47c83a 	sub	r3,r21,r17
   423d4:	18800408 	cmpgei	r2,r3,16
   423d8:	10002c1e 	bne	r2,zero,4248c <_malloc_r+0x368>
   423dc:	00800174 	movhi	r2,5
   423e0:	109d2d17 	ldw	r2,29876(r2)
   423e4:	00c001b4 	movhi	r3,6
   423e8:	1d243e17 	ldw	r20,-28424(r3)
   423ec:	10bfffd8 	cmpnei	r2,r2,-1
   423f0:	856f883a 	add	r23,r16,r21
   423f4:	8d29883a 	add	r20,r17,r20
   423f8:	1000e726 	beq	r2,zero,42798 <_malloc_r+0x674>
   423fc:	a50403c4 	addi	r20,r20,4111
   42400:	00bc0004 	movi	r2,-4096
   42404:	a0a8703a 	and	r20,r20,r2
   42408:	a00b883a 	mov	r5,r20
   4240c:	9009883a 	mov	r4,r18
   42410:	0042b800 	call	42b80 <_sbrk_r>
   42414:	102d883a 	mov	r22,r2
   42418:	10bfffd8 	cmpnei	r2,r2,-1
   4241c:	10008426 	beq	r2,zero,42630 <_malloc_r+0x50c>
   42420:	b5c08236 	bltu	r22,r23,4262c <_malloc_r+0x508>
   42424:	008001b4 	movhi	r2,6
   42428:	11244917 	ldw	r4,-28380(r2)
   4242c:	a109883a 	add	r4,r20,r4
   42430:	11244915 	stw	r4,-28380(r2)
   42434:	2007883a 	mov	r3,r4
   42438:	bd80a51e 	bne	r23,r22,426d0 <_malloc_r+0x5ac>
   4243c:	b083ffcc 	andi	r2,r22,4095
   42440:	1000a31e 	bne	r2,zero,426d0 <_malloc_r+0x5ac>
   42444:	9d800217 	ldw	r22,8(r19)
   42448:	ad07883a 	add	r3,r21,r20
   4244c:	18c00054 	ori	r3,r3,1
   42450:	b0c00115 	stw	r3,4(r22)
   42454:	008001b4 	movhi	r2,6
   42458:	10a43d17 	ldw	r2,-28428(r2)
   4245c:	1100022e 	bgeu	r2,r4,42468 <_malloc_r+0x344>
   42460:	008001b4 	movhi	r2,6
   42464:	11243d15 	stw	r4,-28428(r2)
   42468:	008001b4 	movhi	r2,6
   4246c:	10a43c17 	ldw	r2,-28432(r2)
   42470:	1100022e 	bgeu	r2,r4,4247c <_malloc_r+0x358>
   42474:	008001b4 	movhi	r2,6
   42478:	11243c15 	stw	r4,-28432(r2)
   4247c:	b021883a 	mov	r16,r22
   42480:	00006d06 	br	42638 <_malloc_r+0x514>
   42484:	99400117 	ldw	r5,4(r19)
   42488:	003f9a06 	br	422f4 <_malloc_r+0x1d0>
   4248c:	88800054 	ori	r2,r17,1
   42490:	80800115 	stw	r2,4(r16)
   42494:	8463883a 	add	r17,r16,r17
   42498:	9c400215 	stw	r17,8(r19)
   4249c:	18c00054 	ori	r3,r3,1
   424a0:	88c00115 	stw	r3,4(r17)
   424a4:	9009883a 	mov	r4,r18
   424a8:	0052a040 	call	52a04 <__malloc_unlock>
   424ac:	80800204 	addi	r2,r16,8
   424b0:	003f4506 	br	421c8 <_malloc_r+0xa4>
   424b4:	81000317 	ldw	r4,12(r16)
   424b8:	003f3906 	br	421a0 <_malloc_r+0x7c>
   424bc:	14000317 	ldw	r16,12(r2)
   424c0:	143f331e 	bne	r2,r16,42190 <_malloc_r+0x6c>
   424c4:	39c00084 	addi	r7,r7,2
   424c8:	003f6b06 	br	42278 <_malloc_r+0x154>
   424cc:	1006d27a 	srli	r3,r2,9
   424d0:	19000168 	cmpgeui	r4,r3,5
   424d4:	20005026 	beq	r4,zero,42618 <_malloc_r+0x4f4>
   424d8:	19000568 	cmpgeui	r4,r3,21
   424dc:	2000c01e 	bne	r4,zero,427e0 <_malloc_r+0x6bc>
   424e0:	19801704 	addi	r6,r3,92
   424e4:	300c90fa 	slli	r6,r6,3
   424e8:	190016c4 	addi	r4,r3,91
   424ec:	998d883a 	add	r6,r19,r6
   424f0:	30c00017 	ldw	r3,0(r6)
   424f4:	31bffe04 	addi	r6,r6,-8
   424f8:	30c0a926 	beq	r6,r3,427a0 <_malloc_r+0x67c>
   424fc:	023fff04 	movi	r8,-4
   42500:	00000206 	br	4250c <_malloc_r+0x3e8>
   42504:	18c00217 	ldw	r3,8(r3)
   42508:	30c00326 	beq	r6,r3,42518 <_malloc_r+0x3f4>
   4250c:	19000117 	ldw	r4,4(r3)
   42510:	2208703a 	and	r4,r4,r8
   42514:	113ffb36 	bltu	r2,r4,42504 <_malloc_r+0x3e0>
   42518:	19800317 	ldw	r6,12(r3)
   4251c:	81800315 	stw	r6,12(r16)
   42520:	80c00215 	stw	r3,8(r16)
   42524:	34000215 	stw	r16,8(r6)
   42528:	1c000315 	stw	r16,12(r3)
   4252c:	003f7106 	br	422f4 <_malloc_r+0x1d0>
   42530:	10c00568 	cmpgeui	r3,r2,21
   42534:	18004926 	beq	r3,zero,4265c <_malloc_r+0x538>
   42538:	10c01568 	cmpgeui	r3,r2,85
   4253c:	1800af1e 	bne	r3,zero,427fc <_malloc_r+0x6d8>
   42540:	8804d33a 	srli	r2,r17,12
   42544:	11c01bc4 	addi	r7,r2,111
   42548:	380890fa 	slli	r4,r7,3
   4254c:	12001b84 	addi	r8,r2,110
   42550:	003f3806 	br	42234 <_malloc_r+0x110>
   42554:	63000044 	addi	r12,r12,1
   42558:	608000cc 	andi	r2,r12,3
   4255c:	42000204 	addi	r8,r8,8
   42560:	103f791e 	bne	r2,zero,42348 <_malloc_r+0x224>
   42564:	00004406 	br	42678 <_malloc_r+0x554>
   42568:	81000217 	ldw	r4,8(r16)
   4256c:	89800054 	ori	r6,r17,1
   42570:	81800115 	stw	r6,4(r16)
   42574:	20800315 	stw	r2,12(r4)
   42578:	11000215 	stw	r4,8(r2)
   4257c:	8463883a 	add	r17,r16,r17
   42580:	9c400515 	stw	r17,20(r19)
   42584:	9c400415 	stw	r17,16(r19)
   42588:	28800054 	ori	r2,r5,1
   4258c:	88800115 	stw	r2,4(r17)
   42590:	8a400315 	stw	r9,12(r17)
   42594:	8a400215 	stw	r9,8(r17)
   42598:	80c7883a 	add	r3,r16,r3
   4259c:	19400015 	stw	r5,0(r3)
   425a0:	9009883a 	mov	r4,r18
   425a4:	0052a040 	call	52a04 <__malloc_unlock>
   425a8:	80800204 	addi	r2,r16,8
   425ac:	003f0606 	br	421c8 <_malloc_r+0xa4>
   425b0:	8085883a 	add	r2,r16,r2
   425b4:	10c00117 	ldw	r3,4(r2)
   425b8:	9009883a 	mov	r4,r18
   425bc:	18c00054 	ori	r3,r3,1
   425c0:	10c00115 	stw	r3,4(r2)
   425c4:	0052a040 	call	52a04 <__malloc_unlock>
   425c8:	80800204 	addi	r2,r16,8
   425cc:	003efe06 	br	421c8 <_malloc_r+0xa4>
   425d0:	880ed0fa 	srli	r7,r17,3
   425d4:	88800204 	addi	r2,r17,8
   425d8:	003ee706 	br	42178 <_malloc_r+0x54>
   425dc:	89000054 	ori	r4,r17,1
   425e0:	81000115 	stw	r4,4(r16)
   425e4:	8463883a 	add	r17,r16,r17
   425e8:	9c400515 	stw	r17,20(r19)
   425ec:	9c400415 	stw	r17,16(r19)
   425f0:	19000054 	ori	r4,r3,1
   425f4:	89000115 	stw	r4,4(r17)
   425f8:	8085883a 	add	r2,r16,r2
   425fc:	8a400315 	stw	r9,12(r17)
   42600:	8a400215 	stw	r9,8(r17)
   42604:	10c00015 	stw	r3,0(r2)
   42608:	9009883a 	mov	r4,r18
   4260c:	0052a040 	call	52a04 <__malloc_unlock>
   42610:	80800204 	addi	r2,r16,8
   42614:	003eec06 	br	421c8 <_malloc_r+0xa4>
   42618:	1006d1ba 	srli	r3,r2,6
   4261c:	19800e44 	addi	r6,r3,57
   42620:	300c90fa 	slli	r6,r6,3
   42624:	19000e04 	addi	r4,r3,56
   42628:	003fb006 	br	424ec <_malloc_r+0x3c8>
   4262c:	84c02426 	beq	r16,r19,426c0 <_malloc_r+0x59c>
   42630:	9c000217 	ldw	r16,8(r19)
   42634:	80c00117 	ldw	r3,4(r16)
   42638:	00bfff04 	movi	r2,-4
   4263c:	1884703a 	and	r2,r3,r2
   42640:	1447c83a 	sub	r3,r2,r17
   42644:	14400236 	bltu	r2,r17,42650 <_malloc_r+0x52c>
   42648:	18800408 	cmpgei	r2,r3,16
   4264c:	103f8f1e 	bne	r2,zero,4248c <_malloc_r+0x368>
   42650:	9009883a 	mov	r4,r18
   42654:	0052a040 	call	52a04 <__malloc_unlock>
   42658:	003f5206 	br	423a4 <_malloc_r+0x280>
   4265c:	11c01704 	addi	r7,r2,92
   42660:	380890fa 	slli	r4,r7,3
   42664:	120016c4 	addi	r8,r2,91
   42668:	003ef206 	br	42234 <_malloc_r+0x110>
   4266c:	58800217 	ldw	r2,8(r11)
   42670:	39ffffc4 	addi	r7,r7,-1
   42674:	12c0961e 	bne	r2,r11,428d0 <_malloc_r+0x7ac>
   42678:	388000cc 	andi	r2,r7,3
   4267c:	5afffe04 	addi	r11,r11,-8
   42680:	103ffa1e 	bne	r2,zero,4266c <_malloc_r+0x548>
   42684:	98c00117 	ldw	r3,4(r19)
   42688:	0104303a 	nor	r2,zero,r4
   4268c:	10c4703a 	and	r2,r2,r3
   42690:	98800115 	stw	r2,4(r19)
   42694:	2109883a 	add	r4,r4,r4
   42698:	113f4836 	bltu	r2,r4,423bc <_malloc_r+0x298>
   4269c:	203f4726 	beq	r4,zero,423bc <_malloc_r+0x298>
   426a0:	2086703a 	and	r3,r4,r2
   426a4:	1800041e 	bne	r3,zero,426b8 <_malloc_r+0x594>
   426a8:	2109883a 	add	r4,r4,r4
   426ac:	2086703a 	and	r3,r4,r2
   426b0:	63000104 	addi	r12,r12,4
   426b4:	183ffc26 	beq	r3,zero,426a8 <_malloc_r+0x584>
   426b8:	600f883a 	mov	r7,r12
   426bc:	003f1e06 	br	42338 <_malloc_r+0x214>
   426c0:	008001b4 	movhi	r2,6
   426c4:	10e44917 	ldw	r3,-28380(r2)
   426c8:	a0c7883a 	add	r3,r20,r3
   426cc:	10e44915 	stw	r3,-28380(r2)
   426d0:	00800174 	movhi	r2,5
   426d4:	109d2d17 	ldw	r2,29876(r2)
   426d8:	10bfffd8 	cmpnei	r2,r2,-1
   426dc:	10004e26 	beq	r2,zero,42818 <_malloc_r+0x6f4>
   426e0:	b5c5c83a 	sub	r2,r22,r23
   426e4:	10c5883a 	add	r2,r2,r3
   426e8:	00c001b4 	movhi	r3,6
   426ec:	18a44915 	stw	r2,-28380(r3)
   426f0:	b70001cc 	andi	fp,r22,7
   426f4:	e0003026 	beq	fp,zero,427b8 <_malloc_r+0x694>
   426f8:	b72dc83a 	sub	r22,r22,fp
   426fc:	b5800204 	addi	r22,r22,8
   42700:	01040204 	movi	r4,4104
   42704:	2709c83a 	sub	r4,r4,fp
   42708:	b529883a 	add	r20,r22,r20
   4270c:	2509c83a 	sub	r4,r4,r20
   42710:	25c3ffcc 	andi	r23,r4,4095
   42714:	b80b883a 	mov	r5,r23
   42718:	9009883a 	mov	r4,r18
   4271c:	0042b800 	call	42b80 <_sbrk_r>
   42720:	10ffffe0 	cmpeqi	r3,r2,-1
   42724:	1800501e 	bne	r3,zero,42868 <_malloc_r+0x744>
   42728:	1585c83a 	sub	r2,r2,r22
   4272c:	15e9883a 	add	r20,r2,r23
   42730:	008001b4 	movhi	r2,6
   42734:	10a44917 	ldw	r2,-28380(r2)
   42738:	9d800215 	stw	r22,8(r19)
   4273c:	a0c00054 	ori	r3,r20,1
   42740:	b889883a 	add	r4,r23,r2
   42744:	008001b4 	movhi	r2,6
   42748:	11244915 	stw	r4,-28380(r2)
   4274c:	b0c00115 	stw	r3,4(r22)
   42750:	84ff4026 	beq	r16,r19,42454 <_malloc_r+0x330>
   42754:	a8800428 	cmpgeui	r2,r21,16
   42758:	10003226 	beq	r2,zero,42824 <_malloc_r+0x700>
   4275c:	80800117 	ldw	r2,4(r16)
   42760:	017ffe04 	movi	r5,-8
   42764:	a8fffd04 	addi	r3,r21,-12
   42768:	1946703a 	and	r3,r3,r5
   4276c:	1080004c 	andi	r2,r2,1
   42770:	10c4b03a 	or	r2,r2,r3
   42774:	80800115 	stw	r2,4(r16)
   42778:	01400144 	movi	r5,5
   4277c:	80c5883a 	add	r2,r16,r3
   42780:	11400115 	stw	r5,4(r2)
   42784:	11400215 	stw	r5,8(r2)
   42788:	18c00428 	cmpgeui	r3,r3,16
   4278c:	18003b1e 	bne	r3,zero,4287c <_malloc_r+0x758>
   42790:	b0c00117 	ldw	r3,4(r22)
   42794:	003f2f06 	br	42454 <_malloc_r+0x330>
   42798:	a5000404 	addi	r20,r20,16
   4279c:	003f1a06 	br	42408 <_malloc_r+0x2e4>
   427a0:	2009d0ba 	srai	r4,r4,2
   427a4:	00800044 	movi	r2,1
   427a8:	1104983a 	sll	r2,r2,r4
   427ac:	288ab03a 	or	r5,r5,r2
   427b0:	99400115 	stw	r5,4(r19)
   427b4:	003f5906 	br	4251c <_malloc_r+0x3f8>
   427b8:	b509883a 	add	r4,r22,r20
   427bc:	0109c83a 	sub	r4,zero,r4
   427c0:	25c3ffcc 	andi	r23,r4,4095
   427c4:	b80b883a 	mov	r5,r23
   427c8:	9009883a 	mov	r4,r18
   427cc:	0042b800 	call	42b80 <_sbrk_r>
   427d0:	10ffffe0 	cmpeqi	r3,r2,-1
   427d4:	183fd426 	beq	r3,zero,42728 <_malloc_r+0x604>
   427d8:	002f883a 	mov	r23,zero
   427dc:	003fd406 	br	42730 <_malloc_r+0x60c>
   427e0:	19001568 	cmpgeui	r4,r3,85
   427e4:	2000121e 	bne	r4,zero,42830 <_malloc_r+0x70c>
   427e8:	1006d33a 	srli	r3,r2,12
   427ec:	19801bc4 	addi	r6,r3,111
   427f0:	300c90fa 	slli	r6,r6,3
   427f4:	19001b84 	addi	r4,r3,110
   427f8:	003f3c06 	br	424ec <_malloc_r+0x3c8>
   427fc:	10c05568 	cmpgeui	r3,r2,341
   42800:	1800121e 	bne	r3,zero,4284c <_malloc_r+0x728>
   42804:	8804d3fa 	srli	r2,r17,15
   42808:	11c01e04 	addi	r7,r2,120
   4280c:	380890fa 	slli	r4,r7,3
   42810:	12001dc4 	addi	r8,r2,119
   42814:	003e8706 	br	42234 <_malloc_r+0x110>
   42818:	00800174 	movhi	r2,5
   4281c:	159d2d15 	stw	r22,29876(r2)
   42820:	003fb306 	br	426f0 <_malloc_r+0x5cc>
   42824:	00800044 	movi	r2,1
   42828:	b0800115 	stw	r2,4(r22)
   4282c:	003f8806 	br	42650 <_malloc_r+0x52c>
   42830:	19005568 	cmpgeui	r4,r3,341
   42834:	2000181e 	bne	r4,zero,42898 <_malloc_r+0x774>
   42838:	1006d3fa 	srli	r3,r2,15
   4283c:	19801e04 	addi	r6,r3,120
   42840:	300c90fa 	slli	r6,r6,3
   42844:	19001dc4 	addi	r4,r3,119
   42848:	003f2806 	br	424ec <_malloc_r+0x3c8>
   4284c:	10815568 	cmpgeui	r2,r2,1365
   42850:	1000181e 	bne	r2,zero,428b4 <_malloc_r+0x790>
   42854:	8804d4ba 	srli	r2,r17,18
   42858:	11c01f44 	addi	r7,r2,125
   4285c:	380890fa 	slli	r4,r7,3
   42860:	12001f04 	addi	r8,r2,124
   42864:	003e7306 	br	42234 <_malloc_r+0x110>
   42868:	e73ffe04 	addi	fp,fp,-8
   4286c:	a729883a 	add	r20,r20,fp
   42870:	a5a9c83a 	sub	r20,r20,r22
   42874:	002f883a 	mov	r23,zero
   42878:	003fad06 	br	42730 <_malloc_r+0x60c>
   4287c:	9009883a 	mov	r4,r18
   42880:	81400204 	addi	r5,r16,8
   42884:	00498800 	call	49880 <_free_r>
   42888:	008001b4 	movhi	r2,6
   4288c:	9d800217 	ldw	r22,8(r19)
   42890:	11244917 	ldw	r4,-28380(r2)
   42894:	003fbe06 	br	42790 <_malloc_r+0x66c>
   42898:	18c15568 	cmpgeui	r3,r3,1365
   4289c:	1800091e 	bne	r3,zero,428c4 <_malloc_r+0x7a0>
   428a0:	1006d4ba 	srli	r3,r2,18
   428a4:	19801f44 	addi	r6,r3,125
   428a8:	300c90fa 	slli	r6,r6,3
   428ac:	19001f04 	addi	r4,r3,124
   428b0:	003f0e06 	br	424ec <_malloc_r+0x3c8>
   428b4:	0100fe04 	movi	r4,1016
   428b8:	01c01fc4 	movi	r7,127
   428bc:	02001f84 	movi	r8,126
   428c0:	003e5c06 	br	42234 <_malloc_r+0x110>
   428c4:	0180fe04 	movi	r6,1016
   428c8:	01001f84 	movi	r4,126
   428cc:	003f0706 	br	424ec <_malloc_r+0x3c8>
   428d0:	98800117 	ldw	r2,4(r19)
   428d4:	003f6f06 	br	42694 <_malloc_r+0x570>

000428d8 <memcpy>:
   428d8:	30c00428 	cmpgeui	r3,r6,16
   428dc:	2005883a 	mov	r2,r4
   428e0:	18000b1e 	bne	r3,zero,42910 <memcpy+0x38>
   428e4:	2007883a 	mov	r3,r4
   428e8:	31ffffc4 	addi	r7,r6,-1
   428ec:	30003426 	beq	r6,zero,429c0 <memcpy+0xe8>
   428f0:	39c00044 	addi	r7,r7,1
   428f4:	19cf883a 	add	r7,r3,r7
   428f8:	29800003 	ldbu	r6,0(r5)
   428fc:	18c00044 	addi	r3,r3,1
   42900:	29400044 	addi	r5,r5,1
   42904:	19bfffc5 	stb	r6,-1(r3)
   42908:	19fffb1e 	bne	r3,r7,428f8 <memcpy+0x20>
   4290c:	f800283a 	ret
   42910:	2146b03a 	or	r3,r4,r5
   42914:	18c000cc 	andi	r3,r3,3
   42918:	18002a1e 	bne	r3,zero,429c4 <memcpy+0xec>
   4291c:	333ffc04 	addi	r12,r6,-16
   42920:	6018d13a 	srli	r12,r12,4
   42924:	2811883a 	mov	r8,r5
   42928:	200f883a 	mov	r7,r4
   4292c:	63000044 	addi	r12,r12,1
   42930:	6018913a 	slli	r12,r12,4
   42934:	2307883a 	add	r3,r4,r12
   42938:	42c00017 	ldw	r11,0(r8)
   4293c:	42800117 	ldw	r10,4(r8)
   42940:	42400217 	ldw	r9,8(r8)
   42944:	41000317 	ldw	r4,12(r8)
   42948:	39c00404 	addi	r7,r7,16
   4294c:	3afffc15 	stw	r11,-16(r7)
   42950:	3abffd15 	stw	r10,-12(r7)
   42954:	3a7ffe15 	stw	r9,-8(r7)
   42958:	393fff15 	stw	r4,-4(r7)
   4295c:	42000404 	addi	r8,r8,16
   42960:	38fff51e 	bne	r7,r3,42938 <memcpy+0x60>
   42964:	3100030c 	andi	r4,r6,12
   42968:	2b0b883a 	add	r5,r5,r12
   4296c:	324003cc 	andi	r9,r6,15
   42970:	20001726 	beq	r4,zero,429d0 <memcpy+0xf8>
   42974:	2811883a 	mov	r8,r5
   42978:	1809883a 	mov	r4,r3
   4297c:	1a57883a 	add	r11,r3,r9
   42980:	42800017 	ldw	r10,0(r8)
   42984:	21000104 	addi	r4,r4,4
   42988:	590fc83a 	sub	r7,r11,r4
   4298c:	39c00128 	cmpgeui	r7,r7,4
   42990:	22bfff15 	stw	r10,-4(r4)
   42994:	42000104 	addi	r8,r8,4
   42998:	383ff91e 	bne	r7,zero,42980 <memcpy+0xa8>
   4299c:	493fff04 	addi	r4,r9,-4
   429a0:	2008d0ba 	srli	r4,r4,2
   429a4:	318000cc 	andi	r6,r6,3
   429a8:	31ffffc4 	addi	r7,r6,-1
   429ac:	21000044 	addi	r4,r4,1
   429b0:	200890ba 	slli	r4,r4,2
   429b4:	1907883a 	add	r3,r3,r4
   429b8:	290b883a 	add	r5,r5,r4
   429bc:	303fcc1e 	bne	r6,zero,428f0 <memcpy+0x18>
   429c0:	f800283a 	ret
   429c4:	31ffffc4 	addi	r7,r6,-1
   429c8:	2007883a 	mov	r3,r4
   429cc:	003fc806 	br	428f0 <memcpy+0x18>
   429d0:	480d883a 	mov	r6,r9
   429d4:	003fc406 	br	428e8 <memcpy+0x10>

000429d8 <memset>:
   429d8:	defffb04 	addi	sp,sp,-20
   429dc:	dc800215 	stw	r18,8(sp)
   429e0:	dc400115 	stw	r17,4(sp)
   429e4:	dfc00415 	stw	ra,16(sp)
   429e8:	dcc00315 	stw	r19,12(sp)
   429ec:	dc000015 	stw	r16,0(sp)
   429f0:	208000cc 	andi	r2,r4,3
   429f4:	2023883a 	mov	r17,r4
   429f8:	2825883a 	mov	r18,r5
   429fc:	10004026 	beq	r2,zero,42b00 <memset+0x128>
   42a00:	34ffffc4 	addi	r19,r6,-1
   42a04:	30003326 	beq	r6,zero,42ad4 <memset+0xfc>
   42a08:	280f883a 	mov	r7,r5
   42a0c:	2021883a 	mov	r16,r4
   42a10:	00000306 	br	42a20 <memset+0x48>
   42a14:	9cffffc4 	addi	r19,r19,-1
   42a18:	99bfffe0 	cmpeqi	r6,r19,-1
   42a1c:	30002d1e 	bne	r6,zero,42ad4 <memset+0xfc>
   42a20:	84000044 	addi	r16,r16,1
   42a24:	818000cc 	andi	r6,r16,3
   42a28:	81ffffc5 	stb	r7,-1(r16)
   42a2c:	303ff91e 	bne	r6,zero,42a14 <memset+0x3c>
   42a30:	98800128 	cmpgeui	r2,r19,4
   42a34:	10002126 	beq	r2,zero,42abc <memset+0xe4>
   42a38:	01404074 	movhi	r5,257
   42a3c:	29404044 	addi	r5,r5,257
   42a40:	91003fcc 	andi	r4,r18,255
   42a44:	0040b700 	call	40b70 <__mulsi3>
   42a48:	98c00430 	cmpltui	r3,r19,16
   42a4c:	18002f1e 	bne	r3,zero,42b0c <memset+0x134>
   42a50:	99bffc04 	addi	r6,r19,-16
   42a54:	300cd13a 	srli	r6,r6,4
   42a58:	31800044 	addi	r6,r6,1
   42a5c:	300c913a 	slli	r6,r6,4
   42a60:	818d883a 	add	r6,r16,r6
   42a64:	80800015 	stw	r2,0(r16)
   42a68:	80800115 	stw	r2,4(r16)
   42a6c:	80800215 	stw	r2,8(r16)
   42a70:	80800315 	stw	r2,12(r16)
   42a74:	84000404 	addi	r16,r16,16
   42a78:	81bffa1e 	bne	r16,r6,42a64 <memset+0x8c>
   42a7c:	9900030c 	andi	r4,r19,12
   42a80:	98c003cc 	andi	r3,r19,15
   42a84:	20001b26 	beq	r4,zero,42af4 <memset+0x11c>
   42a88:	3009883a 	mov	r4,r6
   42a8c:	30cb883a 	add	r5,r6,r3
   42a90:	21000104 	addi	r4,r4,4
   42a94:	290fc83a 	sub	r7,r5,r4
   42a98:	39c00128 	cmpgeui	r7,r7,4
   42a9c:	20bfff15 	stw	r2,-4(r4)
   42aa0:	383ffb1e 	bne	r7,zero,42a90 <memset+0xb8>
   42aa4:	1c3fff04 	addi	r16,r3,-4
   42aa8:	8020d0ba 	srli	r16,r16,2
   42aac:	1cc000cc 	andi	r19,r3,3
   42ab0:	84000044 	addi	r16,r16,1
   42ab4:	802090ba 	slli	r16,r16,2
   42ab8:	3421883a 	add	r16,r6,r16
   42abc:	98000526 	beq	r19,zero,42ad4 <memset+0xfc>
   42ac0:	900b883a 	mov	r5,r18
   42ac4:	84c7883a 	add	r3,r16,r19
   42ac8:	84000044 	addi	r16,r16,1
   42acc:	817fffc5 	stb	r5,-1(r16)
   42ad0:	1c3ffd1e 	bne	r3,r16,42ac8 <memset+0xf0>
   42ad4:	8805883a 	mov	r2,r17
   42ad8:	dfc00417 	ldw	ra,16(sp)
   42adc:	dcc00317 	ldw	r19,12(sp)
   42ae0:	dc800217 	ldw	r18,8(sp)
   42ae4:	dc400117 	ldw	r17,4(sp)
   42ae8:	dc000017 	ldw	r16,0(sp)
   42aec:	dec00504 	addi	sp,sp,20
   42af0:	f800283a 	ret
   42af4:	1827883a 	mov	r19,r3
   42af8:	983ff11e 	bne	r19,zero,42ac0 <memset+0xe8>
   42afc:	003ff506 	br	42ad4 <memset+0xfc>
   42b00:	2021883a 	mov	r16,r4
   42b04:	3027883a 	mov	r19,r6
   42b08:	003fc906 	br	42a30 <memset+0x58>
   42b0c:	800d883a 	mov	r6,r16
   42b10:	9807883a 	mov	r3,r19
   42b14:	003fdc06 	br	42a88 <memset+0xb0>

00042b18 <_printf_r>:
   42b18:	defffd04 	addi	sp,sp,-12
   42b1c:	2805883a 	mov	r2,r5
   42b20:	dfc00015 	stw	ra,0(sp)
   42b24:	d9800115 	stw	r6,4(sp)
   42b28:	d9c00215 	stw	r7,8(sp)
   42b2c:	21400217 	ldw	r5,8(r4)
   42b30:	d9c00104 	addi	r7,sp,4
   42b34:	100d883a 	mov	r6,r2
   42b38:	00450080 	call	45008 <___vfprintf_internal_r>
   42b3c:	dfc00017 	ldw	ra,0(sp)
   42b40:	dec00304 	addi	sp,sp,12
   42b44:	f800283a 	ret

00042b48 <printf>:
   42b48:	defffc04 	addi	sp,sp,-16
   42b4c:	dfc00015 	stw	ra,0(sp)
   42b50:	d9400115 	stw	r5,4(sp)
   42b54:	d9800215 	stw	r6,8(sp)
   42b58:	d9c00315 	stw	r7,12(sp)
   42b5c:	00800174 	movhi	r2,5
   42b60:	109d2c17 	ldw	r2,29872(r2)
   42b64:	200b883a 	mov	r5,r4
   42b68:	d9800104 	addi	r6,sp,4
   42b6c:	11000217 	ldw	r4,8(r2)
   42b70:	00474b80 	call	474b8 <__vfprintf_internal>
   42b74:	dfc00017 	ldw	ra,0(sp)
   42b78:	dec00404 	addi	sp,sp,16
   42b7c:	f800283a 	ret

00042b80 <_sbrk_r>:
   42b80:	defffe04 	addi	sp,sp,-8
   42b84:	dc000015 	stw	r16,0(sp)
   42b88:	008001b4 	movhi	r2,6
   42b8c:	2021883a 	mov	r16,r4
   42b90:	2809883a 	mov	r4,r5
   42b94:	dfc00115 	stw	ra,4(sp)
   42b98:	10243f15 	stw	zero,-28420(r2)
   42b9c:	0052c180 	call	52c18 <sbrk>
   42ba0:	10ffffd8 	cmpnei	r3,r2,-1
   42ba4:	18000426 	beq	r3,zero,42bb8 <_sbrk_r+0x38>
   42ba8:	dfc00117 	ldw	ra,4(sp)
   42bac:	dc000017 	ldw	r16,0(sp)
   42bb0:	dec00204 	addi	sp,sp,8
   42bb4:	f800283a 	ret
   42bb8:	00c001b4 	movhi	r3,6
   42bbc:	18e43f17 	ldw	r3,-28420(r3)
   42bc0:	183ff926 	beq	r3,zero,42ba8 <_sbrk_r+0x28>
   42bc4:	80c00015 	stw	r3,0(r16)
   42bc8:	dfc00117 	ldw	ra,4(sp)
   42bcc:	dc000017 	ldw	r16,0(sp)
   42bd0:	dec00204 	addi	sp,sp,8
   42bd4:	f800283a 	ret

00042bd8 <___svfprintf_internal_r>:
   42bd8:	deffbc04 	addi	sp,sp,-272
   42bdc:	dfc04315 	stw	ra,268(sp)
   42be0:	dc803c15 	stw	r18,240(sp)
   42be4:	dc003a15 	stw	r16,232(sp)
   42be8:	d9400415 	stw	r5,16(sp)
   42bec:	2821883a 	mov	r16,r5
   42bf0:	d9000515 	stw	r4,20(sp)
   42bf4:	3025883a 	mov	r18,r6
   42bf8:	d9c00715 	stw	r7,28(sp)
   42bfc:	df004215 	stw	fp,264(sp)
   42c00:	ddc04115 	stw	r23,260(sp)
   42c04:	dd804015 	stw	r22,256(sp)
   42c08:	dd403f15 	stw	r21,252(sp)
   42c0c:	dd003e15 	stw	r20,248(sp)
   42c10:	dcc03d15 	stw	r19,244(sp)
   42c14:	dc403b15 	stw	r17,236(sp)
   42c18:	0049cd00 	call	49cd0 <_localeconv_r>
   42c1c:	10800017 	ldw	r2,0(r2)
   42c20:	1009883a 	mov	r4,r2
   42c24:	d8800d15 	stw	r2,52(sp)
   42c28:	004b3340 	call	4b334 <strlen>
   42c2c:	80c0030b 	ldhu	r3,12(r16)
   42c30:	d8800c15 	stw	r2,48(sp)
   42c34:	18c0200c 	andi	r3,r3,128
   42c38:	18000226 	beq	r3,zero,42c44 <___svfprintf_internal_r+0x6c>
   42c3c:	80800417 	ldw	r2,16(r16)
   42c40:	10055f26 	beq	r2,zero,441c0 <___svfprintf_internal_r+0x15e8>
   42c44:	dc002a04 	addi	r16,sp,168
   42c48:	04c00174 	movhi	r19,5
   42c4c:	dc001d15 	stw	r16,116(sp)
   42c50:	d8001f15 	stw	zero,124(sp)
   42c54:	d8001e15 	stw	zero,120(sp)
   42c58:	d8000915 	stw	zero,36(sp)
   42c5c:	d8000a15 	stw	zero,40(sp)
   42c60:	d8000b15 	stw	zero,44(sp)
   42c64:	d8000e15 	stw	zero,56(sp)
   42c68:	d8001215 	stw	zero,72(sp)
   42c6c:	d8000615 	stw	zero,24(sp)
   42c70:	9cd4e004 	addi	r19,r19,21376
   42c74:	8023883a 	mov	r17,r16
   42c78:	9029883a 	mov	r20,r18
   42c7c:	a0800007 	ldb	r2,0(r20)
   42c80:	1000ce26 	beq	r2,zero,42fbc <___svfprintf_internal_r+0x3e4>
   42c84:	a025883a 	mov	r18,r20
   42c88:	00000306 	br	42c98 <___svfprintf_internal_r+0xc0>
   42c8c:	90800047 	ldb	r2,1(r18)
   42c90:	94800044 	addi	r18,r18,1
   42c94:	10013726 	beq	r2,zero,43174 <___svfprintf_internal_r+0x59c>
   42c98:	10800958 	cmpnei	r2,r2,37
   42c9c:	103ffb1e 	bne	r2,zero,42c8c <___svfprintf_internal_r+0xb4>
   42ca0:	952fc83a 	sub	r23,r18,r20
   42ca4:	9501351e 	bne	r18,r20,4317c <___svfprintf_internal_r+0x5a4>
   42ca8:	90800003 	ldbu	r2,0(r18)
   42cac:	10803fcc 	andi	r2,r2,255
   42cb0:	1080201c 	xori	r2,r2,128
   42cb4:	10bfe004 	addi	r2,r2,-128
   42cb8:	1000c026 	beq	r2,zero,42fbc <___svfprintf_internal_r+0x3e4>
   42cbc:	92c00047 	ldb	r11,1(r18)
   42cc0:	95000044 	addi	r20,r18,1
   42cc4:	d8001645 	stb	zero,89(sp)
   42cc8:	04bfffc4 	movi	r18,-1
   42ccc:	0015883a 	mov	r10,zero
   42cd0:	0019883a 	mov	r12,zero
   42cd4:	a5000044 	addi	r20,r20,1
   42cd8:	58bff804 	addi	r2,r11,-32
   42cdc:	10c01668 	cmpgeui	r3,r2,89
   42ce0:	18006c1e 	bne	r3,zero,42e94 <___svfprintf_internal_r+0x2bc>
   42ce4:	100490ba 	slli	r2,r2,2
   42ce8:	00c00134 	movhi	r3,4
   42cec:	10c7883a 	add	r3,r2,r3
   42cf0:	188b3e17 	ldw	r2,11512(r3)
   42cf4:	1000683a 	jmp	r2
   42cf8:	00043510 	cmplti	zero,zero,4308
   42cfc:	00042e94 	movui	zero,4282
   42d00:	00042e94 	movui	zero,4282
   42d04:	00043504 	movi	zero,4308
   42d08:	00042e94 	movui	zero,4282
   42d0c:	00042e94 	movui	zero,4282
   42d10:	00042e94 	movui	zero,4282
   42d14:	00042e94 	movui	zero,4282
   42d18:	00042e94 	movui	zero,4282
   42d1c:	00042e94 	movui	zero,4282
   42d20:	00043478 	rdprs	zero,zero,4305
   42d24:	000434f4 	movhi	zero,4307
   42d28:	00042e94 	movui	zero,4282
   42d2c:	00043490 	cmplti	zero,zero,4306
   42d30:	0004349c 	xori	zero,zero,4306
   42d34:	00042e94 	movui	zero,4282
   42d38:	000434e8 	cmpgeui	zero,zero,4307
   42d3c:	00042e5c 	xori	zero,zero,4281
   42d40:	00042e5c 	xori	zero,zero,4281
   42d44:	00042e5c 	xori	zero,zero,4281
   42d48:	00042e5c 	xori	zero,zero,4281
   42d4c:	00042e5c 	xori	zero,zero,4281
   42d50:	00042e5c 	xori	zero,zero,4281
   42d54:	00042e5c 	xori	zero,zero,4281
   42d58:	00042e5c 	xori	zero,zero,4281
   42d5c:	00042e5c 	xori	zero,zero,4281
   42d60:	00042e94 	movui	zero,4282
   42d64:	00042e94 	movui	zero,4282
   42d68:	00042e94 	movui	zero,4282
   42d6c:	00042e94 	movui	zero,4282
   42d70:	00042e94 	movui	zero,4282
   42d74:	00042e94 	movui	zero,4282
   42d78:	00042e94 	movui	zero,4282
   42d7c:	00042e94 	movui	zero,4282
   42d80:	00042e94 	movui	zero,4282
   42d84:	00042e94 	movui	zero,4282
   42d88:	00043008 	cmpgei	zero,zero,4288
   42d8c:	000432c8 	cmpgei	zero,zero,4299
   42d90:	00042e94 	movui	zero,4282
   42d94:	000432c8 	cmpgei	zero,zero,4299
   42d98:	00042e94 	movui	zero,4282
   42d9c:	00042e94 	movui	zero,4282
   42da0:	00042e94 	movui	zero,4282
   42da4:	00042e94 	movui	zero,4282
   42da8:	0004355c 	xori	zero,zero,4309
   42dac:	00042e94 	movui	zero,4282
   42db0:	00042e94 	movui	zero,4282
   42db4:	00043074 	movhi	zero,4289
   42db8:	00042e94 	movui	zero,4282
   42dbc:	00042e94 	movui	zero,4282
   42dc0:	00042e94 	movui	zero,4282
   42dc4:	00042e94 	movui	zero,4282
   42dc8:	00042e94 	movui	zero,4282
   42dcc:	0004314c 	andi	zero,zero,4293
   42dd0:	00042e94 	movui	zero,4282
   42dd4:	00042e94 	movui	zero,4282
   42dd8:	00044160 	cmpeqi	zero,zero,4357
   42ddc:	00042e94 	movui	zero,4282
   42de0:	00042e94 	movui	zero,4282
   42de4:	00042e94 	movui	zero,4282
   42de8:	00042e94 	movui	zero,4282
   42dec:	00042e94 	movui	zero,4282
   42df0:	00042e94 	movui	zero,4282
   42df4:	00042e94 	movui	zero,4282
   42df8:	00042e94 	movui	zero,4282
   42dfc:	00042e94 	movui	zero,4282
   42e00:	00042e94 	movui	zero,4282
   42e04:	00043640 	call	4364 <__reset-0x3bc9c>
   42e08:	0004300c 	andi	zero,zero,4288
   42e0c:	000432c8 	cmpgei	zero,zero,4299
   42e10:	000432c8 	cmpgei	zero,zero,4299
   42e14:	000432c8 	cmpgei	zero,zero,4299
   42e18:	00043634 	movhi	zero,4312
   42e1c:	0004300c 	andi	zero,zero,4288
   42e20:	00042e94 	movui	zero,4282
   42e24:	00042e94 	movui	zero,4282
   42e28:	00043534 	movhi	zero,4308
   42e2c:	00042e94 	movui	zero,4282
   42e30:	00043604 	movi	zero,4312
   42e34:	00043078 	rdprs	zero,zero,4289
   42e38:	000435cc 	andi	zero,zero,4311
   42e3c:	000435c0 	call	435c <__reset-0x3bca4>
   42e40:	00042e94 	movui	zero,4282
   42e44:	00043568 	cmpgeui	zero,zero,4309
   42e48:	00042e94 	movui	zero,4282
   42e4c:	00043150 	cmplti	zero,zero,4293
   42e50:	00042e94 	movui	zero,4282
   42e54:	00042e94 	movui	zero,4282
   42e58:	000441b0 	cmpltui	zero,zero,4358
   42e5c:	0015883a 	mov	r10,zero
   42e60:	58fff404 	addi	r3,r11,-48
   42e64:	500490ba 	slli	r2,r10,2
   42e68:	a2c00007 	ldb	r11,0(r20)
   42e6c:	a5000044 	addi	r20,r20,1
   42e70:	1295883a 	add	r10,r2,r10
   42e74:	5295883a 	add	r10,r10,r10
   42e78:	1a95883a 	add	r10,r3,r10
   42e7c:	58fff404 	addi	r3,r11,-48
   42e80:	188002b0 	cmpltui	r2,r3,10
   42e84:	103ff71e 	bne	r2,zero,42e64 <___svfprintf_internal_r+0x28c>
   42e88:	58bff804 	addi	r2,r11,-32
   42e8c:	10c01668 	cmpgeui	r3,r2,89
   42e90:	183f9426 	beq	r3,zero,42ce4 <___svfprintf_internal_r+0x10c>
   42e94:	58004926 	beq	r11,zero,42fbc <___svfprintf_internal_r+0x3e4>
   42e98:	dac02005 	stb	r11,128(sp)
   42e9c:	d8001645 	stb	zero,89(sp)
   42ea0:	03400044 	movi	r13,1
   42ea4:	07000044 	movi	fp,1
   42ea8:	dd402004 	addi	r21,sp,128
   42eac:	6007883a 	mov	r3,r12
   42eb0:	0025883a 	mov	r18,zero
   42eb4:	d8000815 	stw	zero,32(sp)
   42eb8:	1b80008c 	andi	r14,r3,2
   42ebc:	70000126 	beq	r14,zero,42ec4 <___svfprintf_internal_r+0x2ec>
   42ec0:	6b400084 	addi	r13,r13,2
   42ec4:	1b00210c 	andi	r12,r3,132
   42ec8:	6000021e 	bne	r12,zero,42ed4 <___svfprintf_internal_r+0x2fc>
   42ecc:	536dc83a 	sub	r22,r10,r13
   42ed0:	05831416 	blt	zero,r22,43b24 <___svfprintf_internal_r+0xf4c>
   42ed4:	d8801647 	ldb	r2,89(sp)
   42ed8:	dd801f17 	ldw	r22,124(sp)
   42edc:	10000c26 	beq	r2,zero,42f10 <___svfprintf_internal_r+0x338>
   42ee0:	d8801e17 	ldw	r2,120(sp)
   42ee4:	d9001644 	addi	r4,sp,89
   42ee8:	b5800044 	addi	r22,r22,1
   42eec:	10800044 	addi	r2,r2,1
   42ef0:	89000015 	stw	r4,0(r17)
   42ef4:	01000044 	movi	r4,1
   42ef8:	d8801e15 	stw	r2,120(sp)
   42efc:	89000115 	stw	r4,4(r17)
   42f00:	dd801f15 	stw	r22,124(sp)
   42f04:	10800208 	cmpgei	r2,r2,8
   42f08:	1003681e 	bne	r2,zero,43cac <___svfprintf_internal_r+0x10d4>
   42f0c:	8c400204 	addi	r17,r17,8
   42f10:	70000c26 	beq	r14,zero,42f44 <___svfprintf_internal_r+0x36c>
   42f14:	d8801e17 	ldw	r2,120(sp)
   42f18:	d9001684 	addi	r4,sp,90
   42f1c:	b5800084 	addi	r22,r22,2
   42f20:	10800044 	addi	r2,r2,1
   42f24:	89000015 	stw	r4,0(r17)
   42f28:	01000084 	movi	r4,2
   42f2c:	d8801e15 	stw	r2,120(sp)
   42f30:	89000115 	stw	r4,4(r17)
   42f34:	dd801f15 	stw	r22,124(sp)
   42f38:	10800208 	cmpgei	r2,r2,8
   42f3c:	10036f1e 	bne	r2,zero,43cfc <___svfprintf_internal_r+0x1124>
   42f40:	8c400204 	addi	r17,r17,8
   42f44:	63002018 	cmpnei	r12,r12,128
   42f48:	60021a26 	beq	r12,zero,437b4 <___svfprintf_internal_r+0xbdc>
   42f4c:	9725c83a 	sub	r18,r18,fp
   42f50:	04825a16 	blt	zero,r18,438bc <___svfprintf_internal_r+0xce4>
   42f54:	1880400c 	andi	r2,r3,256
   42f58:	1001c31e 	bne	r2,zero,43668 <___svfprintf_internal_r+0xa90>
   42f5c:	d8801e17 	ldw	r2,120(sp)
   42f60:	e589883a 	add	r4,fp,r22
   42f64:	8d400015 	stw	r21,0(r17)
   42f68:	10800044 	addi	r2,r2,1
   42f6c:	d8801e15 	stw	r2,120(sp)
   42f70:	8f000115 	stw	fp,4(r17)
   42f74:	d9001f15 	stw	r4,124(sp)
   42f78:	10800208 	cmpgei	r2,r2,8
   42f7c:	10033d1e 	bne	r2,zero,43c74 <___svfprintf_internal_r+0x109c>
   42f80:	8c400204 	addi	r17,r17,8
   42f84:	18c0010c 	andi	r3,r3,4
   42f88:	18000226 	beq	r3,zero,42f94 <___svfprintf_internal_r+0x3bc>
   42f8c:	5365c83a 	sub	r18,r10,r13
   42f90:	04809116 	blt	zero,r18,431d8 <___svfprintf_internal_r+0x600>
   42f94:	5340010e 	bge	r10,r13,42f9c <___svfprintf_internal_r+0x3c4>
   42f98:	6815883a 	mov	r10,r13
   42f9c:	d8800617 	ldw	r2,24(sp)
   42fa0:	1285883a 	add	r2,r2,r10
   42fa4:	d8800615 	stw	r2,24(sp)
   42fa8:	2002921e 	bne	r4,zero,439f4 <___svfprintf_internal_r+0xe1c>
   42fac:	a0800007 	ldb	r2,0(r20)
   42fb0:	d8001e15 	stw	zero,120(sp)
   42fb4:	8023883a 	mov	r17,r16
   42fb8:	103f321e 	bne	r2,zero,42c84 <___svfprintf_internal_r+0xac>
   42fbc:	d8801f17 	ldw	r2,124(sp)
   42fc0:	1006941e 	bne	r2,zero,44a14 <___svfprintf_internal_r+0x1e3c>
   42fc4:	d8800417 	ldw	r2,16(sp)
   42fc8:	1080030b 	ldhu	r2,12(r2)
   42fcc:	1080100c 	andi	r2,r2,64
   42fd0:	1007b51e 	bne	r2,zero,44ea8 <___svfprintf_internal_r+0x22d0>
   42fd4:	d8800617 	ldw	r2,24(sp)
   42fd8:	dfc04317 	ldw	ra,268(sp)
   42fdc:	df004217 	ldw	fp,264(sp)
   42fe0:	ddc04117 	ldw	r23,260(sp)
   42fe4:	dd804017 	ldw	r22,256(sp)
   42fe8:	dd403f17 	ldw	r21,252(sp)
   42fec:	dd003e17 	ldw	r20,248(sp)
   42ff0:	dcc03d17 	ldw	r19,244(sp)
   42ff4:	dc803c17 	ldw	r18,240(sp)
   42ff8:	dc403b17 	ldw	r17,236(sp)
   42ffc:	dc003a17 	ldw	r16,232(sp)
   43000:	dec04404 	addi	sp,sp,272
   43004:	f800283a 	ret
   43008:	63000414 	ori	r12,r12,16
   4300c:	6080080c 	andi	r2,r12,32
   43010:	1000e826 	beq	r2,zero,433b4 <___svfprintf_internal_r+0x7dc>
   43014:	d8c00717 	ldw	r3,28(sp)
   43018:	18800117 	ldw	r2,4(r3)
   4301c:	1d800017 	ldw	r22,0(r3)
   43020:	18c00204 	addi	r3,r3,8
   43024:	d8c00715 	stw	r3,28(sp)
   43028:	1039883a 	mov	fp,r2
   4302c:	1000ef16 	blt	r2,zero,433ec <___svfprintf_internal_r+0x814>
   43030:	90bfffd8 	cmpnei	r2,r18,-1
   43034:	ddc01643 	ldbu	r23,89(sp)
   43038:	10000526 	beq	r2,zero,43050 <___svfprintf_internal_r+0x478>
   4303c:	00ffdfc4 	movi	r3,-129
   43040:	b704b03a 	or	r2,r22,fp
   43044:	60c6703a 	and	r3,r12,r3
   43048:	1002ad26 	beq	r2,zero,43b00 <___svfprintf_internal_r+0xf28>
   4304c:	1819883a 	mov	r12,r3
   43050:	e004961e 	bne	fp,zero,442ac <___svfprintf_internal_r+0x16d4>
   43054:	b08002a8 	cmpgeui	r2,r22,10
   43058:	1004941e 	bne	r2,zero,442ac <___svfprintf_internal_r+0x16d4>
   4305c:	b5800c04 	addi	r22,r22,48
   43060:	dd8029c5 	stb	r22,167(sp)
   43064:	6007883a 	mov	r3,r12
   43068:	07000044 	movi	fp,1
   4306c:	dd4029c4 	addi	r21,sp,167
   43070:	00002c06 	br	43124 <___svfprintf_internal_r+0x54c>
   43074:	63000414 	ori	r12,r12,16
   43078:	6080080c 	andi	r2,r12,32
   4307c:	1000ee26 	beq	r2,zero,43438 <___svfprintf_internal_r+0x860>
   43080:	d8c00717 	ldw	r3,28(sp)
   43084:	0005883a 	mov	r2,zero
   43088:	1d800017 	ldw	r22,0(r3)
   4308c:	1f000117 	ldw	fp,4(r3)
   43090:	18c00204 	addi	r3,r3,8
   43094:	d8c00715 	stw	r3,28(sp)
   43098:	002f883a 	mov	r23,zero
   4309c:	ddc01645 	stb	r23,89(sp)
   430a0:	90ffffe0 	cmpeqi	r3,r18,-1
   430a4:	1800051e 	bne	r3,zero,430bc <___svfprintf_internal_r+0x4e4>
   430a8:	00ffdfc4 	movi	r3,-129
   430ac:	b708b03a 	or	r4,r22,fp
   430b0:	60c6703a 	and	r3,r12,r3
   430b4:	20029326 	beq	r4,zero,43b04 <___svfprintf_internal_r+0xf2c>
   430b8:	1819883a 	mov	r12,r3
   430bc:	10c00060 	cmpeqi	r3,r2,1
   430c0:	183fe31e 	bne	r3,zero,43050 <___svfprintf_internal_r+0x478>
   430c4:	108000a0 	cmpeqi	r2,r2,2
   430c8:	10023a1e 	bne	r2,zero,439b4 <___svfprintf_internal_r+0xddc>
   430cc:	802b883a 	mov	r21,r16
   430d0:	b006d0fa 	srli	r3,r22,3
   430d4:	e00a977a 	slli	r5,fp,29
   430d8:	e038d0fa 	srli	fp,fp,3
   430dc:	b58001cc 	andi	r22,r22,7
   430e0:	b0800c04 	addi	r2,r22,48
   430e4:	28ecb03a 	or	r22,r5,r3
   430e8:	a8bfffc5 	stb	r2,-1(r21)
   430ec:	b706b03a 	or	r3,r22,fp
   430f0:	a809883a 	mov	r4,r21
   430f4:	ad7fffc4 	addi	r21,r21,-1
   430f8:	183ff51e 	bne	r3,zero,430d0 <___svfprintf_internal_r+0x4f8>
   430fc:	60c0004c 	andi	r3,r12,1
   43100:	18023926 	beq	r3,zero,439e8 <___svfprintf_internal_r+0xe10>
   43104:	10800c18 	cmpnei	r2,r2,48
   43108:	10023726 	beq	r2,zero,439e8 <___svfprintf_internal_r+0xe10>
   4310c:	213fff84 	addi	r4,r4,-2
   43110:	00800c04 	movi	r2,48
   43114:	a8bfffc5 	stb	r2,-1(r21)
   43118:	8139c83a 	sub	fp,r16,r4
   4311c:	6007883a 	mov	r3,r12
   43120:	202b883a 	mov	r21,r4
   43124:	901b883a 	mov	r13,r18
   43128:	9700010e 	bge	r18,fp,43130 <___svfprintf_internal_r+0x558>
   4312c:	e01b883a 	mov	r13,fp
   43130:	d8000815 	stw	zero,32(sp)
   43134:	bdc03fcc 	andi	r23,r23,255
   43138:	bdc0201c 	xori	r23,r23,128
   4313c:	bdffe004 	addi	r23,r23,-128
   43140:	b83f5d26 	beq	r23,zero,42eb8 <___svfprintf_internal_r+0x2e0>
   43144:	6b400044 	addi	r13,r13,1
   43148:	003f5b06 	br	42eb8 <___svfprintf_internal_r+0x2e0>
   4314c:	63000414 	ori	r12,r12,16
   43150:	6080080c 	andi	r2,r12,32
   43154:	1000ac26 	beq	r2,zero,43408 <___svfprintf_internal_r+0x830>
   43158:	d8c00717 	ldw	r3,28(sp)
   4315c:	00800044 	movi	r2,1
   43160:	1d800017 	ldw	r22,0(r3)
   43164:	1f000117 	ldw	fp,4(r3)
   43168:	18c00204 	addi	r3,r3,8
   4316c:	d8c00715 	stw	r3,28(sp)
   43170:	003fc906 	br	43098 <___svfprintf_internal_r+0x4c0>
   43174:	952fc83a 	sub	r23,r18,r20
   43178:	953f9026 	beq	r18,r20,42fbc <___svfprintf_internal_r+0x3e4>
   4317c:	dd801f17 	ldw	r22,124(sp)
   43180:	d8801e17 	ldw	r2,120(sp)
   43184:	8d000015 	stw	r20,0(r17)
   43188:	b5ed883a 	add	r22,r22,r23
   4318c:	10800044 	addi	r2,r2,1
   43190:	d8801e15 	stw	r2,120(sp)
   43194:	8dc00115 	stw	r23,4(r17)
   43198:	dd801f15 	stw	r22,124(sp)
   4319c:	10800208 	cmpgei	r2,r2,8
   431a0:	1000061e 	bne	r2,zero,431bc <___svfprintf_internal_r+0x5e4>
   431a4:	8c400204 	addi	r17,r17,8
   431a8:	d8c00617 	ldw	r3,24(sp)
   431ac:	90800003 	ldbu	r2,0(r18)
   431b0:	1dc7883a 	add	r3,r3,r23
   431b4:	d8c00615 	stw	r3,24(sp)
   431b8:	003ebc06 	br	42cac <___svfprintf_internal_r+0xd4>
   431bc:	d9400417 	ldw	r5,16(sp)
   431c0:	d9000517 	ldw	r4,20(sp)
   431c4:	d9801d04 	addi	r6,sp,116
   431c8:	004b3cc0 	call	4b3cc <__ssprint_r>
   431cc:	103f7d1e 	bne	r2,zero,42fc4 <___svfprintf_internal_r+0x3ec>
   431d0:	8023883a 	mov	r17,r16
   431d4:	003ff406 	br	431a8 <___svfprintf_internal_r+0x5d0>
   431d8:	05c00174 	movhi	r23,5
   431dc:	90c00450 	cmplti	r3,r18,17
   431e0:	d8801e17 	ldw	r2,120(sp)
   431e4:	bdd4e404 	addi	r23,r23,21392
   431e8:	1800241e 	bne	r3,zero,4327c <___svfprintf_internal_r+0x6a4>
   431ec:	8807883a 	mov	r3,r17
   431f0:	b839883a 	mov	fp,r23
   431f4:	dd400517 	ldw	r21,20(sp)
   431f8:	902f883a 	mov	r23,r18
   431fc:	05800404 	movi	r22,16
   43200:	5023883a 	mov	r17,r10
   43204:	6825883a 	mov	r18,r13
   43208:	00000406 	br	4321c <___svfprintf_internal_r+0x644>
   4320c:	bdfffc04 	addi	r23,r23,-16
   43210:	b9400448 	cmpgei	r5,r23,17
   43214:	18c00204 	addi	r3,r3,8
   43218:	28001326 	beq	r5,zero,43268 <___svfprintf_internal_r+0x690>
   4321c:	10800044 	addi	r2,r2,1
   43220:	21000404 	addi	r4,r4,16
   43224:	1f000015 	stw	fp,0(r3)
   43228:	1d800115 	stw	r22,4(r3)
   4322c:	d9001f15 	stw	r4,124(sp)
   43230:	d8801e15 	stw	r2,120(sp)
   43234:	11400208 	cmpgei	r5,r2,8
   43238:	283ff426 	beq	r5,zero,4320c <___svfprintf_internal_r+0x634>
   4323c:	d9400417 	ldw	r5,16(sp)
   43240:	d9801d04 	addi	r6,sp,116
   43244:	a809883a 	mov	r4,r21
   43248:	004b3cc0 	call	4b3cc <__ssprint_r>
   4324c:	103f5d1e 	bne	r2,zero,42fc4 <___svfprintf_internal_r+0x3ec>
   43250:	bdfffc04 	addi	r23,r23,-16
   43254:	b9400448 	cmpgei	r5,r23,17
   43258:	d9001f17 	ldw	r4,124(sp)
   4325c:	d8801e17 	ldw	r2,120(sp)
   43260:	8007883a 	mov	r3,r16
   43264:	283fed1e 	bne	r5,zero,4321c <___svfprintf_internal_r+0x644>
   43268:	8815883a 	mov	r10,r17
   4326c:	901b883a 	mov	r13,r18
   43270:	1823883a 	mov	r17,r3
   43274:	b825883a 	mov	r18,r23
   43278:	e02f883a 	mov	r23,fp
   4327c:	10800044 	addi	r2,r2,1
   43280:	2489883a 	add	r4,r4,r18
   43284:	d8801e15 	stw	r2,120(sp)
   43288:	8dc00015 	stw	r23,0(r17)
   4328c:	8c800115 	stw	r18,4(r17)
   43290:	d9001f15 	stw	r4,124(sp)
   43294:	10800210 	cmplti	r2,r2,8
   43298:	103f3e1e 	bne	r2,zero,42f94 <___svfprintf_internal_r+0x3bc>
   4329c:	d9400417 	ldw	r5,16(sp)
   432a0:	d9000517 	ldw	r4,20(sp)
   432a4:	d9801d04 	addi	r6,sp,116
   432a8:	db400f15 	stw	r13,60(sp)
   432ac:	da800815 	stw	r10,32(sp)
   432b0:	004b3cc0 	call	4b3cc <__ssprint_r>
   432b4:	103f431e 	bne	r2,zero,42fc4 <___svfprintf_internal_r+0x3ec>
   432b8:	d9001f17 	ldw	r4,124(sp)
   432bc:	db400f17 	ldw	r13,60(sp)
   432c0:	da800817 	ldw	r10,32(sp)
   432c4:	003f3306 	br	42f94 <___svfprintf_internal_r+0x3bc>
   432c8:	d8c00717 	ldw	r3,28(sp)
   432cc:	6080020c 	andi	r2,r12,8
   432d0:	1d800204 	addi	r22,r3,8
   432d4:	10038d1e 	bne	r2,zero,4410c <___svfprintf_internal_r+0x1534>
   432d8:	d8800717 	ldw	r2,28(sp)
   432dc:	10c00017 	ldw	r3,0(r2)
   432e0:	10800117 	ldw	r2,4(r2)
   432e4:	d8c00a15 	stw	r3,40(sp)
   432e8:	d8800b15 	stw	r2,44(sp)
   432ec:	df000b17 	ldw	fp,44(sp)
   432f0:	ddc00a17 	ldw	r23,40(sp)
   432f4:	00a00034 	movhi	r2,32768
   432f8:	10bfffc4 	addi	r2,r2,-1
   432fc:	e0aa703a 	and	r21,fp,r2
   43300:	01dffc34 	movhi	r7,32752
   43304:	01bfffc4 	movi	r6,-1
   43308:	39ffffc4 	addi	r7,r7,-1
   4330c:	b809883a 	mov	r4,r23
   43310:	a80b883a 	mov	r5,r21
   43314:	da800f15 	stw	r10,60(sp)
   43318:	db000815 	stw	r12,32(sp)
   4331c:	dac00715 	stw	r11,28(sp)
   43320:	0051f680 	call	51f68 <__unorddf2>
   43324:	dac00717 	ldw	r11,28(sp)
   43328:	db000817 	ldw	r12,32(sp)
   4332c:	da800f17 	ldw	r10,60(sp)
   43330:	10045b1e 	bne	r2,zero,444a0 <___svfprintf_internal_r+0x18c8>
   43334:	01dffc34 	movhi	r7,32752
   43338:	01bfffc4 	movi	r6,-1
   4333c:	39ffffc4 	addi	r7,r7,-1
   43340:	b809883a 	mov	r4,r23
   43344:	a80b883a 	mov	r5,r21
   43348:	0050ccc0 	call	50ccc <__ledf2>
   4334c:	dac00717 	ldw	r11,28(sp)
   43350:	db000817 	ldw	r12,32(sp)
   43354:	da800f17 	ldw	r10,60(sp)
   43358:	0084510e 	bge	zero,r2,444a0 <___svfprintf_internal_r+0x18c8>
   4335c:	000d883a 	mov	r6,zero
   43360:	000f883a 	mov	r7,zero
   43364:	b809883a 	mov	r4,r23
   43368:	e00b883a 	mov	r5,fp
   4336c:	0050ccc0 	call	50ccc <__ledf2>
   43370:	dac00717 	ldw	r11,28(sp)
   43374:	db000817 	ldw	r12,32(sp)
   43378:	da800f17 	ldw	r10,60(sp)
   4337c:	10054416 	blt	r2,zero,44890 <___svfprintf_internal_r+0x1cb8>
   43380:	ddc01643 	ldbu	r23,89(sp)
   43384:	58801210 	cmplti	r2,r11,72
   43388:	1005291e 	bne	r2,zero,44830 <___svfprintf_internal_r+0x1c58>
   4338c:	05400174 	movhi	r21,5
   43390:	ad54d004 	addi	r21,r21,21312
   43394:	00ffdfc4 	movi	r3,-129
   43398:	60c6703a 	and	r3,r12,r3
   4339c:	dd800715 	stw	r22,28(sp)
   433a0:	034000c4 	movi	r13,3
   433a4:	070000c4 	movi	fp,3
   433a8:	0025883a 	mov	r18,zero
   433ac:	d8000815 	stw	zero,32(sp)
   433b0:	003f6006 	br	43134 <___svfprintf_internal_r+0x55c>
   433b4:	d8c00717 	ldw	r3,28(sp)
   433b8:	6080040c 	andi	r2,r12,16
   433bc:	1d800017 	ldw	r22,0(r3)
   433c0:	1d400104 	addi	r21,r3,4
   433c4:	1000281e 	bne	r2,zero,43468 <___svfprintf_internal_r+0x890>
   433c8:	6080100c 	andi	r2,r12,64
   433cc:	10002626 	beq	r2,zero,43468 <___svfprintf_internal_r+0x890>
   433d0:	b5bfffcc 	andi	r22,r22,65535
   433d4:	b5a0001c 	xori	r22,r22,32768
   433d8:	b5a00004 	addi	r22,r22,-32768
   433dc:	b039d7fa 	srai	fp,r22,31
   433e0:	dd400715 	stw	r21,28(sp)
   433e4:	e005883a 	mov	r2,fp
   433e8:	103f110e 	bge	r2,zero,43030 <___svfprintf_internal_r+0x458>
   433ec:	b004c03a 	cmpne	r2,r22,zero
   433f0:	0739c83a 	sub	fp,zero,fp
   433f4:	e0b9c83a 	sub	fp,fp,r2
   433f8:	05adc83a 	sub	r22,zero,r22
   433fc:	05c00b44 	movi	r23,45
   43400:	00800044 	movi	r2,1
   43404:	003f2506 	br	4309c <___svfprintf_internal_r+0x4c4>
   43408:	d8c00717 	ldw	r3,28(sp)
   4340c:	6080040c 	andi	r2,r12,16
   43410:	1d800017 	ldw	r22,0(r3)
   43414:	1d400104 	addi	r21,r3,4
   43418:	1000031e 	bne	r2,zero,43428 <___svfprintf_internal_r+0x850>
   4341c:	6080100c 	andi	r2,r12,64
   43420:	10000126 	beq	r2,zero,43428 <___svfprintf_internal_r+0x850>
   43424:	b5bfffcc 	andi	r22,r22,65535
   43428:	0039883a 	mov	fp,zero
   4342c:	dd400715 	stw	r21,28(sp)
   43430:	00800044 	movi	r2,1
   43434:	003f1806 	br	43098 <___svfprintf_internal_r+0x4c0>
   43438:	d8c00717 	ldw	r3,28(sp)
   4343c:	6080040c 	andi	r2,r12,16
   43440:	1d800017 	ldw	r22,0(r3)
   43444:	1d400104 	addi	r21,r3,4
   43448:	1000031e 	bne	r2,zero,43458 <___svfprintf_internal_r+0x880>
   4344c:	6080100c 	andi	r2,r12,64
   43450:	10000126 	beq	r2,zero,43458 <___svfprintf_internal_r+0x880>
   43454:	b5bfffcc 	andi	r22,r22,65535
   43458:	0039883a 	mov	fp,zero
   4345c:	dd400715 	stw	r21,28(sp)
   43460:	0005883a 	mov	r2,zero
   43464:	003f0c06 	br	43098 <___svfprintf_internal_r+0x4c0>
   43468:	b039d7fa 	srai	fp,r22,31
   4346c:	dd400715 	stw	r21,28(sp)
   43470:	e005883a 	mov	r2,fp
   43474:	003eed06 	br	4302c <___svfprintf_internal_r+0x454>
   43478:	d8800717 	ldw	r2,28(sp)
   4347c:	12800017 	ldw	r10,0(r2)
   43480:	10800104 	addi	r2,r2,4
   43484:	5003130e 	bge	r10,zero,440d4 <___svfprintf_internal_r+0x14fc>
   43488:	0295c83a 	sub	r10,zero,r10
   4348c:	d8800715 	stw	r2,28(sp)
   43490:	a2c00007 	ldb	r11,0(r20)
   43494:	63000114 	ori	r12,r12,4
   43498:	003e0e06 	br	42cd4 <___svfprintf_internal_r+0xfc>
   4349c:	a2c00007 	ldb	r11,0(r20)
   434a0:	a0800044 	addi	r2,r20,1
   434a4:	58c00aa0 	cmpeqi	r3,r11,42
   434a8:	1806cb1e 	bne	r3,zero,44fd8 <___svfprintf_internal_r+0x2400>
   434ac:	58fff404 	addi	r3,r11,-48
   434b0:	190002b0 	cmpltui	r4,r3,10
   434b4:	1029883a 	mov	r20,r2
   434b8:	0025883a 	mov	r18,zero
   434bc:	203e0626 	beq	r4,zero,42cd8 <___svfprintf_internal_r+0x100>
   434c0:	900490ba 	slli	r2,r18,2
   434c4:	a2c00007 	ldb	r11,0(r20)
   434c8:	a5000044 	addi	r20,r20,1
   434cc:	14a5883a 	add	r18,r2,r18
   434d0:	94a5883a 	add	r18,r18,r18
   434d4:	90e5883a 	add	r18,r18,r3
   434d8:	58fff404 	addi	r3,r11,-48
   434dc:	188002b0 	cmpltui	r2,r3,10
   434e0:	103ff71e 	bne	r2,zero,434c0 <___svfprintf_internal_r+0x8e8>
   434e4:	003dfc06 	br	42cd8 <___svfprintf_internal_r+0x100>
   434e8:	a2c00007 	ldb	r11,0(r20)
   434ec:	63002014 	ori	r12,r12,128
   434f0:	003df806 	br	42cd4 <___svfprintf_internal_r+0xfc>
   434f4:	00800ac4 	movi	r2,43
   434f8:	a2c00007 	ldb	r11,0(r20)
   434fc:	d8801645 	stb	r2,89(sp)
   43500:	003df406 	br	42cd4 <___svfprintf_internal_r+0xfc>
   43504:	a2c00007 	ldb	r11,0(r20)
   43508:	63000054 	ori	r12,r12,1
   4350c:	003df106 	br	42cd4 <___svfprintf_internal_r+0xfc>
   43510:	d8801647 	ldb	r2,89(sp)
   43514:	a2c00003 	ldbu	r11,0(r20)
   43518:	10000c1e 	bne	r2,zero,4354c <___svfprintf_internal_r+0x974>
   4351c:	5ac03fcc 	andi	r11,r11,255
   43520:	00800804 	movi	r2,32
   43524:	5ac0201c 	xori	r11,r11,128
   43528:	d8801645 	stb	r2,89(sp)
   4352c:	5affe004 	addi	r11,r11,-128
   43530:	003de806 	br	42cd4 <___svfprintf_internal_r+0xfc>
   43534:	a2c00007 	ldb	r11,0(r20)
   43538:	58801b18 	cmpnei	r2,r11,108
   4353c:	1002e31e 	bne	r2,zero,440cc <___svfprintf_internal_r+0x14f4>
   43540:	a2c00043 	ldbu	r11,1(r20)
   43544:	63000814 	ori	r12,r12,32
   43548:	a5000044 	addi	r20,r20,1
   4354c:	5ac03fcc 	andi	r11,r11,255
   43550:	5ac0201c 	xori	r11,r11,128
   43554:	5affe004 	addi	r11,r11,-128
   43558:	003dde06 	br	42cd4 <___svfprintf_internal_r+0xfc>
   4355c:	a2c00007 	ldb	r11,0(r20)
   43560:	63000214 	ori	r12,r12,8
   43564:	003ddb06 	br	42cd4 <___svfprintf_internal_r+0xfc>
   43568:	d8800717 	ldw	r2,28(sp)
   4356c:	d8001645 	stb	zero,89(sp)
   43570:	15400017 	ldw	r21,0(r2)
   43574:	15800104 	addi	r22,r2,4
   43578:	a8046926 	beq	r21,zero,44720 <___svfprintf_internal_r+0x1b48>
   4357c:	90bfffe0 	cmpeqi	r2,r18,-1
   43580:	10033e1e 	bne	r2,zero,4427c <___svfprintf_internal_r+0x16a4>
   43584:	900d883a 	mov	r6,r18
   43588:	000b883a 	mov	r5,zero
   4358c:	a809883a 	mov	r4,r21
   43590:	da800f15 	stw	r10,60(sp)
   43594:	db000815 	stw	r12,32(sp)
   43598:	dac00715 	stw	r11,28(sp)
   4359c:	0049f140 	call	49f14 <memchr>
   435a0:	dac00717 	ldw	r11,28(sp)
   435a4:	db000817 	ldw	r12,32(sp)
   435a8:	da800f17 	ldw	r10,60(sp)
   435ac:	1005fe26 	beq	r2,zero,44da8 <___svfprintf_internal_r+0x21d0>
   435b0:	1579c83a 	sub	fp,r2,r21
   435b4:	e01b883a 	mov	r13,fp
   435b8:	dd800715 	stw	r22,28(sp)
   435bc:	003e3b06 	br	42eac <___svfprintf_internal_r+0x2d4>
   435c0:	a2c00007 	ldb	r11,0(r20)
   435c4:	63000814 	ori	r12,r12,32
   435c8:	003dc206 	br	42cd4 <___svfprintf_internal_r+0xfc>
   435cc:	d8c00717 	ldw	r3,28(sp)
   435d0:	009e0c04 	movi	r2,30768
   435d4:	01000174 	movhi	r4,5
   435d8:	d880168d 	sth	r2,90(sp)
   435dc:	18800104 	addi	r2,r3,4
   435e0:	d8800715 	stw	r2,28(sp)
   435e4:	2094d804 	addi	r2,r4,21344
   435e8:	d8800e15 	stw	r2,56(sp)
   435ec:	1d800017 	ldw	r22,0(r3)
   435f0:	0039883a 	mov	fp,zero
   435f4:	63000094 	ori	r12,r12,2
   435f8:	00800084 	movi	r2,2
   435fc:	02c01e04 	movi	r11,120
   43600:	003ea506 	br	43098 <___svfprintf_internal_r+0x4c0>
   43604:	6080080c 	andi	r2,r12,32
   43608:	1002b726 	beq	r2,zero,440e8 <___svfprintf_internal_r+0x1510>
   4360c:	d9000617 	ldw	r4,24(sp)
   43610:	d8800717 	ldw	r2,28(sp)
   43614:	2007d7fa 	srai	r3,r4,31
   43618:	10800017 	ldw	r2,0(r2)
   4361c:	11000015 	stw	r4,0(r2)
   43620:	10c00115 	stw	r3,4(r2)
   43624:	d8800717 	ldw	r2,28(sp)
   43628:	10800104 	addi	r2,r2,4
   4362c:	d8800715 	stw	r2,28(sp)
   43630:	003d9206 	br	42c7c <___svfprintf_internal_r+0xa4>
   43634:	a2c00007 	ldb	r11,0(r20)
   43638:	63001014 	ori	r12,r12,64
   4363c:	003da506 	br	42cd4 <___svfprintf_internal_r+0xfc>
   43640:	d8c00717 	ldw	r3,28(sp)
   43644:	d8001645 	stb	zero,89(sp)
   43648:	03400044 	movi	r13,1
   4364c:	18800017 	ldw	r2,0(r3)
   43650:	18c00104 	addi	r3,r3,4
   43654:	d8c00715 	stw	r3,28(sp)
   43658:	d8802005 	stb	r2,128(sp)
   4365c:	07000044 	movi	fp,1
   43660:	dd402004 	addi	r21,sp,128
   43664:	003e1106 	br	42eac <___svfprintf_internal_r+0x2d4>
   43668:	5ac01990 	cmplti	r11,r11,102
   4366c:	5800e71e 	bne	r11,zero,43a0c <___svfprintf_internal_r+0xe34>
   43670:	d9000a17 	ldw	r4,40(sp)
   43674:	d9400b17 	ldw	r5,44(sp)
   43678:	000d883a 	mov	r6,zero
   4367c:	000f883a 	mov	r7,zero
   43680:	db401115 	stw	r13,68(sp)
   43684:	da801015 	stw	r10,64(sp)
   43688:	d8c00f15 	stw	r3,60(sp)
   4368c:	0050b3c0 	call	50b3c <__eqdf2>
   43690:	d8c00f17 	ldw	r3,60(sp)
   43694:	da801017 	ldw	r10,64(sp)
   43698:	db401117 	ldw	r13,68(sp)
   4369c:	1001a91e 	bne	r2,zero,43d44 <___svfprintf_internal_r+0x116c>
   436a0:	d8801e17 	ldw	r2,120(sp)
   436a4:	01000174 	movhi	r4,5
   436a8:	2114df04 	addi	r4,r4,21372
   436ac:	10800044 	addi	r2,r2,1
   436b0:	b5800044 	addi	r22,r22,1
   436b4:	89000015 	stw	r4,0(r17)
   436b8:	01000044 	movi	r4,1
   436bc:	d8801e15 	stw	r2,120(sp)
   436c0:	89000115 	stw	r4,4(r17)
   436c4:	dd801f15 	stw	r22,124(sp)
   436c8:	10800208 	cmpgei	r2,r2,8
   436cc:	1003d91e 	bne	r2,zero,44634 <___svfprintf_internal_r+0x1a5c>
   436d0:	8c400204 	addi	r17,r17,8
   436d4:	d8801717 	ldw	r2,92(sp)
   436d8:	d9000917 	ldw	r4,36(sp)
   436dc:	11000216 	blt	r2,r4,436e8 <___svfprintf_internal_r+0xb10>
   436e0:	1880004c 	andi	r2,r3,1
   436e4:	10029a26 	beq	r2,zero,44150 <___svfprintf_internal_r+0x1578>
   436e8:	d8800d17 	ldw	r2,52(sp)
   436ec:	d9400c17 	ldw	r5,48(sp)
   436f0:	88800015 	stw	r2,0(r17)
   436f4:	d8801e17 	ldw	r2,120(sp)
   436f8:	2d89883a 	add	r4,r5,r22
   436fc:	89400115 	stw	r5,4(r17)
   43700:	10800044 	addi	r2,r2,1
   43704:	d8801e15 	stw	r2,120(sp)
   43708:	d9001f15 	stw	r4,124(sp)
   4370c:	10800208 	cmpgei	r2,r2,8
   43710:	1003f51e 	bne	r2,zero,446e8 <___svfprintf_internal_r+0x1b10>
   43714:	8c400204 	addi	r17,r17,8
   43718:	d8800917 	ldw	r2,36(sp)
   4371c:	14bfffc4 	addi	r18,r2,-1
   43720:	04be180e 	bge	zero,r18,42f84 <___svfprintf_internal_r+0x3ac>
   43724:	05800174 	movhi	r22,5
   43728:	91400450 	cmplti	r5,r18,17
   4372c:	d8801e17 	ldw	r2,120(sp)
   43730:	b594e004 	addi	r22,r22,21376
   43734:	2801471e 	bne	r5,zero,43c54 <___svfprintf_internal_r+0x107c>
   43738:	880b883a 	mov	r5,r17
   4373c:	9039883a 	mov	fp,r18
   43740:	1823883a 	mov	r17,r3
   43744:	b02b883a 	mov	r21,r22
   43748:	05c00404 	movi	r23,16
   4374c:	982d883a 	mov	r22,r19
   43750:	5025883a 	mov	r18,r10
   43754:	6827883a 	mov	r19,r13
   43758:	2807883a 	mov	r3,r5
   4375c:	00000406 	br	43770 <___svfprintf_internal_r+0xb98>
   43760:	18c00204 	addi	r3,r3,8
   43764:	e73ffc04 	addi	fp,fp,-16
   43768:	e1400448 	cmpgei	r5,fp,17
   4376c:	28013126 	beq	r5,zero,43c34 <___svfprintf_internal_r+0x105c>
   43770:	10800044 	addi	r2,r2,1
   43774:	21000404 	addi	r4,r4,16
   43778:	1d400015 	stw	r21,0(r3)
   4377c:	1dc00115 	stw	r23,4(r3)
   43780:	d9001f15 	stw	r4,124(sp)
   43784:	d8801e15 	stw	r2,120(sp)
   43788:	11400208 	cmpgei	r5,r2,8
   4378c:	283ff426 	beq	r5,zero,43760 <___svfprintf_internal_r+0xb88>
   43790:	d9400417 	ldw	r5,16(sp)
   43794:	d9000517 	ldw	r4,20(sp)
   43798:	d9801d04 	addi	r6,sp,116
   4379c:	004b3cc0 	call	4b3cc <__ssprint_r>
   437a0:	103e081e 	bne	r2,zero,42fc4 <___svfprintf_internal_r+0x3ec>
   437a4:	d9001f17 	ldw	r4,124(sp)
   437a8:	d8801e17 	ldw	r2,120(sp)
   437ac:	8007883a 	mov	r3,r16
   437b0:	003fec06 	br	43764 <___svfprintf_internal_r+0xb8c>
   437b4:	536fc83a 	sub	r23,r10,r13
   437b8:	05fde40e 	bge	zero,r23,42f4c <___svfprintf_internal_r+0x374>
   437bc:	b009883a 	mov	r4,r22
   437c0:	b9400450 	cmplti	r5,r23,17
   437c4:	05800174 	movhi	r22,5
   437c8:	d8801e17 	ldw	r2,120(sp)
   437cc:	b594e004 	addi	r22,r22,21376
   437d0:	28002e1e 	bne	r5,zero,4388c <___svfprintf_internal_r+0xcb4>
   437d4:	d8c01015 	stw	r3,64(sp)
   437d8:	03000404 	movi	r12,16
   437dc:	8807883a 	mov	r3,r17
   437e0:	dac00f15 	stw	r11,60(sp)
   437e4:	b823883a 	mov	r17,r23
   437e8:	da801115 	stw	r10,68(sp)
   437ec:	982f883a 	mov	r23,r19
   437f0:	9027883a 	mov	r19,r18
   437f4:	b025883a 	mov	r18,r22
   437f8:	a02d883a 	mov	r22,r20
   437fc:	6829883a 	mov	r20,r13
   43800:	00000406 	br	43814 <___svfprintf_internal_r+0xc3c>
   43804:	8c7ffc04 	addi	r17,r17,-16
   43808:	89400448 	cmpgei	r5,r17,17
   4380c:	18c00204 	addi	r3,r3,8
   43810:	28001426 	beq	r5,zero,43864 <___svfprintf_internal_r+0xc8c>
   43814:	10800044 	addi	r2,r2,1
   43818:	21000404 	addi	r4,r4,16
   4381c:	1c800015 	stw	r18,0(r3)
   43820:	1b000115 	stw	r12,4(r3)
   43824:	d9001f15 	stw	r4,124(sp)
   43828:	d8801e15 	stw	r2,120(sp)
   4382c:	11400208 	cmpgei	r5,r2,8
   43830:	283ff426 	beq	r5,zero,43804 <___svfprintf_internal_r+0xc2c>
   43834:	d9400417 	ldw	r5,16(sp)
   43838:	d9000517 	ldw	r4,20(sp)
   4383c:	d9801d04 	addi	r6,sp,116
   43840:	004b3cc0 	call	4b3cc <__ssprint_r>
   43844:	103ddf1e 	bne	r2,zero,42fc4 <___svfprintf_internal_r+0x3ec>
   43848:	8c7ffc04 	addi	r17,r17,-16
   4384c:	89400448 	cmpgei	r5,r17,17
   43850:	d9001f17 	ldw	r4,124(sp)
   43854:	d8801e17 	ldw	r2,120(sp)
   43858:	8007883a 	mov	r3,r16
   4385c:	03000404 	movi	r12,16
   43860:	283fec1e 	bne	r5,zero,43814 <___svfprintf_internal_r+0xc3c>
   43864:	a01b883a 	mov	r13,r20
   43868:	dac00f17 	ldw	r11,60(sp)
   4386c:	b029883a 	mov	r20,r22
   43870:	da801117 	ldw	r10,68(sp)
   43874:	902d883a 	mov	r22,r18
   43878:	9825883a 	mov	r18,r19
   4387c:	b827883a 	mov	r19,r23
   43880:	882f883a 	mov	r23,r17
   43884:	1823883a 	mov	r17,r3
   43888:	d8c01017 	ldw	r3,64(sp)
   4388c:	10800044 	addi	r2,r2,1
   43890:	b909883a 	add	r4,r23,r4
   43894:	d8801e15 	stw	r2,120(sp)
   43898:	8d800015 	stw	r22,0(r17)
   4389c:	8dc00115 	stw	r23,4(r17)
   438a0:	d9001f15 	stw	r4,124(sp)
   438a4:	10800208 	cmpgei	r2,r2,8
   438a8:	10037f1e 	bne	r2,zero,446a8 <___svfprintf_internal_r+0x1ad0>
   438ac:	9725c83a 	sub	r18,r18,fp
   438b0:	8c400204 	addi	r17,r17,8
   438b4:	202d883a 	mov	r22,r4
   438b8:	04bda60e 	bge	zero,r18,42f54 <___svfprintf_internal_r+0x37c>
   438bc:	91400450 	cmplti	r5,r18,17
   438c0:	d8801e17 	ldw	r2,120(sp)
   438c4:	b009883a 	mov	r4,r22
   438c8:	2803dc1e 	bne	r5,zero,4483c <___svfprintf_internal_r+0x1c64>
   438cc:	982d883a 	mov	r22,r19
   438d0:	d8c01015 	stw	r3,64(sp)
   438d4:	05c00404 	movi	r23,16
   438d8:	8807883a 	mov	r3,r17
   438dc:	dac00f15 	stw	r11,60(sp)
   438e0:	9023883a 	mov	r17,r18
   438e4:	da801115 	stw	r10,68(sp)
   438e8:	9825883a 	mov	r18,r19
   438ec:	6827883a 	mov	r19,r13
   438f0:	00000406 	br	43904 <___svfprintf_internal_r+0xd2c>
   438f4:	8c7ffc04 	addi	r17,r17,-16
   438f8:	89400448 	cmpgei	r5,r17,17
   438fc:	18c00204 	addi	r3,r3,8
   43900:	28001326 	beq	r5,zero,43950 <___svfprintf_internal_r+0xd78>
   43904:	10800044 	addi	r2,r2,1
   43908:	21000404 	addi	r4,r4,16
   4390c:	1c800015 	stw	r18,0(r3)
   43910:	1dc00115 	stw	r23,4(r3)
   43914:	d9001f15 	stw	r4,124(sp)
   43918:	d8801e15 	stw	r2,120(sp)
   4391c:	11400208 	cmpgei	r5,r2,8
   43920:	283ff426 	beq	r5,zero,438f4 <___svfprintf_internal_r+0xd1c>
   43924:	d9400417 	ldw	r5,16(sp)
   43928:	d9000517 	ldw	r4,20(sp)
   4392c:	d9801d04 	addi	r6,sp,116
   43930:	004b3cc0 	call	4b3cc <__ssprint_r>
   43934:	103da31e 	bne	r2,zero,42fc4 <___svfprintf_internal_r+0x3ec>
   43938:	8c7ffc04 	addi	r17,r17,-16
   4393c:	89400448 	cmpgei	r5,r17,17
   43940:	d9001f17 	ldw	r4,124(sp)
   43944:	d8801e17 	ldw	r2,120(sp)
   43948:	8007883a 	mov	r3,r16
   4394c:	283fed1e 	bne	r5,zero,43904 <___svfprintf_internal_r+0xd2c>
   43950:	981b883a 	mov	r13,r19
   43954:	dac00f17 	ldw	r11,60(sp)
   43958:	9027883a 	mov	r19,r18
   4395c:	da801117 	ldw	r10,68(sp)
   43960:	8825883a 	mov	r18,r17
   43964:	1823883a 	mov	r17,r3
   43968:	d8c01017 	ldw	r3,64(sp)
   4396c:	10800044 	addi	r2,r2,1
   43970:	9109883a 	add	r4,r18,r4
   43974:	d8801e15 	stw	r2,120(sp)
   43978:	8d800015 	stw	r22,0(r17)
   4397c:	8c800115 	stw	r18,4(r17)
   43980:	d9001f15 	stw	r4,124(sp)
   43984:	10800208 	cmpgei	r2,r2,8
   43988:	1001941e 	bne	r2,zero,43fdc <___svfprintf_internal_r+0x1404>
   4398c:	8c400204 	addi	r17,r17,8
   43990:	202d883a 	mov	r22,r4
   43994:	003d6f06 	br	42f54 <___svfprintf_internal_r+0x37c>
   43998:	11000060 	cmpeqi	r4,r2,1
   4399c:	1819883a 	mov	r12,r3
   439a0:	002d883a 	mov	r22,zero
   439a4:	203dad1e 	bne	r4,zero,4305c <___svfprintf_internal_r+0x484>
   439a8:	108000a0 	cmpeqi	r2,r2,2
   439ac:	0039883a 	mov	fp,zero
   439b0:	103dc626 	beq	r2,zero,430cc <___svfprintf_internal_r+0x4f4>
   439b4:	d9000e17 	ldw	r4,56(sp)
   439b8:	802b883a 	mov	r21,r16
   439bc:	b08003cc 	andi	r2,r22,15
   439c0:	e006973a 	slli	r3,fp,28
   439c4:	b02cd13a 	srli	r22,r22,4
   439c8:	2085883a 	add	r2,r4,r2
   439cc:	10800003 	ldbu	r2,0(r2)
   439d0:	e038d13a 	srli	fp,fp,4
   439d4:	1dacb03a 	or	r22,r3,r22
   439d8:	a8bfffc5 	stb	r2,-1(r21)
   439dc:	b704b03a 	or	r2,r22,fp
   439e0:	ad7fffc4 	addi	r21,r21,-1
   439e4:	103ff51e 	bne	r2,zero,439bc <___svfprintf_internal_r+0xde4>
   439e8:	8579c83a 	sub	fp,r16,r21
   439ec:	6007883a 	mov	r3,r12
   439f0:	003dcc06 	br	43124 <___svfprintf_internal_r+0x54c>
   439f4:	d9400417 	ldw	r5,16(sp)
   439f8:	d9000517 	ldw	r4,20(sp)
   439fc:	d9801d04 	addi	r6,sp,116
   43a00:	004b3cc0 	call	4b3cc <__ssprint_r>
   43a04:	103d6926 	beq	r2,zero,42fac <___svfprintf_internal_r+0x3d4>
   43a08:	003d6e06 	br	42fc4 <___svfprintf_internal_r+0x3ec>
   43a0c:	d8800917 	ldw	r2,36(sp)
   43a10:	8c800204 	addi	r18,r17,8
   43a14:	10800088 	cmpgei	r2,r2,2
   43a18:	10012d26 	beq	r2,zero,43ed0 <___svfprintf_internal_r+0x12f8>
   43a1c:	df001e17 	ldw	fp,120(sp)
   43a20:	00800044 	movi	r2,1
   43a24:	b5800044 	addi	r22,r22,1
   43a28:	e7000044 	addi	fp,fp,1
   43a2c:	88800115 	stw	r2,4(r17)
   43a30:	8d400015 	stw	r21,0(r17)
   43a34:	dd801f15 	stw	r22,124(sp)
   43a38:	df001e15 	stw	fp,120(sp)
   43a3c:	e0800210 	cmplti	r2,fp,8
   43a40:	10018426 	beq	r2,zero,44054 <___svfprintf_internal_r+0x147c>
   43a44:	d8800c17 	ldw	r2,48(sp)
   43a48:	d9000d17 	ldw	r4,52(sp)
   43a4c:	e7000044 	addi	fp,fp,1
   43a50:	15af883a 	add	r23,r2,r22
   43a54:	90800115 	stw	r2,4(r18)
   43a58:	91000015 	stw	r4,0(r18)
   43a5c:	ddc01f15 	stw	r23,124(sp)
   43a60:	df001e15 	stw	fp,120(sp)
   43a64:	e0800208 	cmpgei	r2,fp,8
   43a68:	1001891e 	bne	r2,zero,44090 <___svfprintf_internal_r+0x14b8>
   43a6c:	94800204 	addi	r18,r18,8
   43a70:	d9000a17 	ldw	r4,40(sp)
   43a74:	d9400b17 	ldw	r5,44(sp)
   43a78:	000d883a 	mov	r6,zero
   43a7c:	000f883a 	mov	r7,zero
   43a80:	db401015 	stw	r13,64(sp)
   43a84:	da800f15 	stw	r10,60(sp)
   43a88:	d8c00815 	stw	r3,32(sp)
   43a8c:	0050b3c0 	call	50b3c <__eqdf2>
   43a90:	d8c00917 	ldw	r3,36(sp)
   43a94:	da800f17 	ldw	r10,60(sp)
   43a98:	db401017 	ldw	r13,64(sp)
   43a9c:	1c7fffc4 	addi	r17,r3,-1
   43aa0:	d8c00817 	ldw	r3,32(sp)
   43aa4:	10012526 	beq	r2,zero,43f3c <___svfprintf_internal_r+0x1364>
   43aa8:	aa000044 	addi	r8,r21,1
   43aac:	e7000044 	addi	fp,fp,1
   43ab0:	bc6f883a 	add	r23,r23,r17
   43ab4:	92000015 	stw	r8,0(r18)
   43ab8:	94400115 	stw	r17,4(r18)
   43abc:	ddc01f15 	stw	r23,124(sp)
   43ac0:	df001e15 	stw	fp,120(sp)
   43ac4:	e0800208 	cmpgei	r2,fp,8
   43ac8:	1002e81e 	bne	r2,zero,4466c <___svfprintf_internal_r+0x1a94>
   43acc:	94800204 	addi	r18,r18,8
   43ad0:	d9401217 	ldw	r5,72(sp)
   43ad4:	e7000044 	addi	fp,fp,1
   43ad8:	d8801904 	addi	r2,sp,100
   43adc:	2dc9883a 	add	r4,r5,r23
   43ae0:	df001e15 	stw	fp,120(sp)
   43ae4:	90800015 	stw	r2,0(r18)
   43ae8:	91400115 	stw	r5,4(r18)
   43aec:	d9001f15 	stw	r4,124(sp)
   43af0:	e7000208 	cmpgei	fp,fp,8
   43af4:	e001491e 	bne	fp,zero,4401c <___svfprintf_internal_r+0x1444>
   43af8:	94400204 	addi	r17,r18,8
   43afc:	003d2106 	br	42f84 <___svfprintf_internal_r+0x3ac>
   43b00:	00800044 	movi	r2,1
   43b04:	903fa41e 	bne	r18,zero,43998 <___svfprintf_internal_r+0xdc0>
   43b08:	1000ee1e 	bne	r2,zero,43ec4 <___svfprintf_internal_r+0x12ec>
   43b0c:	6700004c 	andi	fp,r12,1
   43b10:	e0017326 	beq	fp,zero,440e0 <___svfprintf_internal_r+0x1508>
   43b14:	00800c04 	movi	r2,48
   43b18:	d88029c5 	stb	r2,167(sp)
   43b1c:	dd4029c4 	addi	r21,sp,167
   43b20:	003d8006 	br	43124 <___svfprintf_internal_r+0x54c>
   43b24:	05c00174 	movhi	r23,5
   43b28:	b1400450 	cmplti	r5,r22,17
   43b2c:	d9001f17 	ldw	r4,124(sp)
   43b30:	d8801e17 	ldw	r2,120(sp)
   43b34:	bdd4e404 	addi	r23,r23,21392
   43b38:	2800341e 	bne	r5,zero,43c0c <___svfprintf_internal_r+0x1034>
   43b3c:	980b883a 	mov	r5,r19
   43b40:	d8c01315 	stw	r3,76(sp)
   43b44:	9027883a 	mov	r19,r18
   43b48:	8807883a 	mov	r3,r17
   43b4c:	b825883a 	mov	r18,r23
   43b50:	b023883a 	mov	r17,r22
   43b54:	03c00404 	movi	r15,16
   43b58:	a02d883a 	mov	r22,r20
   43b5c:	db800f15 	stw	r14,60(sp)
   43b60:	db001015 	stw	r12,64(sp)
   43b64:	dac01115 	stw	r11,68(sp)
   43b68:	da801415 	stw	r10,80(sp)
   43b6c:	6829883a 	mov	r20,r13
   43b70:	282f883a 	mov	r23,r5
   43b74:	00000406 	br	43b88 <___svfprintf_internal_r+0xfb0>
   43b78:	8c7ffc04 	addi	r17,r17,-16
   43b7c:	89400448 	cmpgei	r5,r17,17
   43b80:	18c00204 	addi	r3,r3,8
   43b84:	28001426 	beq	r5,zero,43bd8 <___svfprintf_internal_r+0x1000>
   43b88:	10800044 	addi	r2,r2,1
   43b8c:	21000404 	addi	r4,r4,16
   43b90:	1c800015 	stw	r18,0(r3)
   43b94:	1bc00115 	stw	r15,4(r3)
   43b98:	d9001f15 	stw	r4,124(sp)
   43b9c:	d8801e15 	stw	r2,120(sp)
   43ba0:	11400208 	cmpgei	r5,r2,8
   43ba4:	283ff426 	beq	r5,zero,43b78 <___svfprintf_internal_r+0xfa0>
   43ba8:	d9400417 	ldw	r5,16(sp)
   43bac:	d9000517 	ldw	r4,20(sp)
   43bb0:	d9801d04 	addi	r6,sp,116
   43bb4:	004b3cc0 	call	4b3cc <__ssprint_r>
   43bb8:	103d021e 	bne	r2,zero,42fc4 <___svfprintf_internal_r+0x3ec>
   43bbc:	8c7ffc04 	addi	r17,r17,-16
   43bc0:	89400448 	cmpgei	r5,r17,17
   43bc4:	d9001f17 	ldw	r4,124(sp)
   43bc8:	d8801e17 	ldw	r2,120(sp)
   43bcc:	8007883a 	mov	r3,r16
   43bd0:	03c00404 	movi	r15,16
   43bd4:	283fec1e 	bne	r5,zero,43b88 <___svfprintf_internal_r+0xfb0>
   43bd8:	a01b883a 	mov	r13,r20
   43bdc:	db800f17 	ldw	r14,60(sp)
   43be0:	b029883a 	mov	r20,r22
   43be4:	db001017 	ldw	r12,64(sp)
   43be8:	882d883a 	mov	r22,r17
   43bec:	dac01117 	ldw	r11,68(sp)
   43bf0:	1823883a 	mov	r17,r3
   43bf4:	da801417 	ldw	r10,80(sp)
   43bf8:	d8c01317 	ldw	r3,76(sp)
   43bfc:	b80b883a 	mov	r5,r23
   43c00:	902f883a 	mov	r23,r18
   43c04:	9825883a 	mov	r18,r19
   43c08:	2827883a 	mov	r19,r5
   43c0c:	10800044 	addi	r2,r2,1
   43c10:	b109883a 	add	r4,r22,r4
   43c14:	d8801e15 	stw	r2,120(sp)
   43c18:	8dc00015 	stw	r23,0(r17)
   43c1c:	8d800115 	stw	r22,4(r17)
   43c20:	d9001f15 	stw	r4,124(sp)
   43c24:	10800208 	cmpgei	r2,r2,8
   43c28:	1001e21e 	bne	r2,zero,443b4 <___svfprintf_internal_r+0x17dc>
   43c2c:	8c400204 	addi	r17,r17,8
   43c30:	003ca806 	br	42ed4 <___svfprintf_internal_r+0x2fc>
   43c34:	180b883a 	mov	r5,r3
   43c38:	9015883a 	mov	r10,r18
   43c3c:	8807883a 	mov	r3,r17
   43c40:	981b883a 	mov	r13,r19
   43c44:	e025883a 	mov	r18,fp
   43c48:	b027883a 	mov	r19,r22
   43c4c:	2823883a 	mov	r17,r5
   43c50:	a82d883a 	mov	r22,r21
   43c54:	10800044 	addi	r2,r2,1
   43c58:	8d800015 	stw	r22,0(r17)
   43c5c:	8c800115 	stw	r18,4(r17)
   43c60:	2489883a 	add	r4,r4,r18
   43c64:	d8801e15 	stw	r2,120(sp)
   43c68:	d9001f15 	stw	r4,124(sp)
   43c6c:	10800208 	cmpgei	r2,r2,8
   43c70:	103cc326 	beq	r2,zero,42f80 <___svfprintf_internal_r+0x3a8>
   43c74:	d9400417 	ldw	r5,16(sp)
   43c78:	d9000517 	ldw	r4,20(sp)
   43c7c:	d9801d04 	addi	r6,sp,116
   43c80:	db401015 	stw	r13,64(sp)
   43c84:	da800f15 	stw	r10,60(sp)
   43c88:	d8c00815 	stw	r3,32(sp)
   43c8c:	004b3cc0 	call	4b3cc <__ssprint_r>
   43c90:	103ccc1e 	bne	r2,zero,42fc4 <___svfprintf_internal_r+0x3ec>
   43c94:	d9001f17 	ldw	r4,124(sp)
   43c98:	d8c00817 	ldw	r3,32(sp)
   43c9c:	da800f17 	ldw	r10,60(sp)
   43ca0:	db401017 	ldw	r13,64(sp)
   43ca4:	8023883a 	mov	r17,r16
   43ca8:	003cb606 	br	42f84 <___svfprintf_internal_r+0x3ac>
   43cac:	d9400417 	ldw	r5,16(sp)
   43cb0:	d9000517 	ldw	r4,20(sp)
   43cb4:	d9801d04 	addi	r6,sp,116
   43cb8:	db401515 	stw	r13,84(sp)
   43cbc:	da801415 	stw	r10,80(sp)
   43cc0:	d8c01315 	stw	r3,76(sp)
   43cc4:	dac01115 	stw	r11,68(sp)
   43cc8:	db001015 	stw	r12,64(sp)
   43ccc:	db800f15 	stw	r14,60(sp)
   43cd0:	004b3cc0 	call	4b3cc <__ssprint_r>
   43cd4:	103cbb1e 	bne	r2,zero,42fc4 <___svfprintf_internal_r+0x3ec>
   43cd8:	dd801f17 	ldw	r22,124(sp)
   43cdc:	db401517 	ldw	r13,84(sp)
   43ce0:	da801417 	ldw	r10,80(sp)
   43ce4:	d8c01317 	ldw	r3,76(sp)
   43ce8:	dac01117 	ldw	r11,68(sp)
   43cec:	db001017 	ldw	r12,64(sp)
   43cf0:	db800f17 	ldw	r14,60(sp)
   43cf4:	8023883a 	mov	r17,r16
   43cf8:	003c8506 	br	42f10 <___svfprintf_internal_r+0x338>
   43cfc:	d9400417 	ldw	r5,16(sp)
   43d00:	d9000517 	ldw	r4,20(sp)
   43d04:	d9801d04 	addi	r6,sp,116
   43d08:	db401415 	stw	r13,80(sp)
   43d0c:	da801315 	stw	r10,76(sp)
   43d10:	d8c01115 	stw	r3,68(sp)
   43d14:	dac01015 	stw	r11,64(sp)
   43d18:	db000f15 	stw	r12,60(sp)
   43d1c:	004b3cc0 	call	4b3cc <__ssprint_r>
   43d20:	103ca81e 	bne	r2,zero,42fc4 <___svfprintf_internal_r+0x3ec>
   43d24:	dd801f17 	ldw	r22,124(sp)
   43d28:	db401417 	ldw	r13,80(sp)
   43d2c:	da801317 	ldw	r10,76(sp)
   43d30:	d8c01117 	ldw	r3,68(sp)
   43d34:	dac01017 	ldw	r11,64(sp)
   43d38:	db000f17 	ldw	r12,60(sp)
   43d3c:	8023883a 	mov	r17,r16
   43d40:	003c8006 	br	42f44 <___svfprintf_internal_r+0x36c>
   43d44:	dc801717 	ldw	r18,92(sp)
   43d48:	0481ad0e 	bge	zero,r18,44400 <___svfprintf_internal_r+0x1828>
   43d4c:	d8800917 	ldw	r2,36(sp)
   43d50:	d9000817 	ldw	r4,32(sp)
   43d54:	1025883a 	mov	r18,r2
   43d58:	2080f116 	blt	r4,r2,44120 <___svfprintf_internal_r+0x1548>
   43d5c:	04800a0e 	bge	zero,r18,43d88 <___svfprintf_internal_r+0x11b0>
   43d60:	d8801e17 	ldw	r2,120(sp)
   43d64:	b4ad883a 	add	r22,r22,r18
   43d68:	8d400015 	stw	r21,0(r17)
   43d6c:	10800044 	addi	r2,r2,1
   43d70:	d8801e15 	stw	r2,120(sp)
   43d74:	8c800115 	stw	r18,4(r17)
   43d78:	dd801f15 	stw	r22,124(sp)
   43d7c:	10800208 	cmpgei	r2,r2,8
   43d80:	1003d61e 	bne	r2,zero,44cdc <___svfprintf_internal_r+0x2104>
   43d84:	8c400204 	addi	r17,r17,8
   43d88:	9000f316 	blt	r18,zero,44158 <___svfprintf_internal_r+0x1580>
   43d8c:	d8800817 	ldw	r2,32(sp)
   43d90:	14a5c83a 	sub	r18,r2,r18
   43d94:	04811516 	blt	zero,r18,441ec <___svfprintf_internal_r+0x1614>
   43d98:	dc801717 	ldw	r18,92(sp)
   43d9c:	d9000917 	ldw	r4,36(sp)
   43da0:	9100e20e 	bge	r18,r4,4412c <___svfprintf_internal_r+0x1554>
   43da4:	d8800d17 	ldw	r2,52(sp)
   43da8:	d9400c17 	ldw	r5,48(sp)
   43dac:	88800015 	stw	r2,0(r17)
   43db0:	d8801e17 	ldw	r2,120(sp)
   43db4:	2d89883a 	add	r4,r5,r22
   43db8:	89400115 	stw	r5,4(r17)
   43dbc:	10800044 	addi	r2,r2,1
   43dc0:	d8801e15 	stw	r2,120(sp)
   43dc4:	d9001f15 	stw	r4,124(sp)
   43dc8:	10800208 	cmpgei	r2,r2,8
   43dcc:	1002f11e 	bne	r2,zero,44994 <___svfprintf_internal_r+0x1dbc>
   43dd0:	8c400204 	addi	r17,r17,8
   43dd4:	d8800917 	ldw	r2,36(sp)
   43dd8:	d9400817 	ldw	r5,32(sp)
   43ddc:	14a5c83a 	sub	r18,r2,r18
   43de0:	116fc83a 	sub	r23,r2,r5
   43de4:	95c0010e 	bge	r18,r23,43dec <___svfprintf_internal_r+0x1214>
   43de8:	902f883a 	mov	r23,r18
   43dec:	05c00c0e 	bge	zero,r23,43e20 <___svfprintf_internal_r+0x1248>
   43df0:	d8800817 	ldw	r2,32(sp)
   43df4:	25c9883a 	add	r4,r4,r23
   43df8:	8dc00115 	stw	r23,4(r17)
   43dfc:	a891883a 	add	r8,r21,r2
   43e00:	d8801e17 	ldw	r2,120(sp)
   43e04:	8a000015 	stw	r8,0(r17)
   43e08:	d9001f15 	stw	r4,124(sp)
   43e0c:	10800044 	addi	r2,r2,1
   43e10:	d8801e15 	stw	r2,120(sp)
   43e14:	10800208 	cmpgei	r2,r2,8
   43e18:	1003c11e 	bne	r2,zero,44d20 <___svfprintf_internal_r+0x2148>
   43e1c:	8c400204 	addi	r17,r17,8
   43e20:	b800010e 	bge	r23,zero,43e28 <___svfprintf_internal_r+0x1250>
   43e24:	002f883a 	mov	r23,zero
   43e28:	95e5c83a 	sub	r18,r18,r23
   43e2c:	04bc550e 	bge	zero,r18,42f84 <___svfprintf_internal_r+0x3ac>
   43e30:	05800174 	movhi	r22,5
   43e34:	91400450 	cmplti	r5,r18,17
   43e38:	d8801e17 	ldw	r2,120(sp)
   43e3c:	b594e004 	addi	r22,r22,21376
   43e40:	283f841e 	bne	r5,zero,43c54 <___svfprintf_internal_r+0x107c>
   43e44:	d8c00815 	stw	r3,32(sp)
   43e48:	dd400517 	ldw	r21,20(sp)
   43e4c:	8807883a 	mov	r3,r17
   43e50:	df000417 	ldw	fp,16(sp)
   43e54:	9023883a 	mov	r17,r18
   43e58:	05c00404 	movi	r23,16
   43e5c:	b025883a 	mov	r18,r22
   43e60:	da800f15 	stw	r10,60(sp)
   43e64:	982d883a 	mov	r22,r19
   43e68:	6827883a 	mov	r19,r13
   43e6c:	00000406 	br	43e80 <___svfprintf_internal_r+0x12a8>
   43e70:	18c00204 	addi	r3,r3,8
   43e74:	8c7ffc04 	addi	r17,r17,-16
   43e78:	89400448 	cmpgei	r5,r17,17
   43e7c:	2802db26 	beq	r5,zero,449ec <___svfprintf_internal_r+0x1e14>
   43e80:	10800044 	addi	r2,r2,1
   43e84:	21000404 	addi	r4,r4,16
   43e88:	1c800015 	stw	r18,0(r3)
   43e8c:	1dc00115 	stw	r23,4(r3)
   43e90:	d9001f15 	stw	r4,124(sp)
   43e94:	d8801e15 	stw	r2,120(sp)
   43e98:	11400208 	cmpgei	r5,r2,8
   43e9c:	283ff426 	beq	r5,zero,43e70 <___svfprintf_internal_r+0x1298>
   43ea0:	d9801d04 	addi	r6,sp,116
   43ea4:	e00b883a 	mov	r5,fp
   43ea8:	a809883a 	mov	r4,r21
   43eac:	004b3cc0 	call	4b3cc <__ssprint_r>
   43eb0:	103c441e 	bne	r2,zero,42fc4 <___svfprintf_internal_r+0x3ec>
   43eb4:	d9001f17 	ldw	r4,124(sp)
   43eb8:	d8801e17 	ldw	r2,120(sp)
   43ebc:	8007883a 	mov	r3,r16
   43ec0:	003fec06 	br	43e74 <___svfprintf_internal_r+0x129c>
   43ec4:	0039883a 	mov	fp,zero
   43ec8:	802b883a 	mov	r21,r16
   43ecc:	003c9506 	br	43124 <___svfprintf_internal_r+0x54c>
   43ed0:	1880004c 	andi	r2,r3,1
   43ed4:	103ed11e 	bne	r2,zero,43a1c <___svfprintf_internal_r+0xe44>
   43ed8:	df001e17 	ldw	fp,120(sp)
   43edc:	00800044 	movi	r2,1
   43ee0:	b5c00044 	addi	r23,r22,1
   43ee4:	e7000044 	addi	fp,fp,1
   43ee8:	88800115 	stw	r2,4(r17)
   43eec:	8d400015 	stw	r21,0(r17)
   43ef0:	ddc01f15 	stw	r23,124(sp)
   43ef4:	df001e15 	stw	fp,120(sp)
   43ef8:	e0800210 	cmplti	r2,fp,8
   43efc:	103ef41e 	bne	r2,zero,43ad0 <___svfprintf_internal_r+0xef8>
   43f00:	d9400417 	ldw	r5,16(sp)
   43f04:	d9000517 	ldw	r4,20(sp)
   43f08:	d9801d04 	addi	r6,sp,116
   43f0c:	db401015 	stw	r13,64(sp)
   43f10:	da800f15 	stw	r10,60(sp)
   43f14:	d8c00815 	stw	r3,32(sp)
   43f18:	004b3cc0 	call	4b3cc <__ssprint_r>
   43f1c:	103c291e 	bne	r2,zero,42fc4 <___svfprintf_internal_r+0x3ec>
   43f20:	ddc01f17 	ldw	r23,124(sp)
   43f24:	df001e17 	ldw	fp,120(sp)
   43f28:	db401017 	ldw	r13,64(sp)
   43f2c:	da800f17 	ldw	r10,60(sp)
   43f30:	d8c00817 	ldw	r3,32(sp)
   43f34:	8025883a 	mov	r18,r16
   43f38:	003ee506 	br	43ad0 <___svfprintf_internal_r+0xef8>
   43f3c:	d8800917 	ldw	r2,36(sp)
   43f40:	10800090 	cmplti	r2,r2,2
   43f44:	103ee21e 	bne	r2,zero,43ad0 <___svfprintf_internal_r+0xef8>
   43f48:	d8800917 	ldw	r2,36(sp)
   43f4c:	05800174 	movhi	r22,5
   43f50:	b594e004 	addi	r22,r22,21376
   43f54:	10800490 	cmplti	r2,r2,18
   43f58:	1002311e 	bne	r2,zero,44820 <___svfprintf_internal_r+0x1c48>
   43f5c:	b809883a 	mov	r4,r23
   43f60:	e005883a 	mov	r2,fp
   43f64:	a02f883a 	mov	r23,r20
   43f68:	9839883a 	mov	fp,r19
   43f6c:	05400404 	movi	r21,16
   43f70:	1827883a 	mov	r19,r3
   43f74:	5029883a 	mov	r20,r10
   43f78:	9007883a 	mov	r3,r18
   43f7c:	b025883a 	mov	r18,r22
   43f80:	682d883a 	mov	r22,r13
   43f84:	00000406 	br	43f98 <___svfprintf_internal_r+0x13c0>
   43f88:	18c00204 	addi	r3,r3,8
   43f8c:	8c7ffc04 	addi	r17,r17,-16
   43f90:	89400448 	cmpgei	r5,r17,17
   43f94:	28021926 	beq	r5,zero,447fc <___svfprintf_internal_r+0x1c24>
   43f98:	10800044 	addi	r2,r2,1
   43f9c:	21000404 	addi	r4,r4,16
   43fa0:	1c800015 	stw	r18,0(r3)
   43fa4:	1d400115 	stw	r21,4(r3)
   43fa8:	d9001f15 	stw	r4,124(sp)
   43fac:	d8801e15 	stw	r2,120(sp)
   43fb0:	11400208 	cmpgei	r5,r2,8
   43fb4:	283ff426 	beq	r5,zero,43f88 <___svfprintf_internal_r+0x13b0>
   43fb8:	d9400417 	ldw	r5,16(sp)
   43fbc:	d9000517 	ldw	r4,20(sp)
   43fc0:	d9801d04 	addi	r6,sp,116
   43fc4:	004b3cc0 	call	4b3cc <__ssprint_r>
   43fc8:	103bfe1e 	bne	r2,zero,42fc4 <___svfprintf_internal_r+0x3ec>
   43fcc:	d9001f17 	ldw	r4,124(sp)
   43fd0:	d8801e17 	ldw	r2,120(sp)
   43fd4:	8007883a 	mov	r3,r16
   43fd8:	003fec06 	br	43f8c <___svfprintf_internal_r+0x13b4>
   43fdc:	d9400417 	ldw	r5,16(sp)
   43fe0:	d9000517 	ldw	r4,20(sp)
   43fe4:	d9801d04 	addi	r6,sp,116
   43fe8:	db401315 	stw	r13,76(sp)
   43fec:	da801115 	stw	r10,68(sp)
   43ff0:	d8c01015 	stw	r3,64(sp)
   43ff4:	dac00f15 	stw	r11,60(sp)
   43ff8:	004b3cc0 	call	4b3cc <__ssprint_r>
   43ffc:	103bf11e 	bne	r2,zero,42fc4 <___svfprintf_internal_r+0x3ec>
   44000:	dd801f17 	ldw	r22,124(sp)
   44004:	db401317 	ldw	r13,76(sp)
   44008:	da801117 	ldw	r10,68(sp)
   4400c:	d8c01017 	ldw	r3,64(sp)
   44010:	dac00f17 	ldw	r11,60(sp)
   44014:	8023883a 	mov	r17,r16
   44018:	003bce06 	br	42f54 <___svfprintf_internal_r+0x37c>
   4401c:	d9400417 	ldw	r5,16(sp)
   44020:	d9000517 	ldw	r4,20(sp)
   44024:	d9801d04 	addi	r6,sp,116
   44028:	db401015 	stw	r13,64(sp)
   4402c:	da800f15 	stw	r10,60(sp)
   44030:	d8c00815 	stw	r3,32(sp)
   44034:	004b3cc0 	call	4b3cc <__ssprint_r>
   44038:	103be21e 	bne	r2,zero,42fc4 <___svfprintf_internal_r+0x3ec>
   4403c:	d9001f17 	ldw	r4,124(sp)
   44040:	db401017 	ldw	r13,64(sp)
   44044:	da800f17 	ldw	r10,60(sp)
   44048:	d8c00817 	ldw	r3,32(sp)
   4404c:	8023883a 	mov	r17,r16
   44050:	003bcc06 	br	42f84 <___svfprintf_internal_r+0x3ac>
   44054:	d9400417 	ldw	r5,16(sp)
   44058:	d9000517 	ldw	r4,20(sp)
   4405c:	d9801d04 	addi	r6,sp,116
   44060:	db401015 	stw	r13,64(sp)
   44064:	da800f15 	stw	r10,60(sp)
   44068:	d8c00815 	stw	r3,32(sp)
   4406c:	004b3cc0 	call	4b3cc <__ssprint_r>
   44070:	103bd41e 	bne	r2,zero,42fc4 <___svfprintf_internal_r+0x3ec>
   44074:	dd801f17 	ldw	r22,124(sp)
   44078:	df001e17 	ldw	fp,120(sp)
   4407c:	db401017 	ldw	r13,64(sp)
   44080:	da800f17 	ldw	r10,60(sp)
   44084:	d8c00817 	ldw	r3,32(sp)
   44088:	8025883a 	mov	r18,r16
   4408c:	003e6d06 	br	43a44 <___svfprintf_internal_r+0xe6c>
   44090:	d9400417 	ldw	r5,16(sp)
   44094:	d9000517 	ldw	r4,20(sp)
   44098:	d9801d04 	addi	r6,sp,116
   4409c:	db401015 	stw	r13,64(sp)
   440a0:	da800f15 	stw	r10,60(sp)
   440a4:	d8c00815 	stw	r3,32(sp)
   440a8:	004b3cc0 	call	4b3cc <__ssprint_r>
   440ac:	103bc51e 	bne	r2,zero,42fc4 <___svfprintf_internal_r+0x3ec>
   440b0:	ddc01f17 	ldw	r23,124(sp)
   440b4:	df001e17 	ldw	fp,120(sp)
   440b8:	db401017 	ldw	r13,64(sp)
   440bc:	da800f17 	ldw	r10,60(sp)
   440c0:	d8c00817 	ldw	r3,32(sp)
   440c4:	8025883a 	mov	r18,r16
   440c8:	003e6906 	br	43a70 <___svfprintf_internal_r+0xe98>
   440cc:	63000414 	ori	r12,r12,16
   440d0:	003b0006 	br	42cd4 <___svfprintf_internal_r+0xfc>
   440d4:	a2c00007 	ldb	r11,0(r20)
   440d8:	d8800715 	stw	r2,28(sp)
   440dc:	003afd06 	br	42cd4 <___svfprintf_internal_r+0xfc>
   440e0:	802b883a 	mov	r21,r16
   440e4:	003c0f06 	br	43124 <___svfprintf_internal_r+0x54c>
   440e8:	6080040c 	andi	r2,r12,16
   440ec:	10009c1e 	bne	r2,zero,44360 <___svfprintf_internal_r+0x1788>
   440f0:	6300100c 	andi	r12,r12,64
   440f4:	60009a26 	beq	r12,zero,44360 <___svfprintf_internal_r+0x1788>
   440f8:	d8800717 	ldw	r2,28(sp)
   440fc:	d8c00617 	ldw	r3,24(sp)
   44100:	10800017 	ldw	r2,0(r2)
   44104:	10c0000d 	sth	r3,0(r2)
   44108:	003d4606 	br	43624 <___svfprintf_internal_r+0xa4c>
   4410c:	18800017 	ldw	r2,0(r3)
   44110:	d8800a15 	stw	r2,40(sp)
   44114:	18800117 	ldw	r2,4(r3)
   44118:	d8800b15 	stw	r2,44(sp)
   4411c:	003c7306 	br	432ec <___svfprintf_internal_r+0x714>
   44120:	2025883a 	mov	r18,r4
   44124:	04bf0e16 	blt	zero,r18,43d60 <___svfprintf_internal_r+0x1188>
   44128:	003f1706 	br	43d88 <___svfprintf_internal_r+0x11b0>
   4412c:	1880004c 	andi	r2,r3,1
   44130:	103f1c1e 	bne	r2,zero,43da4 <___svfprintf_internal_r+0x11cc>
   44134:	d8800817 	ldw	r2,32(sp)
   44138:	24a5c83a 	sub	r18,r4,r18
   4413c:	20afc83a 	sub	r23,r4,r2
   44140:	b009883a 	mov	r4,r22
   44144:	95ff360e 	bge	r18,r23,43e20 <___svfprintf_internal_r+0x1248>
   44148:	902f883a 	mov	r23,r18
   4414c:	003f3406 	br	43e20 <___svfprintf_internal_r+0x1248>
   44150:	b009883a 	mov	r4,r22
   44154:	003b8b06 	br	42f84 <___svfprintf_internal_r+0x3ac>
   44158:	0025883a 	mov	r18,zero
   4415c:	003f0b06 	br	43d8c <___svfprintf_internal_r+0x11b4>
   44160:	00800174 	movhi	r2,5
   44164:	1094d304 	addi	r2,r2,21324
   44168:	d8800e15 	stw	r2,56(sp)
   4416c:	6080080c 	andi	r2,r12,32
   44170:	10008226 	beq	r2,zero,4437c <___svfprintf_internal_r+0x17a4>
   44174:	d8800717 	ldw	r2,28(sp)
   44178:	15800017 	ldw	r22,0(r2)
   4417c:	17000117 	ldw	fp,4(r2)
   44180:	10800204 	addi	r2,r2,8
   44184:	d8800715 	stw	r2,28(sp)
   44188:	6080004c 	andi	r2,r12,1
   4418c:	10007926 	beq	r2,zero,44374 <___svfprintf_internal_r+0x179c>
   44190:	b704b03a 	or	r2,r22,fp
   44194:	10007726 	beq	r2,zero,44374 <___svfprintf_internal_r+0x179c>
   44198:	00800c04 	movi	r2,48
   4419c:	d8801685 	stb	r2,90(sp)
   441a0:	dac016c5 	stb	r11,91(sp)
   441a4:	63000094 	ori	r12,r12,2
   441a8:	00800084 	movi	r2,2
   441ac:	003bba06 	br	43098 <___svfprintf_internal_r+0x4c0>
   441b0:	00800174 	movhi	r2,5
   441b4:	1094d804 	addi	r2,r2,21344
   441b8:	d8800e15 	stw	r2,56(sp)
   441bc:	003feb06 	br	4416c <___svfprintf_internal_r+0x1594>
   441c0:	d9000517 	ldw	r4,20(sp)
   441c4:	01401004 	movi	r5,64
   441c8:	00421240 	call	42124 <_malloc_r>
   441cc:	d8c00417 	ldw	r3,16(sp)
   441d0:	18800015 	stw	r2,0(r3)
   441d4:	18800415 	stw	r2,16(r3)
   441d8:	10033026 	beq	r2,zero,44e9c <___svfprintf_internal_r+0x22c4>
   441dc:	d8c00417 	ldw	r3,16(sp)
   441e0:	00801004 	movi	r2,64
   441e4:	18800515 	stw	r2,20(r3)
   441e8:	003a9606 	br	42c44 <___svfprintf_internal_r+0x6c>
   441ec:	b009883a 	mov	r4,r22
   441f0:	91400450 	cmplti	r5,r18,17
   441f4:	05800174 	movhi	r22,5
   441f8:	d8801e17 	ldw	r2,120(sp)
   441fc:	b594e004 	addi	r22,r22,21376
   44200:	2801981e 	bne	r5,zero,44864 <___svfprintf_internal_r+0x1c8c>
   44204:	9039883a 	mov	fp,r18
   44208:	d8c00f15 	stw	r3,60(sp)
   4420c:	05c00404 	movi	r23,16
   44210:	8807883a 	mov	r3,r17
   44214:	5025883a 	mov	r18,r10
   44218:	b023883a 	mov	r17,r22
   4421c:	982d883a 	mov	r22,r19
   44220:	6827883a 	mov	r19,r13
   44224:	00000406 	br	44238 <___svfprintf_internal_r+0x1660>
   44228:	18c00204 	addi	r3,r3,8
   4422c:	e73ffc04 	addi	fp,fp,-16
   44230:	e1400448 	cmpgei	r5,fp,17
   44234:	28018426 	beq	r5,zero,44848 <___svfprintf_internal_r+0x1c70>
   44238:	10800044 	addi	r2,r2,1
   4423c:	21000404 	addi	r4,r4,16
   44240:	1c400015 	stw	r17,0(r3)
   44244:	1dc00115 	stw	r23,4(r3)
   44248:	d9001f15 	stw	r4,124(sp)
   4424c:	d8801e15 	stw	r2,120(sp)
   44250:	11400208 	cmpgei	r5,r2,8
   44254:	283ff426 	beq	r5,zero,44228 <___svfprintf_internal_r+0x1650>
   44258:	d9400417 	ldw	r5,16(sp)
   4425c:	d9000517 	ldw	r4,20(sp)
   44260:	d9801d04 	addi	r6,sp,116
   44264:	004b3cc0 	call	4b3cc <__ssprint_r>
   44268:	103b561e 	bne	r2,zero,42fc4 <___svfprintf_internal_r+0x3ec>
   4426c:	d9001f17 	ldw	r4,124(sp)
   44270:	d8801e17 	ldw	r2,120(sp)
   44274:	8007883a 	mov	r3,r16
   44278:	003fec06 	br	4422c <___svfprintf_internal_r+0x1654>
   4427c:	a809883a 	mov	r4,r21
   44280:	da801015 	stw	r10,64(sp)
   44284:	db000f15 	stw	r12,60(sp)
   44288:	dac00815 	stw	r11,32(sp)
   4428c:	004b3340 	call	4b334 <strlen>
   44290:	dac00817 	ldw	r11,32(sp)
   44294:	db000f17 	ldw	r12,60(sp)
   44298:	da801017 	ldw	r10,64(sp)
   4429c:	1039883a 	mov	fp,r2
   442a0:	101b883a 	mov	r13,r2
   442a4:	dd800715 	stw	r22,28(sp)
   442a8:	003b0006 	br	42eac <___svfprintf_internal_r+0x2d4>
   442ac:	8809883a 	mov	r4,r17
   442b0:	b007883a 	mov	r3,r22
   442b4:	9805883a 	mov	r2,r19
   442b8:	a02d883a 	mov	r22,r20
   442bc:	e027883a 	mov	r19,fp
   442c0:	9029883a 	mov	r20,r18
   442c4:	dac00815 	stw	r11,32(sp)
   442c8:	db000f15 	stw	r12,60(sp)
   442cc:	da801015 	stw	r10,64(sp)
   442d0:	8023883a 	mov	r17,r16
   442d4:	1039883a 	mov	fp,r2
   442d8:	1825883a 	mov	r18,r3
   442dc:	202b883a 	mov	r21,r4
   442e0:	9009883a 	mov	r4,r18
   442e4:	980b883a 	mov	r5,r19
   442e8:	01800284 	movi	r6,10
   442ec:	000f883a 	mov	r7,zero
   442f0:	004fcf40 	call	4fcf4 <__umoddi3>
   442f4:	10800c04 	addi	r2,r2,48
   442f8:	9009883a 	mov	r4,r18
   442fc:	980b883a 	mov	r5,r19
   44300:	01800284 	movi	r6,10
   44304:	000f883a 	mov	r7,zero
   44308:	88bfffc5 	stb	r2,-1(r17)
   4430c:	004f71c0 	call	4f71c <__udivdi3>
   44310:	980d883a 	mov	r6,r19
   44314:	900f883a 	mov	r7,r18
   44318:	8c7fffc4 	addi	r17,r17,-1
   4431c:	1025883a 	mov	r18,r2
   44320:	1827883a 	mov	r19,r3
   44324:	303fee1e 	bne	r6,zero,442e0 <___svfprintf_internal_r+0x1708>
   44328:	39c002a8 	cmpgeui	r7,r7,10
   4432c:	383fec1e 	bne	r7,zero,442e0 <___svfprintf_internal_r+0x1708>
   44330:	db000f17 	ldw	r12,60(sp)
   44334:	a805883a 	mov	r2,r21
   44338:	882b883a 	mov	r21,r17
   4433c:	a025883a 	mov	r18,r20
   44340:	e027883a 	mov	r19,fp
   44344:	dac00817 	ldw	r11,32(sp)
   44348:	da801017 	ldw	r10,64(sp)
   4434c:	b029883a 	mov	r20,r22
   44350:	1023883a 	mov	r17,r2
   44354:	8579c83a 	sub	fp,r16,r21
   44358:	6007883a 	mov	r3,r12
   4435c:	003b7106 	br	43124 <___svfprintf_internal_r+0x54c>
   44360:	d8800717 	ldw	r2,28(sp)
   44364:	d8c00617 	ldw	r3,24(sp)
   44368:	10800017 	ldw	r2,0(r2)
   4436c:	10c00015 	stw	r3,0(r2)
   44370:	003cac06 	br	43624 <___svfprintf_internal_r+0xa4c>
   44374:	00800084 	movi	r2,2
   44378:	003b4706 	br	43098 <___svfprintf_internal_r+0x4c0>
   4437c:	d8c00717 	ldw	r3,28(sp)
   44380:	6080040c 	andi	r2,r12,16
   44384:	1d800017 	ldw	r22,0(r3)
   44388:	1d400104 	addi	r21,r3,4
   4438c:	1000061e 	bne	r2,zero,443a8 <___svfprintf_internal_r+0x17d0>
   44390:	6080100c 	andi	r2,r12,64
   44394:	10000426 	beq	r2,zero,443a8 <___svfprintf_internal_r+0x17d0>
   44398:	b5bfffcc 	andi	r22,r22,65535
   4439c:	0039883a 	mov	fp,zero
   443a0:	dd400715 	stw	r21,28(sp)
   443a4:	003f7806 	br	44188 <___svfprintf_internal_r+0x15b0>
   443a8:	0039883a 	mov	fp,zero
   443ac:	dd400715 	stw	r21,28(sp)
   443b0:	003f7506 	br	44188 <___svfprintf_internal_r+0x15b0>
   443b4:	d9400417 	ldw	r5,16(sp)
   443b8:	d9000517 	ldw	r4,20(sp)
   443bc:	d9801d04 	addi	r6,sp,116
   443c0:	db401515 	stw	r13,84(sp)
   443c4:	da801415 	stw	r10,80(sp)
   443c8:	d8c01315 	stw	r3,76(sp)
   443cc:	dac01115 	stw	r11,68(sp)
   443d0:	db001015 	stw	r12,64(sp)
   443d4:	db800f15 	stw	r14,60(sp)
   443d8:	004b3cc0 	call	4b3cc <__ssprint_r>
   443dc:	103af91e 	bne	r2,zero,42fc4 <___svfprintf_internal_r+0x3ec>
   443e0:	db401517 	ldw	r13,84(sp)
   443e4:	da801417 	ldw	r10,80(sp)
   443e8:	d8c01317 	ldw	r3,76(sp)
   443ec:	dac01117 	ldw	r11,68(sp)
   443f0:	db001017 	ldw	r12,64(sp)
   443f4:	db800f17 	ldw	r14,60(sp)
   443f8:	8023883a 	mov	r17,r16
   443fc:	003ab506 	br	42ed4 <___svfprintf_internal_r+0x2fc>
   44400:	d8801e17 	ldw	r2,120(sp)
   44404:	01400174 	movhi	r5,5
   44408:	2954df04 	addi	r5,r5,21372
   4440c:	10800044 	addi	r2,r2,1
   44410:	b1000044 	addi	r4,r22,1
   44414:	89400015 	stw	r5,0(r17)
   44418:	01400044 	movi	r5,1
   4441c:	d8801e15 	stw	r2,120(sp)
   44420:	89400115 	stw	r5,4(r17)
   44424:	d9001f15 	stw	r4,124(sp)
   44428:	10800208 	cmpgei	r2,r2,8
   4442c:	10011c1e 	bne	r2,zero,448a0 <___svfprintf_internal_r+0x1cc8>
   44430:	8c400204 	addi	r17,r17,8
   44434:	9000c21e 	bne	r18,zero,44740 <___svfprintf_internal_r+0x1b68>
   44438:	d9400917 	ldw	r5,36(sp)
   4443c:	1880004c 	andi	r2,r3,1
   44440:	1144b03a 	or	r2,r2,r5
   44444:	103acf26 	beq	r2,zero,42f84 <___svfprintf_internal_r+0x3ac>
   44448:	d8800d17 	ldw	r2,52(sp)
   4444c:	d9400c17 	ldw	r5,48(sp)
   44450:	88800015 	stw	r2,0(r17)
   44454:	d8801e17 	ldw	r2,120(sp)
   44458:	2909883a 	add	r4,r5,r4
   4445c:	89400115 	stw	r5,4(r17)
   44460:	10800044 	addi	r2,r2,1
   44464:	d9001f15 	stw	r4,124(sp)
   44468:	d8801e15 	stw	r2,120(sp)
   4446c:	11400208 	cmpgei	r5,r2,8
   44470:	28016d1e 	bne	r5,zero,44a28 <___svfprintf_internal_r+0x1e50>
   44474:	8c400204 	addi	r17,r17,8
   44478:	d9400917 	ldw	r5,36(sp)
   4447c:	10800044 	addi	r2,r2,1
   44480:	d8801e15 	stw	r2,120(sp)
   44484:	2909883a 	add	r4,r5,r4
   44488:	8d400015 	stw	r21,0(r17)
   4448c:	89400115 	stw	r5,4(r17)
   44490:	d9001f15 	stw	r4,124(sp)
   44494:	10800208 	cmpgei	r2,r2,8
   44498:	103ab926 	beq	r2,zero,42f80 <___svfprintf_internal_r+0x3a8>
   4449c:	003df506 	br	43c74 <___svfprintf_internal_r+0x109c>
   444a0:	d9000a17 	ldw	r4,40(sp)
   444a4:	d9400b17 	ldw	r5,44(sp)
   444a8:	da800f15 	stw	r10,60(sp)
   444ac:	200d883a 	mov	r6,r4
   444b0:	280f883a 	mov	r7,r5
   444b4:	db000815 	stw	r12,32(sp)
   444b8:	dac00715 	stw	r11,28(sp)
   444bc:	0051f680 	call	51f68 <__unorddf2>
   444c0:	dac00717 	ldw	r11,28(sp)
   444c4:	db000817 	ldw	r12,32(sp)
   444c8:	da800f17 	ldw	r10,60(sp)
   444cc:	1002801e 	bne	r2,zero,44ed0 <___svfprintf_internal_r+0x22f8>
   444d0:	057ff7c4 	movi	r21,-33
   444d4:	90bfffe0 	cmpeqi	r2,r18,-1
   444d8:	5d6e703a 	and	r23,r11,r21
   444dc:	10020e1e 	bne	r2,zero,44d18 <___svfprintf_internal_r+0x2140>
   444e0:	b88011d8 	cmpnei	r2,r23,71
   444e4:	10013e26 	beq	r2,zero,449e0 <___svfprintf_internal_r+0x1e08>
   444e8:	d8800b17 	ldw	r2,44(sp)
   444ec:	60c04014 	ori	r3,r12,256
   444f0:	10013716 	blt	r2,zero,449d0 <___svfprintf_internal_r+0x1df8>
   444f4:	df000b17 	ldw	fp,44(sp)
   444f8:	d8000705 	stb	zero,28(sp)
   444fc:	588019a0 	cmpeqi	r2,r11,102
   44500:	d8800f15 	stw	r2,60(sp)
   44504:	1000f51e 	bne	r2,zero,448dc <___svfprintf_internal_r+0x1d04>
   44508:	b8801158 	cmpnei	r2,r23,69
   4450c:	10015726 	beq	r2,zero,44a6c <___svfprintf_internal_r+0x1e94>
   44510:	d8801b04 	addi	r2,sp,108
   44514:	d9000517 	ldw	r4,20(sp)
   44518:	d8800315 	stw	r2,12(sp)
   4451c:	d9400a17 	ldw	r5,40(sp)
   44520:	d8801804 	addi	r2,sp,96
   44524:	d8800215 	stw	r2,8(sp)
   44528:	d8801704 	addi	r2,sp,92
   4452c:	d8800115 	stw	r2,4(sp)
   44530:	dc800015 	stw	r18,0(sp)
   44534:	01c00084 	movi	r7,2
   44538:	e00d883a 	mov	r6,fp
   4453c:	da801115 	stw	r10,68(sp)
   44540:	d8c01015 	stw	r3,64(sp)
   44544:	db000915 	stw	r12,36(sp)
   44548:	dac00815 	stw	r11,32(sp)
   4454c:	00478fc0 	call	478fc <_dtoa_r>
   44550:	dac00817 	ldw	r11,32(sp)
   44554:	db000917 	ldw	r12,36(sp)
   44558:	d8c01017 	ldw	r3,64(sp)
   4455c:	590019e0 	cmpeqi	r4,r11,103
   44560:	da801117 	ldw	r10,68(sp)
   44564:	102b883a 	mov	r21,r2
   44568:	20017e26 	beq	r4,zero,44b64 <___svfprintf_internal_r+0x1f8c>
   4456c:	6080004c 	andi	r2,r12,1
   44570:	10017e26 	beq	r2,zero,44b6c <___svfprintf_internal_r+0x1f94>
   44574:	ac9b883a 	add	r13,r21,r18
   44578:	d9000a17 	ldw	r4,40(sp)
   4457c:	000d883a 	mov	r6,zero
   44580:	000f883a 	mov	r7,zero
   44584:	e00b883a 	mov	r5,fp
   44588:	db401315 	stw	r13,76(sp)
   4458c:	da801115 	stw	r10,68(sp)
   44590:	d8c01015 	stw	r3,64(sp)
   44594:	db000915 	stw	r12,36(sp)
   44598:	dac00815 	stw	r11,32(sp)
   4459c:	0050b3c0 	call	50b3c <__eqdf2>
   445a0:	dac00817 	ldw	r11,32(sp)
   445a4:	db000917 	ldw	r12,36(sp)
   445a8:	d8c01017 	ldw	r3,64(sp)
   445ac:	da801117 	ldw	r10,68(sp)
   445b0:	db401317 	ldw	r13,76(sp)
   445b4:	10024e26 	beq	r2,zero,44ef0 <___svfprintf_internal_r+0x2318>
   445b8:	d8801b17 	ldw	r2,108(sp)
   445bc:	1340062e 	bgeu	r2,r13,445d8 <___svfprintf_internal_r+0x1a00>
   445c0:	01400c04 	movi	r5,48
   445c4:	11000044 	addi	r4,r2,1
   445c8:	d9001b15 	stw	r4,108(sp)
   445cc:	11400005 	stb	r5,0(r2)
   445d0:	d8801b17 	ldw	r2,108(sp)
   445d4:	137ffb36 	bltu	r2,r13,445c4 <___svfprintf_internal_r+0x19ec>
   445d8:	d9c01717 	ldw	r7,92(sp)
   445dc:	1545c83a 	sub	r2,r2,r21
   445e0:	b90011d8 	cmpnei	r4,r23,71
   445e4:	d8800915 	stw	r2,36(sp)
   445e8:	d9c00815 	stw	r7,32(sp)
   445ec:	20016326 	beq	r4,zero,44b7c <___svfprintf_internal_r+0x1fa4>
   445f0:	d8800f17 	ldw	r2,60(sp)
   445f4:	10025a26 	beq	r2,zero,44f60 <___svfprintf_internal_r+0x2388>
   445f8:	d9000817 	ldw	r4,32(sp)
   445fc:	6080004c 	andi	r2,r12,1
   44600:	1484b03a 	or	r2,r2,r18
   44604:	0102690e 	bge	zero,r4,44fac <___svfprintf_internal_r+0x23d4>
   44608:	10023d1e 	bne	r2,zero,44f00 <___svfprintf_internal_r+0x2328>
   4460c:	df000817 	ldw	fp,32(sp)
   44610:	e01b883a 	mov	r13,fp
   44614:	02c01984 	movi	r11,102
   44618:	ddc00707 	ldb	r23,28(sp)
   4461c:	b801ab26 	beq	r23,zero,44ccc <___svfprintf_internal_r+0x20f4>
   44620:	00800b44 	movi	r2,45
   44624:	d8801645 	stb	r2,89(sp)
   44628:	dd800715 	stw	r22,28(sp)
   4462c:	0025883a 	mov	r18,zero
   44630:	003ac406 	br	43144 <___svfprintf_internal_r+0x56c>
   44634:	d9400417 	ldw	r5,16(sp)
   44638:	d9000517 	ldw	r4,20(sp)
   4463c:	d9801d04 	addi	r6,sp,116
   44640:	db401015 	stw	r13,64(sp)
   44644:	da800f15 	stw	r10,60(sp)
   44648:	d8c00815 	stw	r3,32(sp)
   4464c:	004b3cc0 	call	4b3cc <__ssprint_r>
   44650:	103a5c1e 	bne	r2,zero,42fc4 <___svfprintf_internal_r+0x3ec>
   44654:	dd801f17 	ldw	r22,124(sp)
   44658:	db401017 	ldw	r13,64(sp)
   4465c:	da800f17 	ldw	r10,60(sp)
   44660:	d8c00817 	ldw	r3,32(sp)
   44664:	8023883a 	mov	r17,r16
   44668:	003c1a06 	br	436d4 <___svfprintf_internal_r+0xafc>
   4466c:	d9400417 	ldw	r5,16(sp)
   44670:	d9000517 	ldw	r4,20(sp)
   44674:	d9801d04 	addi	r6,sp,116
   44678:	db401015 	stw	r13,64(sp)
   4467c:	da800f15 	stw	r10,60(sp)
   44680:	d8c00815 	stw	r3,32(sp)
   44684:	004b3cc0 	call	4b3cc <__ssprint_r>
   44688:	103a4e1e 	bne	r2,zero,42fc4 <___svfprintf_internal_r+0x3ec>
   4468c:	ddc01f17 	ldw	r23,124(sp)
   44690:	df001e17 	ldw	fp,120(sp)
   44694:	d8c00817 	ldw	r3,32(sp)
   44698:	da800f17 	ldw	r10,60(sp)
   4469c:	db401017 	ldw	r13,64(sp)
   446a0:	8025883a 	mov	r18,r16
   446a4:	003d0a06 	br	43ad0 <___svfprintf_internal_r+0xef8>
   446a8:	d9400417 	ldw	r5,16(sp)
   446ac:	d9000517 	ldw	r4,20(sp)
   446b0:	d9801d04 	addi	r6,sp,116
   446b4:	db401315 	stw	r13,76(sp)
   446b8:	da801115 	stw	r10,68(sp)
   446bc:	d8c01015 	stw	r3,64(sp)
   446c0:	dac00f15 	stw	r11,60(sp)
   446c4:	004b3cc0 	call	4b3cc <__ssprint_r>
   446c8:	103a3e1e 	bne	r2,zero,42fc4 <___svfprintf_internal_r+0x3ec>
   446cc:	dd801f17 	ldw	r22,124(sp)
   446d0:	db401317 	ldw	r13,76(sp)
   446d4:	da801117 	ldw	r10,68(sp)
   446d8:	d8c01017 	ldw	r3,64(sp)
   446dc:	dac00f17 	ldw	r11,60(sp)
   446e0:	8023883a 	mov	r17,r16
   446e4:	003a1906 	br	42f4c <___svfprintf_internal_r+0x374>
   446e8:	d9400417 	ldw	r5,16(sp)
   446ec:	d9000517 	ldw	r4,20(sp)
   446f0:	d9801d04 	addi	r6,sp,116
   446f4:	db401015 	stw	r13,64(sp)
   446f8:	da800f15 	stw	r10,60(sp)
   446fc:	d8c00815 	stw	r3,32(sp)
   44700:	004b3cc0 	call	4b3cc <__ssprint_r>
   44704:	103a2f1e 	bne	r2,zero,42fc4 <___svfprintf_internal_r+0x3ec>
   44708:	d9001f17 	ldw	r4,124(sp)
   4470c:	db401017 	ldw	r13,64(sp)
   44710:	da800f17 	ldw	r10,60(sp)
   44714:	d8c00817 	ldw	r3,32(sp)
   44718:	8023883a 	mov	r17,r16
   4471c:	003bfe06 	br	43718 <___svfprintf_internal_r+0xb40>
   44720:	908001f0 	cmpltui	r2,r18,7
   44724:	9039883a 	mov	fp,r18
   44728:	1000b826 	beq	r2,zero,44a0c <___svfprintf_internal_r+0x1e34>
   4472c:	05400174 	movhi	r21,5
   44730:	e01b883a 	mov	r13,fp
   44734:	dd800715 	stw	r22,28(sp)
   44738:	ad54dd04 	addi	r21,r21,21364
   4473c:	0039db06 	br	42eac <___svfprintf_internal_r+0x2d4>
   44740:	d8800d17 	ldw	r2,52(sp)
   44744:	d9400c17 	ldw	r5,48(sp)
   44748:	88800015 	stw	r2,0(r17)
   4474c:	d8801e17 	ldw	r2,120(sp)
   44750:	2909883a 	add	r4,r5,r4
   44754:	89400115 	stw	r5,4(r17)
   44758:	10800044 	addi	r2,r2,1
   4475c:	d9001f15 	stw	r4,124(sp)
   44760:	d8801e15 	stw	r2,120(sp)
   44764:	11400208 	cmpgei	r5,r2,8
   44768:	2800af1e 	bne	r5,zero,44a28 <___svfprintf_internal_r+0x1e50>
   4476c:	8c400204 	addi	r17,r17,8
   44770:	903f410e 	bge	r18,zero,44478 <___svfprintf_internal_r+0x18a0>
   44774:	05800174 	movhi	r22,5
   44778:	917ffc08 	cmpgei	r5,r18,-16
   4477c:	b594e004 	addi	r22,r22,21376
   44780:	04a5c83a 	sub	r18,zero,r18
   44784:	2801a51e 	bne	r5,zero,44e1c <___svfprintf_internal_r+0x2244>
   44788:	1839883a 	mov	fp,r3
   4478c:	05c00404 	movi	r23,16
   44790:	8807883a 	mov	r3,r17
   44794:	da800815 	stw	r10,32(sp)
   44798:	b023883a 	mov	r17,r22
   4479c:	902d883a 	mov	r22,r18
   447a0:	6825883a 	mov	r18,r13
   447a4:	00000406 	br	447b8 <___svfprintf_internal_r+0x1be0>
   447a8:	18c00204 	addi	r3,r3,8
   447ac:	b5bffc04 	addi	r22,r22,-16
   447b0:	b1400448 	cmpgei	r5,r22,17
   447b4:	28019326 	beq	r5,zero,44e04 <___svfprintf_internal_r+0x222c>
   447b8:	10800044 	addi	r2,r2,1
   447bc:	21000404 	addi	r4,r4,16
   447c0:	1c400015 	stw	r17,0(r3)
   447c4:	1dc00115 	stw	r23,4(r3)
   447c8:	d9001f15 	stw	r4,124(sp)
   447cc:	d8801e15 	stw	r2,120(sp)
   447d0:	11400208 	cmpgei	r5,r2,8
   447d4:	283ff426 	beq	r5,zero,447a8 <___svfprintf_internal_r+0x1bd0>
   447d8:	d9400417 	ldw	r5,16(sp)
   447dc:	d9000517 	ldw	r4,20(sp)
   447e0:	d9801d04 	addi	r6,sp,116
   447e4:	004b3cc0 	call	4b3cc <__ssprint_r>
   447e8:	1039f61e 	bne	r2,zero,42fc4 <___svfprintf_internal_r+0x3ec>
   447ec:	d9001f17 	ldw	r4,124(sp)
   447f0:	d8801e17 	ldw	r2,120(sp)
   447f4:	8007883a 	mov	r3,r16
   447f8:	003fec06 	br	447ac <___svfprintf_internal_r+0x1bd4>
   447fc:	a015883a 	mov	r10,r20
   44800:	b01b883a 	mov	r13,r22
   44804:	b829883a 	mov	r20,r23
   44808:	902d883a 	mov	r22,r18
   4480c:	202f883a 	mov	r23,r4
   44810:	1825883a 	mov	r18,r3
   44814:	9807883a 	mov	r3,r19
   44818:	e027883a 	mov	r19,fp
   4481c:	1039883a 	mov	fp,r2
   44820:	e7000044 	addi	fp,fp,1
   44824:	bc6f883a 	add	r23,r23,r17
   44828:	95800015 	stw	r22,0(r18)
   4482c:	003ca206 	br	43ab8 <___svfprintf_internal_r+0xee0>
   44830:	05400174 	movhi	r21,5
   44834:	ad54cf04 	addi	r21,r21,21308
   44838:	003ad606 	br	43394 <___svfprintf_internal_r+0x7bc>
   4483c:	05800174 	movhi	r22,5
   44840:	b594e004 	addi	r22,r22,21376
   44844:	003c4906 	br	4396c <___svfprintf_internal_r+0xd94>
   44848:	981b883a 	mov	r13,r19
   4484c:	b027883a 	mov	r19,r22
   44850:	882d883a 	mov	r22,r17
   44854:	1823883a 	mov	r17,r3
   44858:	d8c00f17 	ldw	r3,60(sp)
   4485c:	9015883a 	mov	r10,r18
   44860:	e025883a 	mov	r18,fp
   44864:	10800044 	addi	r2,r2,1
   44868:	9109883a 	add	r4,r18,r4
   4486c:	d8801e15 	stw	r2,120(sp)
   44870:	8d800015 	stw	r22,0(r17)
   44874:	8c800115 	stw	r18,4(r17)
   44878:	d9001f15 	stw	r4,124(sp)
   4487c:	10800208 	cmpgei	r2,r2,8
   44880:	1000aa1e 	bne	r2,zero,44b2c <___svfprintf_internal_r+0x1f54>
   44884:	8c400204 	addi	r17,r17,8
   44888:	202d883a 	mov	r22,r4
   4488c:	003d4206 	br	43d98 <___svfprintf_internal_r+0x11c0>
   44890:	00800b44 	movi	r2,45
   44894:	d8801645 	stb	r2,89(sp)
   44898:	05c00b44 	movi	r23,45
   4489c:	003ab906 	br	43384 <___svfprintf_internal_r+0x7ac>
   448a0:	d9400417 	ldw	r5,16(sp)
   448a4:	d9000517 	ldw	r4,20(sp)
   448a8:	d9801d04 	addi	r6,sp,116
   448ac:	db401015 	stw	r13,64(sp)
   448b0:	da800f15 	stw	r10,60(sp)
   448b4:	d8c00815 	stw	r3,32(sp)
   448b8:	004b3cc0 	call	4b3cc <__ssprint_r>
   448bc:	1039c11e 	bne	r2,zero,42fc4 <___svfprintf_internal_r+0x3ec>
   448c0:	dc801717 	ldw	r18,92(sp)
   448c4:	d9001f17 	ldw	r4,124(sp)
   448c8:	db401017 	ldw	r13,64(sp)
   448cc:	da800f17 	ldw	r10,60(sp)
   448d0:	d8c00817 	ldw	r3,32(sp)
   448d4:	8023883a 	mov	r17,r16
   448d8:	003ed606 	br	44434 <___svfprintf_internal_r+0x185c>
   448dc:	d8801b04 	addi	r2,sp,108
   448e0:	d8800315 	stw	r2,12(sp)
   448e4:	d9400a17 	ldw	r5,40(sp)
   448e8:	d8801804 	addi	r2,sp,96
   448ec:	d9000517 	ldw	r4,20(sp)
   448f0:	d8800215 	stw	r2,8(sp)
   448f4:	d8801704 	addi	r2,sp,92
   448f8:	d8800115 	stw	r2,4(sp)
   448fc:	dc800015 	stw	r18,0(sp)
   44900:	01c000c4 	movi	r7,3
   44904:	e00d883a 	mov	r6,fp
   44908:	da801115 	stw	r10,68(sp)
   4490c:	d8c01015 	stw	r3,64(sp)
   44910:	db000915 	stw	r12,36(sp)
   44914:	dac00815 	stw	r11,32(sp)
   44918:	00478fc0 	call	478fc <_dtoa_r>
   4491c:	102b883a 	mov	r21,r2
   44920:	10800007 	ldb	r2,0(r2)
   44924:	dac00817 	ldw	r11,32(sp)
   44928:	db000917 	ldw	r12,36(sp)
   4492c:	10800c20 	cmpeqi	r2,r2,48
   44930:	d8c01017 	ldw	r3,64(sp)
   44934:	da801117 	ldw	r10,68(sp)
   44938:	10006a1e 	bne	r2,zero,44ae4 <___svfprintf_internal_r+0x1f0c>
   4493c:	d8801717 	ldw	r2,92(sp)
   44940:	d9000a17 	ldw	r4,40(sp)
   44944:	149b883a 	add	r13,r2,r18
   44948:	000d883a 	mov	r6,zero
   4494c:	000f883a 	mov	r7,zero
   44950:	e00b883a 	mov	r5,fp
   44954:	da801315 	stw	r10,76(sp)
   44958:	d8c01115 	stw	r3,68(sp)
   4495c:	db001015 	stw	r12,64(sp)
   44960:	dac00915 	stw	r11,36(sp)
   44964:	db400815 	stw	r13,32(sp)
   44968:	0050b3c0 	call	50b3c <__eqdf2>
   4496c:	db400817 	ldw	r13,32(sp)
   44970:	dac00917 	ldw	r11,36(sp)
   44974:	db001017 	ldw	r12,64(sp)
   44978:	d8c01117 	ldw	r3,68(sp)
   4497c:	da801317 	ldw	r10,76(sp)
   44980:	1001441e 	bne	r2,zero,44e94 <___svfprintf_internal_r+0x22bc>
   44984:	d8801717 	ldw	r2,92(sp)
   44988:	db400915 	stw	r13,36(sp)
   4498c:	d8800815 	stw	r2,32(sp)
   44990:	003f1906 	br	445f8 <___svfprintf_internal_r+0x1a20>
   44994:	d9400417 	ldw	r5,16(sp)
   44998:	d9000517 	ldw	r4,20(sp)
   4499c:	d9801d04 	addi	r6,sp,116
   449a0:	db401115 	stw	r13,68(sp)
   449a4:	da801015 	stw	r10,64(sp)
   449a8:	d8c00f15 	stw	r3,60(sp)
   449ac:	004b3cc0 	call	4b3cc <__ssprint_r>
   449b0:	1039841e 	bne	r2,zero,42fc4 <___svfprintf_internal_r+0x3ec>
   449b4:	dc801717 	ldw	r18,92(sp)
   449b8:	d9001f17 	ldw	r4,124(sp)
   449bc:	db401117 	ldw	r13,68(sp)
   449c0:	da801017 	ldw	r10,64(sp)
   449c4:	d8c00f17 	ldw	r3,60(sp)
   449c8:	8023883a 	mov	r17,r16
   449cc:	003d0106 	br	43dd4 <___svfprintf_internal_r+0x11fc>
   449d0:	1720003c 	xorhi	fp,r2,32768
   449d4:	00800b44 	movi	r2,45
   449d8:	d8800705 	stb	r2,28(sp)
   449dc:	003ec706 	br	444fc <___svfprintf_internal_r+0x1924>
   449e0:	903ec11e 	bne	r18,zero,444e8 <___svfprintf_internal_r+0x1910>
   449e4:	04800044 	movi	r18,1
   449e8:	003ebf06 	br	444e8 <___svfprintf_internal_r+0x1910>
   449ec:	981b883a 	mov	r13,r19
   449f0:	da800f17 	ldw	r10,60(sp)
   449f4:	b027883a 	mov	r19,r22
   449f8:	902d883a 	mov	r22,r18
   449fc:	8825883a 	mov	r18,r17
   44a00:	1823883a 	mov	r17,r3
   44a04:	d8c00817 	ldw	r3,32(sp)
   44a08:	003c9206 	br	43c54 <___svfprintf_internal_r+0x107c>
   44a0c:	07000184 	movi	fp,6
   44a10:	003f4606 	br	4472c <___svfprintf_internal_r+0x1b54>
   44a14:	d9400417 	ldw	r5,16(sp)
   44a18:	d9000517 	ldw	r4,20(sp)
   44a1c:	d9801d04 	addi	r6,sp,116
   44a20:	004b3cc0 	call	4b3cc <__ssprint_r>
   44a24:	00396706 	br	42fc4 <___svfprintf_internal_r+0x3ec>
   44a28:	d9400417 	ldw	r5,16(sp)
   44a2c:	d9000517 	ldw	r4,20(sp)
   44a30:	d9801d04 	addi	r6,sp,116
   44a34:	db401015 	stw	r13,64(sp)
   44a38:	da800f15 	stw	r10,60(sp)
   44a3c:	d8c00815 	stw	r3,32(sp)
   44a40:	004b3cc0 	call	4b3cc <__ssprint_r>
   44a44:	10395f1e 	bne	r2,zero,42fc4 <___svfprintf_internal_r+0x3ec>
   44a48:	dc801717 	ldw	r18,92(sp)
   44a4c:	d9001f17 	ldw	r4,124(sp)
   44a50:	d8801e17 	ldw	r2,120(sp)
   44a54:	db401017 	ldw	r13,64(sp)
   44a58:	da800f17 	ldw	r10,60(sp)
   44a5c:	d8c00817 	ldw	r3,32(sp)
   44a60:	8023883a 	mov	r17,r16
   44a64:	903e840e 	bge	r18,zero,44478 <___svfprintf_internal_r+0x18a0>
   44a68:	003f4206 	br	44774 <___svfprintf_internal_r+0x1b9c>
   44a6c:	d8801b04 	addi	r2,sp,108
   44a70:	d8800315 	stw	r2,12(sp)
   44a74:	d9400a17 	ldw	r5,40(sp)
   44a78:	d8801804 	addi	r2,sp,96
   44a7c:	d9000517 	ldw	r4,20(sp)
   44a80:	d8c01115 	stw	r3,68(sp)
   44a84:	d8800215 	stw	r2,8(sp)
   44a88:	90c00044 	addi	r3,r18,1
   44a8c:	d8801704 	addi	r2,sp,92
   44a90:	d8c00015 	stw	r3,0(sp)
   44a94:	d8800115 	stw	r2,4(sp)
   44a98:	01c00084 	movi	r7,2
   44a9c:	e00d883a 	mov	r6,fp
   44aa0:	da801315 	stw	r10,76(sp)
   44aa4:	db001015 	stw	r12,64(sp)
   44aa8:	dac00815 	stw	r11,32(sp)
   44aac:	d8c00915 	stw	r3,36(sp)
   44ab0:	00478fc0 	call	478fc <_dtoa_r>
   44ab4:	dac00817 	ldw	r11,32(sp)
   44ab8:	db001017 	ldw	r12,64(sp)
   44abc:	d8c01117 	ldw	r3,68(sp)
   44ac0:	da801317 	ldw	r10,76(sp)
   44ac4:	102b883a 	mov	r21,r2
   44ac8:	588011d8 	cmpnei	r2,r11,71
   44acc:	1001131e 	bne	r2,zero,44f1c <___svfprintf_internal_r+0x2344>
   44ad0:	6080004c 	andi	r2,r12,1
   44ad4:	10002526 	beq	r2,zero,44b6c <___svfprintf_internal_r+0x1f94>
   44ad8:	d8800917 	ldw	r2,36(sp)
   44adc:	a89b883a 	add	r13,r21,r2
   44ae0:	003ea506 	br	44578 <___svfprintf_internal_r+0x19a0>
   44ae4:	d9000a17 	ldw	r4,40(sp)
   44ae8:	000d883a 	mov	r6,zero
   44aec:	000f883a 	mov	r7,zero
   44af0:	e00b883a 	mov	r5,fp
   44af4:	da801115 	stw	r10,68(sp)
   44af8:	d8c01015 	stw	r3,64(sp)
   44afc:	db000915 	stw	r12,36(sp)
   44b00:	dac00815 	stw	r11,32(sp)
   44b04:	0050b3c0 	call	50b3c <__eqdf2>
   44b08:	dac00817 	ldw	r11,32(sp)
   44b0c:	db000917 	ldw	r12,36(sp)
   44b10:	d8c01017 	ldw	r3,64(sp)
   44b14:	da801117 	ldw	r10,68(sp)
   44b18:	103f8826 	beq	r2,zero,4493c <___svfprintf_internal_r+0x1d64>
   44b1c:	00800044 	movi	r2,1
   44b20:	1485c83a 	sub	r2,r2,r18
   44b24:	d8801715 	stw	r2,92(sp)
   44b28:	003f8506 	br	44940 <___svfprintf_internal_r+0x1d68>
   44b2c:	d9400417 	ldw	r5,16(sp)
   44b30:	d9000517 	ldw	r4,20(sp)
   44b34:	d9801d04 	addi	r6,sp,116
   44b38:	db401115 	stw	r13,68(sp)
   44b3c:	da801015 	stw	r10,64(sp)
   44b40:	d8c00f15 	stw	r3,60(sp)
   44b44:	004b3cc0 	call	4b3cc <__ssprint_r>
   44b48:	10391e1e 	bne	r2,zero,42fc4 <___svfprintf_internal_r+0x3ec>
   44b4c:	dd801f17 	ldw	r22,124(sp)
   44b50:	db401117 	ldw	r13,68(sp)
   44b54:	da801017 	ldw	r10,64(sp)
   44b58:	d8c00f17 	ldw	r3,60(sp)
   44b5c:	8023883a 	mov	r17,r16
   44b60:	003c8d06 	br	43d98 <___svfprintf_internal_r+0x11c0>
   44b64:	dc800915 	stw	r18,36(sp)
   44b68:	003fd706 	br	44ac8 <___svfprintf_internal_r+0x1ef0>
   44b6c:	d8801b17 	ldw	r2,108(sp)
   44b70:	d9c01717 	ldw	r7,92(sp)
   44b74:	1545c83a 	sub	r2,r2,r21
   44b78:	d8800915 	stw	r2,36(sp)
   44b7c:	38bfff48 	cmpgei	r2,r7,-3
   44b80:	d9c00815 	stw	r7,32(sp)
   44b84:	1000771e 	bne	r2,zero,44d64 <___svfprintf_internal_r+0x218c>
   44b88:	5affff84 	addi	r11,r11,-2
   44b8c:	397fffc4 	addi	r5,r7,-1
   44b90:	5805883a 	mov	r2,r11
   44b94:	01000044 	movi	r4,1
   44b98:	21efc83a 	sub	r23,r4,r7
   44b9c:	01000b44 	movi	r4,45
   44ba0:	21003fcc 	andi	r4,r4,255
   44ba4:	2008923a 	slli	r4,r4,8
   44ba8:	10803fcc 	andi	r2,r2,255
   44bac:	d9401715 	stw	r5,92(sp)
   44bb0:	1104b03a 	or	r2,r2,r4
   44bb4:	d880190d 	sth	r2,100(sp)
   44bb8:	b8800290 	cmplti	r2,r23,10
   44bbc:	10007e1e 	bne	r2,zero,44db8 <___svfprintf_internal_r+0x21e0>
   44bc0:	df001cc4 	addi	fp,sp,115
   44bc4:	9805883a 	mov	r2,r19
   44bc8:	d8c01015 	stw	r3,64(sp)
   44bcc:	a007883a 	mov	r3,r20
   44bd0:	e027883a 	mov	r19,fp
   44bd4:	8829883a 	mov	r20,r17
   44bd8:	dac00815 	stw	r11,32(sp)
   44bdc:	b823883a 	mov	r17,r23
   44be0:	db000f15 	stw	r12,60(sp)
   44be4:	da801115 	stw	r10,68(sp)
   44be8:	1039883a 	mov	fp,r2
   44bec:	182f883a 	mov	r23,r3
   44bf0:	8809883a 	mov	r4,r17
   44bf4:	01400284 	movi	r5,10
   44bf8:	0040a3c0 	call	40a3c <__modsi3>
   44bfc:	10800c04 	addi	r2,r2,48
   44c00:	8809883a 	mov	r4,r17
   44c04:	01400284 	movi	r5,10
   44c08:	98bfffc5 	stb	r2,-1(r19)
   44c0c:	00409bc0 	call	409bc <__divsi3>
   44c10:	89401908 	cmpgei	r5,r17,100
   44c14:	9825883a 	mov	r18,r19
   44c18:	1023883a 	mov	r17,r2
   44c1c:	9cffffc4 	addi	r19,r19,-1
   44c20:	283ff31e 	bne	r5,zero,44bf0 <___svfprintf_internal_r+0x2018>
   44c24:	b809883a 	mov	r4,r23
   44c28:	102f883a 	mov	r23,r2
   44c2c:	e005883a 	mov	r2,fp
   44c30:	9839883a 	mov	fp,r19
   44c34:	1027883a 	mov	r19,r2
   44c38:	b8800c04 	addi	r2,r23,48
   44c3c:	e0bfffc5 	stb	r2,-1(fp)
   44c40:	917fff84 	addi	r5,r18,-2
   44c44:	d8801cc4 	addi	r2,sp,115
   44c48:	a023883a 	mov	r17,r20
   44c4c:	dac00817 	ldw	r11,32(sp)
   44c50:	db000f17 	ldw	r12,60(sp)
   44c54:	d8c01017 	ldw	r3,64(sp)
   44c58:	da801117 	ldw	r10,68(sp)
   44c5c:	2029883a 	mov	r20,r4
   44c60:	2880cc2e 	bgeu	r5,r2,44f94 <___svfprintf_internal_r+0x23bc>
   44c64:	d8801d44 	addi	r2,sp,117
   44c68:	14a5c83a 	sub	r18,r2,r18
   44c6c:	d9001984 	addi	r4,sp,102
   44c70:	900d883a 	mov	r6,r18
   44c74:	00428d80 	call	428d8 <memcpy>
   44c78:	d8801984 	addi	r2,sp,102
   44c7c:	1485883a 	add	r2,r2,r18
   44c80:	d9001904 	addi	r4,sp,100
   44c84:	dac00817 	ldw	r11,32(sp)
   44c88:	db000f17 	ldw	r12,60(sp)
   44c8c:	d8c01017 	ldw	r3,64(sp)
   44c90:	da801117 	ldw	r10,68(sp)
   44c94:	1105c83a 	sub	r2,r2,r4
   44c98:	d8801215 	stw	r2,72(sp)
   44c9c:	d9000917 	ldw	r4,36(sp)
   44ca0:	d9401217 	ldw	r5,72(sp)
   44ca4:	20800088 	cmpgei	r2,r4,2
   44ca8:	2179883a 	add	fp,r4,r5
   44cac:	10007226 	beq	r2,zero,44e78 <___svfprintf_internal_r+0x22a0>
   44cb0:	d8800c17 	ldw	r2,48(sp)
   44cb4:	e0b9883a 	add	fp,fp,r2
   44cb8:	e01b883a 	mov	r13,fp
   44cbc:	e000010e 	bge	fp,zero,44cc4 <___svfprintf_internal_r+0x20ec>
   44cc0:	001b883a 	mov	r13,zero
   44cc4:	d8000815 	stw	zero,32(sp)
   44cc8:	003e5306 	br	44618 <___svfprintf_internal_r+0x1a40>
   44ccc:	ddc01643 	ldbu	r23,89(sp)
   44cd0:	dd800715 	stw	r22,28(sp)
   44cd4:	0025883a 	mov	r18,zero
   44cd8:	00391606 	br	43134 <___svfprintf_internal_r+0x55c>
   44cdc:	d9400417 	ldw	r5,16(sp)
   44ce0:	d9000517 	ldw	r4,20(sp)
   44ce4:	d9801d04 	addi	r6,sp,116
   44ce8:	db401115 	stw	r13,68(sp)
   44cec:	da801015 	stw	r10,64(sp)
   44cf0:	d8c00f15 	stw	r3,60(sp)
   44cf4:	004b3cc0 	call	4b3cc <__ssprint_r>
   44cf8:	1038b21e 	bne	r2,zero,42fc4 <___svfprintf_internal_r+0x3ec>
   44cfc:	dd801f17 	ldw	r22,124(sp)
   44d00:	db401117 	ldw	r13,68(sp)
   44d04:	da801017 	ldw	r10,64(sp)
   44d08:	d8c00f17 	ldw	r3,60(sp)
   44d0c:	8023883a 	mov	r17,r16
   44d10:	903c1e0e 	bge	r18,zero,43d8c <___svfprintf_internal_r+0x11b4>
   44d14:	003d1006 	br	44158 <___svfprintf_internal_r+0x1580>
   44d18:	04800184 	movi	r18,6
   44d1c:	003df206 	br	444e8 <___svfprintf_internal_r+0x1910>
   44d20:	d9400417 	ldw	r5,16(sp)
   44d24:	d9000517 	ldw	r4,20(sp)
   44d28:	d9801d04 	addi	r6,sp,116
   44d2c:	db401015 	stw	r13,64(sp)
   44d30:	da800f15 	stw	r10,60(sp)
   44d34:	d8c00815 	stw	r3,32(sp)
   44d38:	004b3cc0 	call	4b3cc <__ssprint_r>
   44d3c:	1038a11e 	bne	r2,zero,42fc4 <___svfprintf_internal_r+0x3ec>
   44d40:	dc801717 	ldw	r18,92(sp)
   44d44:	d8800917 	ldw	r2,36(sp)
   44d48:	d9001f17 	ldw	r4,124(sp)
   44d4c:	db401017 	ldw	r13,64(sp)
   44d50:	da800f17 	ldw	r10,60(sp)
   44d54:	d8c00817 	ldw	r3,32(sp)
   44d58:	8023883a 	mov	r17,r16
   44d5c:	14a5c83a 	sub	r18,r2,r18
   44d60:	003c2f06 	br	43e20 <___svfprintf_internal_r+0x1248>
   44d64:	91c0060e 	bge	r18,r7,44d80 <___svfprintf_internal_r+0x21a8>
   44d68:	5affff84 	addi	r11,r11,-2
   44d6c:	3dffffc4 	addi	r23,r7,-1
   44d70:	5805883a 	mov	r2,r11
   44d74:	b80b883a 	mov	r5,r23
   44d78:	01000ac4 	movi	r4,43
   44d7c:	003f8806 	br	44ba0 <___svfprintf_internal_r+0x1fc8>
   44d80:	d9000917 	ldw	r4,36(sp)
   44d84:	39001316 	blt	r7,r4,44dd4 <___svfprintf_internal_r+0x21fc>
   44d88:	6300004c 	andi	r12,r12,1
   44d8c:	6000491e 	bne	r12,zero,44eb4 <___svfprintf_internal_r+0x22dc>
   44d90:	381b883a 	mov	r13,r7
   44d94:	3800010e 	bge	r7,zero,44d9c <___svfprintf_internal_r+0x21c4>
   44d98:	001b883a 	mov	r13,zero
   44d9c:	3839883a 	mov	fp,r7
   44da0:	02c019c4 	movi	r11,103
   44da4:	003e1c06 	br	44618 <___svfprintf_internal_r+0x1a40>
   44da8:	901b883a 	mov	r13,r18
   44dac:	dd800715 	stw	r22,28(sp)
   44db0:	9039883a 	mov	fp,r18
   44db4:	00383d06 	br	42eac <___svfprintf_internal_r+0x2d4>
   44db8:	b8800c04 	addi	r2,r23,48
   44dbc:	01000c04 	movi	r4,48
   44dc0:	d88019c5 	stb	r2,103(sp)
   44dc4:	00800104 	movi	r2,4
   44dc8:	d9001985 	stb	r4,102(sp)
   44dcc:	d8801215 	stw	r2,72(sp)
   44dd0:	003fb206 	br	44c9c <___svfprintf_internal_r+0x20c4>
   44dd4:	d8800917 	ldw	r2,36(sp)
   44dd8:	d9000c17 	ldw	r4,48(sp)
   44ddc:	1139883a 	add	fp,r2,r4
   44de0:	d8800817 	ldw	r2,32(sp)
   44de4:	00800316 	blt	zero,r2,44df4 <___svfprintf_internal_r+0x221c>
   44de8:	d8800817 	ldw	r2,32(sp)
   44dec:	e08fc83a 	sub	r7,fp,r2
   44df0:	3f000044 	addi	fp,r7,1
   44df4:	e01b883a 	mov	r13,fp
   44df8:	e0003316 	blt	fp,zero,44ec8 <___svfprintf_internal_r+0x22f0>
   44dfc:	02c019c4 	movi	r11,103
   44e00:	003e0506 	br	44618 <___svfprintf_internal_r+0x1a40>
   44e04:	da800817 	ldw	r10,32(sp)
   44e08:	901b883a 	mov	r13,r18
   44e0c:	b025883a 	mov	r18,r22
   44e10:	882d883a 	mov	r22,r17
   44e14:	1823883a 	mov	r17,r3
   44e18:	e007883a 	mov	r3,fp
   44e1c:	10800044 	addi	r2,r2,1
   44e20:	2489883a 	add	r4,r4,r18
   44e24:	8d800015 	stw	r22,0(r17)
   44e28:	8c800115 	stw	r18,4(r17)
   44e2c:	d9001f15 	stw	r4,124(sp)
   44e30:	d8801e15 	stw	r2,120(sp)
   44e34:	11400208 	cmpgei	r5,r2,8
   44e38:	283d8e26 	beq	r5,zero,44474 <___svfprintf_internal_r+0x189c>
   44e3c:	d9400417 	ldw	r5,16(sp)
   44e40:	d9000517 	ldw	r4,20(sp)
   44e44:	d9801d04 	addi	r6,sp,116
   44e48:	db401015 	stw	r13,64(sp)
   44e4c:	da800f15 	stw	r10,60(sp)
   44e50:	d8c00815 	stw	r3,32(sp)
   44e54:	004b3cc0 	call	4b3cc <__ssprint_r>
   44e58:	10385a1e 	bne	r2,zero,42fc4 <___svfprintf_internal_r+0x3ec>
   44e5c:	d9001f17 	ldw	r4,124(sp)
   44e60:	d8801e17 	ldw	r2,120(sp)
   44e64:	db401017 	ldw	r13,64(sp)
   44e68:	da800f17 	ldw	r10,60(sp)
   44e6c:	d8c00817 	ldw	r3,32(sp)
   44e70:	8023883a 	mov	r17,r16
   44e74:	003d8006 	br	44478 <___svfprintf_internal_r+0x18a0>
   44e78:	6080004c 	andi	r2,r12,1
   44e7c:	d8800815 	stw	r2,32(sp)
   44e80:	103f8b1e 	bne	r2,zero,44cb0 <___svfprintf_internal_r+0x20d8>
   44e84:	e01b883a 	mov	r13,fp
   44e88:	e03de30e 	bge	fp,zero,44618 <___svfprintf_internal_r+0x1a40>
   44e8c:	001b883a 	mov	r13,zero
   44e90:	003de106 	br	44618 <___svfprintf_internal_r+0x1a40>
   44e94:	ab5b883a 	add	r13,r21,r13
   44e98:	003dc706 	br	445b8 <___svfprintf_internal_r+0x19e0>
   44e9c:	d8c00517 	ldw	r3,20(sp)
   44ea0:	00800304 	movi	r2,12
   44ea4:	18800015 	stw	r2,0(r3)
   44ea8:	00bfffc4 	movi	r2,-1
   44eac:	d8800615 	stw	r2,24(sp)
   44eb0:	00384806 	br	42fd4 <___svfprintf_internal_r+0x3fc>
   44eb4:	d8800817 	ldw	r2,32(sp)
   44eb8:	d9000c17 	ldw	r4,48(sp)
   44ebc:	1139883a 	add	fp,r2,r4
   44ec0:	e01b883a 	mov	r13,fp
   44ec4:	e03fcd0e 	bge	fp,zero,44dfc <___svfprintf_internal_r+0x2224>
   44ec8:	001b883a 	mov	r13,zero
   44ecc:	003fcb06 	br	44dfc <___svfprintf_internal_r+0x2224>
   44ed0:	d8800b17 	ldw	r2,44(sp)
   44ed4:	10002b16 	blt	r2,zero,44f84 <___svfprintf_internal_r+0x23ac>
   44ed8:	ddc01643 	ldbu	r23,89(sp)
   44edc:	58801210 	cmplti	r2,r11,72
   44ee0:	1000251e 	bne	r2,zero,44f78 <___svfprintf_internal_r+0x23a0>
   44ee4:	05400174 	movhi	r21,5
   44ee8:	ad54d204 	addi	r21,r21,21320
   44eec:	00392906 	br	43394 <___svfprintf_internal_r+0x7bc>
   44ef0:	6d45c83a 	sub	r2,r13,r21
   44ef4:	d9c01717 	ldw	r7,92(sp)
   44ef8:	d8800915 	stw	r2,36(sp)
   44efc:	003f1f06 	br	44b7c <___svfprintf_internal_r+0x1fa4>
   44f00:	d8800c17 	ldw	r2,48(sp)
   44f04:	208f883a 	add	r7,r4,r2
   44f08:	3cb9883a 	add	fp,r7,r18
   44f0c:	e01b883a 	mov	r13,fp
   44f10:	e03dc00e 	bge	fp,zero,44614 <___svfprintf_internal_r+0x1a3c>
   44f14:	001b883a 	mov	r13,zero
   44f18:	003dbe06 	br	44614 <___svfprintf_internal_r+0x1a3c>
   44f1c:	d9000a17 	ldw	r4,40(sp)
   44f20:	000d883a 	mov	r6,zero
   44f24:	000f883a 	mov	r7,zero
   44f28:	e00b883a 	mov	r5,fp
   44f2c:	da801315 	stw	r10,76(sp)
   44f30:	d8c01115 	stw	r3,68(sp)
   44f34:	db001015 	stw	r12,64(sp)
   44f38:	dac00815 	stw	r11,32(sp)
   44f3c:	0050b3c0 	call	50b3c <__eqdf2>
   44f40:	dac00817 	ldw	r11,32(sp)
   44f44:	db001017 	ldw	r12,64(sp)
   44f48:	d8c01117 	ldw	r3,68(sp)
   44f4c:	da801317 	ldw	r10,76(sp)
   44f50:	1000131e 	bne	r2,zero,44fa0 <___svfprintf_internal_r+0x23c8>
   44f54:	b88011e0 	cmpeqi	r2,r23,71
   44f58:	d9c01717 	ldw	r7,92(sp)
   44f5c:	103f071e 	bne	r2,zero,44b7c <___svfprintf_internal_r+0x1fa4>
   44f60:	397fffc4 	addi	r5,r7,-1
   44f64:	5805883a 	mov	r2,r11
   44f68:	283f0a16 	blt	r5,zero,44b94 <___svfprintf_internal_r+0x1fbc>
   44f6c:	282f883a 	mov	r23,r5
   44f70:	01000ac4 	movi	r4,43
   44f74:	003f0a06 	br	44ba0 <___svfprintf_internal_r+0x1fc8>
   44f78:	05400174 	movhi	r21,5
   44f7c:	ad54d104 	addi	r21,r21,21316
   44f80:	00390406 	br	43394 <___svfprintf_internal_r+0x7bc>
   44f84:	00800b44 	movi	r2,45
   44f88:	d8801645 	stb	r2,89(sp)
   44f8c:	05c00b44 	movi	r23,45
   44f90:	003fd206 	br	44edc <___svfprintf_internal_r+0x2304>
   44f94:	00800084 	movi	r2,2
   44f98:	d8801215 	stw	r2,72(sp)
   44f9c:	003f3f06 	br	44c9c <___svfprintf_internal_r+0x20c4>
   44fa0:	d8800917 	ldw	r2,36(sp)
   44fa4:	a89b883a 	add	r13,r21,r2
   44fa8:	003d8306 	br	445b8 <___svfprintf_internal_r+0x19e0>
   44fac:	1000041e 	bne	r2,zero,44fc0 <___svfprintf_internal_r+0x23e8>
   44fb0:	03400044 	movi	r13,1
   44fb4:	02c01984 	movi	r11,102
   44fb8:	07000044 	movi	fp,1
   44fbc:	003d9606 	br	44618 <___svfprintf_internal_r+0x1a40>
   44fc0:	d8800c17 	ldw	r2,48(sp)
   44fc4:	11c00044 	addi	r7,r2,1
   44fc8:	3cb9883a 	add	fp,r7,r18
   44fcc:	e01b883a 	mov	r13,fp
   44fd0:	e03d900e 	bge	fp,zero,44614 <___svfprintf_internal_r+0x1a3c>
   44fd4:	003fcf06 	br	44f14 <___svfprintf_internal_r+0x233c>
   44fd8:	d8c00717 	ldw	r3,28(sp)
   44fdc:	1c800017 	ldw	r18,0(r3)
   44fe0:	18c00104 	addi	r3,r3,4
   44fe4:	9000010e 	bge	r18,zero,44fec <___svfprintf_internal_r+0x2414>
   44fe8:	04bfffc4 	movi	r18,-1
   44fec:	a2c00043 	ldbu	r11,1(r20)
   44ff0:	d8c00715 	stw	r3,28(sp)
   44ff4:	1029883a 	mov	r20,r2
   44ff8:	5ac03fcc 	andi	r11,r11,255
   44ffc:	5ac0201c 	xori	r11,r11,128
   45000:	5affe004 	addi	r11,r11,-128
   45004:	00373306 	br	42cd4 <___svfprintf_internal_r+0xfc>

00045008 <___vfprintf_internal_r>:
   45008:	deffbc04 	addi	sp,sp,-272
   4500c:	dfc04315 	stw	ra,268(sp)
   45010:	dc803c15 	stw	r18,240(sp)
   45014:	dc003a15 	stw	r16,232(sp)
   45018:	d9000515 	stw	r4,20(sp)
   4501c:	2021883a 	mov	r16,r4
   45020:	d9400415 	stw	r5,16(sp)
   45024:	3025883a 	mov	r18,r6
   45028:	d9c00715 	stw	r7,28(sp)
   4502c:	df004215 	stw	fp,264(sp)
   45030:	ddc04115 	stw	r23,260(sp)
   45034:	dd804015 	stw	r22,256(sp)
   45038:	dd403f15 	stw	r21,252(sp)
   4503c:	dd003e15 	stw	r20,248(sp)
   45040:	dcc03d15 	stw	r19,244(sp)
   45044:	dc403b15 	stw	r17,236(sp)
   45048:	0049cd00 	call	49cd0 <_localeconv_r>
   4504c:	10800017 	ldw	r2,0(r2)
   45050:	1009883a 	mov	r4,r2
   45054:	d8800d15 	stw	r2,52(sp)
   45058:	004b3340 	call	4b334 <strlen>
   4505c:	d8800c15 	stw	r2,48(sp)
   45060:	80000226 	beq	r16,zero,4506c <___vfprintf_internal_r+0x64>
   45064:	80800e17 	ldw	r2,56(r16)
   45068:	10023726 	beq	r2,zero,45948 <___vfprintf_internal_r+0x940>
   4506c:	d9400417 	ldw	r5,16(sp)
   45070:	2880030b 	ldhu	r2,12(r5)
   45074:	10c8000c 	andi	r3,r2,8192
   45078:	1800071e 	bne	r3,zero,45098 <___vfprintf_internal_r+0x90>
   4507c:	28c01917 	ldw	r3,100(r5)
   45080:	11080014 	ori	r4,r2,8192
   45084:	00b7ffc4 	movi	r2,-8193
   45088:	1886703a 	and	r3,r3,r2
   4508c:	2900030d 	sth	r4,12(r5)
   45090:	2005883a 	mov	r2,r4
   45094:	28c01915 	stw	r3,100(r5)
   45098:	10c0020c 	andi	r3,r2,8
   4509c:	1800f726 	beq	r3,zero,4547c <___vfprintf_internal_r+0x474>
   450a0:	d8c00417 	ldw	r3,16(sp)
   450a4:	18c00417 	ldw	r3,16(r3)
   450a8:	1800f426 	beq	r3,zero,4547c <___vfprintf_internal_r+0x474>
   450ac:	1080068c 	andi	r2,r2,26
   450b0:	10800298 	cmpnei	r2,r2,10
   450b4:	1000fa26 	beq	r2,zero,454a0 <___vfprintf_internal_r+0x498>
   450b8:	dc402a04 	addi	r17,sp,168
   450bc:	04c00174 	movhi	r19,5
   450c0:	dc401d15 	stw	r17,116(sp)
   450c4:	d8001f15 	stw	zero,124(sp)
   450c8:	d8001e15 	stw	zero,120(sp)
   450cc:	d8000915 	stw	zero,36(sp)
   450d0:	d8000a15 	stw	zero,40(sp)
   450d4:	d8000b15 	stw	zero,44(sp)
   450d8:	d8000e15 	stw	zero,56(sp)
   450dc:	d8001215 	stw	zero,72(sp)
   450e0:	d8000615 	stw	zero,24(sp)
   450e4:	9cd4e804 	addi	r19,r19,21408
   450e8:	8821883a 	mov	r16,r17
   450ec:	9029883a 	mov	r20,r18
   450f0:	a0800007 	ldb	r2,0(r20)
   450f4:	1000ce26 	beq	r2,zero,45430 <___vfprintf_internal_r+0x428>
   450f8:	a025883a 	mov	r18,r20
   450fc:	00000306 	br	4510c <___vfprintf_internal_r+0x104>
   45100:	90800047 	ldb	r2,1(r18)
   45104:	94800044 	addi	r18,r18,1
   45108:	10015226 	beq	r2,zero,45654 <___vfprintf_internal_r+0x64c>
   4510c:	10800958 	cmpnei	r2,r2,37
   45110:	103ffb1e 	bne	r2,zero,45100 <___vfprintf_internal_r+0xf8>
   45114:	952fc83a 	sub	r23,r18,r20
   45118:	9501501e 	bne	r18,r20,4565c <___vfprintf_internal_r+0x654>
   4511c:	90800003 	ldbu	r2,0(r18)
   45120:	10803fcc 	andi	r2,r2,255
   45124:	1080201c 	xori	r2,r2,128
   45128:	10bfe004 	addi	r2,r2,-128
   4512c:	1000c026 	beq	r2,zero,45430 <___vfprintf_internal_r+0x428>
   45130:	92c00047 	ldb	r11,1(r18)
   45134:	95000044 	addi	r20,r18,1
   45138:	d8001645 	stb	zero,89(sp)
   4513c:	04bfffc4 	movi	r18,-1
   45140:	0015883a 	mov	r10,zero
   45144:	0019883a 	mov	r12,zero
   45148:	a5000044 	addi	r20,r20,1
   4514c:	58bff804 	addi	r2,r11,-32
   45150:	10c01668 	cmpgeui	r3,r2,89
   45154:	18006c1e 	bne	r3,zero,45308 <___vfprintf_internal_r+0x300>
   45158:	100490ba 	slli	r2,r2,2
   4515c:	00c00134 	movhi	r3,4
   45160:	10c7883a 	add	r3,r2,r3
   45164:	18945b17 	ldw	r2,20844(r3)
   45168:	1000683a 	jmp	r2
   4516c:	00045a20 	cmpeqi	zero,zero,4456
   45170:	00045308 	cmpgei	zero,zero,4428
   45174:	00045308 	cmpgei	zero,zero,4428
   45178:	00045a14 	movui	zero,4456
   4517c:	00045308 	cmpgei	zero,zero,4428
   45180:	00045308 	cmpgei	zero,zero,4428
   45184:	00045308 	cmpgei	zero,zero,4428
   45188:	00045308 	cmpgei	zero,zero,4428
   4518c:	00045308 	cmpgei	zero,zero,4428
   45190:	00045308 	cmpgei	zero,zero,4428
   45194:	00045988 	cmpgei	zero,zero,4454
   45198:	00045a04 	movi	zero,4456
   4519c:	00045308 	cmpgei	zero,zero,4428
   451a0:	000459a0 	cmpeqi	zero,zero,4454
   451a4:	000459ac 	andhi	zero,zero,4454
   451a8:	00045308 	cmpgei	zero,zero,4428
   451ac:	000459f8 	rdprs	zero,zero,4455
   451b0:	000452d0 	cmplti	zero,zero,4427
   451b4:	000452d0 	cmplti	zero,zero,4427
   451b8:	000452d0 	cmplti	zero,zero,4427
   451bc:	000452d0 	cmplti	zero,zero,4427
   451c0:	000452d0 	cmplti	zero,zero,4427
   451c4:	000452d0 	cmplti	zero,zero,4427
   451c8:	000452d0 	cmplti	zero,zero,4427
   451cc:	000452d0 	cmplti	zero,zero,4427
   451d0:	000452d0 	cmplti	zero,zero,4427
   451d4:	00045308 	cmpgei	zero,zero,4428
   451d8:	00045308 	cmpgei	zero,zero,4428
   451dc:	00045308 	cmpgei	zero,zero,4428
   451e0:	00045308 	cmpgei	zero,zero,4428
   451e4:	00045308 	cmpgei	zero,zero,4428
   451e8:	00045308 	cmpgei	zero,zero,4428
   451ec:	00045308 	cmpgei	zero,zero,4428
   451f0:	00045308 	cmpgei	zero,zero,4428
   451f4:	00045308 	cmpgei	zero,zero,4428
   451f8:	00045308 	cmpgei	zero,zero,4428
   451fc:	000454ec 	andhi	zero,zero,4435
   45200:	000457a8 	cmpgeui	zero,zero,4446
   45204:	00045308 	cmpgei	zero,zero,4428
   45208:	000457a8 	cmpgeui	zero,zero,4446
   4520c:	00045308 	cmpgei	zero,zero,4428
   45210:	00045308 	cmpgei	zero,zero,4428
   45214:	00045308 	cmpgei	zero,zero,4428
   45218:	00045308 	cmpgei	zero,zero,4428
   4521c:	00045a6c 	andhi	zero,zero,4457
   45220:	00045308 	cmpgei	zero,zero,4428
   45224:	00045308 	cmpgei	zero,zero,4428
   45228:	00045554 	movui	zero,4437
   4522c:	00045308 	cmpgei	zero,zero,4428
   45230:	00045308 	cmpgei	zero,zero,4428
   45234:	00045308 	cmpgei	zero,zero,4428
   45238:	00045308 	cmpgei	zero,zero,4428
   4523c:	00045308 	cmpgei	zero,zero,4428
   45240:	0004557c 	xorhi	zero,zero,4437
   45244:	00045308 	cmpgei	zero,zero,4428
   45248:	00045308 	cmpgei	zero,zero,4428
   4524c:	0004660c 	andi	zero,zero,4504
   45250:	00045308 	cmpgei	zero,zero,4428
   45254:	00045308 	cmpgei	zero,zero,4428
   45258:	00045308 	cmpgei	zero,zero,4428
   4525c:	00045308 	cmpgei	zero,zero,4428
   45260:	00045308 	cmpgei	zero,zero,4428
   45264:	00045308 	cmpgei	zero,zero,4428
   45268:	00045308 	cmpgei	zero,zero,4428
   4526c:	00045308 	cmpgei	zero,zero,4428
   45270:	00045308 	cmpgei	zero,zero,4428
   45274:	00045308 	cmpgei	zero,zero,4428
   45278:	00045a84 	movi	zero,4458
   4527c:	000454f0 	cmpltui	zero,zero,4435
   45280:	000457a8 	cmpgeui	zero,zero,4446
   45284:	000457a8 	cmpgeui	zero,zero,4446
   45288:	000457a8 	cmpgeui	zero,zero,4446
   4528c:	00045a78 	rdprs	zero,zero,4457
   45290:	000454f0 	cmpltui	zero,zero,4435
   45294:	00045308 	cmpgei	zero,zero,4428
   45298:	00045308 	cmpgei	zero,zero,4428
   4529c:	00045a44 	movi	zero,4457
   452a0:	00045308 	cmpgei	zero,zero,4428
   452a4:	00045b48 	cmpgei	zero,zero,4461
   452a8:	00045558 	cmpnei	zero,zero,4437
   452ac:	00045b10 	cmplti	zero,zero,4460
   452b0:	00045b04 	movi	zero,4460
   452b4:	00045308 	cmpgei	zero,zero,4428
   452b8:	00045aac 	andhi	zero,zero,4458
   452bc:	00045308 	cmpgei	zero,zero,4428
   452c0:	00045580 	call	4558 <__reset-0x3baa8>
   452c4:	00045308 	cmpgei	zero,zero,4428
   452c8:	00045308 	cmpgei	zero,zero,4428
   452cc:	0004667c 	xorhi	zero,zero,4505
   452d0:	0015883a 	mov	r10,zero
   452d4:	58fff404 	addi	r3,r11,-48
   452d8:	500490ba 	slli	r2,r10,2
   452dc:	a2c00007 	ldb	r11,0(r20)
   452e0:	a5000044 	addi	r20,r20,1
   452e4:	1295883a 	add	r10,r2,r10
   452e8:	5295883a 	add	r10,r10,r10
   452ec:	1a95883a 	add	r10,r3,r10
   452f0:	58fff404 	addi	r3,r11,-48
   452f4:	188002b0 	cmpltui	r2,r3,10
   452f8:	103ff71e 	bne	r2,zero,452d8 <___vfprintf_internal_r+0x2d0>
   452fc:	58bff804 	addi	r2,r11,-32
   45300:	10c01668 	cmpgeui	r3,r2,89
   45304:	183f9426 	beq	r3,zero,45158 <___vfprintf_internal_r+0x150>
   45308:	58004926 	beq	r11,zero,45430 <___vfprintf_internal_r+0x428>
   4530c:	dac02005 	stb	r11,128(sp)
   45310:	d8001645 	stb	zero,89(sp)
   45314:	03400044 	movi	r13,1
   45318:	07000044 	movi	fp,1
   4531c:	dd402004 	addi	r21,sp,128
   45320:	6007883a 	mov	r3,r12
   45324:	0025883a 	mov	r18,zero
   45328:	d8000815 	stw	zero,32(sp)
   4532c:	1b80008c 	andi	r14,r3,2
   45330:	70000126 	beq	r14,zero,45338 <___vfprintf_internal_r+0x330>
   45334:	6b400084 	addi	r13,r13,2
   45338:	1b00210c 	andi	r12,r3,132
   4533c:	6000021e 	bne	r12,zero,45348 <___vfprintf_internal_r+0x340>
   45340:	536dc83a 	sub	r22,r10,r13
   45344:	05833416 	blt	zero,r22,46018 <___vfprintf_internal_r+0x1010>
   45348:	d8801647 	ldb	r2,89(sp)
   4534c:	dd801f17 	ldw	r22,124(sp)
   45350:	10000c26 	beq	r2,zero,45384 <___vfprintf_internal_r+0x37c>
   45354:	d8801e17 	ldw	r2,120(sp)
   45358:	d9001644 	addi	r4,sp,89
   4535c:	b5800044 	addi	r22,r22,1
   45360:	10800044 	addi	r2,r2,1
   45364:	81000015 	stw	r4,0(r16)
   45368:	01000044 	movi	r4,1
   4536c:	d8801e15 	stw	r2,120(sp)
   45370:	81000115 	stw	r4,4(r16)
   45374:	dd801f15 	stw	r22,124(sp)
   45378:	10800208 	cmpgei	r2,r2,8
   4537c:	1003881e 	bne	r2,zero,461a0 <___vfprintf_internal_r+0x1198>
   45380:	84000204 	addi	r16,r16,8
   45384:	70000c26 	beq	r14,zero,453b8 <___vfprintf_internal_r+0x3b0>
   45388:	d8801e17 	ldw	r2,120(sp)
   4538c:	d9001684 	addi	r4,sp,90
   45390:	b5800084 	addi	r22,r22,2
   45394:	10800044 	addi	r2,r2,1
   45398:	81000015 	stw	r4,0(r16)
   4539c:	01000084 	movi	r4,2
   453a0:	d8801e15 	stw	r2,120(sp)
   453a4:	81000115 	stw	r4,4(r16)
   453a8:	dd801f15 	stw	r22,124(sp)
   453ac:	10800208 	cmpgei	r2,r2,8
   453b0:	10038f1e 	bne	r2,zero,461f0 <___vfprintf_internal_r+0x11e8>
   453b4:	84000204 	addi	r16,r16,8
   453b8:	63002018 	cmpnei	r12,r12,128
   453bc:	60024326 	beq	r12,zero,45ccc <___vfprintf_internal_r+0xcc4>
   453c0:	9725c83a 	sub	r18,r18,fp
   453c4:	04828316 	blt	zero,r18,45dd4 <___vfprintf_internal_r+0xdcc>
   453c8:	1880400c 	andi	r2,r3,256
   453cc:	1001ea1e 	bne	r2,zero,45b78 <___vfprintf_internal_r+0xb70>
   453d0:	d8801e17 	ldw	r2,120(sp)
   453d4:	e589883a 	add	r4,fp,r22
   453d8:	85400015 	stw	r21,0(r16)
   453dc:	10800044 	addi	r2,r2,1
   453e0:	d8801e15 	stw	r2,120(sp)
   453e4:	87000115 	stw	fp,4(r16)
   453e8:	d9001f15 	stw	r4,124(sp)
   453ec:	10800208 	cmpgei	r2,r2,8
   453f0:	10035d1e 	bne	r2,zero,46168 <___vfprintf_internal_r+0x1160>
   453f4:	84000204 	addi	r16,r16,8
   453f8:	18c0010c 	andi	r3,r3,4
   453fc:	18000226 	beq	r3,zero,45408 <___vfprintf_internal_r+0x400>
   45400:	5365c83a 	sub	r18,r10,r13
   45404:	0480ac16 	blt	zero,r18,456b8 <___vfprintf_internal_r+0x6b0>
   45408:	5340010e 	bge	r10,r13,45410 <___vfprintf_internal_r+0x408>
   4540c:	6815883a 	mov	r10,r13
   45410:	d8800617 	ldw	r2,24(sp)
   45414:	1285883a 	add	r2,r2,r10
   45418:	d8800615 	stw	r2,24(sp)
   4541c:	2002bb1e 	bne	r4,zero,45f0c <___vfprintf_internal_r+0xf04>
   45420:	a0800007 	ldb	r2,0(r20)
   45424:	d8001e15 	stw	zero,120(sp)
   45428:	8821883a 	mov	r16,r17
   4542c:	103f321e 	bne	r2,zero,450f8 <___vfprintf_internal_r+0xf0>
   45430:	d8801f17 	ldw	r2,124(sp)
   45434:	10065e1e 	bne	r2,zero,46db0 <___vfprintf_internal_r+0x1da8>
   45438:	d8800417 	ldw	r2,16(sp)
   4543c:	1080030b 	ldhu	r2,12(r2)
   45440:	1080100c 	andi	r2,r2,64
   45444:	1007931e 	bne	r2,zero,47294 <___vfprintf_internal_r+0x228c>
   45448:	d8800617 	ldw	r2,24(sp)
   4544c:	dfc04317 	ldw	ra,268(sp)
   45450:	df004217 	ldw	fp,264(sp)
   45454:	ddc04117 	ldw	r23,260(sp)
   45458:	dd804017 	ldw	r22,256(sp)
   4545c:	dd403f17 	ldw	r21,252(sp)
   45460:	dd003e17 	ldw	r20,248(sp)
   45464:	dcc03d17 	ldw	r19,244(sp)
   45468:	dc803c17 	ldw	r18,240(sp)
   4546c:	dc403b17 	ldw	r17,236(sp)
   45470:	dc003a17 	ldw	r16,232(sp)
   45474:	dec04404 	addi	sp,sp,272
   45478:	f800283a 	ret
   4547c:	d9400417 	ldw	r5,16(sp)
   45480:	d9000517 	ldw	r4,20(sp)
   45484:	00475980 	call	47598 <__swsetup_r>
   45488:	1007821e 	bne	r2,zero,47294 <___vfprintf_internal_r+0x228c>
   4548c:	d8800417 	ldw	r2,16(sp)
   45490:	1080030b 	ldhu	r2,12(r2)
   45494:	1080068c 	andi	r2,r2,26
   45498:	10800298 	cmpnei	r2,r2,10
   4549c:	103f061e 	bne	r2,zero,450b8 <___vfprintf_internal_r+0xb0>
   454a0:	d8800417 	ldw	r2,16(sp)
   454a4:	1080038f 	ldh	r2,14(r2)
   454a8:	103f0316 	blt	r2,zero,450b8 <___vfprintf_internal_r+0xb0>
   454ac:	d9c00717 	ldw	r7,28(sp)
   454b0:	d9400417 	ldw	r5,16(sp)
   454b4:	d9000517 	ldw	r4,20(sp)
   454b8:	900d883a 	mov	r6,r18
   454bc:	dfc04317 	ldw	ra,268(sp)
   454c0:	df004217 	ldw	fp,264(sp)
   454c4:	ddc04117 	ldw	r23,260(sp)
   454c8:	dd804017 	ldw	r22,256(sp)
   454cc:	dd403f17 	ldw	r21,252(sp)
   454d0:	dd003e17 	ldw	r20,248(sp)
   454d4:	dcc03d17 	ldw	r19,244(sp)
   454d8:	dc803c17 	ldw	r18,240(sp)
   454dc:	dc403b17 	ldw	r17,236(sp)
   454e0:	dc003a17 	ldw	r16,232(sp)
   454e4:	dec04404 	addi	sp,sp,272
   454e8:	00474d41 	jmpi	474d4 <__sbprintf>
   454ec:	63000414 	ori	r12,r12,16
   454f0:	6080080c 	andi	r2,r12,32
   454f4:	1000e726 	beq	r2,zero,45894 <___vfprintf_internal_r+0x88c>
   454f8:	d8c00717 	ldw	r3,28(sp)
   454fc:	18800117 	ldw	r2,4(r3)
   45500:	1d800017 	ldw	r22,0(r3)
   45504:	18c00204 	addi	r3,r3,8
   45508:	d8c00715 	stw	r3,28(sp)
   4550c:	1039883a 	mov	fp,r2
   45510:	1000ee16 	blt	r2,zero,458cc <___vfprintf_internal_r+0x8c4>
   45514:	90bfffd8 	cmpnei	r2,r18,-1
   45518:	ddc01643 	ldbu	r23,89(sp)
   4551c:	10011126 	beq	r2,zero,45964 <___vfprintf_internal_r+0x95c>
   45520:	00ffdfc4 	movi	r3,-129
   45524:	b704b03a 	or	r2,r22,fp
   45528:	60c6703a 	and	r3,r12,r3
   4552c:	10010c1e 	bne	r2,zero,45960 <___vfprintf_internal_r+0x958>
   45530:	00800044 	movi	r2,1
   45534:	90025e1e 	bne	r18,zero,45eb0 <___vfprintf_internal_r+0xea8>
   45538:	1003ba1e 	bne	r2,zero,46424 <___vfprintf_internal_r+0x141c>
   4553c:	6700004c 	andi	fp,r12,1
   45540:	e0040626 	beq	fp,zero,4655c <___vfprintf_internal_r+0x1554>
   45544:	00800c04 	movi	r2,48
   45548:	d88029c5 	stb	r2,167(sp)
   4554c:	dd4029c4 	addi	r21,sp,167
   45550:	00003606 	br	4562c <___vfprintf_internal_r+0x624>
   45554:	63000414 	ori	r12,r12,16
   45558:	6080080c 	andi	r2,r12,32
   4555c:	1000ee26 	beq	r2,zero,45918 <___vfprintf_internal_r+0x910>
   45560:	d8c00717 	ldw	r3,28(sp)
   45564:	0005883a 	mov	r2,zero
   45568:	1d800017 	ldw	r22,0(r3)
   4556c:	1f000117 	ldw	fp,4(r3)
   45570:	18c00204 	addi	r3,r3,8
   45574:	d8c00715 	stw	r3,28(sp)
   45578:	00000906 	br	455a0 <___vfprintf_internal_r+0x598>
   4557c:	63000414 	ori	r12,r12,16
   45580:	6080080c 	andi	r2,r12,32
   45584:	1000d826 	beq	r2,zero,458e8 <___vfprintf_internal_r+0x8e0>
   45588:	d8c00717 	ldw	r3,28(sp)
   4558c:	00800044 	movi	r2,1
   45590:	1d800017 	ldw	r22,0(r3)
   45594:	1f000117 	ldw	fp,4(r3)
   45598:	18c00204 	addi	r3,r3,8
   4559c:	d8c00715 	stw	r3,28(sp)
   455a0:	002f883a 	mov	r23,zero
   455a4:	ddc01645 	stb	r23,89(sp)
   455a8:	90ffffe0 	cmpeqi	r3,r18,-1
   455ac:	1800051e 	bne	r3,zero,455c4 <___vfprintf_internal_r+0x5bc>
   455b0:	00ffdfc4 	movi	r3,-129
   455b4:	b708b03a 	or	r4,r22,fp
   455b8:	60c6703a 	and	r3,r12,r3
   455bc:	203fdd26 	beq	r4,zero,45534 <___vfprintf_internal_r+0x52c>
   455c0:	1819883a 	mov	r12,r3
   455c4:	10c00060 	cmpeqi	r3,r2,1
   455c8:	1800e61e 	bne	r3,zero,45964 <___vfprintf_internal_r+0x95c>
   455cc:	108000a0 	cmpeqi	r2,r2,2
   455d0:	10023e1e 	bne	r2,zero,45ecc <___vfprintf_internal_r+0xec4>
   455d4:	882b883a 	mov	r21,r17
   455d8:	b006d0fa 	srli	r3,r22,3
   455dc:	e00a977a 	slli	r5,fp,29
   455e0:	e038d0fa 	srli	fp,fp,3
   455e4:	b58001cc 	andi	r22,r22,7
   455e8:	b0800c04 	addi	r2,r22,48
   455ec:	28ecb03a 	or	r22,r5,r3
   455f0:	a8bfffc5 	stb	r2,-1(r21)
   455f4:	b706b03a 	or	r3,r22,fp
   455f8:	a809883a 	mov	r4,r21
   455fc:	ad7fffc4 	addi	r21,r21,-1
   45600:	183ff51e 	bne	r3,zero,455d8 <___vfprintf_internal_r+0x5d0>
   45604:	60c0004c 	andi	r3,r12,1
   45608:	18023d26 	beq	r3,zero,45f00 <___vfprintf_internal_r+0xef8>
   4560c:	10800c18 	cmpnei	r2,r2,48
   45610:	10023b26 	beq	r2,zero,45f00 <___vfprintf_internal_r+0xef8>
   45614:	213fff84 	addi	r4,r4,-2
   45618:	00800c04 	movi	r2,48
   4561c:	a8bfffc5 	stb	r2,-1(r21)
   45620:	8939c83a 	sub	fp,r17,r4
   45624:	6007883a 	mov	r3,r12
   45628:	202b883a 	mov	r21,r4
   4562c:	901b883a 	mov	r13,r18
   45630:	9700010e 	bge	r18,fp,45638 <___vfprintf_internal_r+0x630>
   45634:	e01b883a 	mov	r13,fp
   45638:	d8000815 	stw	zero,32(sp)
   4563c:	bdc03fcc 	andi	r23,r23,255
   45640:	bdc0201c 	xori	r23,r23,128
   45644:	bdffe004 	addi	r23,r23,-128
   45648:	b83f3826 	beq	r23,zero,4532c <___vfprintf_internal_r+0x324>
   4564c:	6b400044 	addi	r13,r13,1
   45650:	003f3606 	br	4532c <___vfprintf_internal_r+0x324>
   45654:	952fc83a 	sub	r23,r18,r20
   45658:	953f7526 	beq	r18,r20,45430 <___vfprintf_internal_r+0x428>
   4565c:	dd801f17 	ldw	r22,124(sp)
   45660:	d8801e17 	ldw	r2,120(sp)
   45664:	85000015 	stw	r20,0(r16)
   45668:	b5ed883a 	add	r22,r22,r23
   4566c:	10800044 	addi	r2,r2,1
   45670:	d8801e15 	stw	r2,120(sp)
   45674:	85c00115 	stw	r23,4(r16)
   45678:	dd801f15 	stw	r22,124(sp)
   4567c:	10800208 	cmpgei	r2,r2,8
   45680:	1000061e 	bne	r2,zero,4569c <___vfprintf_internal_r+0x694>
   45684:	84000204 	addi	r16,r16,8
   45688:	d8c00617 	ldw	r3,24(sp)
   4568c:	90800003 	ldbu	r2,0(r18)
   45690:	1dc7883a 	add	r3,r3,r23
   45694:	d8c00615 	stw	r3,24(sp)
   45698:	003ea106 	br	45120 <___vfprintf_internal_r+0x118>
   4569c:	d9400417 	ldw	r5,16(sp)
   456a0:	d9000517 	ldw	r4,20(sp)
   456a4:	d9801d04 	addi	r6,sp,116
   456a8:	004c68c0 	call	4c68c <__sprint_r>
   456ac:	103f621e 	bne	r2,zero,45438 <___vfprintf_internal_r+0x430>
   456b0:	8821883a 	mov	r16,r17
   456b4:	003ff406 	br	45688 <___vfprintf_internal_r+0x680>
   456b8:	05c00174 	movhi	r23,5
   456bc:	90c00450 	cmplti	r3,r18,17
   456c0:	d8801e17 	ldw	r2,120(sp)
   456c4:	bdd4ec04 	addi	r23,r23,21424
   456c8:	1800241e 	bne	r3,zero,4575c <___vfprintf_internal_r+0x754>
   456cc:	8007883a 	mov	r3,r16
   456d0:	b839883a 	mov	fp,r23
   456d4:	dd400517 	ldw	r21,20(sp)
   456d8:	902f883a 	mov	r23,r18
   456dc:	05800404 	movi	r22,16
   456e0:	5021883a 	mov	r16,r10
   456e4:	6825883a 	mov	r18,r13
   456e8:	00000406 	br	456fc <___vfprintf_internal_r+0x6f4>
   456ec:	bdfffc04 	addi	r23,r23,-16
   456f0:	b9400448 	cmpgei	r5,r23,17
   456f4:	18c00204 	addi	r3,r3,8
   456f8:	28001326 	beq	r5,zero,45748 <___vfprintf_internal_r+0x740>
   456fc:	10800044 	addi	r2,r2,1
   45700:	21000404 	addi	r4,r4,16
   45704:	1f000015 	stw	fp,0(r3)
   45708:	1d800115 	stw	r22,4(r3)
   4570c:	d9001f15 	stw	r4,124(sp)
   45710:	d8801e15 	stw	r2,120(sp)
   45714:	11400208 	cmpgei	r5,r2,8
   45718:	283ff426 	beq	r5,zero,456ec <___vfprintf_internal_r+0x6e4>
   4571c:	d9400417 	ldw	r5,16(sp)
   45720:	d9801d04 	addi	r6,sp,116
   45724:	a809883a 	mov	r4,r21
   45728:	004c68c0 	call	4c68c <__sprint_r>
   4572c:	103f421e 	bne	r2,zero,45438 <___vfprintf_internal_r+0x430>
   45730:	bdfffc04 	addi	r23,r23,-16
   45734:	b9400448 	cmpgei	r5,r23,17
   45738:	d9001f17 	ldw	r4,124(sp)
   4573c:	d8801e17 	ldw	r2,120(sp)
   45740:	8807883a 	mov	r3,r17
   45744:	283fed1e 	bne	r5,zero,456fc <___vfprintf_internal_r+0x6f4>
   45748:	8015883a 	mov	r10,r16
   4574c:	901b883a 	mov	r13,r18
   45750:	1821883a 	mov	r16,r3
   45754:	b825883a 	mov	r18,r23
   45758:	e02f883a 	mov	r23,fp
   4575c:	10800044 	addi	r2,r2,1
   45760:	2489883a 	add	r4,r4,r18
   45764:	d8801e15 	stw	r2,120(sp)
   45768:	85c00015 	stw	r23,0(r16)
   4576c:	84800115 	stw	r18,4(r16)
   45770:	d9001f15 	stw	r4,124(sp)
   45774:	10800210 	cmplti	r2,r2,8
   45778:	103f231e 	bne	r2,zero,45408 <___vfprintf_internal_r+0x400>
   4577c:	d9400417 	ldw	r5,16(sp)
   45780:	d9000517 	ldw	r4,20(sp)
   45784:	d9801d04 	addi	r6,sp,116
   45788:	db400f15 	stw	r13,60(sp)
   4578c:	da800815 	stw	r10,32(sp)
   45790:	004c68c0 	call	4c68c <__sprint_r>
   45794:	103f281e 	bne	r2,zero,45438 <___vfprintf_internal_r+0x430>
   45798:	d9001f17 	ldw	r4,124(sp)
   4579c:	db400f17 	ldw	r13,60(sp)
   457a0:	da800817 	ldw	r10,32(sp)
   457a4:	003f1806 	br	45408 <___vfprintf_internal_r+0x400>
   457a8:	d8c00717 	ldw	r3,28(sp)
   457ac:	6080020c 	andi	r2,r12,8
   457b0:	1d800204 	addi	r22,r3,8
   457b4:	10036b1e 	bne	r2,zero,46564 <___vfprintf_internal_r+0x155c>
   457b8:	d8800717 	ldw	r2,28(sp)
   457bc:	10c00017 	ldw	r3,0(r2)
   457c0:	10800117 	ldw	r2,4(r2)
   457c4:	d8c00a15 	stw	r3,40(sp)
   457c8:	d8800b15 	stw	r2,44(sp)
   457cc:	df000b17 	ldw	fp,44(sp)
   457d0:	ddc00a17 	ldw	r23,40(sp)
   457d4:	00a00034 	movhi	r2,32768
   457d8:	10bfffc4 	addi	r2,r2,-1
   457dc:	e0aa703a 	and	r21,fp,r2
   457e0:	01dffc34 	movhi	r7,32752
   457e4:	01bfffc4 	movi	r6,-1
   457e8:	39ffffc4 	addi	r7,r7,-1
   457ec:	b809883a 	mov	r4,r23
   457f0:	a80b883a 	mov	r5,r21
   457f4:	da800f15 	stw	r10,60(sp)
   457f8:	db000815 	stw	r12,32(sp)
   457fc:	dac00715 	stw	r11,28(sp)
   45800:	0051f680 	call	51f68 <__unorddf2>
   45804:	dac00717 	ldw	r11,28(sp)
   45808:	db000817 	ldw	r12,32(sp)
   4580c:	da800f17 	ldw	r10,60(sp)
   45810:	10045c1e 	bne	r2,zero,46984 <___vfprintf_internal_r+0x197c>
   45814:	01dffc34 	movhi	r7,32752
   45818:	01bfffc4 	movi	r6,-1
   4581c:	39ffffc4 	addi	r7,r7,-1
   45820:	b809883a 	mov	r4,r23
   45824:	a80b883a 	mov	r5,r21
   45828:	0050ccc0 	call	50ccc <__ledf2>
   4582c:	dac00717 	ldw	r11,28(sp)
   45830:	db000817 	ldw	r12,32(sp)
   45834:	da800f17 	ldw	r10,60(sp)
   45838:	0084520e 	bge	zero,r2,46984 <___vfprintf_internal_r+0x197c>
   4583c:	000d883a 	mov	r6,zero
   45840:	000f883a 	mov	r7,zero
   45844:	b809883a 	mov	r4,r23
   45848:	e00b883a 	mov	r5,fp
   4584c:	0050ccc0 	call	50ccc <__ledf2>
   45850:	dac00717 	ldw	r11,28(sp)
   45854:	db000817 	ldw	r12,32(sp)
   45858:	da800f17 	ldw	r10,60(sp)
   4585c:	10053b16 	blt	r2,zero,46d4c <___vfprintf_internal_r+0x1d44>
   45860:	ddc01643 	ldbu	r23,89(sp)
   45864:	58801210 	cmplti	r2,r11,72
   45868:	1005201e 	bne	r2,zero,46cec <___vfprintf_internal_r+0x1ce4>
   4586c:	05400174 	movhi	r21,5
   45870:	ad54d004 	addi	r21,r21,21312
   45874:	00ffdfc4 	movi	r3,-129
   45878:	60c6703a 	and	r3,r12,r3
   4587c:	dd800715 	stw	r22,28(sp)
   45880:	034000c4 	movi	r13,3
   45884:	070000c4 	movi	fp,3
   45888:	0025883a 	mov	r18,zero
   4588c:	d8000815 	stw	zero,32(sp)
   45890:	003f6a06 	br	4563c <___vfprintf_internal_r+0x634>
   45894:	d8c00717 	ldw	r3,28(sp)
   45898:	6080040c 	andi	r2,r12,16
   4589c:	1d800017 	ldw	r22,0(r3)
   458a0:	18c00104 	addi	r3,r3,4
   458a4:	d8c00715 	stw	r3,28(sp)
   458a8:	10002a1e 	bne	r2,zero,45954 <___vfprintf_internal_r+0x94c>
   458ac:	6080100c 	andi	r2,r12,64
   458b0:	10002826 	beq	r2,zero,45954 <___vfprintf_internal_r+0x94c>
   458b4:	b5bfffcc 	andi	r22,r22,65535
   458b8:	b5a0001c 	xori	r22,r22,32768
   458bc:	b5a00004 	addi	r22,r22,-32768
   458c0:	b039d7fa 	srai	fp,r22,31
   458c4:	e005883a 	mov	r2,fp
   458c8:	103f120e 	bge	r2,zero,45514 <___vfprintf_internal_r+0x50c>
   458cc:	b004c03a 	cmpne	r2,r22,zero
   458d0:	0739c83a 	sub	fp,zero,fp
   458d4:	e0b9c83a 	sub	fp,fp,r2
   458d8:	05adc83a 	sub	r22,zero,r22
   458dc:	05c00b44 	movi	r23,45
   458e0:	00800044 	movi	r2,1
   458e4:	003f2f06 	br	455a4 <___vfprintf_internal_r+0x59c>
   458e8:	d8c00717 	ldw	r3,28(sp)
   458ec:	6080040c 	andi	r2,r12,16
   458f0:	1d800017 	ldw	r22,0(r3)
   458f4:	18c00104 	addi	r3,r3,4
   458f8:	d8c00715 	stw	r3,28(sp)
   458fc:	1000031e 	bne	r2,zero,4590c <___vfprintf_internal_r+0x904>
   45900:	6080100c 	andi	r2,r12,64
   45904:	10000126 	beq	r2,zero,4590c <___vfprintf_internal_r+0x904>
   45908:	b5bfffcc 	andi	r22,r22,65535
   4590c:	0039883a 	mov	fp,zero
   45910:	00800044 	movi	r2,1
   45914:	003f2206 	br	455a0 <___vfprintf_internal_r+0x598>
   45918:	d8c00717 	ldw	r3,28(sp)
   4591c:	6080040c 	andi	r2,r12,16
   45920:	1d800017 	ldw	r22,0(r3)
   45924:	18c00104 	addi	r3,r3,4
   45928:	d8c00715 	stw	r3,28(sp)
   4592c:	1000031e 	bne	r2,zero,4593c <___vfprintf_internal_r+0x934>
   45930:	6080100c 	andi	r2,r12,64
   45934:	10000126 	beq	r2,zero,4593c <___vfprintf_internal_r+0x934>
   45938:	b5bfffcc 	andi	r22,r22,65535
   4593c:	0039883a 	mov	fp,zero
   45940:	0005883a 	mov	r2,zero
   45944:	003f1606 	br	455a0 <___vfprintf_internal_r+0x598>
   45948:	d9000517 	ldw	r4,20(sp)
   4594c:	00497140 	call	49714 <__sinit>
   45950:	003dc606 	br	4506c <___vfprintf_internal_r+0x64>
   45954:	b039d7fa 	srai	fp,r22,31
   45958:	e005883a 	mov	r2,fp
   4595c:	003eec06 	br	45510 <___vfprintf_internal_r+0x508>
   45960:	1819883a 	mov	r12,r3
   45964:	e0036d1e 	bne	fp,zero,4671c <___vfprintf_internal_r+0x1714>
   45968:	b08002a8 	cmpgeui	r2,r22,10
   4596c:	10036b1e 	bne	r2,zero,4671c <___vfprintf_internal_r+0x1714>
   45970:	b5800c04 	addi	r22,r22,48
   45974:	dd8029c5 	stb	r22,167(sp)
   45978:	6007883a 	mov	r3,r12
   4597c:	07000044 	movi	fp,1
   45980:	dd4029c4 	addi	r21,sp,167
   45984:	003f2906 	br	4562c <___vfprintf_internal_r+0x624>
   45988:	d8800717 	ldw	r2,28(sp)
   4598c:	12800017 	ldw	r10,0(r2)
   45990:	10800104 	addi	r2,r2,4
   45994:	5002ee0e 	bge	r10,zero,46550 <___vfprintf_internal_r+0x1548>
   45998:	0295c83a 	sub	r10,zero,r10
   4599c:	d8800715 	stw	r2,28(sp)
   459a0:	a2c00007 	ldb	r11,0(r20)
   459a4:	63000114 	ori	r12,r12,4
   459a8:	003de706 	br	45148 <___vfprintf_internal_r+0x140>
   459ac:	a2c00007 	ldb	r11,0(r20)
   459b0:	a0800044 	addi	r2,r20,1
   459b4:	58c00aa0 	cmpeqi	r3,r11,42
   459b8:	1806a21e 	bne	r3,zero,47444 <___vfprintf_internal_r+0x243c>
   459bc:	58fff404 	addi	r3,r11,-48
   459c0:	190002b0 	cmpltui	r4,r3,10
   459c4:	1029883a 	mov	r20,r2
   459c8:	0025883a 	mov	r18,zero
   459cc:	203ddf26 	beq	r4,zero,4514c <___vfprintf_internal_r+0x144>
   459d0:	900490ba 	slli	r2,r18,2
   459d4:	a2c00007 	ldb	r11,0(r20)
   459d8:	a5000044 	addi	r20,r20,1
   459dc:	14a5883a 	add	r18,r2,r18
   459e0:	94a5883a 	add	r18,r18,r18
   459e4:	90e5883a 	add	r18,r18,r3
   459e8:	58fff404 	addi	r3,r11,-48
   459ec:	188002b0 	cmpltui	r2,r3,10
   459f0:	103ff71e 	bne	r2,zero,459d0 <___vfprintf_internal_r+0x9c8>
   459f4:	003dd506 	br	4514c <___vfprintf_internal_r+0x144>
   459f8:	a2c00007 	ldb	r11,0(r20)
   459fc:	63002014 	ori	r12,r12,128
   45a00:	003dd106 	br	45148 <___vfprintf_internal_r+0x140>
   45a04:	00800ac4 	movi	r2,43
   45a08:	a2c00007 	ldb	r11,0(r20)
   45a0c:	d8801645 	stb	r2,89(sp)
   45a10:	003dcd06 	br	45148 <___vfprintf_internal_r+0x140>
   45a14:	a2c00007 	ldb	r11,0(r20)
   45a18:	63000054 	ori	r12,r12,1
   45a1c:	003dca06 	br	45148 <___vfprintf_internal_r+0x140>
   45a20:	d8801647 	ldb	r2,89(sp)
   45a24:	a2c00003 	ldbu	r11,0(r20)
   45a28:	10000c1e 	bne	r2,zero,45a5c <___vfprintf_internal_r+0xa54>
   45a2c:	5ac03fcc 	andi	r11,r11,255
   45a30:	00800804 	movi	r2,32
   45a34:	5ac0201c 	xori	r11,r11,128
   45a38:	d8801645 	stb	r2,89(sp)
   45a3c:	5affe004 	addi	r11,r11,-128
   45a40:	003dc106 	br	45148 <___vfprintf_internal_r+0x140>
   45a44:	a2c00007 	ldb	r11,0(r20)
   45a48:	58801b18 	cmpnei	r2,r11,108
   45a4c:	1002be1e 	bne	r2,zero,46548 <___vfprintf_internal_r+0x1540>
   45a50:	a2c00043 	ldbu	r11,1(r20)
   45a54:	63000814 	ori	r12,r12,32
   45a58:	a5000044 	addi	r20,r20,1
   45a5c:	5ac03fcc 	andi	r11,r11,255
   45a60:	5ac0201c 	xori	r11,r11,128
   45a64:	5affe004 	addi	r11,r11,-128
   45a68:	003db706 	br	45148 <___vfprintf_internal_r+0x140>
   45a6c:	a2c00007 	ldb	r11,0(r20)
   45a70:	63000214 	ori	r12,r12,8
   45a74:	003db406 	br	45148 <___vfprintf_internal_r+0x140>
   45a78:	a2c00007 	ldb	r11,0(r20)
   45a7c:	63001014 	ori	r12,r12,64
   45a80:	003db106 	br	45148 <___vfprintf_internal_r+0x140>
   45a84:	d8c00717 	ldw	r3,28(sp)
   45a88:	d8001645 	stb	zero,89(sp)
   45a8c:	03400044 	movi	r13,1
   45a90:	18800017 	ldw	r2,0(r3)
   45a94:	18c00104 	addi	r3,r3,4
   45a98:	d8c00715 	stw	r3,28(sp)
   45a9c:	d8802005 	stb	r2,128(sp)
   45aa0:	07000044 	movi	fp,1
   45aa4:	dd402004 	addi	r21,sp,128
   45aa8:	003e1d06 	br	45320 <___vfprintf_internal_r+0x318>
   45aac:	d8800717 	ldw	r2,28(sp)
   45ab0:	d8001645 	stb	zero,89(sp)
   45ab4:	15400017 	ldw	r21,0(r2)
   45ab8:	15800104 	addi	r22,r2,4
   45abc:	a802e726 	beq	r21,zero,4665c <___vfprintf_internal_r+0x1654>
   45ac0:	90bfffe0 	cmpeqi	r2,r18,-1
   45ac4:	10047d1e 	bne	r2,zero,46cbc <___vfprintf_internal_r+0x1cb4>
   45ac8:	900d883a 	mov	r6,r18
   45acc:	000b883a 	mov	r5,zero
   45ad0:	a809883a 	mov	r4,r21
   45ad4:	da800f15 	stw	r10,60(sp)
   45ad8:	db000815 	stw	r12,32(sp)
   45adc:	dac00715 	stw	r11,28(sp)
   45ae0:	0049f140 	call	49f14 <memchr>
   45ae4:	dac00717 	ldw	r11,28(sp)
   45ae8:	db000817 	ldw	r12,32(sp)
   45aec:	da800f17 	ldw	r10,60(sp)
   45af0:	1005ca26 	beq	r2,zero,4721c <___vfprintf_internal_r+0x2214>
   45af4:	1579c83a 	sub	fp,r2,r21
   45af8:	e01b883a 	mov	r13,fp
   45afc:	dd800715 	stw	r22,28(sp)
   45b00:	003e0706 	br	45320 <___vfprintf_internal_r+0x318>
   45b04:	a2c00007 	ldb	r11,0(r20)
   45b08:	63000814 	ori	r12,r12,32
   45b0c:	003d8e06 	br	45148 <___vfprintf_internal_r+0x140>
   45b10:	d8c00717 	ldw	r3,28(sp)
   45b14:	009e0c04 	movi	r2,30768
   45b18:	01000174 	movhi	r4,5
   45b1c:	d880168d 	sth	r2,90(sp)
   45b20:	18800104 	addi	r2,r3,4
   45b24:	d8800715 	stw	r2,28(sp)
   45b28:	2094d804 	addi	r2,r4,21344
   45b2c:	d8800e15 	stw	r2,56(sp)
   45b30:	1d800017 	ldw	r22,0(r3)
   45b34:	0039883a 	mov	fp,zero
   45b38:	63000094 	ori	r12,r12,2
   45b3c:	00800084 	movi	r2,2
   45b40:	02c01e04 	movi	r11,120
   45b44:	003e9606 	br	455a0 <___vfprintf_internal_r+0x598>
   45b48:	6080080c 	andi	r2,r12,32
   45b4c:	10028a26 	beq	r2,zero,46578 <___vfprintf_internal_r+0x1570>
   45b50:	d9000617 	ldw	r4,24(sp)
   45b54:	d8800717 	ldw	r2,28(sp)
   45b58:	2007d7fa 	srai	r3,r4,31
   45b5c:	10800017 	ldw	r2,0(r2)
   45b60:	11000015 	stw	r4,0(r2)
   45b64:	10c00115 	stw	r3,4(r2)
   45b68:	d8800717 	ldw	r2,28(sp)
   45b6c:	10800104 	addi	r2,r2,4
   45b70:	d8800715 	stw	r2,28(sp)
   45b74:	003d5e06 	br	450f0 <___vfprintf_internal_r+0xe8>
   45b78:	5ac01990 	cmplti	r11,r11,102
   45b7c:	5800e91e 	bne	r11,zero,45f24 <___vfprintf_internal_r+0xf1c>
   45b80:	d9000a17 	ldw	r4,40(sp)
   45b84:	d9400b17 	ldw	r5,44(sp)
   45b88:	000d883a 	mov	r6,zero
   45b8c:	000f883a 	mov	r7,zero
   45b90:	db401115 	stw	r13,68(sp)
   45b94:	da801015 	stw	r10,64(sp)
   45b98:	d8c00f15 	stw	r3,60(sp)
   45b9c:	0050b3c0 	call	50b3c <__eqdf2>
   45ba0:	d8c00f17 	ldw	r3,60(sp)
   45ba4:	da801017 	ldw	r10,64(sp)
   45ba8:	db401117 	ldw	r13,68(sp)
   45bac:	1001a21e 	bne	r2,zero,46238 <___vfprintf_internal_r+0x1230>
   45bb0:	d8801e17 	ldw	r2,120(sp)
   45bb4:	01000174 	movhi	r4,5
   45bb8:	2114df04 	addi	r4,r4,21372
   45bbc:	10800044 	addi	r2,r2,1
   45bc0:	b5800044 	addi	r22,r22,1
   45bc4:	81000015 	stw	r4,0(r16)
   45bc8:	01000044 	movi	r4,1
   45bcc:	d8801e15 	stw	r2,120(sp)
   45bd0:	81000115 	stw	r4,4(r16)
   45bd4:	dd801f15 	stw	r22,124(sp)
   45bd8:	10800208 	cmpgei	r2,r2,8
   45bdc:	1003ce1e 	bne	r2,zero,46b18 <___vfprintf_internal_r+0x1b10>
   45be0:	84000204 	addi	r16,r16,8
   45be4:	d8801717 	ldw	r2,92(sp)
   45be8:	d9000917 	ldw	r4,36(sp)
   45bec:	11000416 	blt	r2,r4,45c00 <___vfprintf_internal_r+0xbf8>
   45bf0:	1880004c 	andi	r2,r3,1
   45bf4:	1000021e 	bne	r2,zero,45c00 <___vfprintf_internal_r+0xbf8>
   45bf8:	b009883a 	mov	r4,r22
   45bfc:	003dfe06 	br	453f8 <___vfprintf_internal_r+0x3f0>
   45c00:	d8800d17 	ldw	r2,52(sp)
   45c04:	d9400c17 	ldw	r5,48(sp)
   45c08:	80800015 	stw	r2,0(r16)
   45c0c:	d8801e17 	ldw	r2,120(sp)
   45c10:	2d89883a 	add	r4,r5,r22
   45c14:	81400115 	stw	r5,4(r16)
   45c18:	10800044 	addi	r2,r2,1
   45c1c:	d8801e15 	stw	r2,120(sp)
   45c20:	d9001f15 	stw	r4,124(sp)
   45c24:	10800208 	cmpgei	r2,r2,8
   45c28:	10026a1e 	bne	r2,zero,465d4 <___vfprintf_internal_r+0x15cc>
   45c2c:	84000204 	addi	r16,r16,8
   45c30:	d8800917 	ldw	r2,36(sp)
   45c34:	14bfffc4 	addi	r18,r2,-1
   45c38:	04bdef0e 	bge	zero,r18,453f8 <___vfprintf_internal_r+0x3f0>
   45c3c:	05800174 	movhi	r22,5
   45c40:	91400450 	cmplti	r5,r18,17
   45c44:	d8801e17 	ldw	r2,120(sp)
   45c48:	b594e804 	addi	r22,r22,21408
   45c4c:	28013e1e 	bne	r5,zero,46148 <___vfprintf_internal_r+0x1140>
   45c50:	800b883a 	mov	r5,r16
   45c54:	9039883a 	mov	fp,r18
   45c58:	1821883a 	mov	r16,r3
   45c5c:	b02b883a 	mov	r21,r22
   45c60:	05c00404 	movi	r23,16
   45c64:	982d883a 	mov	r22,r19
   45c68:	5025883a 	mov	r18,r10
   45c6c:	6827883a 	mov	r19,r13
   45c70:	2807883a 	mov	r3,r5
   45c74:	00000406 	br	45c88 <___vfprintf_internal_r+0xc80>
   45c78:	18c00204 	addi	r3,r3,8
   45c7c:	e73ffc04 	addi	fp,fp,-16
   45c80:	e1400448 	cmpgei	r5,fp,17
   45c84:	28012826 	beq	r5,zero,46128 <___vfprintf_internal_r+0x1120>
   45c88:	10800044 	addi	r2,r2,1
   45c8c:	21000404 	addi	r4,r4,16
   45c90:	1d400015 	stw	r21,0(r3)
   45c94:	1dc00115 	stw	r23,4(r3)
   45c98:	d9001f15 	stw	r4,124(sp)
   45c9c:	d8801e15 	stw	r2,120(sp)
   45ca0:	11400208 	cmpgei	r5,r2,8
   45ca4:	283ff426 	beq	r5,zero,45c78 <___vfprintf_internal_r+0xc70>
   45ca8:	d9400417 	ldw	r5,16(sp)
   45cac:	d9000517 	ldw	r4,20(sp)
   45cb0:	d9801d04 	addi	r6,sp,116
   45cb4:	004c68c0 	call	4c68c <__sprint_r>
   45cb8:	103ddf1e 	bne	r2,zero,45438 <___vfprintf_internal_r+0x430>
   45cbc:	d9001f17 	ldw	r4,124(sp)
   45cc0:	d8801e17 	ldw	r2,120(sp)
   45cc4:	8807883a 	mov	r3,r17
   45cc8:	003fec06 	br	45c7c <___vfprintf_internal_r+0xc74>
   45ccc:	536fc83a 	sub	r23,r10,r13
   45cd0:	05fdbb0e 	bge	zero,r23,453c0 <___vfprintf_internal_r+0x3b8>
   45cd4:	b009883a 	mov	r4,r22
   45cd8:	b9400450 	cmplti	r5,r23,17
   45cdc:	05800174 	movhi	r22,5
   45ce0:	d8801e17 	ldw	r2,120(sp)
   45ce4:	b594e804 	addi	r22,r22,21408
   45ce8:	28002e1e 	bne	r5,zero,45da4 <___vfprintf_internal_r+0xd9c>
   45cec:	d8c01015 	stw	r3,64(sp)
   45cf0:	03000404 	movi	r12,16
   45cf4:	8007883a 	mov	r3,r16
   45cf8:	dac00f15 	stw	r11,60(sp)
   45cfc:	b821883a 	mov	r16,r23
   45d00:	da801115 	stw	r10,68(sp)
   45d04:	982f883a 	mov	r23,r19
   45d08:	9027883a 	mov	r19,r18
   45d0c:	b025883a 	mov	r18,r22
   45d10:	a02d883a 	mov	r22,r20
   45d14:	6829883a 	mov	r20,r13
   45d18:	00000406 	br	45d2c <___vfprintf_internal_r+0xd24>
   45d1c:	843ffc04 	addi	r16,r16,-16
   45d20:	81400448 	cmpgei	r5,r16,17
   45d24:	18c00204 	addi	r3,r3,8
   45d28:	28001426 	beq	r5,zero,45d7c <___vfprintf_internal_r+0xd74>
   45d2c:	10800044 	addi	r2,r2,1
   45d30:	21000404 	addi	r4,r4,16
   45d34:	1c800015 	stw	r18,0(r3)
   45d38:	1b000115 	stw	r12,4(r3)
   45d3c:	d9001f15 	stw	r4,124(sp)
   45d40:	d8801e15 	stw	r2,120(sp)
   45d44:	11400208 	cmpgei	r5,r2,8
   45d48:	283ff426 	beq	r5,zero,45d1c <___vfprintf_internal_r+0xd14>
   45d4c:	d9400417 	ldw	r5,16(sp)
   45d50:	d9000517 	ldw	r4,20(sp)
   45d54:	d9801d04 	addi	r6,sp,116
   45d58:	004c68c0 	call	4c68c <__sprint_r>
   45d5c:	103db61e 	bne	r2,zero,45438 <___vfprintf_internal_r+0x430>
   45d60:	843ffc04 	addi	r16,r16,-16
   45d64:	81400448 	cmpgei	r5,r16,17
   45d68:	d9001f17 	ldw	r4,124(sp)
   45d6c:	d8801e17 	ldw	r2,120(sp)
   45d70:	8807883a 	mov	r3,r17
   45d74:	03000404 	movi	r12,16
   45d78:	283fec1e 	bne	r5,zero,45d2c <___vfprintf_internal_r+0xd24>
   45d7c:	a01b883a 	mov	r13,r20
   45d80:	dac00f17 	ldw	r11,60(sp)
   45d84:	b029883a 	mov	r20,r22
   45d88:	da801117 	ldw	r10,68(sp)
   45d8c:	902d883a 	mov	r22,r18
   45d90:	9825883a 	mov	r18,r19
   45d94:	b827883a 	mov	r19,r23
   45d98:	802f883a 	mov	r23,r16
   45d9c:	1821883a 	mov	r16,r3
   45da0:	d8c01017 	ldw	r3,64(sp)
   45da4:	10800044 	addi	r2,r2,1
   45da8:	b909883a 	add	r4,r23,r4
   45dac:	d8801e15 	stw	r2,120(sp)
   45db0:	85800015 	stw	r22,0(r16)
   45db4:	85c00115 	stw	r23,4(r16)
   45db8:	d9001f15 	stw	r4,124(sp)
   45dbc:	10800208 	cmpgei	r2,r2,8
   45dc0:	1003721e 	bne	r2,zero,46b8c <___vfprintf_internal_r+0x1b84>
   45dc4:	9725c83a 	sub	r18,r18,fp
   45dc8:	84000204 	addi	r16,r16,8
   45dcc:	202d883a 	mov	r22,r4
   45dd0:	04bd7d0e 	bge	zero,r18,453c8 <___vfprintf_internal_r+0x3c0>
   45dd4:	91400450 	cmplti	r5,r18,17
   45dd8:	d8801e17 	ldw	r2,120(sp)
   45ddc:	b009883a 	mov	r4,r22
   45de0:	2803c51e 	bne	r5,zero,46cf8 <___vfprintf_internal_r+0x1cf0>
   45de4:	982d883a 	mov	r22,r19
   45de8:	d8c01015 	stw	r3,64(sp)
   45dec:	05c00404 	movi	r23,16
   45df0:	8007883a 	mov	r3,r16
   45df4:	dac00f15 	stw	r11,60(sp)
   45df8:	9021883a 	mov	r16,r18
   45dfc:	da801115 	stw	r10,68(sp)
   45e00:	9825883a 	mov	r18,r19
   45e04:	6827883a 	mov	r19,r13
   45e08:	00000406 	br	45e1c <___vfprintf_internal_r+0xe14>
   45e0c:	843ffc04 	addi	r16,r16,-16
   45e10:	81400448 	cmpgei	r5,r16,17
   45e14:	18c00204 	addi	r3,r3,8
   45e18:	28001326 	beq	r5,zero,45e68 <___vfprintf_internal_r+0xe60>
   45e1c:	10800044 	addi	r2,r2,1
   45e20:	21000404 	addi	r4,r4,16
   45e24:	1c800015 	stw	r18,0(r3)
   45e28:	1dc00115 	stw	r23,4(r3)
   45e2c:	d9001f15 	stw	r4,124(sp)
   45e30:	d8801e15 	stw	r2,120(sp)
   45e34:	11400208 	cmpgei	r5,r2,8
   45e38:	283ff426 	beq	r5,zero,45e0c <___vfprintf_internal_r+0xe04>
   45e3c:	d9400417 	ldw	r5,16(sp)
   45e40:	d9000517 	ldw	r4,20(sp)
   45e44:	d9801d04 	addi	r6,sp,116
   45e48:	004c68c0 	call	4c68c <__sprint_r>
   45e4c:	103d7a1e 	bne	r2,zero,45438 <___vfprintf_internal_r+0x430>
   45e50:	843ffc04 	addi	r16,r16,-16
   45e54:	81400448 	cmpgei	r5,r16,17
   45e58:	d9001f17 	ldw	r4,124(sp)
   45e5c:	d8801e17 	ldw	r2,120(sp)
   45e60:	8807883a 	mov	r3,r17
   45e64:	283fed1e 	bne	r5,zero,45e1c <___vfprintf_internal_r+0xe14>
   45e68:	981b883a 	mov	r13,r19
   45e6c:	dac00f17 	ldw	r11,60(sp)
   45e70:	9027883a 	mov	r19,r18
   45e74:	da801117 	ldw	r10,68(sp)
   45e78:	8025883a 	mov	r18,r16
   45e7c:	1821883a 	mov	r16,r3
   45e80:	d8c01017 	ldw	r3,64(sp)
   45e84:	10800044 	addi	r2,r2,1
   45e88:	9109883a 	add	r4,r18,r4
   45e8c:	d8801e15 	stw	r2,120(sp)
   45e90:	85800015 	stw	r22,0(r16)
   45e94:	84800115 	stw	r18,4(r16)
   45e98:	d9001f15 	stw	r4,124(sp)
   45e9c:	10800208 	cmpgei	r2,r2,8
   45ea0:	10018b1e 	bne	r2,zero,464d0 <___vfprintf_internal_r+0x14c8>
   45ea4:	84000204 	addi	r16,r16,8
   45ea8:	202d883a 	mov	r22,r4
   45eac:	003d4606 	br	453c8 <___vfprintf_internal_r+0x3c0>
   45eb0:	11000060 	cmpeqi	r4,r2,1
   45eb4:	1819883a 	mov	r12,r3
   45eb8:	002d883a 	mov	r22,zero
   45ebc:	203eac1e 	bne	r4,zero,45970 <___vfprintf_internal_r+0x968>
   45ec0:	108000a0 	cmpeqi	r2,r2,2
   45ec4:	0039883a 	mov	fp,zero
   45ec8:	103dc226 	beq	r2,zero,455d4 <___vfprintf_internal_r+0x5cc>
   45ecc:	d9000e17 	ldw	r4,56(sp)
   45ed0:	882b883a 	mov	r21,r17
   45ed4:	b08003cc 	andi	r2,r22,15
   45ed8:	e006973a 	slli	r3,fp,28
   45edc:	b02cd13a 	srli	r22,r22,4
   45ee0:	2085883a 	add	r2,r4,r2
   45ee4:	10800003 	ldbu	r2,0(r2)
   45ee8:	e038d13a 	srli	fp,fp,4
   45eec:	1dacb03a 	or	r22,r3,r22
   45ef0:	a8bfffc5 	stb	r2,-1(r21)
   45ef4:	b704b03a 	or	r2,r22,fp
   45ef8:	ad7fffc4 	addi	r21,r21,-1
   45efc:	103ff51e 	bne	r2,zero,45ed4 <___vfprintf_internal_r+0xecc>
   45f00:	8d79c83a 	sub	fp,r17,r21
   45f04:	6007883a 	mov	r3,r12
   45f08:	003dc806 	br	4562c <___vfprintf_internal_r+0x624>
   45f0c:	d9400417 	ldw	r5,16(sp)
   45f10:	d9000517 	ldw	r4,20(sp)
   45f14:	d9801d04 	addi	r6,sp,116
   45f18:	004c68c0 	call	4c68c <__sprint_r>
   45f1c:	103d4026 	beq	r2,zero,45420 <___vfprintf_internal_r+0x418>
   45f20:	003d4506 	br	45438 <___vfprintf_internal_r+0x430>
   45f24:	d8800917 	ldw	r2,36(sp)
   45f28:	84800204 	addi	r18,r16,8
   45f2c:	10800088 	cmpgei	r2,r2,2
   45f30:	10012126 	beq	r2,zero,463b8 <___vfprintf_internal_r+0x13b0>
   45f34:	df001e17 	ldw	fp,120(sp)
   45f38:	00800044 	movi	r2,1
   45f3c:	b5800044 	addi	r22,r22,1
   45f40:	e7000044 	addi	fp,fp,1
   45f44:	80800115 	stw	r2,4(r16)
   45f48:	85400015 	stw	r21,0(r16)
   45f4c:	dd801f15 	stw	r22,124(sp)
   45f50:	df001e15 	stw	fp,120(sp)
   45f54:	e0800210 	cmplti	r2,fp,8
   45f58:	10023126 	beq	r2,zero,46820 <___vfprintf_internal_r+0x1818>
   45f5c:	d8800c17 	ldw	r2,48(sp)
   45f60:	d9000d17 	ldw	r4,52(sp)
   45f64:	e7000044 	addi	fp,fp,1
   45f68:	15af883a 	add	r23,r2,r22
   45f6c:	90800115 	stw	r2,4(r18)
   45f70:	91000015 	stw	r4,0(r18)
   45f74:	ddc01f15 	stw	r23,124(sp)
   45f78:	df001e15 	stw	fp,120(sp)
   45f7c:	e0800208 	cmpgei	r2,fp,8
   45f80:	1002361e 	bne	r2,zero,4685c <___vfprintf_internal_r+0x1854>
   45f84:	94800204 	addi	r18,r18,8
   45f88:	d9000a17 	ldw	r4,40(sp)
   45f8c:	d9400b17 	ldw	r5,44(sp)
   45f90:	000d883a 	mov	r6,zero
   45f94:	000f883a 	mov	r7,zero
   45f98:	db401015 	stw	r13,64(sp)
   45f9c:	da800f15 	stw	r10,60(sp)
   45fa0:	d8c00815 	stw	r3,32(sp)
   45fa4:	0050b3c0 	call	50b3c <__eqdf2>
   45fa8:	d8c00917 	ldw	r3,36(sp)
   45fac:	da800f17 	ldw	r10,60(sp)
   45fb0:	db401017 	ldw	r13,64(sp)
   45fb4:	1c3fffc4 	addi	r16,r3,-1
   45fb8:	d8c00817 	ldw	r3,32(sp)
   45fbc:	10011c26 	beq	r2,zero,46430 <___vfprintf_internal_r+0x1428>
   45fc0:	aa000044 	addi	r8,r21,1
   45fc4:	e7000044 	addi	fp,fp,1
   45fc8:	bc2f883a 	add	r23,r23,r16
   45fcc:	92000015 	stw	r8,0(r18)
   45fd0:	94000115 	stw	r16,4(r18)
   45fd4:	ddc01f15 	stw	r23,124(sp)
   45fd8:	df001e15 	stw	fp,120(sp)
   45fdc:	e0800208 	cmpgei	r2,fp,8
   45fe0:	1002db1e 	bne	r2,zero,46b50 <___vfprintf_internal_r+0x1b48>
   45fe4:	94800204 	addi	r18,r18,8
   45fe8:	d9401217 	ldw	r5,72(sp)
   45fec:	e7000044 	addi	fp,fp,1
   45ff0:	d8801904 	addi	r2,sp,100
   45ff4:	2dc9883a 	add	r4,r5,r23
   45ff8:	df001e15 	stw	fp,120(sp)
   45ffc:	90800015 	stw	r2,0(r18)
   46000:	91400115 	stw	r5,4(r18)
   46004:	d9001f15 	stw	r4,124(sp)
   46008:	e7000208 	cmpgei	fp,fp,8
   4600c:	e001401e 	bne	fp,zero,46510 <___vfprintf_internal_r+0x1508>
   46010:	94000204 	addi	r16,r18,8
   46014:	003cf806 	br	453f8 <___vfprintf_internal_r+0x3f0>
   46018:	05c00174 	movhi	r23,5
   4601c:	b1400450 	cmplti	r5,r22,17
   46020:	d9001f17 	ldw	r4,124(sp)
   46024:	d8801e17 	ldw	r2,120(sp)
   46028:	bdd4ec04 	addi	r23,r23,21424
   4602c:	2800341e 	bne	r5,zero,46100 <___vfprintf_internal_r+0x10f8>
   46030:	980b883a 	mov	r5,r19
   46034:	d8c01315 	stw	r3,76(sp)
   46038:	9027883a 	mov	r19,r18
   4603c:	8007883a 	mov	r3,r16
   46040:	b825883a 	mov	r18,r23
   46044:	b021883a 	mov	r16,r22
   46048:	03c00404 	movi	r15,16
   4604c:	a02d883a 	mov	r22,r20
   46050:	db800f15 	stw	r14,60(sp)
   46054:	db001015 	stw	r12,64(sp)
   46058:	dac01115 	stw	r11,68(sp)
   4605c:	da801415 	stw	r10,80(sp)
   46060:	6829883a 	mov	r20,r13
   46064:	282f883a 	mov	r23,r5
   46068:	00000406 	br	4607c <___vfprintf_internal_r+0x1074>
   4606c:	843ffc04 	addi	r16,r16,-16
   46070:	81400448 	cmpgei	r5,r16,17
   46074:	18c00204 	addi	r3,r3,8
   46078:	28001426 	beq	r5,zero,460cc <___vfprintf_internal_r+0x10c4>
   4607c:	10800044 	addi	r2,r2,1
   46080:	21000404 	addi	r4,r4,16
   46084:	1c800015 	stw	r18,0(r3)
   46088:	1bc00115 	stw	r15,4(r3)
   4608c:	d9001f15 	stw	r4,124(sp)
   46090:	d8801e15 	stw	r2,120(sp)
   46094:	11400208 	cmpgei	r5,r2,8
   46098:	283ff426 	beq	r5,zero,4606c <___vfprintf_internal_r+0x1064>
   4609c:	d9400417 	ldw	r5,16(sp)
   460a0:	d9000517 	ldw	r4,20(sp)
   460a4:	d9801d04 	addi	r6,sp,116
   460a8:	004c68c0 	call	4c68c <__sprint_r>
   460ac:	103ce21e 	bne	r2,zero,45438 <___vfprintf_internal_r+0x430>
   460b0:	843ffc04 	addi	r16,r16,-16
   460b4:	81400448 	cmpgei	r5,r16,17
   460b8:	d9001f17 	ldw	r4,124(sp)
   460bc:	d8801e17 	ldw	r2,120(sp)
   460c0:	8807883a 	mov	r3,r17
   460c4:	03c00404 	movi	r15,16
   460c8:	283fec1e 	bne	r5,zero,4607c <___vfprintf_internal_r+0x1074>
   460cc:	a01b883a 	mov	r13,r20
   460d0:	db800f17 	ldw	r14,60(sp)
   460d4:	b029883a 	mov	r20,r22
   460d8:	db001017 	ldw	r12,64(sp)
   460dc:	802d883a 	mov	r22,r16
   460e0:	dac01117 	ldw	r11,68(sp)
   460e4:	1821883a 	mov	r16,r3
   460e8:	da801417 	ldw	r10,80(sp)
   460ec:	d8c01317 	ldw	r3,76(sp)
   460f0:	b80b883a 	mov	r5,r23
   460f4:	902f883a 	mov	r23,r18
   460f8:	9825883a 	mov	r18,r19
   460fc:	2827883a 	mov	r19,r5
   46100:	10800044 	addi	r2,r2,1
   46104:	b109883a 	add	r4,r22,r4
   46108:	d8801e15 	stw	r2,120(sp)
   4610c:	85c00015 	stw	r23,0(r16)
   46110:	85800115 	stw	r22,4(r16)
   46114:	d9001f15 	stw	r4,124(sp)
   46118:	10800208 	cmpgei	r2,r2,8
   4611c:	1001de1e 	bne	r2,zero,46898 <___vfprintf_internal_r+0x1890>
   46120:	84000204 	addi	r16,r16,8
   46124:	003c8806 	br	45348 <___vfprintf_internal_r+0x340>
   46128:	180b883a 	mov	r5,r3
   4612c:	9015883a 	mov	r10,r18
   46130:	8007883a 	mov	r3,r16
   46134:	981b883a 	mov	r13,r19
   46138:	e025883a 	mov	r18,fp
   4613c:	b027883a 	mov	r19,r22
   46140:	2821883a 	mov	r16,r5
   46144:	a82d883a 	mov	r22,r21
   46148:	10800044 	addi	r2,r2,1
   4614c:	85800015 	stw	r22,0(r16)
   46150:	84800115 	stw	r18,4(r16)
   46154:	2489883a 	add	r4,r4,r18
   46158:	d8801e15 	stw	r2,120(sp)
   4615c:	d9001f15 	stw	r4,124(sp)
   46160:	10800208 	cmpgei	r2,r2,8
   46164:	103ca326 	beq	r2,zero,453f4 <___vfprintf_internal_r+0x3ec>
   46168:	d9400417 	ldw	r5,16(sp)
   4616c:	d9000517 	ldw	r4,20(sp)
   46170:	d9801d04 	addi	r6,sp,116
   46174:	db401015 	stw	r13,64(sp)
   46178:	da800f15 	stw	r10,60(sp)
   4617c:	d8c00815 	stw	r3,32(sp)
   46180:	004c68c0 	call	4c68c <__sprint_r>
   46184:	103cac1e 	bne	r2,zero,45438 <___vfprintf_internal_r+0x430>
   46188:	d9001f17 	ldw	r4,124(sp)
   4618c:	d8c00817 	ldw	r3,32(sp)
   46190:	da800f17 	ldw	r10,60(sp)
   46194:	db401017 	ldw	r13,64(sp)
   46198:	8821883a 	mov	r16,r17
   4619c:	003c9606 	br	453f8 <___vfprintf_internal_r+0x3f0>
   461a0:	d9400417 	ldw	r5,16(sp)
   461a4:	d9000517 	ldw	r4,20(sp)
   461a8:	d9801d04 	addi	r6,sp,116
   461ac:	db401515 	stw	r13,84(sp)
   461b0:	da801415 	stw	r10,80(sp)
   461b4:	d8c01315 	stw	r3,76(sp)
   461b8:	dac01115 	stw	r11,68(sp)
   461bc:	db001015 	stw	r12,64(sp)
   461c0:	db800f15 	stw	r14,60(sp)
   461c4:	004c68c0 	call	4c68c <__sprint_r>
   461c8:	103c9b1e 	bne	r2,zero,45438 <___vfprintf_internal_r+0x430>
   461cc:	dd801f17 	ldw	r22,124(sp)
   461d0:	db401517 	ldw	r13,84(sp)
   461d4:	da801417 	ldw	r10,80(sp)
   461d8:	d8c01317 	ldw	r3,76(sp)
   461dc:	dac01117 	ldw	r11,68(sp)
   461e0:	db001017 	ldw	r12,64(sp)
   461e4:	db800f17 	ldw	r14,60(sp)
   461e8:	8821883a 	mov	r16,r17
   461ec:	003c6506 	br	45384 <___vfprintf_internal_r+0x37c>
   461f0:	d9400417 	ldw	r5,16(sp)
   461f4:	d9000517 	ldw	r4,20(sp)
   461f8:	d9801d04 	addi	r6,sp,116
   461fc:	db401415 	stw	r13,80(sp)
   46200:	da801315 	stw	r10,76(sp)
   46204:	d8c01115 	stw	r3,68(sp)
   46208:	dac01015 	stw	r11,64(sp)
   4620c:	db000f15 	stw	r12,60(sp)
   46210:	004c68c0 	call	4c68c <__sprint_r>
   46214:	103c881e 	bne	r2,zero,45438 <___vfprintf_internal_r+0x430>
   46218:	dd801f17 	ldw	r22,124(sp)
   4621c:	db401417 	ldw	r13,80(sp)
   46220:	da801317 	ldw	r10,76(sp)
   46224:	d8c01117 	ldw	r3,68(sp)
   46228:	dac01017 	ldw	r11,64(sp)
   4622c:	db000f17 	ldw	r12,60(sp)
   46230:	8821883a 	mov	r16,r17
   46234:	003c6006 	br	453b8 <___vfprintf_internal_r+0x3b0>
   46238:	dc801717 	ldw	r18,92(sp)
   4623c:	0481a90e 	bge	zero,r18,468e4 <___vfprintf_internal_r+0x18dc>
   46240:	d8800917 	ldw	r2,36(sp)
   46244:	d9000817 	ldw	r4,32(sp)
   46248:	1025883a 	mov	r18,r2
   4624c:	2080d316 	blt	r4,r2,4659c <___vfprintf_internal_r+0x1594>
   46250:	04800a0e 	bge	zero,r18,4627c <___vfprintf_internal_r+0x1274>
   46254:	d8801e17 	ldw	r2,120(sp)
   46258:	b4ad883a 	add	r22,r22,r18
   4625c:	85400015 	stw	r21,0(r16)
   46260:	10800044 	addi	r2,r2,1
   46264:	d8801e15 	stw	r2,120(sp)
   46268:	84800115 	stw	r18,4(r16)
   4626c:	dd801f15 	stw	r22,124(sp)
   46270:	10800208 	cmpgei	r2,r2,8
   46274:	1003b61e 	bne	r2,zero,47150 <___vfprintf_internal_r+0x2148>
   46278:	84000204 	addi	r16,r16,8
   4627c:	9000d316 	blt	r18,zero,465cc <___vfprintf_internal_r+0x15c4>
   46280:	d8800817 	ldw	r2,32(sp)
   46284:	14a5c83a 	sub	r18,r2,r18
   46288:	04810016 	blt	zero,r18,4668c <___vfprintf_internal_r+0x1684>
   4628c:	dc801717 	ldw	r18,92(sp)
   46290:	d9000917 	ldw	r4,36(sp)
   46294:	9100c40e 	bge	r18,r4,465a8 <___vfprintf_internal_r+0x15a0>
   46298:	d8800d17 	ldw	r2,52(sp)
   4629c:	d9400c17 	ldw	r5,48(sp)
   462a0:	80800015 	stw	r2,0(r16)
   462a4:	d8801e17 	ldw	r2,120(sp)
   462a8:	2d89883a 	add	r4,r5,r22
   462ac:	81400115 	stw	r5,4(r16)
   462b0:	10800044 	addi	r2,r2,1
   462b4:	d8801e15 	stw	r2,120(sp)
   462b8:	d9001f15 	stw	r4,124(sp)
   462bc:	10800208 	cmpgei	r2,r2,8
   462c0:	1003891e 	bne	r2,zero,470e8 <___vfprintf_internal_r+0x20e0>
   462c4:	84000204 	addi	r16,r16,8
   462c8:	d8800917 	ldw	r2,36(sp)
   462cc:	d9400817 	ldw	r5,32(sp)
   462d0:	14a5c83a 	sub	r18,r2,r18
   462d4:	116fc83a 	sub	r23,r2,r5
   462d8:	95c0010e 	bge	r18,r23,462e0 <___vfprintf_internal_r+0x12d8>
   462dc:	902f883a 	mov	r23,r18
   462e0:	05c00c0e 	bge	zero,r23,46314 <___vfprintf_internal_r+0x130c>
   462e4:	d8800817 	ldw	r2,32(sp)
   462e8:	25c9883a 	add	r4,r4,r23
   462ec:	85c00115 	stw	r23,4(r16)
   462f0:	a891883a 	add	r8,r21,r2
   462f4:	d8801e17 	ldw	r2,120(sp)
   462f8:	82000015 	stw	r8,0(r16)
   462fc:	d9001f15 	stw	r4,124(sp)
   46300:	10800044 	addi	r2,r2,1
   46304:	d8801e15 	stw	r2,120(sp)
   46308:	10800208 	cmpgei	r2,r2,8
   4630c:	1003a11e 	bne	r2,zero,47194 <___vfprintf_internal_r+0x218c>
   46310:	84000204 	addi	r16,r16,8
   46314:	b800010e 	bge	r23,zero,4631c <___vfprintf_internal_r+0x1314>
   46318:	002f883a 	mov	r23,zero
   4631c:	95e5c83a 	sub	r18,r18,r23
   46320:	04bc350e 	bge	zero,r18,453f8 <___vfprintf_internal_r+0x3f0>
   46324:	05800174 	movhi	r22,5
   46328:	91400450 	cmplti	r5,r18,17
   4632c:	d8801e17 	ldw	r2,120(sp)
   46330:	b594e804 	addi	r22,r22,21408
   46334:	283f841e 	bne	r5,zero,46148 <___vfprintf_internal_r+0x1140>
   46338:	d8c00815 	stw	r3,32(sp)
   4633c:	dd400517 	ldw	r21,20(sp)
   46340:	8007883a 	mov	r3,r16
   46344:	df000417 	ldw	fp,16(sp)
   46348:	9021883a 	mov	r16,r18
   4634c:	05c00404 	movi	r23,16
   46350:	b025883a 	mov	r18,r22
   46354:	da800f15 	stw	r10,60(sp)
   46358:	982d883a 	mov	r22,r19
   4635c:	6827883a 	mov	r19,r13
   46360:	00000406 	br	46374 <___vfprintf_internal_r+0x136c>
   46364:	18c00204 	addi	r3,r3,8
   46368:	843ffc04 	addi	r16,r16,-16
   4636c:	81400448 	cmpgei	r5,r16,17
   46370:	28036c26 	beq	r5,zero,47124 <___vfprintf_internal_r+0x211c>
   46374:	10800044 	addi	r2,r2,1
   46378:	21000404 	addi	r4,r4,16
   4637c:	1c800015 	stw	r18,0(r3)
   46380:	1dc00115 	stw	r23,4(r3)
   46384:	d9001f15 	stw	r4,124(sp)
   46388:	d8801e15 	stw	r2,120(sp)
   4638c:	11400208 	cmpgei	r5,r2,8
   46390:	283ff426 	beq	r5,zero,46364 <___vfprintf_internal_r+0x135c>
   46394:	d9801d04 	addi	r6,sp,116
   46398:	e00b883a 	mov	r5,fp
   4639c:	a809883a 	mov	r4,r21
   463a0:	004c68c0 	call	4c68c <__sprint_r>
   463a4:	103c241e 	bne	r2,zero,45438 <___vfprintf_internal_r+0x430>
   463a8:	d9001f17 	ldw	r4,124(sp)
   463ac:	d8801e17 	ldw	r2,120(sp)
   463b0:	8807883a 	mov	r3,r17
   463b4:	003fec06 	br	46368 <___vfprintf_internal_r+0x1360>
   463b8:	1880004c 	andi	r2,r3,1
   463bc:	103edd1e 	bne	r2,zero,45f34 <___vfprintf_internal_r+0xf2c>
   463c0:	df001e17 	ldw	fp,120(sp)
   463c4:	00800044 	movi	r2,1
   463c8:	b5c00044 	addi	r23,r22,1
   463cc:	e7000044 	addi	fp,fp,1
   463d0:	80800115 	stw	r2,4(r16)
   463d4:	85400015 	stw	r21,0(r16)
   463d8:	ddc01f15 	stw	r23,124(sp)
   463dc:	df001e15 	stw	fp,120(sp)
   463e0:	e0800210 	cmplti	r2,fp,8
   463e4:	103f001e 	bne	r2,zero,45fe8 <___vfprintf_internal_r+0xfe0>
   463e8:	d9400417 	ldw	r5,16(sp)
   463ec:	d9000517 	ldw	r4,20(sp)
   463f0:	d9801d04 	addi	r6,sp,116
   463f4:	db401015 	stw	r13,64(sp)
   463f8:	da800f15 	stw	r10,60(sp)
   463fc:	d8c00815 	stw	r3,32(sp)
   46400:	004c68c0 	call	4c68c <__sprint_r>
   46404:	103c0c1e 	bne	r2,zero,45438 <___vfprintf_internal_r+0x430>
   46408:	ddc01f17 	ldw	r23,124(sp)
   4640c:	df001e17 	ldw	fp,120(sp)
   46410:	db401017 	ldw	r13,64(sp)
   46414:	da800f17 	ldw	r10,60(sp)
   46418:	d8c00817 	ldw	r3,32(sp)
   4641c:	8825883a 	mov	r18,r17
   46420:	003ef106 	br	45fe8 <___vfprintf_internal_r+0xfe0>
   46424:	0039883a 	mov	fp,zero
   46428:	882b883a 	mov	r21,r17
   4642c:	003c7f06 	br	4562c <___vfprintf_internal_r+0x624>
   46430:	d8800917 	ldw	r2,36(sp)
   46434:	10800090 	cmplti	r2,r2,2
   46438:	103eeb1e 	bne	r2,zero,45fe8 <___vfprintf_internal_r+0xfe0>
   4643c:	d8800917 	ldw	r2,36(sp)
   46440:	05800174 	movhi	r22,5
   46444:	b594e804 	addi	r22,r22,21408
   46448:	10800490 	cmplti	r2,r2,18
   4644c:	1002171e 	bne	r2,zero,46cac <___vfprintf_internal_r+0x1ca4>
   46450:	b809883a 	mov	r4,r23
   46454:	e005883a 	mov	r2,fp
   46458:	a02f883a 	mov	r23,r20
   4645c:	9839883a 	mov	fp,r19
   46460:	05400404 	movi	r21,16
   46464:	1827883a 	mov	r19,r3
   46468:	5029883a 	mov	r20,r10
   4646c:	9007883a 	mov	r3,r18
   46470:	b025883a 	mov	r18,r22
   46474:	682d883a 	mov	r22,r13
   46478:	00000406 	br	4648c <___vfprintf_internal_r+0x1484>
   4647c:	18c00204 	addi	r3,r3,8
   46480:	843ffc04 	addi	r16,r16,-16
   46484:	81400448 	cmpgei	r5,r16,17
   46488:	2801ff26 	beq	r5,zero,46c88 <___vfprintf_internal_r+0x1c80>
   4648c:	10800044 	addi	r2,r2,1
   46490:	21000404 	addi	r4,r4,16
   46494:	1c800015 	stw	r18,0(r3)
   46498:	1d400115 	stw	r21,4(r3)
   4649c:	d9001f15 	stw	r4,124(sp)
   464a0:	d8801e15 	stw	r2,120(sp)
   464a4:	11400208 	cmpgei	r5,r2,8
   464a8:	283ff426 	beq	r5,zero,4647c <___vfprintf_internal_r+0x1474>
   464ac:	d9400417 	ldw	r5,16(sp)
   464b0:	d9000517 	ldw	r4,20(sp)
   464b4:	d9801d04 	addi	r6,sp,116
   464b8:	004c68c0 	call	4c68c <__sprint_r>
   464bc:	103bde1e 	bne	r2,zero,45438 <___vfprintf_internal_r+0x430>
   464c0:	d9001f17 	ldw	r4,124(sp)
   464c4:	d8801e17 	ldw	r2,120(sp)
   464c8:	8807883a 	mov	r3,r17
   464cc:	003fec06 	br	46480 <___vfprintf_internal_r+0x1478>
   464d0:	d9400417 	ldw	r5,16(sp)
   464d4:	d9000517 	ldw	r4,20(sp)
   464d8:	d9801d04 	addi	r6,sp,116
   464dc:	db401315 	stw	r13,76(sp)
   464e0:	da801115 	stw	r10,68(sp)
   464e4:	d8c01015 	stw	r3,64(sp)
   464e8:	dac00f15 	stw	r11,60(sp)
   464ec:	004c68c0 	call	4c68c <__sprint_r>
   464f0:	103bd11e 	bne	r2,zero,45438 <___vfprintf_internal_r+0x430>
   464f4:	dd801f17 	ldw	r22,124(sp)
   464f8:	db401317 	ldw	r13,76(sp)
   464fc:	da801117 	ldw	r10,68(sp)
   46500:	d8c01017 	ldw	r3,64(sp)
   46504:	dac00f17 	ldw	r11,60(sp)
   46508:	8821883a 	mov	r16,r17
   4650c:	003bae06 	br	453c8 <___vfprintf_internal_r+0x3c0>
   46510:	d9400417 	ldw	r5,16(sp)
   46514:	d9000517 	ldw	r4,20(sp)
   46518:	d9801d04 	addi	r6,sp,116
   4651c:	db401015 	stw	r13,64(sp)
   46520:	da800f15 	stw	r10,60(sp)
   46524:	d8c00815 	stw	r3,32(sp)
   46528:	004c68c0 	call	4c68c <__sprint_r>
   4652c:	103bc21e 	bne	r2,zero,45438 <___vfprintf_internal_r+0x430>
   46530:	d9001f17 	ldw	r4,124(sp)
   46534:	db401017 	ldw	r13,64(sp)
   46538:	da800f17 	ldw	r10,60(sp)
   4653c:	d8c00817 	ldw	r3,32(sp)
   46540:	8821883a 	mov	r16,r17
   46544:	003bac06 	br	453f8 <___vfprintf_internal_r+0x3f0>
   46548:	63000414 	ori	r12,r12,16
   4654c:	003afe06 	br	45148 <___vfprintf_internal_r+0x140>
   46550:	a2c00007 	ldb	r11,0(r20)
   46554:	d8800715 	stw	r2,28(sp)
   46558:	003afb06 	br	45148 <___vfprintf_internal_r+0x140>
   4655c:	882b883a 	mov	r21,r17
   46560:	003c3206 	br	4562c <___vfprintf_internal_r+0x624>
   46564:	18800017 	ldw	r2,0(r3)
   46568:	d8800a15 	stw	r2,40(sp)
   4656c:	18800117 	ldw	r2,4(r3)
   46570:	d8800b15 	stw	r2,44(sp)
   46574:	003c9506 	br	457cc <___vfprintf_internal_r+0x7c4>
   46578:	6080040c 	andi	r2,r12,16
   4657c:	1000941e 	bne	r2,zero,467d0 <___vfprintf_internal_r+0x17c8>
   46580:	6300100c 	andi	r12,r12,64
   46584:	60009226 	beq	r12,zero,467d0 <___vfprintf_internal_r+0x17c8>
   46588:	d8800717 	ldw	r2,28(sp)
   4658c:	d8c00617 	ldw	r3,24(sp)
   46590:	10800017 	ldw	r2,0(r2)
   46594:	10c0000d 	sth	r3,0(r2)
   46598:	003d7306 	br	45b68 <___vfprintf_internal_r+0xb60>
   4659c:	2025883a 	mov	r18,r4
   465a0:	04bf2c16 	blt	zero,r18,46254 <___vfprintf_internal_r+0x124c>
   465a4:	003f3506 	br	4627c <___vfprintf_internal_r+0x1274>
   465a8:	1880004c 	andi	r2,r3,1
   465ac:	103f3a1e 	bne	r2,zero,46298 <___vfprintf_internal_r+0x1290>
   465b0:	d8800817 	ldw	r2,32(sp)
   465b4:	24a5c83a 	sub	r18,r4,r18
   465b8:	20afc83a 	sub	r23,r4,r2
   465bc:	b009883a 	mov	r4,r22
   465c0:	95ff540e 	bge	r18,r23,46314 <___vfprintf_internal_r+0x130c>
   465c4:	902f883a 	mov	r23,r18
   465c8:	003f5206 	br	46314 <___vfprintf_internal_r+0x130c>
   465cc:	0025883a 	mov	r18,zero
   465d0:	003f2b06 	br	46280 <___vfprintf_internal_r+0x1278>
   465d4:	d9400417 	ldw	r5,16(sp)
   465d8:	d9000517 	ldw	r4,20(sp)
   465dc:	d9801d04 	addi	r6,sp,116
   465e0:	db401015 	stw	r13,64(sp)
   465e4:	da800f15 	stw	r10,60(sp)
   465e8:	d8c00815 	stw	r3,32(sp)
   465ec:	004c68c0 	call	4c68c <__sprint_r>
   465f0:	103b911e 	bne	r2,zero,45438 <___vfprintf_internal_r+0x430>
   465f4:	d9001f17 	ldw	r4,124(sp)
   465f8:	db401017 	ldw	r13,64(sp)
   465fc:	da800f17 	ldw	r10,60(sp)
   46600:	d8c00817 	ldw	r3,32(sp)
   46604:	8821883a 	mov	r16,r17
   46608:	003d8906 	br	45c30 <___vfprintf_internal_r+0xc28>
   4660c:	00800174 	movhi	r2,5
   46610:	1094d304 	addi	r2,r2,21324
   46614:	d8800e15 	stw	r2,56(sp)
   46618:	6080080c 	andi	r2,r12,32
   4661c:	10007326 	beq	r2,zero,467ec <___vfprintf_internal_r+0x17e4>
   46620:	d8800717 	ldw	r2,28(sp)
   46624:	15800017 	ldw	r22,0(r2)
   46628:	17000117 	ldw	fp,4(r2)
   4662c:	10800204 	addi	r2,r2,8
   46630:	d8800715 	stw	r2,28(sp)
   46634:	6080004c 	andi	r2,r12,1
   46638:	10006a26 	beq	r2,zero,467e4 <___vfprintf_internal_r+0x17dc>
   4663c:	b704b03a 	or	r2,r22,fp
   46640:	10006826 	beq	r2,zero,467e4 <___vfprintf_internal_r+0x17dc>
   46644:	00800c04 	movi	r2,48
   46648:	d8801685 	stb	r2,90(sp)
   4664c:	dac016c5 	stb	r11,91(sp)
   46650:	63000094 	ori	r12,r12,2
   46654:	00800084 	movi	r2,2
   46658:	003bd106 	br	455a0 <___vfprintf_internal_r+0x598>
   4665c:	908001f0 	cmpltui	r2,r18,7
   46660:	9039883a 	mov	fp,r18
   46664:	1001d026 	beq	r2,zero,46da8 <___vfprintf_internal_r+0x1da0>
   46668:	05400174 	movhi	r21,5
   4666c:	e01b883a 	mov	r13,fp
   46670:	dd800715 	stw	r22,28(sp)
   46674:	ad54dd04 	addi	r21,r21,21364
   46678:	003b2906 	br	45320 <___vfprintf_internal_r+0x318>
   4667c:	00800174 	movhi	r2,5
   46680:	1094d804 	addi	r2,r2,21344
   46684:	d8800e15 	stw	r2,56(sp)
   46688:	003fe306 	br	46618 <___vfprintf_internal_r+0x1610>
   4668c:	b009883a 	mov	r4,r22
   46690:	91400450 	cmplti	r5,r18,17
   46694:	05800174 	movhi	r22,5
   46698:	d8801e17 	ldw	r2,120(sp)
   4669c:	b594e804 	addi	r22,r22,21408
   466a0:	28019f1e 	bne	r5,zero,46d20 <___vfprintf_internal_r+0x1d18>
   466a4:	9039883a 	mov	fp,r18
   466a8:	d8c00f15 	stw	r3,60(sp)
   466ac:	05c00404 	movi	r23,16
   466b0:	8007883a 	mov	r3,r16
   466b4:	5025883a 	mov	r18,r10
   466b8:	b021883a 	mov	r16,r22
   466bc:	982d883a 	mov	r22,r19
   466c0:	6827883a 	mov	r19,r13
   466c4:	00000406 	br	466d8 <___vfprintf_internal_r+0x16d0>
   466c8:	18c00204 	addi	r3,r3,8
   466cc:	e73ffc04 	addi	fp,fp,-16
   466d0:	e1400448 	cmpgei	r5,fp,17
   466d4:	28018b26 	beq	r5,zero,46d04 <___vfprintf_internal_r+0x1cfc>
   466d8:	10800044 	addi	r2,r2,1
   466dc:	21000404 	addi	r4,r4,16
   466e0:	1c000015 	stw	r16,0(r3)
   466e4:	1dc00115 	stw	r23,4(r3)
   466e8:	d9001f15 	stw	r4,124(sp)
   466ec:	d8801e15 	stw	r2,120(sp)
   466f0:	11400208 	cmpgei	r5,r2,8
   466f4:	283ff426 	beq	r5,zero,466c8 <___vfprintf_internal_r+0x16c0>
   466f8:	d9400417 	ldw	r5,16(sp)
   466fc:	d9000517 	ldw	r4,20(sp)
   46700:	d9801d04 	addi	r6,sp,116
   46704:	004c68c0 	call	4c68c <__sprint_r>
   46708:	103b4b1e 	bne	r2,zero,45438 <___vfprintf_internal_r+0x430>
   4670c:	d9001f17 	ldw	r4,124(sp)
   46710:	d8801e17 	ldw	r2,120(sp)
   46714:	8807883a 	mov	r3,r17
   46718:	003fec06 	br	466cc <___vfprintf_internal_r+0x16c4>
   4671c:	8009883a 	mov	r4,r16
   46720:	b007883a 	mov	r3,r22
   46724:	9805883a 	mov	r2,r19
   46728:	a02d883a 	mov	r22,r20
   4672c:	e027883a 	mov	r19,fp
   46730:	9029883a 	mov	r20,r18
   46734:	dac00815 	stw	r11,32(sp)
   46738:	db000f15 	stw	r12,60(sp)
   4673c:	da801015 	stw	r10,64(sp)
   46740:	8821883a 	mov	r16,r17
   46744:	1039883a 	mov	fp,r2
   46748:	1825883a 	mov	r18,r3
   4674c:	202b883a 	mov	r21,r4
   46750:	9009883a 	mov	r4,r18
   46754:	980b883a 	mov	r5,r19
   46758:	01800284 	movi	r6,10
   4675c:	000f883a 	mov	r7,zero
   46760:	004fcf40 	call	4fcf4 <__umoddi3>
   46764:	10800c04 	addi	r2,r2,48
   46768:	9009883a 	mov	r4,r18
   4676c:	980b883a 	mov	r5,r19
   46770:	01800284 	movi	r6,10
   46774:	000f883a 	mov	r7,zero
   46778:	80bfffc5 	stb	r2,-1(r16)
   4677c:	004f71c0 	call	4f71c <__udivdi3>
   46780:	980d883a 	mov	r6,r19
   46784:	900f883a 	mov	r7,r18
   46788:	843fffc4 	addi	r16,r16,-1
   4678c:	1025883a 	mov	r18,r2
   46790:	1827883a 	mov	r19,r3
   46794:	303fee1e 	bne	r6,zero,46750 <___vfprintf_internal_r+0x1748>
   46798:	39c002a8 	cmpgeui	r7,r7,10
   4679c:	383fec1e 	bne	r7,zero,46750 <___vfprintf_internal_r+0x1748>
   467a0:	db000f17 	ldw	r12,60(sp)
   467a4:	a805883a 	mov	r2,r21
   467a8:	802b883a 	mov	r21,r16
   467ac:	a025883a 	mov	r18,r20
   467b0:	e027883a 	mov	r19,fp
   467b4:	dac00817 	ldw	r11,32(sp)
   467b8:	da801017 	ldw	r10,64(sp)
   467bc:	b029883a 	mov	r20,r22
   467c0:	1021883a 	mov	r16,r2
   467c4:	8d79c83a 	sub	fp,r17,r21
   467c8:	6007883a 	mov	r3,r12
   467cc:	003b9706 	br	4562c <___vfprintf_internal_r+0x624>
   467d0:	d8800717 	ldw	r2,28(sp)
   467d4:	d8c00617 	ldw	r3,24(sp)
   467d8:	10800017 	ldw	r2,0(r2)
   467dc:	10c00015 	stw	r3,0(r2)
   467e0:	003ce106 	br	45b68 <___vfprintf_internal_r+0xb60>
   467e4:	00800084 	movi	r2,2
   467e8:	003b6d06 	br	455a0 <___vfprintf_internal_r+0x598>
   467ec:	d8c00717 	ldw	r3,28(sp)
   467f0:	6080040c 	andi	r2,r12,16
   467f4:	1d800017 	ldw	r22,0(r3)
   467f8:	18c00104 	addi	r3,r3,4
   467fc:	d8c00715 	stw	r3,28(sp)
   46800:	1000051e 	bne	r2,zero,46818 <___vfprintf_internal_r+0x1810>
   46804:	6080100c 	andi	r2,r12,64
   46808:	10000326 	beq	r2,zero,46818 <___vfprintf_internal_r+0x1810>
   4680c:	b5bfffcc 	andi	r22,r22,65535
   46810:	0039883a 	mov	fp,zero
   46814:	003f8706 	br	46634 <___vfprintf_internal_r+0x162c>
   46818:	0039883a 	mov	fp,zero
   4681c:	003f8506 	br	46634 <___vfprintf_internal_r+0x162c>
   46820:	d9400417 	ldw	r5,16(sp)
   46824:	d9000517 	ldw	r4,20(sp)
   46828:	d9801d04 	addi	r6,sp,116
   4682c:	db401015 	stw	r13,64(sp)
   46830:	da800f15 	stw	r10,60(sp)
   46834:	d8c00815 	stw	r3,32(sp)
   46838:	004c68c0 	call	4c68c <__sprint_r>
   4683c:	103afe1e 	bne	r2,zero,45438 <___vfprintf_internal_r+0x430>
   46840:	dd801f17 	ldw	r22,124(sp)
   46844:	df001e17 	ldw	fp,120(sp)
   46848:	db401017 	ldw	r13,64(sp)
   4684c:	da800f17 	ldw	r10,60(sp)
   46850:	d8c00817 	ldw	r3,32(sp)
   46854:	8825883a 	mov	r18,r17
   46858:	003dc006 	br	45f5c <___vfprintf_internal_r+0xf54>
   4685c:	d9400417 	ldw	r5,16(sp)
   46860:	d9000517 	ldw	r4,20(sp)
   46864:	d9801d04 	addi	r6,sp,116
   46868:	db401015 	stw	r13,64(sp)
   4686c:	da800f15 	stw	r10,60(sp)
   46870:	d8c00815 	stw	r3,32(sp)
   46874:	004c68c0 	call	4c68c <__sprint_r>
   46878:	103aef1e 	bne	r2,zero,45438 <___vfprintf_internal_r+0x430>
   4687c:	ddc01f17 	ldw	r23,124(sp)
   46880:	df001e17 	ldw	fp,120(sp)
   46884:	db401017 	ldw	r13,64(sp)
   46888:	da800f17 	ldw	r10,60(sp)
   4688c:	d8c00817 	ldw	r3,32(sp)
   46890:	8825883a 	mov	r18,r17
   46894:	003dbc06 	br	45f88 <___vfprintf_internal_r+0xf80>
   46898:	d9400417 	ldw	r5,16(sp)
   4689c:	d9000517 	ldw	r4,20(sp)
   468a0:	d9801d04 	addi	r6,sp,116
   468a4:	db401515 	stw	r13,84(sp)
   468a8:	da801415 	stw	r10,80(sp)
   468ac:	d8c01315 	stw	r3,76(sp)
   468b0:	dac01115 	stw	r11,68(sp)
   468b4:	db001015 	stw	r12,64(sp)
   468b8:	db800f15 	stw	r14,60(sp)
   468bc:	004c68c0 	call	4c68c <__sprint_r>
   468c0:	103add1e 	bne	r2,zero,45438 <___vfprintf_internal_r+0x430>
   468c4:	db401517 	ldw	r13,84(sp)
   468c8:	da801417 	ldw	r10,80(sp)
   468cc:	d8c01317 	ldw	r3,76(sp)
   468d0:	dac01117 	ldw	r11,68(sp)
   468d4:	db001017 	ldw	r12,64(sp)
   468d8:	db800f17 	ldw	r14,60(sp)
   468dc:	8821883a 	mov	r16,r17
   468e0:	003a9906 	br	45348 <___vfprintf_internal_r+0x340>
   468e4:	d8801e17 	ldw	r2,120(sp)
   468e8:	01400174 	movhi	r5,5
   468ec:	2954df04 	addi	r5,r5,21372
   468f0:	10800044 	addi	r2,r2,1
   468f4:	b1000044 	addi	r4,r22,1
   468f8:	81400015 	stw	r5,0(r16)
   468fc:	01400044 	movi	r5,1
   46900:	d8801e15 	stw	r2,120(sp)
   46904:	81400115 	stw	r5,4(r16)
   46908:	d9001f15 	stw	r4,124(sp)
   4690c:	10800208 	cmpgei	r2,r2,8
   46910:	1001121e 	bne	r2,zero,46d5c <___vfprintf_internal_r+0x1d54>
   46914:	84000204 	addi	r16,r16,8
   46918:	9000ac1e 	bne	r18,zero,46bcc <___vfprintf_internal_r+0x1bc4>
   4691c:	d9400917 	ldw	r5,36(sp)
   46920:	1880004c 	andi	r2,r3,1
   46924:	1144b03a 	or	r2,r2,r5
   46928:	103ab326 	beq	r2,zero,453f8 <___vfprintf_internal_r+0x3f0>
   4692c:	d8800d17 	ldw	r2,52(sp)
   46930:	d9400c17 	ldw	r5,48(sp)
   46934:	80800015 	stw	r2,0(r16)
   46938:	d8801e17 	ldw	r2,120(sp)
   4693c:	2909883a 	add	r4,r5,r4
   46940:	81400115 	stw	r5,4(r16)
   46944:	10800044 	addi	r2,r2,1
   46948:	d9001f15 	stw	r4,124(sp)
   4694c:	d8801e15 	stw	r2,120(sp)
   46950:	11400208 	cmpgei	r5,r2,8
   46954:	28011b1e 	bne	r5,zero,46dc4 <___vfprintf_internal_r+0x1dbc>
   46958:	84000204 	addi	r16,r16,8
   4695c:	d9400917 	ldw	r5,36(sp)
   46960:	10800044 	addi	r2,r2,1
   46964:	d8801e15 	stw	r2,120(sp)
   46968:	2909883a 	add	r4,r5,r4
   4696c:	85400015 	stw	r21,0(r16)
   46970:	81400115 	stw	r5,4(r16)
   46974:	d9001f15 	stw	r4,124(sp)
   46978:	10800208 	cmpgei	r2,r2,8
   4697c:	103a9d26 	beq	r2,zero,453f4 <___vfprintf_internal_r+0x3ec>
   46980:	003df906 	br	46168 <___vfprintf_internal_r+0x1160>
   46984:	d9000a17 	ldw	r4,40(sp)
   46988:	d9400b17 	ldw	r5,44(sp)
   4698c:	da800f15 	stw	r10,60(sp)
   46990:	200d883a 	mov	r6,r4
   46994:	280f883a 	mov	r7,r5
   46998:	db000815 	stw	r12,32(sp)
   4699c:	dac00715 	stw	r11,28(sp)
   469a0:	0051f680 	call	51f68 <__unorddf2>
   469a4:	dac00717 	ldw	r11,28(sp)
   469a8:	db000817 	ldw	r12,32(sp)
   469ac:	da800f17 	ldw	r10,60(sp)
   469b0:	10026c1e 	bne	r2,zero,47364 <___vfprintf_internal_r+0x235c>
   469b4:	057ff7c4 	movi	r21,-33
   469b8:	90bfffe0 	cmpeqi	r2,r18,-1
   469bc:	5d6e703a 	and	r23,r11,r21
   469c0:	1001f21e 	bne	r2,zero,4718c <___vfprintf_internal_r+0x2184>
   469c4:	b88011d8 	cmpnei	r2,r23,71
   469c8:	1001de26 	beq	r2,zero,47144 <___vfprintf_internal_r+0x213c>
   469cc:	d8800b17 	ldw	r2,44(sp)
   469d0:	60c04014 	ori	r3,r12,256
   469d4:	1000f016 	blt	r2,zero,46d98 <___vfprintf_internal_r+0x1d90>
   469d8:	df000b17 	ldw	fp,44(sp)
   469dc:	d8000705 	stb	zero,28(sp)
   469e0:	588019a0 	cmpeqi	r2,r11,102
   469e4:	d8800f15 	stw	r2,60(sp)
   469e8:	1001911e 	bne	r2,zero,47030 <___vfprintf_internal_r+0x2028>
   469ec:	b8801158 	cmpnei	r2,r23,69
   469f0:	10010526 	beq	r2,zero,46e08 <___vfprintf_internal_r+0x1e00>
   469f4:	d8801b04 	addi	r2,sp,108
   469f8:	d9000517 	ldw	r4,20(sp)
   469fc:	d8800315 	stw	r2,12(sp)
   46a00:	d9400a17 	ldw	r5,40(sp)
   46a04:	d8801804 	addi	r2,sp,96
   46a08:	d8800215 	stw	r2,8(sp)
   46a0c:	d8801704 	addi	r2,sp,92
   46a10:	d8800115 	stw	r2,4(sp)
   46a14:	dc800015 	stw	r18,0(sp)
   46a18:	01c00084 	movi	r7,2
   46a1c:	e00d883a 	mov	r6,fp
   46a20:	da801115 	stw	r10,68(sp)
   46a24:	d8c01015 	stw	r3,64(sp)
   46a28:	db000915 	stw	r12,36(sp)
   46a2c:	dac00815 	stw	r11,32(sp)
   46a30:	00478fc0 	call	478fc <_dtoa_r>
   46a34:	dac00817 	ldw	r11,32(sp)
   46a38:	db000917 	ldw	r12,36(sp)
   46a3c:	d8c01017 	ldw	r3,64(sp)
   46a40:	590019e0 	cmpeqi	r4,r11,103
   46a44:	da801117 	ldw	r10,68(sp)
   46a48:	102b883a 	mov	r21,r2
   46a4c:	20011a26 	beq	r4,zero,46eb8 <___vfprintf_internal_r+0x1eb0>
   46a50:	6080004c 	andi	r2,r12,1
   46a54:	10011a26 	beq	r2,zero,46ec0 <___vfprintf_internal_r+0x1eb8>
   46a58:	ac9b883a 	add	r13,r21,r18
   46a5c:	d9000a17 	ldw	r4,40(sp)
   46a60:	000d883a 	mov	r6,zero
   46a64:	000f883a 	mov	r7,zero
   46a68:	e00b883a 	mov	r5,fp
   46a6c:	db401315 	stw	r13,76(sp)
   46a70:	da801115 	stw	r10,68(sp)
   46a74:	d8c01015 	stw	r3,64(sp)
   46a78:	db000915 	stw	r12,36(sp)
   46a7c:	dac00815 	stw	r11,32(sp)
   46a80:	0050b3c0 	call	50b3c <__eqdf2>
   46a84:	dac00817 	ldw	r11,32(sp)
   46a88:	db000917 	ldw	r12,36(sp)
   46a8c:	d8c01017 	ldw	r3,64(sp)
   46a90:	da801117 	ldw	r10,68(sp)
   46a94:	db401317 	ldw	r13,76(sp)
   46a98:	10025826 	beq	r2,zero,473fc <___vfprintf_internal_r+0x23f4>
   46a9c:	d8801b17 	ldw	r2,108(sp)
   46aa0:	1340062e 	bgeu	r2,r13,46abc <___vfprintf_internal_r+0x1ab4>
   46aa4:	01400c04 	movi	r5,48
   46aa8:	11000044 	addi	r4,r2,1
   46aac:	d9001b15 	stw	r4,108(sp)
   46ab0:	11400005 	stb	r5,0(r2)
   46ab4:	d8801b17 	ldw	r2,108(sp)
   46ab8:	137ffb36 	bltu	r2,r13,46aa8 <___vfprintf_internal_r+0x1aa0>
   46abc:	d9c01717 	ldw	r7,92(sp)
   46ac0:	1545c83a 	sub	r2,r2,r21
   46ac4:	b90011d8 	cmpnei	r4,r23,71
   46ac8:	d8800915 	stw	r2,36(sp)
   46acc:	d9c00815 	stw	r7,32(sp)
   46ad0:	2000ff26 	beq	r4,zero,46ed0 <___vfprintf_internal_r+0x1ec8>
   46ad4:	d8800f17 	ldw	r2,60(sp)
   46ad8:	10024226 	beq	r2,zero,473e4 <___vfprintf_internal_r+0x23dc>
   46adc:	d9000817 	ldw	r4,32(sp)
   46ae0:	6080004c 	andi	r2,r12,1
   46ae4:	1484b03a 	or	r2,r2,r18
   46ae8:	0102620e 	bge	zero,r4,47474 <___vfprintf_internal_r+0x246c>
   46aec:	1002471e 	bne	r2,zero,4740c <___vfprintf_internal_r+0x2404>
   46af0:	df000817 	ldw	fp,32(sp)
   46af4:	e01b883a 	mov	r13,fp
   46af8:	02c01984 	movi	r11,102
   46afc:	ddc00707 	ldb	r23,28(sp)
   46b00:	b8014726 	beq	r23,zero,47020 <___vfprintf_internal_r+0x2018>
   46b04:	00800b44 	movi	r2,45
   46b08:	d8801645 	stb	r2,89(sp)
   46b0c:	dd800715 	stw	r22,28(sp)
   46b10:	0025883a 	mov	r18,zero
   46b14:	003acd06 	br	4564c <___vfprintf_internal_r+0x644>
   46b18:	d9400417 	ldw	r5,16(sp)
   46b1c:	d9000517 	ldw	r4,20(sp)
   46b20:	d9801d04 	addi	r6,sp,116
   46b24:	db401015 	stw	r13,64(sp)
   46b28:	da800f15 	stw	r10,60(sp)
   46b2c:	d8c00815 	stw	r3,32(sp)
   46b30:	004c68c0 	call	4c68c <__sprint_r>
   46b34:	103a401e 	bne	r2,zero,45438 <___vfprintf_internal_r+0x430>
   46b38:	dd801f17 	ldw	r22,124(sp)
   46b3c:	db401017 	ldw	r13,64(sp)
   46b40:	da800f17 	ldw	r10,60(sp)
   46b44:	d8c00817 	ldw	r3,32(sp)
   46b48:	8821883a 	mov	r16,r17
   46b4c:	003c2506 	br	45be4 <___vfprintf_internal_r+0xbdc>
   46b50:	d9400417 	ldw	r5,16(sp)
   46b54:	d9000517 	ldw	r4,20(sp)
   46b58:	d9801d04 	addi	r6,sp,116
   46b5c:	db401015 	stw	r13,64(sp)
   46b60:	da800f15 	stw	r10,60(sp)
   46b64:	d8c00815 	stw	r3,32(sp)
   46b68:	004c68c0 	call	4c68c <__sprint_r>
   46b6c:	103a321e 	bne	r2,zero,45438 <___vfprintf_internal_r+0x430>
   46b70:	ddc01f17 	ldw	r23,124(sp)
   46b74:	df001e17 	ldw	fp,120(sp)
   46b78:	d8c00817 	ldw	r3,32(sp)
   46b7c:	da800f17 	ldw	r10,60(sp)
   46b80:	db401017 	ldw	r13,64(sp)
   46b84:	8825883a 	mov	r18,r17
   46b88:	003d1706 	br	45fe8 <___vfprintf_internal_r+0xfe0>
   46b8c:	d9400417 	ldw	r5,16(sp)
   46b90:	d9000517 	ldw	r4,20(sp)
   46b94:	d9801d04 	addi	r6,sp,116
   46b98:	db401315 	stw	r13,76(sp)
   46b9c:	da801115 	stw	r10,68(sp)
   46ba0:	d8c01015 	stw	r3,64(sp)
   46ba4:	dac00f15 	stw	r11,60(sp)
   46ba8:	004c68c0 	call	4c68c <__sprint_r>
   46bac:	103a221e 	bne	r2,zero,45438 <___vfprintf_internal_r+0x430>
   46bb0:	dd801f17 	ldw	r22,124(sp)
   46bb4:	db401317 	ldw	r13,76(sp)
   46bb8:	da801117 	ldw	r10,68(sp)
   46bbc:	d8c01017 	ldw	r3,64(sp)
   46bc0:	dac00f17 	ldw	r11,60(sp)
   46bc4:	8821883a 	mov	r16,r17
   46bc8:	0039fd06 	br	453c0 <___vfprintf_internal_r+0x3b8>
   46bcc:	d8800d17 	ldw	r2,52(sp)
   46bd0:	d9400c17 	ldw	r5,48(sp)
   46bd4:	80800015 	stw	r2,0(r16)
   46bd8:	d8801e17 	ldw	r2,120(sp)
   46bdc:	2909883a 	add	r4,r5,r4
   46be0:	81400115 	stw	r5,4(r16)
   46be4:	10800044 	addi	r2,r2,1
   46be8:	d9001f15 	stw	r4,124(sp)
   46bec:	d8801e15 	stw	r2,120(sp)
   46bf0:	11400208 	cmpgei	r5,r2,8
   46bf4:	2800731e 	bne	r5,zero,46dc4 <___vfprintf_internal_r+0x1dbc>
   46bf8:	84000204 	addi	r16,r16,8
   46bfc:	903f570e 	bge	r18,zero,4695c <___vfprintf_internal_r+0x1954>
   46c00:	05800174 	movhi	r22,5
   46c04:	917ffc08 	cmpgei	r5,r18,-16
   46c08:	b594e804 	addi	r22,r22,21408
   46c0c:	04a5c83a 	sub	r18,zero,r18
   46c10:	2801a91e 	bne	r5,zero,472b8 <___vfprintf_internal_r+0x22b0>
   46c14:	1839883a 	mov	fp,r3
   46c18:	05c00404 	movi	r23,16
   46c1c:	8007883a 	mov	r3,r16
   46c20:	da800815 	stw	r10,32(sp)
   46c24:	b021883a 	mov	r16,r22
   46c28:	902d883a 	mov	r22,r18
   46c2c:	6825883a 	mov	r18,r13
   46c30:	00000406 	br	46c44 <___vfprintf_internal_r+0x1c3c>
   46c34:	18c00204 	addi	r3,r3,8
   46c38:	b5bffc04 	addi	r22,r22,-16
   46c3c:	b1400448 	cmpgei	r5,r22,17
   46c40:	28019726 	beq	r5,zero,472a0 <___vfprintf_internal_r+0x2298>
   46c44:	10800044 	addi	r2,r2,1
   46c48:	21000404 	addi	r4,r4,16
   46c4c:	1c000015 	stw	r16,0(r3)
   46c50:	1dc00115 	stw	r23,4(r3)
   46c54:	d9001f15 	stw	r4,124(sp)
   46c58:	d8801e15 	stw	r2,120(sp)
   46c5c:	11400208 	cmpgei	r5,r2,8
   46c60:	283ff426 	beq	r5,zero,46c34 <___vfprintf_internal_r+0x1c2c>
   46c64:	d9400417 	ldw	r5,16(sp)
   46c68:	d9000517 	ldw	r4,20(sp)
   46c6c:	d9801d04 	addi	r6,sp,116
   46c70:	004c68c0 	call	4c68c <__sprint_r>
   46c74:	1039f01e 	bne	r2,zero,45438 <___vfprintf_internal_r+0x430>
   46c78:	d9001f17 	ldw	r4,124(sp)
   46c7c:	d8801e17 	ldw	r2,120(sp)
   46c80:	8807883a 	mov	r3,r17
   46c84:	003fec06 	br	46c38 <___vfprintf_internal_r+0x1c30>
   46c88:	a015883a 	mov	r10,r20
   46c8c:	b01b883a 	mov	r13,r22
   46c90:	b829883a 	mov	r20,r23
   46c94:	902d883a 	mov	r22,r18
   46c98:	202f883a 	mov	r23,r4
   46c9c:	1825883a 	mov	r18,r3
   46ca0:	9807883a 	mov	r3,r19
   46ca4:	e027883a 	mov	r19,fp
   46ca8:	1039883a 	mov	fp,r2
   46cac:	e7000044 	addi	fp,fp,1
   46cb0:	bc2f883a 	add	r23,r23,r16
   46cb4:	95800015 	stw	r22,0(r18)
   46cb8:	003cc506 	br	45fd0 <___vfprintf_internal_r+0xfc8>
   46cbc:	a809883a 	mov	r4,r21
   46cc0:	da801015 	stw	r10,64(sp)
   46cc4:	db000f15 	stw	r12,60(sp)
   46cc8:	dac00815 	stw	r11,32(sp)
   46ccc:	004b3340 	call	4b334 <strlen>
   46cd0:	dac00817 	ldw	r11,32(sp)
   46cd4:	db000f17 	ldw	r12,60(sp)
   46cd8:	da801017 	ldw	r10,64(sp)
   46cdc:	1039883a 	mov	fp,r2
   46ce0:	101b883a 	mov	r13,r2
   46ce4:	dd800715 	stw	r22,28(sp)
   46ce8:	00398d06 	br	45320 <___vfprintf_internal_r+0x318>
   46cec:	05400174 	movhi	r21,5
   46cf0:	ad54cf04 	addi	r21,r21,21308
   46cf4:	003adf06 	br	45874 <___vfprintf_internal_r+0x86c>
   46cf8:	05800174 	movhi	r22,5
   46cfc:	b594e804 	addi	r22,r22,21408
   46d00:	003c6006 	br	45e84 <___vfprintf_internal_r+0xe7c>
   46d04:	981b883a 	mov	r13,r19
   46d08:	b027883a 	mov	r19,r22
   46d0c:	802d883a 	mov	r22,r16
   46d10:	1821883a 	mov	r16,r3
   46d14:	d8c00f17 	ldw	r3,60(sp)
   46d18:	9015883a 	mov	r10,r18
   46d1c:	e025883a 	mov	r18,fp
   46d20:	10800044 	addi	r2,r2,1
   46d24:	9109883a 	add	r4,r18,r4
   46d28:	d8801e15 	stw	r2,120(sp)
   46d2c:	85800015 	stw	r22,0(r16)
   46d30:	84800115 	stw	r18,4(r16)
   46d34:	d9001f15 	stw	r4,124(sp)
   46d38:	10800208 	cmpgei	r2,r2,8
   46d3c:	1000501e 	bne	r2,zero,46e80 <___vfprintf_internal_r+0x1e78>
   46d40:	84000204 	addi	r16,r16,8
   46d44:	202d883a 	mov	r22,r4
   46d48:	003d5006 	br	4628c <___vfprintf_internal_r+0x1284>
   46d4c:	00800b44 	movi	r2,45
   46d50:	d8801645 	stb	r2,89(sp)
   46d54:	05c00b44 	movi	r23,45
   46d58:	003ac206 	br	45864 <___vfprintf_internal_r+0x85c>
   46d5c:	d9400417 	ldw	r5,16(sp)
   46d60:	d9000517 	ldw	r4,20(sp)
   46d64:	d9801d04 	addi	r6,sp,116
   46d68:	db401015 	stw	r13,64(sp)
   46d6c:	da800f15 	stw	r10,60(sp)
   46d70:	d8c00815 	stw	r3,32(sp)
   46d74:	004c68c0 	call	4c68c <__sprint_r>
   46d78:	1039af1e 	bne	r2,zero,45438 <___vfprintf_internal_r+0x430>
   46d7c:	dc801717 	ldw	r18,92(sp)
   46d80:	d9001f17 	ldw	r4,124(sp)
   46d84:	db401017 	ldw	r13,64(sp)
   46d88:	da800f17 	ldw	r10,60(sp)
   46d8c:	d8c00817 	ldw	r3,32(sp)
   46d90:	8821883a 	mov	r16,r17
   46d94:	003ee006 	br	46918 <___vfprintf_internal_r+0x1910>
   46d98:	1720003c 	xorhi	fp,r2,32768
   46d9c:	00800b44 	movi	r2,45
   46da0:	d8800705 	stb	r2,28(sp)
   46da4:	003f0e06 	br	469e0 <___vfprintf_internal_r+0x19d8>
   46da8:	07000184 	movi	fp,6
   46dac:	003e2e06 	br	46668 <___vfprintf_internal_r+0x1660>
   46db0:	d9400417 	ldw	r5,16(sp)
   46db4:	d9000517 	ldw	r4,20(sp)
   46db8:	d9801d04 	addi	r6,sp,116
   46dbc:	004c68c0 	call	4c68c <__sprint_r>
   46dc0:	00399d06 	br	45438 <___vfprintf_internal_r+0x430>
   46dc4:	d9400417 	ldw	r5,16(sp)
   46dc8:	d9000517 	ldw	r4,20(sp)
   46dcc:	d9801d04 	addi	r6,sp,116
   46dd0:	db401015 	stw	r13,64(sp)
   46dd4:	da800f15 	stw	r10,60(sp)
   46dd8:	d8c00815 	stw	r3,32(sp)
   46ddc:	004c68c0 	call	4c68c <__sprint_r>
   46de0:	1039951e 	bne	r2,zero,45438 <___vfprintf_internal_r+0x430>
   46de4:	dc801717 	ldw	r18,92(sp)
   46de8:	d9001f17 	ldw	r4,124(sp)
   46dec:	d8801e17 	ldw	r2,120(sp)
   46df0:	db401017 	ldw	r13,64(sp)
   46df4:	da800f17 	ldw	r10,60(sp)
   46df8:	d8c00817 	ldw	r3,32(sp)
   46dfc:	8821883a 	mov	r16,r17
   46e00:	903ed60e 	bge	r18,zero,4695c <___vfprintf_internal_r+0x1954>
   46e04:	003f7e06 	br	46c00 <___vfprintf_internal_r+0x1bf8>
   46e08:	d8801b04 	addi	r2,sp,108
   46e0c:	d8800315 	stw	r2,12(sp)
   46e10:	d9400a17 	ldw	r5,40(sp)
   46e14:	d8801804 	addi	r2,sp,96
   46e18:	d9000517 	ldw	r4,20(sp)
   46e1c:	d8c01115 	stw	r3,68(sp)
   46e20:	d8800215 	stw	r2,8(sp)
   46e24:	90c00044 	addi	r3,r18,1
   46e28:	d8801704 	addi	r2,sp,92
   46e2c:	d8c00015 	stw	r3,0(sp)
   46e30:	d8800115 	stw	r2,4(sp)
   46e34:	01c00084 	movi	r7,2
   46e38:	e00d883a 	mov	r6,fp
   46e3c:	da801315 	stw	r10,76(sp)
   46e40:	db001015 	stw	r12,64(sp)
   46e44:	dac00815 	stw	r11,32(sp)
   46e48:	d8c00915 	stw	r3,36(sp)
   46e4c:	00478fc0 	call	478fc <_dtoa_r>
   46e50:	dac00817 	ldw	r11,32(sp)
   46e54:	db001017 	ldw	r12,64(sp)
   46e58:	d8c01117 	ldw	r3,68(sp)
   46e5c:	da801317 	ldw	r10,76(sp)
   46e60:	102b883a 	mov	r21,r2
   46e64:	588011d8 	cmpnei	r2,r11,71
   46e68:	10014d1e 	bne	r2,zero,473a0 <___vfprintf_internal_r+0x2398>
   46e6c:	6080004c 	andi	r2,r12,1
   46e70:	10001326 	beq	r2,zero,46ec0 <___vfprintf_internal_r+0x1eb8>
   46e74:	d8800917 	ldw	r2,36(sp)
   46e78:	a89b883a 	add	r13,r21,r2
   46e7c:	003ef706 	br	46a5c <___vfprintf_internal_r+0x1a54>
   46e80:	d9400417 	ldw	r5,16(sp)
   46e84:	d9000517 	ldw	r4,20(sp)
   46e88:	d9801d04 	addi	r6,sp,116
   46e8c:	db401115 	stw	r13,68(sp)
   46e90:	da801015 	stw	r10,64(sp)
   46e94:	d8c00f15 	stw	r3,60(sp)
   46e98:	004c68c0 	call	4c68c <__sprint_r>
   46e9c:	1039661e 	bne	r2,zero,45438 <___vfprintf_internal_r+0x430>
   46ea0:	dd801f17 	ldw	r22,124(sp)
   46ea4:	db401117 	ldw	r13,68(sp)
   46ea8:	da801017 	ldw	r10,64(sp)
   46eac:	d8c00f17 	ldw	r3,60(sp)
   46eb0:	8821883a 	mov	r16,r17
   46eb4:	003cf506 	br	4628c <___vfprintf_internal_r+0x1284>
   46eb8:	dc800915 	stw	r18,36(sp)
   46ebc:	003fe906 	br	46e64 <___vfprintf_internal_r+0x1e5c>
   46ec0:	d8801b17 	ldw	r2,108(sp)
   46ec4:	d9c01717 	ldw	r7,92(sp)
   46ec8:	1545c83a 	sub	r2,r2,r21
   46ecc:	d8800915 	stw	r2,36(sp)
   46ed0:	38bfff48 	cmpgei	r2,r7,-3
   46ed4:	d9c00815 	stw	r7,32(sp)
   46ed8:	1000bf1e 	bne	r2,zero,471d8 <___vfprintf_internal_r+0x21d0>
   46edc:	5affff84 	addi	r11,r11,-2
   46ee0:	397fffc4 	addi	r5,r7,-1
   46ee4:	5805883a 	mov	r2,r11
   46ee8:	01000044 	movi	r4,1
   46eec:	21efc83a 	sub	r23,r4,r7
   46ef0:	01000b44 	movi	r4,45
   46ef4:	21003fcc 	andi	r4,r4,255
   46ef8:	2008923a 	slli	r4,r4,8
   46efc:	10803fcc 	andi	r2,r2,255
   46f00:	d9401715 	stw	r5,92(sp)
   46f04:	1104b03a 	or	r2,r2,r4
   46f08:	d880190d 	sth	r2,100(sp)
   46f0c:	b8800290 	cmplti	r2,r23,10
   46f10:	1000c61e 	bne	r2,zero,4722c <___vfprintf_internal_r+0x2224>
   46f14:	df001cc4 	addi	fp,sp,115
   46f18:	9805883a 	mov	r2,r19
   46f1c:	d8c01015 	stw	r3,64(sp)
   46f20:	a007883a 	mov	r3,r20
   46f24:	e027883a 	mov	r19,fp
   46f28:	8029883a 	mov	r20,r16
   46f2c:	dac00815 	stw	r11,32(sp)
   46f30:	b821883a 	mov	r16,r23
   46f34:	db000f15 	stw	r12,60(sp)
   46f38:	da801115 	stw	r10,68(sp)
   46f3c:	1039883a 	mov	fp,r2
   46f40:	182f883a 	mov	r23,r3
   46f44:	8009883a 	mov	r4,r16
   46f48:	01400284 	movi	r5,10
   46f4c:	0040a3c0 	call	40a3c <__modsi3>
   46f50:	10800c04 	addi	r2,r2,48
   46f54:	8009883a 	mov	r4,r16
   46f58:	01400284 	movi	r5,10
   46f5c:	98bfffc5 	stb	r2,-1(r19)
   46f60:	00409bc0 	call	409bc <__divsi3>
   46f64:	81401908 	cmpgei	r5,r16,100
   46f68:	9825883a 	mov	r18,r19
   46f6c:	1021883a 	mov	r16,r2
   46f70:	9cffffc4 	addi	r19,r19,-1
   46f74:	283ff31e 	bne	r5,zero,46f44 <___vfprintf_internal_r+0x1f3c>
   46f78:	b809883a 	mov	r4,r23
   46f7c:	102f883a 	mov	r23,r2
   46f80:	e005883a 	mov	r2,fp
   46f84:	9839883a 	mov	fp,r19
   46f88:	1027883a 	mov	r19,r2
   46f8c:	b8800c04 	addi	r2,r23,48
   46f90:	e0bfffc5 	stb	r2,-1(fp)
   46f94:	917fff84 	addi	r5,r18,-2
   46f98:	d8801cc4 	addi	r2,sp,115
   46f9c:	a021883a 	mov	r16,r20
   46fa0:	dac00817 	ldw	r11,32(sp)
   46fa4:	db000f17 	ldw	r12,60(sp)
   46fa8:	d8c01017 	ldw	r3,64(sp)
   46fac:	da801117 	ldw	r10,68(sp)
   46fb0:	2029883a 	mov	r20,r4
   46fb4:	28813d2e 	bgeu	r5,r2,474ac <___vfprintf_internal_r+0x24a4>
   46fb8:	d8801d44 	addi	r2,sp,117
   46fbc:	14a5c83a 	sub	r18,r2,r18
   46fc0:	d9001984 	addi	r4,sp,102
   46fc4:	900d883a 	mov	r6,r18
   46fc8:	00428d80 	call	428d8 <memcpy>
   46fcc:	d8801984 	addi	r2,sp,102
   46fd0:	1485883a 	add	r2,r2,r18
   46fd4:	d9001904 	addi	r4,sp,100
   46fd8:	dac00817 	ldw	r11,32(sp)
   46fdc:	db000f17 	ldw	r12,60(sp)
   46fe0:	d8c01017 	ldw	r3,64(sp)
   46fe4:	da801117 	ldw	r10,68(sp)
   46fe8:	1105c83a 	sub	r2,r2,r4
   46fec:	d8801215 	stw	r2,72(sp)
   46ff0:	d9000917 	ldw	r4,36(sp)
   46ff4:	d9401217 	ldw	r5,72(sp)
   46ff8:	20800088 	cmpgei	r2,r4,2
   46ffc:	2179883a 	add	fp,r4,r5
   47000:	10009126 	beq	r2,zero,47248 <___vfprintf_internal_r+0x2240>
   47004:	d8800c17 	ldw	r2,48(sp)
   47008:	e0b9883a 	add	fp,fp,r2
   4700c:	e01b883a 	mov	r13,fp
   47010:	e000010e 	bge	fp,zero,47018 <___vfprintf_internal_r+0x2010>
   47014:	001b883a 	mov	r13,zero
   47018:	d8000815 	stw	zero,32(sp)
   4701c:	003eb706 	br	46afc <___vfprintf_internal_r+0x1af4>
   47020:	ddc01643 	ldbu	r23,89(sp)
   47024:	dd800715 	stw	r22,28(sp)
   47028:	0025883a 	mov	r18,zero
   4702c:	00398306 	br	4563c <___vfprintf_internal_r+0x634>
   47030:	d8801b04 	addi	r2,sp,108
   47034:	d8800315 	stw	r2,12(sp)
   47038:	d9400a17 	ldw	r5,40(sp)
   4703c:	d8801804 	addi	r2,sp,96
   47040:	d9000517 	ldw	r4,20(sp)
   47044:	d8800215 	stw	r2,8(sp)
   47048:	d8801704 	addi	r2,sp,92
   4704c:	d8800115 	stw	r2,4(sp)
   47050:	dc800015 	stw	r18,0(sp)
   47054:	01c000c4 	movi	r7,3
   47058:	e00d883a 	mov	r6,fp
   4705c:	da801115 	stw	r10,68(sp)
   47060:	d8c01015 	stw	r3,64(sp)
   47064:	db000915 	stw	r12,36(sp)
   47068:	dac00815 	stw	r11,32(sp)
   4706c:	00478fc0 	call	478fc <_dtoa_r>
   47070:	102b883a 	mov	r21,r2
   47074:	10800007 	ldb	r2,0(r2)
   47078:	dac00817 	ldw	r11,32(sp)
   4707c:	db000917 	ldw	r12,36(sp)
   47080:	10800c20 	cmpeqi	r2,r2,48
   47084:	d8c01017 	ldw	r3,64(sp)
   47088:	da801117 	ldw	r10,68(sp)
   4708c:	1000a31e 	bne	r2,zero,4731c <___vfprintf_internal_r+0x2314>
   47090:	d8801717 	ldw	r2,92(sp)
   47094:	d9000a17 	ldw	r4,40(sp)
   47098:	149b883a 	add	r13,r2,r18
   4709c:	000d883a 	mov	r6,zero
   470a0:	000f883a 	mov	r7,zero
   470a4:	e00b883a 	mov	r5,fp
   470a8:	da801315 	stw	r10,76(sp)
   470ac:	d8c01115 	stw	r3,68(sp)
   470b0:	db001015 	stw	r12,64(sp)
   470b4:	dac00915 	stw	r11,36(sp)
   470b8:	db400815 	stw	r13,32(sp)
   470bc:	0050b3c0 	call	50b3c <__eqdf2>
   470c0:	db400817 	ldw	r13,32(sp)
   470c4:	dac00917 	ldw	r11,36(sp)
   470c8:	db001017 	ldw	r12,64(sp)
   470cc:	d8c01117 	ldw	r3,68(sp)
   470d0:	da801317 	ldw	r10,76(sp)
   470d4:	10008f1e 	bne	r2,zero,47314 <___vfprintf_internal_r+0x230c>
   470d8:	d8801717 	ldw	r2,92(sp)
   470dc:	db400915 	stw	r13,36(sp)
   470e0:	d8800815 	stw	r2,32(sp)
   470e4:	003e7d06 	br	46adc <___vfprintf_internal_r+0x1ad4>
   470e8:	d9400417 	ldw	r5,16(sp)
   470ec:	d9000517 	ldw	r4,20(sp)
   470f0:	d9801d04 	addi	r6,sp,116
   470f4:	db401115 	stw	r13,68(sp)
   470f8:	da801015 	stw	r10,64(sp)
   470fc:	d8c00f15 	stw	r3,60(sp)
   47100:	004c68c0 	call	4c68c <__sprint_r>
   47104:	1038cc1e 	bne	r2,zero,45438 <___vfprintf_internal_r+0x430>
   47108:	dc801717 	ldw	r18,92(sp)
   4710c:	d9001f17 	ldw	r4,124(sp)
   47110:	db401117 	ldw	r13,68(sp)
   47114:	da801017 	ldw	r10,64(sp)
   47118:	d8c00f17 	ldw	r3,60(sp)
   4711c:	8821883a 	mov	r16,r17
   47120:	003c6906 	br	462c8 <___vfprintf_internal_r+0x12c0>
   47124:	981b883a 	mov	r13,r19
   47128:	da800f17 	ldw	r10,60(sp)
   4712c:	b027883a 	mov	r19,r22
   47130:	902d883a 	mov	r22,r18
   47134:	8025883a 	mov	r18,r16
   47138:	1821883a 	mov	r16,r3
   4713c:	d8c00817 	ldw	r3,32(sp)
   47140:	003c0106 	br	46148 <___vfprintf_internal_r+0x1140>
   47144:	903e211e 	bne	r18,zero,469cc <___vfprintf_internal_r+0x19c4>
   47148:	04800044 	movi	r18,1
   4714c:	003e1f06 	br	469cc <___vfprintf_internal_r+0x19c4>
   47150:	d9400417 	ldw	r5,16(sp)
   47154:	d9000517 	ldw	r4,20(sp)
   47158:	d9801d04 	addi	r6,sp,116
   4715c:	db401115 	stw	r13,68(sp)
   47160:	da801015 	stw	r10,64(sp)
   47164:	d8c00f15 	stw	r3,60(sp)
   47168:	004c68c0 	call	4c68c <__sprint_r>
   4716c:	1038b21e 	bne	r2,zero,45438 <___vfprintf_internal_r+0x430>
   47170:	dd801f17 	ldw	r22,124(sp)
   47174:	db401117 	ldw	r13,68(sp)
   47178:	da801017 	ldw	r10,64(sp)
   4717c:	d8c00f17 	ldw	r3,60(sp)
   47180:	8821883a 	mov	r16,r17
   47184:	903c3e0e 	bge	r18,zero,46280 <___vfprintf_internal_r+0x1278>
   47188:	003d1006 	br	465cc <___vfprintf_internal_r+0x15c4>
   4718c:	04800184 	movi	r18,6
   47190:	003e0e06 	br	469cc <___vfprintf_internal_r+0x19c4>
   47194:	d9400417 	ldw	r5,16(sp)
   47198:	d9000517 	ldw	r4,20(sp)
   4719c:	d9801d04 	addi	r6,sp,116
   471a0:	db401015 	stw	r13,64(sp)
   471a4:	da800f15 	stw	r10,60(sp)
   471a8:	d8c00815 	stw	r3,32(sp)
   471ac:	004c68c0 	call	4c68c <__sprint_r>
   471b0:	1038a11e 	bne	r2,zero,45438 <___vfprintf_internal_r+0x430>
   471b4:	dc801717 	ldw	r18,92(sp)
   471b8:	d8800917 	ldw	r2,36(sp)
   471bc:	d9001f17 	ldw	r4,124(sp)
   471c0:	db401017 	ldw	r13,64(sp)
   471c4:	da800f17 	ldw	r10,60(sp)
   471c8:	d8c00817 	ldw	r3,32(sp)
   471cc:	8821883a 	mov	r16,r17
   471d0:	14a5c83a 	sub	r18,r2,r18
   471d4:	003c4f06 	br	46314 <___vfprintf_internal_r+0x130c>
   471d8:	91c0060e 	bge	r18,r7,471f4 <___vfprintf_internal_r+0x21ec>
   471dc:	5affff84 	addi	r11,r11,-2
   471e0:	3dffffc4 	addi	r23,r7,-1
   471e4:	5805883a 	mov	r2,r11
   471e8:	b80b883a 	mov	r5,r23
   471ec:	01000ac4 	movi	r4,43
   471f0:	003f4006 	br	46ef4 <___vfprintf_internal_r+0x1eec>
   471f4:	d9000917 	ldw	r4,36(sp)
   471f8:	39001a16 	blt	r7,r4,47264 <___vfprintf_internal_r+0x225c>
   471fc:	6300004c 	andi	r12,r12,1
   47200:	6000601e 	bne	r12,zero,47384 <___vfprintf_internal_r+0x237c>
   47204:	381b883a 	mov	r13,r7
   47208:	3800010e 	bge	r7,zero,47210 <___vfprintf_internal_r+0x2208>
   4720c:	001b883a 	mov	r13,zero
   47210:	3839883a 	mov	fp,r7
   47214:	02c019c4 	movi	r11,103
   47218:	003e3806 	br	46afc <___vfprintf_internal_r+0x1af4>
   4721c:	901b883a 	mov	r13,r18
   47220:	dd800715 	stw	r22,28(sp)
   47224:	9039883a 	mov	fp,r18
   47228:	00383d06 	br	45320 <___vfprintf_internal_r+0x318>
   4722c:	b8800c04 	addi	r2,r23,48
   47230:	01000c04 	movi	r4,48
   47234:	d88019c5 	stb	r2,103(sp)
   47238:	00800104 	movi	r2,4
   4723c:	d9001985 	stb	r4,102(sp)
   47240:	d8801215 	stw	r2,72(sp)
   47244:	003f6a06 	br	46ff0 <___vfprintf_internal_r+0x1fe8>
   47248:	6080004c 	andi	r2,r12,1
   4724c:	d8800815 	stw	r2,32(sp)
   47250:	103f6c1e 	bne	r2,zero,47004 <___vfprintf_internal_r+0x1ffc>
   47254:	e01b883a 	mov	r13,fp
   47258:	e03e280e 	bge	fp,zero,46afc <___vfprintf_internal_r+0x1af4>
   4725c:	001b883a 	mov	r13,zero
   47260:	003e2606 	br	46afc <___vfprintf_internal_r+0x1af4>
   47264:	d8800917 	ldw	r2,36(sp)
   47268:	d9000c17 	ldw	r4,48(sp)
   4726c:	1139883a 	add	fp,r2,r4
   47270:	d8800817 	ldw	r2,32(sp)
   47274:	00800316 	blt	zero,r2,47284 <___vfprintf_internal_r+0x227c>
   47278:	d8800817 	ldw	r2,32(sp)
   4727c:	e08fc83a 	sub	r7,fp,r2
   47280:	3f000044 	addi	fp,r7,1
   47284:	e01b883a 	mov	r13,fp
   47288:	e0004316 	blt	fp,zero,47398 <___vfprintf_internal_r+0x2390>
   4728c:	02c019c4 	movi	r11,103
   47290:	003e1a06 	br	46afc <___vfprintf_internal_r+0x1af4>
   47294:	00bfffc4 	movi	r2,-1
   47298:	d8800615 	stw	r2,24(sp)
   4729c:	00386a06 	br	45448 <___vfprintf_internal_r+0x440>
   472a0:	da800817 	ldw	r10,32(sp)
   472a4:	901b883a 	mov	r13,r18
   472a8:	b025883a 	mov	r18,r22
   472ac:	802d883a 	mov	r22,r16
   472b0:	1821883a 	mov	r16,r3
   472b4:	e007883a 	mov	r3,fp
   472b8:	10800044 	addi	r2,r2,1
   472bc:	2489883a 	add	r4,r4,r18
   472c0:	85800015 	stw	r22,0(r16)
   472c4:	84800115 	stw	r18,4(r16)
   472c8:	d9001f15 	stw	r4,124(sp)
   472cc:	d8801e15 	stw	r2,120(sp)
   472d0:	11400208 	cmpgei	r5,r2,8
   472d4:	283da026 	beq	r5,zero,46958 <___vfprintf_internal_r+0x1950>
   472d8:	d9400417 	ldw	r5,16(sp)
   472dc:	d9000517 	ldw	r4,20(sp)
   472e0:	d9801d04 	addi	r6,sp,116
   472e4:	db401015 	stw	r13,64(sp)
   472e8:	da800f15 	stw	r10,60(sp)
   472ec:	d8c00815 	stw	r3,32(sp)
   472f0:	004c68c0 	call	4c68c <__sprint_r>
   472f4:	1038501e 	bne	r2,zero,45438 <___vfprintf_internal_r+0x430>
   472f8:	d9001f17 	ldw	r4,124(sp)
   472fc:	d8801e17 	ldw	r2,120(sp)
   47300:	db401017 	ldw	r13,64(sp)
   47304:	da800f17 	ldw	r10,60(sp)
   47308:	d8c00817 	ldw	r3,32(sp)
   4730c:	8821883a 	mov	r16,r17
   47310:	003d9206 	br	4695c <___vfprintf_internal_r+0x1954>
   47314:	ab5b883a 	add	r13,r21,r13
   47318:	003de006 	br	46a9c <___vfprintf_internal_r+0x1a94>
   4731c:	d9000a17 	ldw	r4,40(sp)
   47320:	000d883a 	mov	r6,zero
   47324:	000f883a 	mov	r7,zero
   47328:	e00b883a 	mov	r5,fp
   4732c:	da801115 	stw	r10,68(sp)
   47330:	d8c01015 	stw	r3,64(sp)
   47334:	db000915 	stw	r12,36(sp)
   47338:	dac00815 	stw	r11,32(sp)
   4733c:	0050b3c0 	call	50b3c <__eqdf2>
   47340:	dac00817 	ldw	r11,32(sp)
   47344:	db000917 	ldw	r12,36(sp)
   47348:	d8c01017 	ldw	r3,64(sp)
   4734c:	da801117 	ldw	r10,68(sp)
   47350:	103f4f26 	beq	r2,zero,47090 <___vfprintf_internal_r+0x2088>
   47354:	00800044 	movi	r2,1
   47358:	1485c83a 	sub	r2,r2,r18
   4735c:	d8801715 	stw	r2,92(sp)
   47360:	003f4c06 	br	47094 <___vfprintf_internal_r+0x208c>
   47364:	d8800b17 	ldw	r2,44(sp)
   47368:	10003216 	blt	r2,zero,47434 <___vfprintf_internal_r+0x242c>
   4736c:	ddc01643 	ldbu	r23,89(sp)
   47370:	58801210 	cmplti	r2,r11,72
   47374:	10002c1e 	bne	r2,zero,47428 <___vfprintf_internal_r+0x2420>
   47378:	05400174 	movhi	r21,5
   4737c:	ad54d204 	addi	r21,r21,21320
   47380:	00393c06 	br	45874 <___vfprintf_internal_r+0x86c>
   47384:	d8800817 	ldw	r2,32(sp)
   47388:	d9000c17 	ldw	r4,48(sp)
   4738c:	1139883a 	add	fp,r2,r4
   47390:	e01b883a 	mov	r13,fp
   47394:	e03fbd0e 	bge	fp,zero,4728c <___vfprintf_internal_r+0x2284>
   47398:	001b883a 	mov	r13,zero
   4739c:	003fbb06 	br	4728c <___vfprintf_internal_r+0x2284>
   473a0:	d9000a17 	ldw	r4,40(sp)
   473a4:	000d883a 	mov	r6,zero
   473a8:	000f883a 	mov	r7,zero
   473ac:	e00b883a 	mov	r5,fp
   473b0:	da801315 	stw	r10,76(sp)
   473b4:	d8c01115 	stw	r3,68(sp)
   473b8:	db001015 	stw	r12,64(sp)
   473bc:	dac00815 	stw	r11,32(sp)
   473c0:	0050b3c0 	call	50b3c <__eqdf2>
   473c4:	dac00817 	ldw	r11,32(sp)
   473c8:	db001017 	ldw	r12,64(sp)
   473cc:	d8c01117 	ldw	r3,68(sp)
   473d0:	da801317 	ldw	r10,76(sp)
   473d4:	1000321e 	bne	r2,zero,474a0 <___vfprintf_internal_r+0x2498>
   473d8:	b88011e0 	cmpeqi	r2,r23,71
   473dc:	d9c01717 	ldw	r7,92(sp)
   473e0:	103ebb1e 	bne	r2,zero,46ed0 <___vfprintf_internal_r+0x1ec8>
   473e4:	397fffc4 	addi	r5,r7,-1
   473e8:	5805883a 	mov	r2,r11
   473ec:	283ebe16 	blt	r5,zero,46ee8 <___vfprintf_internal_r+0x1ee0>
   473f0:	282f883a 	mov	r23,r5
   473f4:	01000ac4 	movi	r4,43
   473f8:	003ebe06 	br	46ef4 <___vfprintf_internal_r+0x1eec>
   473fc:	6d45c83a 	sub	r2,r13,r21
   47400:	d9c01717 	ldw	r7,92(sp)
   47404:	d8800915 	stw	r2,36(sp)
   47408:	003eb106 	br	46ed0 <___vfprintf_internal_r+0x1ec8>
   4740c:	d8800c17 	ldw	r2,48(sp)
   47410:	208f883a 	add	r7,r4,r2
   47414:	3cb9883a 	add	fp,r7,r18
   47418:	e01b883a 	mov	r13,fp
   4741c:	e03db60e 	bge	fp,zero,46af8 <___vfprintf_internal_r+0x1af0>
   47420:	001b883a 	mov	r13,zero
   47424:	003db406 	br	46af8 <___vfprintf_internal_r+0x1af0>
   47428:	05400174 	movhi	r21,5
   4742c:	ad54d104 	addi	r21,r21,21316
   47430:	00391006 	br	45874 <___vfprintf_internal_r+0x86c>
   47434:	00800b44 	movi	r2,45
   47438:	d8801645 	stb	r2,89(sp)
   4743c:	05c00b44 	movi	r23,45
   47440:	003fcb06 	br	47370 <___vfprintf_internal_r+0x2368>
   47444:	d8c00717 	ldw	r3,28(sp)
   47448:	1c800017 	ldw	r18,0(r3)
   4744c:	18c00104 	addi	r3,r3,4
   47450:	9000010e 	bge	r18,zero,47458 <___vfprintf_internal_r+0x2450>
   47454:	04bfffc4 	movi	r18,-1
   47458:	a2c00043 	ldbu	r11,1(r20)
   4745c:	d8c00715 	stw	r3,28(sp)
   47460:	1029883a 	mov	r20,r2
   47464:	5ac03fcc 	andi	r11,r11,255
   47468:	5ac0201c 	xori	r11,r11,128
   4746c:	5affe004 	addi	r11,r11,-128
   47470:	00373506 	br	45148 <___vfprintf_internal_r+0x140>
   47474:	1000041e 	bne	r2,zero,47488 <___vfprintf_internal_r+0x2480>
   47478:	03400044 	movi	r13,1
   4747c:	02c01984 	movi	r11,102
   47480:	07000044 	movi	fp,1
   47484:	003d9d06 	br	46afc <___vfprintf_internal_r+0x1af4>
   47488:	d8800c17 	ldw	r2,48(sp)
   4748c:	11c00044 	addi	r7,r2,1
   47490:	3cb9883a 	add	fp,r7,r18
   47494:	e01b883a 	mov	r13,fp
   47498:	e03d970e 	bge	fp,zero,46af8 <___vfprintf_internal_r+0x1af0>
   4749c:	003fe006 	br	47420 <___vfprintf_internal_r+0x2418>
   474a0:	d8800917 	ldw	r2,36(sp)
   474a4:	a89b883a 	add	r13,r21,r2
   474a8:	003d7c06 	br	46a9c <___vfprintf_internal_r+0x1a94>
   474ac:	00800084 	movi	r2,2
   474b0:	d8801215 	stw	r2,72(sp)
   474b4:	003ece06 	br	46ff0 <___vfprintf_internal_r+0x1fe8>

000474b8 <__vfprintf_internal>:
   474b8:	00c00174 	movhi	r3,5
   474bc:	2005883a 	mov	r2,r4
   474c0:	191d2c17 	ldw	r4,29872(r3)
   474c4:	300f883a 	mov	r7,r6
   474c8:	280d883a 	mov	r6,r5
   474cc:	100b883a 	mov	r5,r2
   474d0:	00450081 	jmpi	45008 <___vfprintf_internal_r>

000474d4 <__sbprintf>:
   474d4:	28c0038b 	ldhu	r3,14(r5)
   474d8:	2880030b 	ldhu	r2,12(r5)
   474dc:	2ac01917 	ldw	r11,100(r5)
   474e0:	1806943a 	slli	r3,r3,16
   474e4:	2a800717 	ldw	r10,28(r5)
   474e8:	2a400917 	ldw	r9,36(r5)
   474ec:	defee204 	addi	sp,sp,-1144
   474f0:	10bfff4c 	andi	r2,r2,65533
   474f4:	10c4b03a 	or	r2,r2,r3
   474f8:	da001a04 	addi	r8,sp,104
   474fc:	00c10004 	movi	r3,1024
   47500:	dc011a15 	stw	r16,1128(sp)
   47504:	2821883a 	mov	r16,r5
   47508:	d80b883a 	mov	r5,sp
   4750c:	dc811c15 	stw	r18,1136(sp)
   47510:	dc411b15 	stw	r17,1132(sp)
   47514:	dfc11d15 	stw	ra,1140(sp)
   47518:	2025883a 	mov	r18,r4
   4751c:	dac01915 	stw	r11,100(sp)
   47520:	d8800315 	stw	r2,12(sp)
   47524:	da800715 	stw	r10,28(sp)
   47528:	da400915 	stw	r9,36(sp)
   4752c:	da000015 	stw	r8,0(sp)
   47530:	da000415 	stw	r8,16(sp)
   47534:	d8c00215 	stw	r3,8(sp)
   47538:	d8c00515 	stw	r3,20(sp)
   4753c:	d8000615 	stw	zero,24(sp)
   47540:	00450080 	call	45008 <___vfprintf_internal_r>
   47544:	1023883a 	mov	r17,r2
   47548:	10000d0e 	bge	r2,zero,47580 <__sbprintf+0xac>
   4754c:	d880030b 	ldhu	r2,12(sp)
   47550:	1080100c 	andi	r2,r2,64
   47554:	10000326 	beq	r2,zero,47564 <__sbprintf+0x90>
   47558:	8080030b 	ldhu	r2,12(r16)
   4755c:	10801014 	ori	r2,r2,64
   47560:	8080030d 	sth	r2,12(r16)
   47564:	8805883a 	mov	r2,r17
   47568:	dfc11d17 	ldw	ra,1140(sp)
   4756c:	dc811c17 	ldw	r18,1136(sp)
   47570:	dc411b17 	ldw	r17,1132(sp)
   47574:	dc011a17 	ldw	r16,1128(sp)
   47578:	dec11e04 	addi	sp,sp,1144
   4757c:	f800283a 	ret
   47580:	d80b883a 	mov	r5,sp
   47584:	9009883a 	mov	r4,r18
   47588:	00492ec0 	call	492ec <_fflush_r>
   4758c:	103fef26 	beq	r2,zero,4754c <__sbprintf+0x78>
   47590:	047fffc4 	movi	r17,-1
   47594:	003fed06 	br	4754c <__sbprintf+0x78>

00047598 <__swsetup_r>:
   47598:	00800174 	movhi	r2,5
   4759c:	109d2c17 	ldw	r2,29872(r2)
   475a0:	defffd04 	addi	sp,sp,-12
   475a4:	dc400115 	stw	r17,4(sp)
   475a8:	dc000015 	stw	r16,0(sp)
   475ac:	dfc00215 	stw	ra,8(sp)
   475b0:	2023883a 	mov	r17,r4
   475b4:	2821883a 	mov	r16,r5
   475b8:	10000226 	beq	r2,zero,475c4 <__swsetup_r+0x2c>
   475bc:	10c00e17 	ldw	r3,56(r2)
   475c0:	18001d26 	beq	r3,zero,47638 <__swsetup_r+0xa0>
   475c4:	80c0030b 	ldhu	r3,12(r16)
   475c8:	1880020c 	andi	r2,r3,8
   475cc:	10001f26 	beq	r2,zero,4764c <__swsetup_r+0xb4>
   475d0:	80800417 	ldw	r2,16(r16)
   475d4:	10002626 	beq	r2,zero,47670 <__swsetup_r+0xd8>
   475d8:	1900004c 	andi	r4,r3,1
   475dc:	20000b1e 	bne	r4,zero,4760c <__swsetup_r+0x74>
   475e0:	1900008c 	andi	r4,r3,2
   475e4:	20002b1e 	bne	r4,zero,47694 <__swsetup_r+0xfc>
   475e8:	81000517 	ldw	r4,20(r16)
   475ec:	81000215 	stw	r4,8(r16)
   475f0:	10000b26 	beq	r2,zero,47620 <__swsetup_r+0x88>
   475f4:	0005883a 	mov	r2,zero
   475f8:	dfc00217 	ldw	ra,8(sp)
   475fc:	dc400117 	ldw	r17,4(sp)
   47600:	dc000017 	ldw	r16,0(sp)
   47604:	dec00304 	addi	sp,sp,12
   47608:	f800283a 	ret
   4760c:	81000517 	ldw	r4,20(r16)
   47610:	80000215 	stw	zero,8(r16)
   47614:	0109c83a 	sub	r4,zero,r4
   47618:	81000615 	stw	r4,24(r16)
   4761c:	103ff51e 	bne	r2,zero,475f4 <__swsetup_r+0x5c>
   47620:	1900200c 	andi	r4,r3,128
   47624:	203ff426 	beq	r4,zero,475f8 <__swsetup_r+0x60>
   47628:	18c01014 	ori	r3,r3,64
   4762c:	80c0030d 	sth	r3,12(r16)
   47630:	00bfffc4 	movi	r2,-1
   47634:	003ff006 	br	475f8 <__swsetup_r+0x60>
   47638:	1009883a 	mov	r4,r2
   4763c:	00497140 	call	49714 <__sinit>
   47640:	80c0030b 	ldhu	r3,12(r16)
   47644:	1880020c 	andi	r2,r3,8
   47648:	103fe11e 	bne	r2,zero,475d0 <__swsetup_r+0x38>
   4764c:	1880040c 	andi	r2,r3,16
   47650:	10002026 	beq	r2,zero,476d4 <__swsetup_r+0x13c>
   47654:	1880010c 	andi	r2,r3,4
   47658:	1000101e 	bne	r2,zero,4769c <__swsetup_r+0x104>
   4765c:	80800417 	ldw	r2,16(r16)
   47660:	19000214 	ori	r4,r3,8
   47664:	8100030d 	sth	r4,12(r16)
   47668:	2007883a 	mov	r3,r4
   4766c:	103fda1e 	bne	r2,zero,475d8 <__swsetup_r+0x40>
   47670:	1900a00c 	andi	r4,r3,640
   47674:	21008020 	cmpeqi	r4,r4,512
   47678:	203fd71e 	bne	r4,zero,475d8 <__swsetup_r+0x40>
   4767c:	800b883a 	mov	r5,r16
   47680:	8809883a 	mov	r4,r17
   47684:	0049ce80 	call	49ce8 <__smakebuf_r>
   47688:	80c0030b 	ldhu	r3,12(r16)
   4768c:	80800417 	ldw	r2,16(r16)
   47690:	003fd106 	br	475d8 <__swsetup_r+0x40>
   47694:	0009883a 	mov	r4,zero
   47698:	003fd406 	br	475ec <__swsetup_r+0x54>
   4769c:	81400c17 	ldw	r5,48(r16)
   476a0:	28000626 	beq	r5,zero,476bc <__swsetup_r+0x124>
   476a4:	80801004 	addi	r2,r16,64
   476a8:	28800326 	beq	r5,r2,476b8 <__swsetup_r+0x120>
   476ac:	8809883a 	mov	r4,r17
   476b0:	00498800 	call	49880 <_free_r>
   476b4:	80c0030b 	ldhu	r3,12(r16)
   476b8:	80000c15 	stw	zero,48(r16)
   476bc:	80800417 	ldw	r2,16(r16)
   476c0:	013ff6c4 	movi	r4,-37
   476c4:	20c6703a 	and	r3,r4,r3
   476c8:	80000115 	stw	zero,4(r16)
   476cc:	80800015 	stw	r2,0(r16)
   476d0:	003fe306 	br	47660 <__swsetup_r+0xc8>
   476d4:	00800244 	movi	r2,9
   476d8:	88800015 	stw	r2,0(r17)
   476dc:	18c01014 	ori	r3,r3,64
   476e0:	003fd206 	br	4762c <__swsetup_r+0x94>

000476e4 <quorem>:
   476e4:	defff204 	addi	sp,sp,-56
   476e8:	dc400515 	stw	r17,20(sp)
   476ec:	20800417 	ldw	r2,16(r4)
   476f0:	2c400417 	ldw	r17,16(r5)
   476f4:	dfc00d15 	stw	ra,52(sp)
   476f8:	df000c15 	stw	fp,48(sp)
   476fc:	ddc00b15 	stw	r23,44(sp)
   47700:	dd800a15 	stw	r22,40(sp)
   47704:	dd400915 	stw	r21,36(sp)
   47708:	dd000815 	stw	r20,32(sp)
   4770c:	dcc00715 	stw	r19,28(sp)
   47710:	dc800615 	stw	r18,24(sp)
   47714:	dc000415 	stw	r16,16(sp)
   47718:	d9000115 	stw	r4,4(sp)
   4771c:	d9400215 	stw	r5,8(sp)
   47720:	14407416 	blt	r2,r17,478f4 <quorem+0x210>
   47724:	8c7fffc4 	addi	r17,r17,-1
   47728:	882a90ba 	slli	r21,r17,2
   4772c:	2dc00504 	addi	r23,r5,20
   47730:	24c00504 	addi	r19,r4,20
   47734:	bd65883a 	add	r18,r23,r21
   47738:	9d45883a 	add	r2,r19,r21
   4773c:	97000017 	ldw	fp,0(r18)
   47740:	15000017 	ldw	r20,0(r2)
   47744:	d8800315 	stw	r2,12(sp)
   47748:	e7000044 	addi	fp,fp,1
   4774c:	e00b883a 	mov	r5,fp
   47750:	a009883a 	mov	r4,r20
   47754:	0040ab00 	call	40ab0 <__udivsi3>
   47758:	d8800015 	stw	r2,0(sp)
   4775c:	a7002e36 	bltu	r20,fp,47818 <quorem+0x134>
   47760:	b829883a 	mov	r20,r23
   47764:	982d883a 	mov	r22,r19
   47768:	0039883a 	mov	fp,zero
   4776c:	002b883a 	mov	r21,zero
   47770:	a4000017 	ldw	r16,0(r20)
   47774:	d9400017 	ldw	r5,0(sp)
   47778:	b5800104 	addi	r22,r22,4
   4777c:	813fffcc 	andi	r4,r16,65535
   47780:	0040b700 	call	40b70 <__mulsi3>
   47784:	8008d43a 	srli	r4,r16,16
   47788:	d9400017 	ldw	r5,0(sp)
   4778c:	1739883a 	add	fp,r2,fp
   47790:	a5000104 	addi	r20,r20,4
   47794:	0040b700 	call	40b70 <__mulsi3>
   47798:	b17fff17 	ldw	r5,-4(r22)
   4779c:	e13fffcc 	andi	r4,fp,65535
   477a0:	e038d43a 	srli	fp,fp,16
   477a4:	28ffffcc 	andi	r3,r5,65535
   477a8:	1907c83a 	sub	r3,r3,r4
   477ac:	1d47883a 	add	r3,r3,r21
   477b0:	1809d43a 	srai	r4,r3,16
   477b4:	280ad43a 	srli	r5,r5,16
   477b8:	1705883a 	add	r2,r2,fp
   477bc:	11bfffcc 	andi	r6,r2,65535
   477c0:	2189c83a 	sub	r4,r4,r6
   477c4:	2149883a 	add	r4,r4,r5
   477c8:	200a943a 	slli	r5,r4,16
   477cc:	18ffffcc 	andi	r3,r3,65535
   477d0:	1038d43a 	srli	fp,r2,16
   477d4:	1946b03a 	or	r3,r3,r5
   477d8:	b0ffff15 	stw	r3,-4(r22)
   477dc:	202bd43a 	srai	r21,r4,16
   477e0:	953fe32e 	bgeu	r18,r20,47770 <quorem+0x8c>
   477e4:	d8c00317 	ldw	r3,12(sp)
   477e8:	18800017 	ldw	r2,0(r3)
   477ec:	10000a1e 	bne	r2,zero,47818 <quorem+0x134>
   477f0:	1d7fff04 	addi	r21,r3,-4
   477f4:	9d400336 	bltu	r19,r21,47804 <quorem+0x120>
   477f8:	00000506 	br	47810 <quorem+0x12c>
   477fc:	8c7fffc4 	addi	r17,r17,-1
   47800:	9d40032e 	bgeu	r19,r21,47810 <quorem+0x12c>
   47804:	a8800017 	ldw	r2,0(r21)
   47808:	ad7fff04 	addi	r21,r21,-4
   4780c:	103ffb26 	beq	r2,zero,477fc <quorem+0x118>
   47810:	d8800117 	ldw	r2,4(sp)
   47814:	14400415 	stw	r17,16(r2)
   47818:	d9400217 	ldw	r5,8(sp)
   4781c:	d9000117 	ldw	r4,4(sp)
   47820:	004aac40 	call	4aac4 <__mcmp>
   47824:	10002616 	blt	r2,zero,478c0 <quorem+0x1dc>
   47828:	980d883a 	mov	r6,r19
   4782c:	0005883a 	mov	r2,zero
   47830:	31000017 	ldw	r4,0(r6)
   47834:	b9400017 	ldw	r5,0(r23)
   47838:	31800104 	addi	r6,r6,4
   4783c:	20ffffcc 	andi	r3,r4,65535
   47840:	29ffffcc 	andi	r7,r5,65535
   47844:	19c7c83a 	sub	r3,r3,r7
   47848:	1887883a 	add	r3,r3,r2
   4784c:	1805d43a 	srai	r2,r3,16
   47850:	280ad43a 	srli	r5,r5,16
   47854:	2008d43a 	srli	r4,r4,16
   47858:	18ffffcc 	andi	r3,r3,65535
   4785c:	1145c83a 	sub	r2,r2,r5
   47860:	1105883a 	add	r2,r2,r4
   47864:	1008943a 	slli	r4,r2,16
   47868:	bdc00104 	addi	r23,r23,4
   4786c:	1005d43a 	srai	r2,r2,16
   47870:	1906b03a 	or	r3,r3,r4
   47874:	30ffff15 	stw	r3,-4(r6)
   47878:	95ffed2e 	bgeu	r18,r23,47830 <quorem+0x14c>
   4787c:	880490ba 	slli	r2,r17,2
   47880:	9885883a 	add	r2,r19,r2
   47884:	10c00017 	ldw	r3,0(r2)
   47888:	18000a1e 	bne	r3,zero,478b4 <quorem+0x1d0>
   4788c:	10bfff04 	addi	r2,r2,-4
   47890:	98800336 	bltu	r19,r2,478a0 <quorem+0x1bc>
   47894:	00000506 	br	478ac <quorem+0x1c8>
   47898:	8c7fffc4 	addi	r17,r17,-1
   4789c:	9880032e 	bgeu	r19,r2,478ac <quorem+0x1c8>
   478a0:	10c00017 	ldw	r3,0(r2)
   478a4:	10bfff04 	addi	r2,r2,-4
   478a8:	183ffb26 	beq	r3,zero,47898 <quorem+0x1b4>
   478ac:	d8800117 	ldw	r2,4(sp)
   478b0:	14400415 	stw	r17,16(r2)
   478b4:	d8800017 	ldw	r2,0(sp)
   478b8:	10800044 	addi	r2,r2,1
   478bc:	d8800015 	stw	r2,0(sp)
   478c0:	d8800017 	ldw	r2,0(sp)
   478c4:	dfc00d17 	ldw	ra,52(sp)
   478c8:	df000c17 	ldw	fp,48(sp)
   478cc:	ddc00b17 	ldw	r23,44(sp)
   478d0:	dd800a17 	ldw	r22,40(sp)
   478d4:	dd400917 	ldw	r21,36(sp)
   478d8:	dd000817 	ldw	r20,32(sp)
   478dc:	dcc00717 	ldw	r19,28(sp)
   478e0:	dc800617 	ldw	r18,24(sp)
   478e4:	dc400517 	ldw	r17,20(sp)
   478e8:	dc000417 	ldw	r16,16(sp)
   478ec:	dec00e04 	addi	sp,sp,56
   478f0:	f800283a 	ret
   478f4:	0005883a 	mov	r2,zero
   478f8:	003ff206 	br	478c4 <quorem+0x1e0>

000478fc <_dtoa_r>:
   478fc:	20801017 	ldw	r2,64(r4)
   47900:	deffe104 	addi	sp,sp,-124
   47904:	dd401a15 	stw	r21,104(sp)
   47908:	dc801715 	stw	r18,92(sp)
   4790c:	dc401615 	stw	r17,88(sp)
   47910:	dc001515 	stw	r16,84(sp)
   47914:	dfc01e15 	stw	ra,120(sp)
   47918:	df001d15 	stw	fp,116(sp)
   4791c:	ddc01c15 	stw	r23,112(sp)
   47920:	dd801b15 	stw	r22,108(sp)
   47924:	dd001915 	stw	r20,100(sp)
   47928:	dcc01815 	stw	r19,96(sp)
   4792c:	d9400215 	stw	r5,8(sp)
   47930:	d9c00115 	stw	r7,4(sp)
   47934:	dc402117 	ldw	r17,132(sp)
   47938:	2021883a 	mov	r16,r4
   4793c:	3025883a 	mov	r18,r6
   47940:	302b883a 	mov	r21,r6
   47944:	10000826 	beq	r2,zero,47968 <_dtoa_r+0x6c>
   47948:	21801117 	ldw	r6,68(r4)
   4794c:	00c00044 	movi	r3,1
   47950:	100b883a 	mov	r5,r2
   47954:	1986983a 	sll	r3,r3,r6
   47958:	11800115 	stw	r6,4(r2)
   4795c:	10c00215 	stw	r3,8(r2)
   47960:	004a0b40 	call	4a0b4 <_Bfree>
   47964:	80001015 	stw	zero,64(r16)
   47968:	90019316 	blt	r18,zero,47fb8 <_dtoa_r+0x6bc>
   4796c:	88000015 	stw	zero,0(r17)
   47970:	909ffc2c 	andhi	r2,r18,32752
   47974:	00dffc34 	movhi	r3,32752
   47978:	10c19826 	beq	r2,r3,47fdc <_dtoa_r+0x6e0>
   4797c:	d9000217 	ldw	r4,8(sp)
   47980:	000d883a 	mov	r6,zero
   47984:	000f883a 	mov	r7,zero
   47988:	a80b883a 	mov	r5,r21
   4798c:	0050b3c0 	call	50b3c <__eqdf2>
   47990:	1000181e 	bne	r2,zero,479f4 <_dtoa_r+0xf8>
   47994:	d8c02017 	ldw	r3,128(sp)
   47998:	00800044 	movi	r2,1
   4799c:	18800015 	stw	r2,0(r3)
   479a0:	d8802217 	ldw	r2,136(sp)
   479a4:	10000426 	beq	r2,zero,479b8 <_dtoa_r+0xbc>
   479a8:	d8c02217 	ldw	r3,136(sp)
   479ac:	00800174 	movhi	r2,5
   479b0:	1094df44 	addi	r2,r2,21373
   479b4:	18800015 	stw	r2,0(r3)
   479b8:	07000174 	movhi	fp,5
   479bc:	e714df04 	addi	fp,fp,21372
   479c0:	e005883a 	mov	r2,fp
   479c4:	dfc01e17 	ldw	ra,120(sp)
   479c8:	df001d17 	ldw	fp,116(sp)
   479cc:	ddc01c17 	ldw	r23,112(sp)
   479d0:	dd801b17 	ldw	r22,108(sp)
   479d4:	dd401a17 	ldw	r21,104(sp)
   479d8:	dd001917 	ldw	r20,100(sp)
   479dc:	dcc01817 	ldw	r19,96(sp)
   479e0:	dc801717 	ldw	r18,92(sp)
   479e4:	dc401617 	ldw	r17,88(sp)
   479e8:	dc001517 	ldw	r16,84(sp)
   479ec:	dec01f04 	addi	sp,sp,124
   479f0:	f800283a 	ret
   479f4:	dcc00217 	ldw	r19,8(sp)
   479f8:	d8801304 	addi	r2,sp,76
   479fc:	9022d53a 	srli	r17,r18,20
   47a00:	d8800015 	stw	r2,0(sp)
   47a04:	d9c01404 	addi	r7,sp,80
   47a08:	980b883a 	mov	r5,r19
   47a0c:	a80d883a 	mov	r6,r21
   47a10:	8009883a 	mov	r4,r16
   47a14:	004aeac0 	call	4aeac <__d2b>
   47a18:	102f883a 	mov	r23,r2
   47a1c:	8801811e 	bne	r17,zero,48024 <_dtoa_r+0x728>
   47a20:	dd001317 	ldw	r20,76(sp)
   47a24:	dc401417 	ldw	r17,80(sp)
   47a28:	a463883a 	add	r17,r20,r17
   47a2c:	88810c84 	addi	r2,r17,1074
   47a30:	10c00850 	cmplti	r3,r2,33
   47a34:	1803101e 	bne	r3,zero,48678 <_dtoa_r+0xd7c>
   47a38:	00c01004 	movi	r3,64
   47a3c:	1887c83a 	sub	r3,r3,r2
   47a40:	90c8983a 	sll	r4,r18,r3
   47a44:	d8c00217 	ldw	r3,8(sp)
   47a48:	88810484 	addi	r2,r17,1042
   47a4c:	1884d83a 	srl	r2,r3,r2
   47a50:	2088b03a 	or	r4,r4,r2
   47a54:	00520740 	call	52074 <__floatunsidf>
   47a58:	1009883a 	mov	r4,r2
   47a5c:	00bf8434 	movhi	r2,65040
   47a60:	188b883a 	add	r5,r3,r2
   47a64:	00800044 	movi	r2,1
   47a68:	8c7fffc4 	addi	r17,r17,-1
   47a6c:	d8800915 	stw	r2,36(sp)
   47a70:	000d883a 	mov	r6,zero
   47a74:	01cffe34 	movhi	r7,16376
   47a78:	00515cc0 	call	515cc <__subdf3>
   47a7c:	0198dbf4 	movhi	r6,25455
   47a80:	01cff4f4 	movhi	r7,16339
   47a84:	3190d844 	addi	r6,r6,17249
   47a88:	39e1e9c4 	addi	r7,r7,-30809
   47a8c:	1009883a 	mov	r4,r2
   47a90:	180b883a 	mov	r5,r3
   47a94:	0050dc40 	call	50dc4 <__muldf3>
   47a98:	01a2d874 	movhi	r6,35681
   47a9c:	01cff1f4 	movhi	r7,16327
   47aa0:	31b22cc4 	addi	r6,r6,-14157
   47aa4:	39e28a04 	addi	r7,r7,-30168
   47aa8:	180b883a 	mov	r5,r3
   47aac:	1009883a 	mov	r4,r2
   47ab0:	00415640 	call	41564 <__adddf3>
   47ab4:	8809883a 	mov	r4,r17
   47ab8:	1027883a 	mov	r19,r2
   47abc:	1825883a 	mov	r18,r3
   47ac0:	0051fbc0 	call	51fbc <__floatsidf>
   47ac4:	019427f4 	movhi	r6,20639
   47ac8:	01cff4f4 	movhi	r7,16339
   47acc:	319e7ec4 	addi	r6,r6,31227
   47ad0:	39d104c4 	addi	r7,r7,17427
   47ad4:	1009883a 	mov	r4,r2
   47ad8:	180b883a 	mov	r5,r3
   47adc:	0050dc40 	call	50dc4 <__muldf3>
   47ae0:	100d883a 	mov	r6,r2
   47ae4:	180f883a 	mov	r7,r3
   47ae8:	9809883a 	mov	r4,r19
   47aec:	900b883a 	mov	r5,r18
   47af0:	00415640 	call	41564 <__adddf3>
   47af4:	1009883a 	mov	r4,r2
   47af8:	180b883a 	mov	r5,r3
   47afc:	1027883a 	mov	r19,r2
   47b00:	1825883a 	mov	r18,r3
   47b04:	0041e680 	call	41e68 <__fixdfsi>
   47b08:	000d883a 	mov	r6,zero
   47b0c:	000f883a 	mov	r7,zero
   47b10:	9809883a 	mov	r4,r19
   47b14:	900b883a 	mov	r5,r18
   47b18:	102d883a 	mov	r22,r2
   47b1c:	0050ccc0 	call	50ccc <__ledf2>
   47b20:	1002a616 	blt	r2,zero,485bc <_dtoa_r+0xcc0>
   47b24:	a469c83a 	sub	r20,r20,r17
   47b28:	a0ffffc4 	addi	r3,r20,-1
   47b2c:	b08005e8 	cmpgeui	r2,r22,23
   47b30:	d8c00415 	stw	r3,16(sp)
   47b34:	1002981e 	bne	r2,zero,48598 <_dtoa_r+0xc9c>
   47b38:	b00490fa 	slli	r2,r22,3
   47b3c:	02c00174 	movhi	r11,5
   47b40:	5ad53004 	addi	r11,r11,21696
   47b44:	5885883a 	add	r2,r11,r2
   47b48:	11800017 	ldw	r6,0(r2)
   47b4c:	11c00117 	ldw	r7,4(r2)
   47b50:	d9000217 	ldw	r4,8(sp)
   47b54:	a80b883a 	mov	r5,r21
   47b58:	0050ccc0 	call	50ccc <__ledf2>
   47b5c:	1001d60e 	bge	r2,zero,482b8 <_dtoa_r+0x9bc>
   47b60:	d8000815 	stw	zero,32(sp)
   47b64:	a0bfffc4 	addi	r2,r20,-1
   47b68:	b5bfffc4 	addi	r22,r22,-1
   47b6c:	10028e16 	blt	r2,zero,485a8 <_dtoa_r+0xcac>
   47b70:	d8000515 	stw	zero,20(sp)
   47b74:	b001d30e 	bge	r22,zero,482c4 <_dtoa_r+0x9c8>
   47b78:	d8800517 	ldw	r2,20(sp)
   47b7c:	d8c00117 	ldw	r3,4(sp)
   47b80:	dd800615 	stw	r22,24(sp)
   47b84:	1585c83a 	sub	r2,r2,r22
   47b88:	d8800515 	stw	r2,20(sp)
   47b8c:	0585c83a 	sub	r2,zero,r22
   47b90:	d8800315 	stw	r2,12(sp)
   47b94:	188002a8 	cmpgeui	r2,r3,10
   47b98:	002d883a 	mov	r22,zero
   47b9c:	1001d11e 	bne	r2,zero,482e4 <_dtoa_r+0x9e8>
   47ba0:	18800190 	cmplti	r2,r3,6
   47ba4:	1002a31e 	bne	r2,zero,48634 <_dtoa_r+0xd38>
   47ba8:	18ffff04 	addi	r3,r3,-4
   47bac:	d8c00115 	stw	r3,4(sp)
   47bb0:	188000e0 	cmpeqi	r2,r3,3
   47bb4:	0023883a 	mov	r17,zero
   47bb8:	1003b71e 	bne	r2,zero,48a98 <_dtoa_r+0x119c>
   47bbc:	18800108 	cmpgei	r2,r3,4
   47bc0:	1003a626 	beq	r2,zero,48a5c <_dtoa_r+0x1160>
   47bc4:	d8800117 	ldw	r2,4(sp)
   47bc8:	10800120 	cmpeqi	r2,r2,4
   47bcc:	1003611e 	bne	r2,zero,48954 <_dtoa_r+0x1058>
   47bd0:	00800144 	movi	r2,5
   47bd4:	d8800115 	stw	r2,4(sp)
   47bd8:	00800044 	movi	r2,1
   47bdc:	d8800715 	stw	r2,28(sp)
   47be0:	d8801f17 	ldw	r2,124(sp)
   47be4:	d8c00617 	ldw	r3,24(sp)
   47be8:	10c5883a 	add	r2,r2,r3
   47bec:	14800044 	addi	r18,r2,1
   47bf0:	d8800a15 	stw	r2,40(sp)
   47bf4:	900d883a 	mov	r6,r18
   47bf8:	0485320e 	bge	zero,r18,490c4 <_dtoa_r+0x17c8>
   47bfc:	30800608 	cmpgei	r2,r6,24
   47c00:	10053026 	beq	r2,zero,490c4 <_dtoa_r+0x17c8>
   47c04:	00c00044 	movi	r3,1
   47c08:	00800104 	movi	r2,4
   47c0c:	1085883a 	add	r2,r2,r2
   47c10:	11000504 	addi	r4,r2,20
   47c14:	180b883a 	mov	r5,r3
   47c18:	18c00044 	addi	r3,r3,1
   47c1c:	313ffb2e 	bgeu	r6,r4,47c0c <_dtoa_r+0x310>
   47c20:	81401115 	stw	r5,68(r16)
   47c24:	8009883a 	mov	r4,r16
   47c28:	004a0100 	call	4a010 <_Balloc>
   47c2c:	1039883a 	mov	fp,r2
   47c30:	10050d26 	beq	r2,zero,49068 <_dtoa_r+0x176c>
   47c34:	80801015 	stw	r2,64(r16)
   47c38:	908003e8 	cmpgeui	r2,r18,15
   47c3c:	1001291e 	bne	r2,zero,480e4 <_dtoa_r+0x7e8>
   47c40:	88012826 	beq	r17,zero,480e4 <_dtoa_r+0x7e8>
   47c44:	d8c00617 	ldw	r3,24(sp)
   47c48:	00c3b40e 	bge	zero,r3,48b1c <_dtoa_r+0x1220>
   47c4c:	188003cc 	andi	r2,r3,15
   47c50:	100490fa 	slli	r2,r2,3
   47c54:	1823d13a 	srai	r17,r3,4
   47c58:	02c00174 	movhi	r11,5
   47c5c:	5ad53004 	addi	r11,r11,21696
   47c60:	5885883a 	add	r2,r11,r2
   47c64:	88c0040c 	andi	r3,r17,16
   47c68:	12400017 	ldw	r9,0(r2)
   47c6c:	12000117 	ldw	r8,4(r2)
   47c70:	18037626 	beq	r3,zero,48a4c <_dtoa_r+0x1150>
   47c74:	00800174 	movhi	r2,5
   47c78:	10952604 	addi	r2,r2,21656
   47c7c:	d9000217 	ldw	r4,8(sp)
   47c80:	11800817 	ldw	r6,32(r2)
   47c84:	11c00917 	ldw	r7,36(r2)
   47c88:	a80b883a 	mov	r5,r21
   47c8c:	da000c15 	stw	r8,48(sp)
   47c90:	da400b15 	stw	r9,44(sp)
   47c94:	00502500 	call	50250 <__divdf3>
   47c98:	da400b17 	ldw	r9,44(sp)
   47c9c:	da000c17 	ldw	r8,48(sp)
   47ca0:	8c4003cc 	andi	r17,r17,15
   47ca4:	1009883a 	mov	r4,r2
   47ca8:	180b883a 	mov	r5,r3
   47cac:	04c000c4 	movi	r19,3
   47cb0:	88001c26 	beq	r17,zero,47d24 <_dtoa_r+0x428>
   47cb4:	05000174 	movhi	r20,5
   47cb8:	a5152604 	addi	r20,r20,21656
   47cbc:	dc800b15 	stw	r18,44(sp)
   47cc0:	dc000c15 	stw	r16,48(sp)
   47cc4:	9825883a 	mov	r18,r19
   47cc8:	a021883a 	mov	r16,r20
   47ccc:	2827883a 	mov	r19,r5
   47cd0:	2029883a 	mov	r20,r4
   47cd4:	400b883a 	mov	r5,r8
   47cd8:	4809883a 	mov	r4,r9
   47cdc:	8980004c 	andi	r6,r17,1
   47ce0:	30000626 	beq	r6,zero,47cfc <_dtoa_r+0x400>
   47ce4:	81800017 	ldw	r6,0(r16)
   47ce8:	81c00117 	ldw	r7,4(r16)
   47cec:	94800044 	addi	r18,r18,1
   47cf0:	0050dc40 	call	50dc4 <__muldf3>
   47cf4:	1009883a 	mov	r4,r2
   47cf8:	180b883a 	mov	r5,r3
   47cfc:	8823d07a 	srai	r17,r17,1
   47d00:	84000204 	addi	r16,r16,8
   47d04:	883ff51e 	bne	r17,zero,47cdc <_dtoa_r+0x3e0>
   47d08:	2811883a 	mov	r8,r5
   47d0c:	dc000c17 	ldw	r16,48(sp)
   47d10:	980b883a 	mov	r5,r19
   47d14:	9027883a 	mov	r19,r18
   47d18:	dc800b17 	ldw	r18,44(sp)
   47d1c:	2013883a 	mov	r9,r4
   47d20:	a009883a 	mov	r4,r20
   47d24:	480d883a 	mov	r6,r9
   47d28:	400f883a 	mov	r7,r8
   47d2c:	00502500 	call	50250 <__divdf3>
   47d30:	1023883a 	mov	r17,r2
   47d34:	1829883a 	mov	r20,r3
   47d38:	d8800817 	ldw	r2,32(sp)
   47d3c:	10000626 	beq	r2,zero,47d58 <_dtoa_r+0x45c>
   47d40:	000d883a 	mov	r6,zero
   47d44:	01cffc34 	movhi	r7,16368
   47d48:	8809883a 	mov	r4,r17
   47d4c:	a00b883a 	mov	r5,r20
   47d50:	0050ccc0 	call	50ccc <__ledf2>
   47d54:	10045a16 	blt	r2,zero,48ec0 <_dtoa_r+0x15c4>
   47d58:	9809883a 	mov	r4,r19
   47d5c:	0051fbc0 	call	51fbc <__floatsidf>
   47d60:	880d883a 	mov	r6,r17
   47d64:	a00f883a 	mov	r7,r20
   47d68:	1009883a 	mov	r4,r2
   47d6c:	180b883a 	mov	r5,r3
   47d70:	0050dc40 	call	50dc4 <__muldf3>
   47d74:	000d883a 	mov	r6,zero
   47d78:	01d00734 	movhi	r7,16412
   47d7c:	1009883a 	mov	r4,r2
   47d80:	180b883a 	mov	r5,r3
   47d84:	00415640 	call	41564 <__adddf3>
   47d88:	d8800b15 	stw	r2,44(sp)
   47d8c:	00bf3034 	movhi	r2,64704
   47d90:	18a7883a 	add	r19,r3,r2
   47d94:	9000c026 	beq	r18,zero,48098 <_dtoa_r+0x79c>
   47d98:	d8800617 	ldw	r2,24(sp)
   47d9c:	dc800c15 	stw	r18,48(sp)
   47da0:	d8801115 	stw	r2,68(sp)
   47da4:	d8800c17 	ldw	r2,48(sp)
   47da8:	02c00174 	movhi	r11,5
   47dac:	5ad53004 	addi	r11,r11,21696
   47db0:	10bfffc4 	addi	r2,r2,-1
   47db4:	100490fa 	slli	r2,r2,3
   47db8:	8809883a 	mov	r4,r17
   47dbc:	a00b883a 	mov	r5,r20
   47dc0:	5885883a 	add	r2,r11,r2
   47dc4:	10c00017 	ldw	r3,0(r2)
   47dc8:	10800117 	ldw	r2,4(r2)
   47dcc:	dac00d15 	stw	r11,52(sp)
   47dd0:	d8c00f15 	stw	r3,60(sp)
   47dd4:	d8801015 	stw	r2,64(sp)
   47dd8:	0041e680 	call	41e68 <__fixdfsi>
   47ddc:	11400c04 	addi	r5,r2,48
   47de0:	1009883a 	mov	r4,r2
   47de4:	d9400e15 	stw	r5,56(sp)
   47de8:	0051fbc0 	call	51fbc <__floatsidf>
   47dec:	8809883a 	mov	r4,r17
   47df0:	a00b883a 	mov	r5,r20
   47df4:	100d883a 	mov	r6,r2
   47df8:	180f883a 	mov	r7,r3
   47dfc:	00515cc0 	call	515cc <__subdf3>
   47e00:	d9000717 	ldw	r4,28(sp)
   47e04:	dac00d17 	ldw	r11,52(sp)
   47e08:	e2000044 	addi	r8,fp,1
   47e0c:	1029883a 	mov	r20,r2
   47e10:	1823883a 	mov	r17,r3
   47e14:	2003ce26 	beq	r4,zero,48d50 <_dtoa_r+0x1454>
   47e18:	d9800f17 	ldw	r6,60(sp)
   47e1c:	d9c01017 	ldw	r7,64(sp)
   47e20:	0009883a 	mov	r4,zero
   47e24:	014ff834 	movhi	r5,16352
   47e28:	da001215 	stw	r8,72(sp)
   47e2c:	00502500 	call	50250 <__divdf3>
   47e30:	d9800b17 	ldw	r6,44(sp)
   47e34:	980f883a 	mov	r7,r19
   47e38:	1009883a 	mov	r4,r2
   47e3c:	180b883a 	mov	r5,r3
   47e40:	00515cc0 	call	515cc <__subdf3>
   47e44:	1009883a 	mov	r4,r2
   47e48:	d8800e17 	ldw	r2,56(sp)
   47e4c:	180b883a 	mov	r5,r3
   47e50:	a00d883a 	mov	r6,r20
   47e54:	e0800005 	stb	r2,0(fp)
   47e58:	880f883a 	mov	r7,r17
   47e5c:	d9000d15 	stw	r4,52(sp)
   47e60:	d8c00b15 	stw	r3,44(sp)
   47e64:	0050bd00 	call	50bd0 <__gedf2>
   47e68:	d9400b17 	ldw	r5,44(sp)
   47e6c:	d9000d17 	ldw	r4,52(sp)
   47e70:	da001217 	ldw	r8,72(sp)
   47e74:	00840b16 	blt	zero,r2,48ea4 <_dtoa_r+0x15a8>
   47e78:	0005883a 	mov	r2,zero
   47e7c:	dc800d15 	stw	r18,52(sp)
   47e80:	dd800e15 	stw	r22,56(sp)
   47e84:	ddc00b15 	stw	r23,44(sp)
   47e88:	dd400f15 	stw	r21,60(sp)
   47e8c:	ddc00c17 	ldw	r23,48(sp)
   47e90:	402d883a 	mov	r22,r8
   47e94:	dc000c15 	stw	r16,48(sp)
   47e98:	2025883a 	mov	r18,r4
   47e9c:	2827883a 	mov	r19,r5
   47ea0:	102b883a 	mov	r21,r2
   47ea4:	00002606 	br	47f40 <_dtoa_r+0x644>
   47ea8:	ad400044 	addi	r21,r21,1
   47eac:	adc4460e 	bge	r21,r23,48fc8 <_dtoa_r+0x16cc>
   47eb0:	9009883a 	mov	r4,r18
   47eb4:	980b883a 	mov	r5,r19
   47eb8:	000d883a 	mov	r6,zero
   47ebc:	01d00934 	movhi	r7,16420
   47ec0:	0050dc40 	call	50dc4 <__muldf3>
   47ec4:	000d883a 	mov	r6,zero
   47ec8:	01d00934 	movhi	r7,16420
   47ecc:	a009883a 	mov	r4,r20
   47ed0:	880b883a 	mov	r5,r17
   47ed4:	1025883a 	mov	r18,r2
   47ed8:	1827883a 	mov	r19,r3
   47edc:	0050dc40 	call	50dc4 <__muldf3>
   47ee0:	180b883a 	mov	r5,r3
   47ee4:	1009883a 	mov	r4,r2
   47ee8:	1823883a 	mov	r17,r3
   47eec:	1029883a 	mov	r20,r2
   47ef0:	0041e680 	call	41e68 <__fixdfsi>
   47ef4:	1009883a 	mov	r4,r2
   47ef8:	1021883a 	mov	r16,r2
   47efc:	0051fbc0 	call	51fbc <__floatsidf>
   47f00:	a009883a 	mov	r4,r20
   47f04:	880b883a 	mov	r5,r17
   47f08:	100d883a 	mov	r6,r2
   47f0c:	180f883a 	mov	r7,r3
   47f10:	00515cc0 	call	515cc <__subdf3>
   47f14:	b5800044 	addi	r22,r22,1
   47f18:	82000c04 	addi	r8,r16,48
   47f1c:	b23fffc5 	stb	r8,-1(r22)
   47f20:	900d883a 	mov	r6,r18
   47f24:	980f883a 	mov	r7,r19
   47f28:	1009883a 	mov	r4,r2
   47f2c:	180b883a 	mov	r5,r3
   47f30:	1029883a 	mov	r20,r2
   47f34:	1823883a 	mov	r17,r3
   47f38:	0050ccc0 	call	50ccc <__ledf2>
   47f3c:	10041e16 	blt	r2,zero,48fb8 <_dtoa_r+0x16bc>
   47f40:	a00d883a 	mov	r6,r20
   47f44:	880f883a 	mov	r7,r17
   47f48:	0009883a 	mov	r4,zero
   47f4c:	014ffc34 	movhi	r5,16368
   47f50:	00515cc0 	call	515cc <__subdf3>
   47f54:	900d883a 	mov	r6,r18
   47f58:	980f883a 	mov	r7,r19
   47f5c:	1009883a 	mov	r4,r2
   47f60:	180b883a 	mov	r5,r3
   47f64:	0050ccc0 	call	50ccc <__ledf2>
   47f68:	103fcf0e 	bge	r2,zero,47ea8 <_dtoa_r+0x5ac>
   47f6c:	d8801117 	ldw	r2,68(sp)
   47f70:	b027883a 	mov	r19,r22
   47f74:	ddc00b17 	ldw	r23,44(sp)
   47f78:	dc000c17 	ldw	r16,48(sp)
   47f7c:	15800044 	addi	r22,r2,1
   47f80:	00000106 	br	47f88 <_dtoa_r+0x68c>
   47f84:	e4c3ed26 	beq	fp,r19,48f3c <_dtoa_r+0x1640>
   47f88:	98ffffc3 	ldbu	r3,-1(r19)
   47f8c:	9811883a 	mov	r8,r19
   47f90:	9cffffc4 	addi	r19,r19,-1
   47f94:	18803fcc 	andi	r2,r3,255
   47f98:	1080201c 	xori	r2,r2,128
   47f9c:	10bfe004 	addi	r2,r2,-128
   47fa0:	10800e60 	cmpeqi	r2,r2,57
   47fa4:	103ff71e 	bne	r2,zero,47f84 <_dtoa_r+0x688>
   47fa8:	18c00044 	addi	r3,r3,1
   47fac:	98c00005 	stb	r3,0(r19)
   47fb0:	b02b883a 	mov	r21,r22
   47fb4:	00015a06 	br	48520 <_dtoa_r+0xc24>
   47fb8:	00a00034 	movhi	r2,32768
   47fbc:	10bfffc4 	addi	r2,r2,-1
   47fc0:	90aa703a 	and	r21,r18,r2
   47fc4:	a825883a 	mov	r18,r21
   47fc8:	00800044 	movi	r2,1
   47fcc:	88800015 	stw	r2,0(r17)
   47fd0:	00dffc34 	movhi	r3,32752
   47fd4:	909ffc2c 	andhi	r2,r18,32752
   47fd8:	10fe681e 	bne	r2,r3,4797c <_dtoa_r+0x80>
   47fdc:	d9002017 	ldw	r4,128(sp)
   47fe0:	00c9c3c4 	movi	r3,9999
   47fe4:	00800434 	movhi	r2,16
   47fe8:	20c00015 	stw	r3,0(r4)
   47fec:	d8c00217 	ldw	r3,8(sp)
   47ff0:	10bfffc4 	addi	r2,r2,-1
   47ff4:	9084703a 	and	r2,r18,r2
   47ff8:	10c4b03a 	or	r2,r2,r3
   47ffc:	1000121e 	bne	r2,zero,48048 <_dtoa_r+0x74c>
   48000:	d8802217 	ldw	r2,136(sp)
   48004:	07000174 	movhi	fp,5
   48008:	10041e26 	beq	r2,zero,49084 <_dtoa_r+0x1788>
   4800c:	00800174 	movhi	r2,5
   48010:	e714f004 	addi	fp,fp,21440
   48014:	1094f204 	addi	r2,r2,21448
   48018:	d8c02217 	ldw	r3,136(sp)
   4801c:	18800015 	stw	r2,0(r3)
   48020:	003e6706 	br	479c0 <_dtoa_r+0xc4>
   48024:	01400434 	movhi	r5,16
   48028:	297fffc4 	addi	r5,r5,-1
   4802c:	a94a703a 	and	r5,r21,r5
   48030:	dd001317 	ldw	r20,76(sp)
   48034:	9809883a 	mov	r4,r19
   48038:	294ffc34 	orhi	r5,r5,16368
   4803c:	8c7f0044 	addi	r17,r17,-1023
   48040:	d8000915 	stw	zero,36(sp)
   48044:	003e8a06 	br	47a70 <_dtoa_r+0x174>
   48048:	d8802217 	ldw	r2,136(sp)
   4804c:	07000174 	movhi	fp,5
   48050:	10023c1e 	bne	r2,zero,48944 <_dtoa_r+0x1048>
   48054:	e714f304 	addi	fp,fp,21452
   48058:	003e5906 	br	479c0 <_dtoa_r+0xc4>
   4805c:	9809883a 	mov	r4,r19
   48060:	0051fbc0 	call	51fbc <__floatsidf>
   48064:	880d883a 	mov	r6,r17
   48068:	a00f883a 	mov	r7,r20
   4806c:	1009883a 	mov	r4,r2
   48070:	180b883a 	mov	r5,r3
   48074:	0050dc40 	call	50dc4 <__muldf3>
   48078:	000d883a 	mov	r6,zero
   4807c:	01d00734 	movhi	r7,16412
   48080:	1009883a 	mov	r4,r2
   48084:	180b883a 	mov	r5,r3
   48088:	00415640 	call	41564 <__adddf3>
   4808c:	d8800b15 	stw	r2,44(sp)
   48090:	00bf3034 	movhi	r2,64704
   48094:	18a7883a 	add	r19,r3,r2
   48098:	8809883a 	mov	r4,r17
   4809c:	a00b883a 	mov	r5,r20
   480a0:	000d883a 	mov	r6,zero
   480a4:	01d00534 	movhi	r7,16404
   480a8:	00515cc0 	call	515cc <__subdf3>
   480ac:	d9800b17 	ldw	r6,44(sp)
   480b0:	980f883a 	mov	r7,r19
   480b4:	1009883a 	mov	r4,r2
   480b8:	180b883a 	mov	r5,r3
   480bc:	1029883a 	mov	r20,r2
   480c0:	1823883a 	mov	r17,r3
   480c4:	0050bd00 	call	50bd0 <__gedf2>
   480c8:	0083a716 	blt	zero,r2,48f68 <_dtoa_r+0x166c>
   480cc:	d9800b17 	ldw	r6,44(sp)
   480d0:	99e0003c 	xorhi	r7,r19,32768
   480d4:	a009883a 	mov	r4,r20
   480d8:	880b883a 	mov	r5,r17
   480dc:	0050ccc0 	call	50ccc <__ledf2>
   480e0:	10001d16 	blt	r2,zero,48158 <_dtoa_r+0x85c>
   480e4:	d8801417 	ldw	r2,80(sp)
   480e8:	10008816 	blt	r2,zero,4830c <_dtoa_r+0xa10>
   480ec:	d8c00617 	ldw	r3,24(sp)
   480f0:	18c003d0 	cmplti	r3,r3,15
   480f4:	18008526 	beq	r3,zero,4830c <_dtoa_r+0xa10>
   480f8:	02c00174 	movhi	r11,5
   480fc:	5ad53004 	addi	r11,r11,21696
   48100:	d8800617 	ldw	r2,24(sp)
   48104:	100490fa 	slli	r2,r2,3
   48108:	5885883a 	add	r2,r11,r2
   4810c:	10c00017 	ldw	r3,0(r2)
   48110:	10800117 	ldw	r2,4(r2)
   48114:	d8c00115 	stw	r3,4(sp)
   48118:	d8800315 	stw	r2,12(sp)
   4811c:	d8801f17 	ldw	r2,124(sp)
   48120:	1000130e 	bge	r2,zero,48170 <_dtoa_r+0x874>
   48124:	04801216 	blt	zero,r18,48170 <_dtoa_r+0x874>
   48128:	90000b1e 	bne	r18,zero,48158 <_dtoa_r+0x85c>
   4812c:	d9000117 	ldw	r4,4(sp)
   48130:	d9400317 	ldw	r5,12(sp)
   48134:	000d883a 	mov	r6,zero
   48138:	01d00534 	movhi	r7,16404
   4813c:	0050dc40 	call	50dc4 <__muldf3>
   48140:	d9000217 	ldw	r4,8(sp)
   48144:	100d883a 	mov	r6,r2
   48148:	180f883a 	mov	r7,r3
   4814c:	a80b883a 	mov	r5,r21
   48150:	0050ccc0 	call	50ccc <__ledf2>
   48154:	00838416 	blt	zero,r2,48f68 <_dtoa_r+0x166c>
   48158:	e011883a 	mov	r8,fp
   4815c:	d8000315 	stw	zero,12(sp)
   48160:	0023883a 	mov	r17,zero
   48164:	d8801f17 	ldw	r2,124(sp)
   48168:	00a4303a 	nor	r18,zero,r2
   4816c:	0001da06 	br	488d8 <_dtoa_r+0xfdc>
   48170:	dcc00117 	ldw	r19,4(sp)
   48174:	dd000317 	ldw	r20,12(sp)
   48178:	dd800217 	ldw	r22,8(sp)
   4817c:	980d883a 	mov	r6,r19
   48180:	a00f883a 	mov	r7,r20
   48184:	b009883a 	mov	r4,r22
   48188:	a80b883a 	mov	r5,r21
   4818c:	00502500 	call	50250 <__divdf3>
   48190:	180b883a 	mov	r5,r3
   48194:	1009883a 	mov	r4,r2
   48198:	0041e680 	call	41e68 <__fixdfsi>
   4819c:	1009883a 	mov	r4,r2
   481a0:	1023883a 	mov	r17,r2
   481a4:	0051fbc0 	call	51fbc <__floatsidf>
   481a8:	980d883a 	mov	r6,r19
   481ac:	a00f883a 	mov	r7,r20
   481b0:	1009883a 	mov	r4,r2
   481b4:	180b883a 	mov	r5,r3
   481b8:	0050dc40 	call	50dc4 <__muldf3>
   481bc:	100d883a 	mov	r6,r2
   481c0:	b009883a 	mov	r4,r22
   481c4:	a80b883a 	mov	r5,r21
   481c8:	180f883a 	mov	r7,r3
   481cc:	00515cc0 	call	515cc <__subdf3>
   481d0:	89000c04 	addi	r4,r17,48
   481d4:	e1000005 	stb	r4,0(fp)
   481d8:	91800060 	cmpeqi	r6,r18,1
   481dc:	1009883a 	mov	r4,r2
   481e0:	180b883a 	mov	r5,r3
   481e4:	e4c00044 	addi	r19,fp,1
   481e8:	3002891e 	bne	r6,zero,48c10 <_dtoa_r+0x1314>
   481ec:	ddc00215 	stw	r23,8(sp)
   481f0:	05800044 	movi	r22,1
   481f4:	ddc00117 	ldw	r23,4(sp)
   481f8:	dc000415 	stw	r16,16(sp)
   481fc:	a023883a 	mov	r17,r20
   48200:	00001c06 	br	48274 <_dtoa_r+0x978>
   48204:	b80d883a 	mov	r6,r23
   48208:	880f883a 	mov	r7,r17
   4820c:	a809883a 	mov	r4,r21
   48210:	a00b883a 	mov	r5,r20
   48214:	00502500 	call	50250 <__divdf3>
   48218:	180b883a 	mov	r5,r3
   4821c:	1009883a 	mov	r4,r2
   48220:	0041e680 	call	41e68 <__fixdfsi>
   48224:	1009883a 	mov	r4,r2
   48228:	1021883a 	mov	r16,r2
   4822c:	0051fbc0 	call	51fbc <__floatsidf>
   48230:	b80d883a 	mov	r6,r23
   48234:	880f883a 	mov	r7,r17
   48238:	1009883a 	mov	r4,r2
   4823c:	180b883a 	mov	r5,r3
   48240:	0050dc40 	call	50dc4 <__muldf3>
   48244:	a809883a 	mov	r4,r21
   48248:	a00b883a 	mov	r5,r20
   4824c:	100d883a 	mov	r6,r2
   48250:	180f883a 	mov	r7,r3
   48254:	00515cc0 	call	515cc <__subdf3>
   48258:	81000c04 	addi	r4,r16,48
   4825c:	99000005 	stb	r4,0(r19)
   48260:	b5800044 	addi	r22,r22,1
   48264:	9cc00044 	addi	r19,r19,1
   48268:	1009883a 	mov	r4,r2
   4826c:	180b883a 	mov	r5,r3
   48270:	b4826426 	beq	r22,r18,48c04 <_dtoa_r+0x1308>
   48274:	000d883a 	mov	r6,zero
   48278:	01d00934 	movhi	r7,16420
   4827c:	0050dc40 	call	50dc4 <__muldf3>
   48280:	000d883a 	mov	r6,zero
   48284:	000f883a 	mov	r7,zero
   48288:	1009883a 	mov	r4,r2
   4828c:	180b883a 	mov	r5,r3
   48290:	102b883a 	mov	r21,r2
   48294:	1829883a 	mov	r20,r3
   48298:	0050b3c0 	call	50b3c <__eqdf2>
   4829c:	103fd91e 	bne	r2,zero,48204 <_dtoa_r+0x908>
   482a0:	d8800617 	ldw	r2,24(sp)
   482a4:	ddc00217 	ldw	r23,8(sp)
   482a8:	dc000417 	ldw	r16,16(sp)
   482ac:	15400044 	addi	r21,r2,1
   482b0:	9811883a 	mov	r8,r19
   482b4:	00009a06 	br	48520 <_dtoa_r+0xc24>
   482b8:	0502120e 	bge	zero,r20,48b04 <_dtoa_r+0x1208>
   482bc:	d8000815 	stw	zero,32(sp)
   482c0:	d8000515 	stw	zero,20(sp)
   482c4:	d8800417 	ldw	r2,16(sp)
   482c8:	d8c00117 	ldw	r3,4(sp)
   482cc:	dd800615 	stw	r22,24(sp)
   482d0:	1585883a 	add	r2,r2,r22
   482d4:	d8800415 	stw	r2,16(sp)
   482d8:	d8000315 	stw	zero,12(sp)
   482dc:	188002a8 	cmpgeui	r2,r3,10
   482e0:	103e2f26 	beq	r2,zero,47ba0 <_dtoa_r+0x2a4>
   482e4:	00800044 	movi	r2,1
   482e8:	04400044 	movi	r17,1
   482ec:	d8000115 	stw	zero,4(sp)
   482f0:	d8800715 	stw	r2,28(sp)
   482f4:	04bfffc4 	movi	r18,-1
   482f8:	d8001f15 	stw	zero,124(sp)
   482fc:	80001115 	stw	zero,68(r16)
   48300:	dc800a15 	stw	r18,40(sp)
   48304:	000b883a 	mov	r5,zero
   48308:	003e4606 	br	47c24 <_dtoa_r+0x328>
   4830c:	d8c00717 	ldw	r3,28(sp)
   48310:	1800b41e 	bne	r3,zero,485e4 <_dtoa_r+0xce8>
   48314:	dd000317 	ldw	r20,12(sp)
   48318:	dcc00517 	ldw	r19,20(sp)
   4831c:	d8000715 	stw	zero,28(sp)
   48320:	0023883a 	mov	r17,zero
   48324:	98000b26 	beq	r19,zero,48354 <_dtoa_r+0xa58>
   48328:	d8c00417 	ldw	r3,16(sp)
   4832c:	00c0090e 	bge	zero,r3,48354 <_dtoa_r+0xa58>
   48330:	9805883a 	mov	r2,r19
   48334:	1cc1ab16 	blt	r3,r19,489e4 <_dtoa_r+0x10e8>
   48338:	d8c00517 	ldw	r3,20(sp)
   4833c:	98a7c83a 	sub	r19,r19,r2
   48340:	1887c83a 	sub	r3,r3,r2
   48344:	d8c00515 	stw	r3,20(sp)
   48348:	d8c00417 	ldw	r3,16(sp)
   4834c:	1885c83a 	sub	r2,r3,r2
   48350:	d8800415 	stw	r2,16(sp)
   48354:	d8800317 	ldw	r2,12(sp)
   48358:	10000826 	beq	r2,zero,4837c <_dtoa_r+0xa80>
   4835c:	d8800717 	ldw	r2,28(sp)
   48360:	10000126 	beq	r2,zero,48368 <_dtoa_r+0xa6c>
   48364:	a0025a1e 	bne	r20,zero,48cd0 <_dtoa_r+0x13d4>
   48368:	d9800317 	ldw	r6,12(sp)
   4836c:	b80b883a 	mov	r5,r23
   48370:	8009883a 	mov	r4,r16
   48374:	004a7fc0 	call	4a7fc <__pow5mult>
   48378:	102f883a 	mov	r23,r2
   4837c:	01400044 	movi	r5,1
   48380:	8009883a 	mov	r4,r16
   48384:	004a4880 	call	4a488 <__i2b>
   48388:	d8800315 	stw	r2,12(sp)
   4838c:	b0015a1e 	bne	r22,zero,488f8 <_dtoa_r+0xffc>
   48390:	d8800117 	ldw	r2,4(sp)
   48394:	10800090 	cmplti	r2,r2,2
   48398:	1001751e 	bne	r2,zero,48970 <_dtoa_r+0x1074>
   4839c:	00800044 	movi	r2,1
   483a0:	d9400417 	ldw	r5,16(sp)
   483a4:	1145883a 	add	r2,r2,r5
   483a8:	108007cc 	andi	r2,r2,31
   483ac:	10009826 	beq	r2,zero,48610 <_dtoa_r+0xd14>
   483b0:	00c00804 	movi	r3,32
   483b4:	1887c83a 	sub	r3,r3,r2
   483b8:	19000150 	cmplti	r4,r3,5
   483bc:	20017e1e 	bne	r4,zero,489b8 <_dtoa_r+0x10bc>
   483c0:	00c00704 	movi	r3,28
   483c4:	1885c83a 	sub	r2,r3,r2
   483c8:	d8c00517 	ldw	r3,20(sp)
   483cc:	98a7883a 	add	r19,r19,r2
   483d0:	1887883a 	add	r3,r3,r2
   483d4:	2885883a 	add	r2,r5,r2
   483d8:	d8c00515 	stw	r3,20(sp)
   483dc:	d8800415 	stw	r2,16(sp)
   483e0:	d8800517 	ldw	r2,20(sp)
   483e4:	0080050e 	bge	zero,r2,483fc <_dtoa_r+0xb00>
   483e8:	b80b883a 	mov	r5,r23
   483ec:	100d883a 	mov	r6,r2
   483f0:	8009883a 	mov	r4,r16
   483f4:	004a93c0 	call	4a93c <__lshift>
   483f8:	102f883a 	mov	r23,r2
   483fc:	d8800417 	ldw	r2,16(sp)
   48400:	0080050e 	bge	zero,r2,48418 <_dtoa_r+0xb1c>
   48404:	d9400317 	ldw	r5,12(sp)
   48408:	100d883a 	mov	r6,r2
   4840c:	8009883a 	mov	r4,r16
   48410:	004a93c0 	call	4a93c <__lshift>
   48414:	d8800315 	stw	r2,12(sp)
   48418:	d8800817 	ldw	r2,32(sp)
   4841c:	10004c1e 	bne	r2,zero,48550 <_dtoa_r+0xc54>
   48420:	04811a0e 	bge	zero,r18,4888c <_dtoa_r+0xf90>
   48424:	d8800717 	ldw	r2,28(sp)
   48428:	1000a11e 	bne	r2,zero,486b0 <_dtoa_r+0xdb4>
   4842c:	d8800617 	ldw	r2,24(sp)
   48430:	15400044 	addi	r21,r2,1
   48434:	dd800317 	ldw	r22,12(sp)
   48438:	04c00044 	movi	r19,1
   4843c:	00000706 	br	4845c <_dtoa_r+0xb60>
   48440:	b80b883a 	mov	r5,r23
   48444:	000f883a 	mov	r7,zero
   48448:	01800284 	movi	r6,10
   4844c:	8009883a 	mov	r4,r16
   48450:	004a0d80 	call	4a0d8 <__multadd>
   48454:	102f883a 	mov	r23,r2
   48458:	9cc00044 	addi	r19,r19,1
   4845c:	b00b883a 	mov	r5,r22
   48460:	b809883a 	mov	r4,r23
   48464:	00476e40 	call	476e4 <quorem>
   48468:	15000c04 	addi	r20,r2,48
   4846c:	e4c5883a 	add	r2,fp,r19
   48470:	153fffc5 	stb	r20,-1(r2)
   48474:	9cbff216 	blt	r19,r18,48440 <_dtoa_r+0xb44>
   48478:	04800116 	blt	zero,r18,48480 <_dtoa_r+0xb84>
   4847c:	04800044 	movi	r18,1
   48480:	e4a5883a 	add	r18,fp,r18
   48484:	d8000215 	stw	zero,8(sp)
   48488:	b80b883a 	mov	r5,r23
   4848c:	8009883a 	mov	r4,r16
   48490:	01800044 	movi	r6,1
   48494:	004a93c0 	call	4a93c <__lshift>
   48498:	d9400317 	ldw	r5,12(sp)
   4849c:	1009883a 	mov	r4,r2
   484a0:	102f883a 	mov	r23,r2
   484a4:	004aac40 	call	4aac4 <__mcmp>
   484a8:	00800216 	blt	zero,r2,484b4 <_dtoa_r+0xbb8>
   484ac:	00017c06 	br	48aa0 <_dtoa_r+0x11a4>
   484b0:	e4819026 	beq	fp,r18,48af4 <_dtoa_r+0x11f8>
   484b4:	90ffffc3 	ldbu	r3,-1(r18)
   484b8:	9011883a 	mov	r8,r18
   484bc:	94bfffc4 	addi	r18,r18,-1
   484c0:	18803fcc 	andi	r2,r3,255
   484c4:	1080201c 	xori	r2,r2,128
   484c8:	10bfe004 	addi	r2,r2,-128
   484cc:	10800e60 	cmpeqi	r2,r2,57
   484d0:	103ff71e 	bne	r2,zero,484b0 <_dtoa_r+0xbb4>
   484d4:	18c00044 	addi	r3,r3,1
   484d8:	90c00005 	stb	r3,0(r18)
   484dc:	d9400317 	ldw	r5,12(sp)
   484e0:	8009883a 	mov	r4,r16
   484e4:	da000115 	stw	r8,4(sp)
   484e8:	004a0b40 	call	4a0b4 <_Bfree>
   484ec:	da000117 	ldw	r8,4(sp)
   484f0:	88000b26 	beq	r17,zero,48520 <_dtoa_r+0xc24>
   484f4:	d9400217 	ldw	r5,8(sp)
   484f8:	28000426 	beq	r5,zero,4850c <_dtoa_r+0xc10>
   484fc:	2c400326 	beq	r5,r17,4850c <_dtoa_r+0xc10>
   48500:	8009883a 	mov	r4,r16
   48504:	004a0b40 	call	4a0b4 <_Bfree>
   48508:	da000117 	ldw	r8,4(sp)
   4850c:	880b883a 	mov	r5,r17
   48510:	8009883a 	mov	r4,r16
   48514:	da000115 	stw	r8,4(sp)
   48518:	004a0b40 	call	4a0b4 <_Bfree>
   4851c:	da000117 	ldw	r8,4(sp)
   48520:	b80b883a 	mov	r5,r23
   48524:	8009883a 	mov	r4,r16
   48528:	da000115 	stw	r8,4(sp)
   4852c:	004a0b40 	call	4a0b4 <_Bfree>
   48530:	da000117 	ldw	r8,4(sp)
   48534:	d8802017 	ldw	r2,128(sp)
   48538:	40000005 	stb	zero,0(r8)
   4853c:	15400015 	stw	r21,0(r2)
   48540:	d8802217 	ldw	r2,136(sp)
   48544:	103d1e26 	beq	r2,zero,479c0 <_dtoa_r+0xc4>
   48548:	12000015 	stw	r8,0(r2)
   4854c:	003d1c06 	br	479c0 <_dtoa_r+0xc4>
   48550:	d9400317 	ldw	r5,12(sp)
   48554:	b809883a 	mov	r4,r23
   48558:	004aac40 	call	4aac4 <__mcmp>
   4855c:	103fb00e 	bge	r2,zero,48420 <_dtoa_r+0xb24>
   48560:	b80b883a 	mov	r5,r23
   48564:	000f883a 	mov	r7,zero
   48568:	01800284 	movi	r6,10
   4856c:	8009883a 	mov	r4,r16
   48570:	004a0d80 	call	4a0d8 <__multadd>
   48574:	d8c00617 	ldw	r3,24(sp)
   48578:	102f883a 	mov	r23,r2
   4857c:	d8800717 	ldw	r2,28(sp)
   48580:	1d7fffc4 	addi	r21,r3,-1
   48584:	1000411e 	bne	r2,zero,4868c <_dtoa_r+0xd90>
   48588:	dc800a17 	ldw	r18,40(sp)
   4858c:	0482940e 	bge	zero,r18,48fe0 <_dtoa_r+0x16e4>
   48590:	dd400617 	ldw	r21,24(sp)
   48594:	003fa706 	br	48434 <_dtoa_r+0xb38>
   48598:	00800044 	movi	r2,1
   4859c:	d8800815 	stw	r2,32(sp)
   485a0:	a0bfffc4 	addi	r2,r20,-1
   485a4:	103d720e 	bge	r2,zero,47b70 <_dtoa_r+0x274>
   485a8:	00800044 	movi	r2,1
   485ac:	1505c83a 	sub	r2,r2,r20
   485b0:	d8800515 	stw	r2,20(sp)
   485b4:	d8000415 	stw	zero,16(sp)
   485b8:	003d6e06 	br	47b74 <_dtoa_r+0x278>
   485bc:	b009883a 	mov	r4,r22
   485c0:	0051fbc0 	call	51fbc <__floatsidf>
   485c4:	980d883a 	mov	r6,r19
   485c8:	900f883a 	mov	r7,r18
   485cc:	1009883a 	mov	r4,r2
   485d0:	180b883a 	mov	r5,r3
   485d4:	0050b3c0 	call	50b3c <__eqdf2>
   485d8:	103d5226 	beq	r2,zero,47b24 <_dtoa_r+0x228>
   485dc:	b5bfffc4 	addi	r22,r22,-1
   485e0:	003d5006 	br	47b24 <_dtoa_r+0x228>
   485e4:	d8c00117 	ldw	r3,4(sp)
   485e8:	18c00088 	cmpgei	r3,r3,2
   485ec:	18013526 	beq	r3,zero,48ac4 <_dtoa_r+0x11c8>
   485f0:	d8800317 	ldw	r2,12(sp)
   485f4:	953fffc4 	addi	r20,r18,-1
   485f8:	1500fc16 	blt	r2,r20,489ec <_dtoa_r+0x10f0>
   485fc:	1529c83a 	sub	r20,r2,r20
   48600:	d8800517 	ldw	r2,20(sp)
   48604:	9002620e 	bge	r18,zero,48f90 <_dtoa_r+0x1694>
   48608:	14a7c83a 	sub	r19,r2,r18
   4860c:	00010306 	br	48a1c <_dtoa_r+0x1120>
   48610:	00800704 	movi	r2,28
   48614:	d8c00517 	ldw	r3,20(sp)
   48618:	98a7883a 	add	r19,r19,r2
   4861c:	1887883a 	add	r3,r3,r2
   48620:	d8c00515 	stw	r3,20(sp)
   48624:	d8c00417 	ldw	r3,16(sp)
   48628:	1885883a 	add	r2,r3,r2
   4862c:	d8800415 	stw	r2,16(sp)
   48630:	003f6b06 	br	483e0 <_dtoa_r+0xae4>
   48634:	d8c00117 	ldw	r3,4(sp)
   48638:	188000e0 	cmpeqi	r2,r3,3
   4863c:	1001151e 	bne	r2,zero,48a94 <_dtoa_r+0x1198>
   48640:	18800108 	cmpgei	r2,r3,4
   48644:	10000226 	beq	r2,zero,48650 <_dtoa_r+0xd54>
   48648:	04400044 	movi	r17,1
   4864c:	003d5d06 	br	47bc4 <_dtoa_r+0x2c8>
   48650:	188000a0 	cmpeqi	r2,r3,2
   48654:	10028d26 	beq	r2,zero,4908c <_dtoa_r+0x1790>
   48658:	04400044 	movi	r17,1
   4865c:	d8000715 	stw	zero,28(sp)
   48660:	d8801f17 	ldw	r2,124(sp)
   48664:	0080be0e 	bge	zero,r2,48960 <_dtoa_r+0x1064>
   48668:	d8800a15 	stw	r2,40(sp)
   4866c:	1025883a 	mov	r18,r2
   48670:	100d883a 	mov	r6,r2
   48674:	003d6106 	br	47bfc <_dtoa_r+0x300>
   48678:	01000804 	movi	r4,32
   4867c:	2089c83a 	sub	r4,r4,r2
   48680:	d8800217 	ldw	r2,8(sp)
   48684:	1108983a 	sll	r4,r2,r4
   48688:	003cf206 	br	47a54 <_dtoa_r+0x158>
   4868c:	880b883a 	mov	r5,r17
   48690:	000f883a 	mov	r7,zero
   48694:	01800284 	movi	r6,10
   48698:	8009883a 	mov	r4,r16
   4869c:	004a0d80 	call	4a0d8 <__multadd>
   486a0:	dc800a17 	ldw	r18,40(sp)
   486a4:	1023883a 	mov	r17,r2
   486a8:	04825d0e 	bge	zero,r18,49020 <_dtoa_r+0x1724>
   486ac:	dd400615 	stw	r21,24(sp)
   486b0:	04c0c616 	blt	zero,r19,489cc <_dtoa_r+0x10d0>
   486b4:	b0016e1e 	bne	r22,zero,48c70 <_dtoa_r+0x1374>
   486b8:	8827883a 	mov	r19,r17
   486bc:	e0bfffc4 	addi	r2,fp,-1
   486c0:	1485883a 	add	r2,r2,r18
   486c4:	d8800515 	stw	r2,20(sp)
   486c8:	d8800217 	ldw	r2,8(sp)
   486cc:	e02d883a 	mov	r22,fp
   486d0:	df000815 	stw	fp,32(sp)
   486d4:	1080004c 	andi	r2,r2,1
   486d8:	d8800715 	stw	r2,28(sp)
   486dc:	dc800317 	ldw	r18,12(sp)
   486e0:	b809883a 	mov	r4,r23
   486e4:	900b883a 	mov	r5,r18
   486e8:	00476e40 	call	476e4 <quorem>
   486ec:	880b883a 	mov	r5,r17
   486f0:	b809883a 	mov	r4,r23
   486f4:	102b883a 	mov	r21,r2
   486f8:	004aac40 	call	4aac4 <__mcmp>
   486fc:	900b883a 	mov	r5,r18
   48700:	980d883a 	mov	r6,r19
   48704:	8009883a 	mov	r4,r16
   48708:	1025883a 	mov	r18,r2
   4870c:	004ab1c0 	call	4ab1c <__mdiff>
   48710:	100b883a 	mov	r5,r2
   48714:	10800317 	ldw	r2,12(r2)
   48718:	af000c04 	addi	fp,r21,48
   4871c:	1000261e 	bne	r2,zero,487b8 <_dtoa_r+0xebc>
   48720:	b809883a 	mov	r4,r23
   48724:	d9400415 	stw	r5,16(sp)
   48728:	004aac40 	call	4aac4 <__mcmp>
   4872c:	d9400417 	ldw	r5,16(sp)
   48730:	1029883a 	mov	r20,r2
   48734:	8009883a 	mov	r4,r16
   48738:	004a0b40 	call	4a0b4 <_Bfree>
   4873c:	a000401e 	bne	r20,zero,48840 <_dtoa_r+0xf44>
   48740:	d8800117 	ldw	r2,4(sp)
   48744:	1000021e 	bne	r2,zero,48750 <_dtoa_r+0xe54>
   48748:	d8800717 	ldw	r2,28(sp)
   4874c:	1000cb26 	beq	r2,zero,48a7c <_dtoa_r+0x1180>
   48750:	90020816 	blt	r18,zero,48f74 <_dtoa_r+0x1678>
   48754:	d8800517 	ldw	r2,20(sp)
   48758:	b7000005 	stb	fp,0(r22)
   4875c:	b4800044 	addi	r18,r22,1
   48760:	15815426 	beq	r2,r22,48cb4 <_dtoa_r+0x13b8>
   48764:	b80b883a 	mov	r5,r23
   48768:	000f883a 	mov	r7,zero
   4876c:	01800284 	movi	r6,10
   48770:	8009883a 	mov	r4,r16
   48774:	004a0d80 	call	4a0d8 <__multadd>
   48778:	102f883a 	mov	r23,r2
   4877c:	880b883a 	mov	r5,r17
   48780:	000f883a 	mov	r7,zero
   48784:	01800284 	movi	r6,10
   48788:	8009883a 	mov	r4,r16
   4878c:	8cc02826 	beq	r17,r19,48830 <_dtoa_r+0xf34>
   48790:	004a0d80 	call	4a0d8 <__multadd>
   48794:	980b883a 	mov	r5,r19
   48798:	000f883a 	mov	r7,zero
   4879c:	01800284 	movi	r6,10
   487a0:	8009883a 	mov	r4,r16
   487a4:	1023883a 	mov	r17,r2
   487a8:	004a0d80 	call	4a0d8 <__multadd>
   487ac:	1027883a 	mov	r19,r2
   487b0:	902d883a 	mov	r22,r18
   487b4:	003fc906 	br	486dc <_dtoa_r+0xde0>
   487b8:	8009883a 	mov	r4,r16
   487bc:	e029883a 	mov	r20,fp
   487c0:	df000817 	ldw	fp,32(sp)
   487c4:	004a0b40 	call	4a0b4 <_Bfree>
   487c8:	90000616 	blt	r18,zero,487e4 <_dtoa_r+0xee8>
   487cc:	d8800217 	ldw	r2,8(sp)
   487d0:	d8c00117 	ldw	r3,4(sp)
   487d4:	1080004c 	andi	r2,r2,1
   487d8:	1ca4b03a 	or	r18,r3,r18
   487dc:	1484b03a 	or	r2,r2,r18
   487e0:	1000201e 	bne	r2,zero,48864 <_dtoa_r+0xf68>
   487e4:	b80b883a 	mov	r5,r23
   487e8:	8009883a 	mov	r4,r16
   487ec:	01800044 	movi	r6,1
   487f0:	004a93c0 	call	4a93c <__lshift>
   487f4:	d9400317 	ldw	r5,12(sp)
   487f8:	1009883a 	mov	r4,r2
   487fc:	102f883a 	mov	r23,r2
   48800:	004aac40 	call	4aac4 <__mcmp>
   48804:	0080990e 	bge	zero,r2,48a6c <_dtoa_r+0x1170>
   48808:	a0c00e60 	cmpeqi	r3,r20,57
   4880c:	1801ce1e 	bne	r3,zero,48f48 <_dtoa_r+0x164c>
   48810:	ad000c44 	addi	r20,r21,49
   48814:	d8800617 	ldw	r2,24(sp)
   48818:	dc400215 	stw	r17,8(sp)
   4881c:	b2000044 	addi	r8,r22,1
   48820:	b5000005 	stb	r20,0(r22)
   48824:	15400044 	addi	r21,r2,1
   48828:	9823883a 	mov	r17,r19
   4882c:	003f2b06 	br	484dc <_dtoa_r+0xbe0>
   48830:	004a0d80 	call	4a0d8 <__multadd>
   48834:	1023883a 	mov	r17,r2
   48838:	1027883a 	mov	r19,r2
   4883c:	003fdc06 	br	487b0 <_dtoa_r+0xeb4>
   48840:	90022316 	blt	r18,zero,490d0 <_dtoa_r+0x17d4>
   48844:	d8800117 	ldw	r2,4(sp)
   48848:	14a4b03a 	or	r18,r2,r18
   4884c:	d8800717 	ldw	r2,28(sp)
   48850:	14a4b03a 	or	r18,r2,r18
   48854:	90021e26 	beq	r18,zero,490d0 <_dtoa_r+0x17d4>
   48858:	053fbe0e 	bge	zero,r20,48754 <_dtoa_r+0xe58>
   4885c:	e029883a 	mov	r20,fp
   48860:	df000817 	ldw	fp,32(sp)
   48864:	a0800e60 	cmpeqi	r2,r20,57
   48868:	1001b71e 	bne	r2,zero,48f48 <_dtoa_r+0x164c>
   4886c:	d8800617 	ldw	r2,24(sp)
   48870:	a0c00044 	addi	r3,r20,1
   48874:	dc400215 	stw	r17,8(sp)
   48878:	b2000044 	addi	r8,r22,1
   4887c:	15400044 	addi	r21,r2,1
   48880:	b0c00005 	stb	r3,0(r22)
   48884:	9823883a 	mov	r17,r19
   48888:	003f1406 	br	484dc <_dtoa_r+0xbe0>
   4888c:	d8800117 	ldw	r2,4(sp)
   48890:	108000d0 	cmplti	r2,r2,3
   48894:	103ee31e 	bne	r2,zero,48424 <_dtoa_r+0xb28>
   48898:	9000d81e 	bne	r18,zero,48bfc <_dtoa_r+0x1300>
   4889c:	d9400317 	ldw	r5,12(sp)
   488a0:	8009883a 	mov	r4,r16
   488a4:	000f883a 	mov	r7,zero
   488a8:	01800144 	movi	r6,5
   488ac:	004a0d80 	call	4a0d8 <__multadd>
   488b0:	100b883a 	mov	r5,r2
   488b4:	b809883a 	mov	r4,r23
   488b8:	d8800315 	stw	r2,12(sp)
   488bc:	004aac40 	call	4aac4 <__mcmp>
   488c0:	0080ce0e 	bge	zero,r2,48bfc <_dtoa_r+0x1300>
   488c4:	00800c44 	movi	r2,49
   488c8:	e0800005 	stb	r2,0(fp)
   488cc:	d8800617 	ldw	r2,24(sp)
   488d0:	e2000044 	addi	r8,fp,1
   488d4:	14800044 	addi	r18,r2,1
   488d8:	d9400317 	ldw	r5,12(sp)
   488dc:	8009883a 	mov	r4,r16
   488e0:	da000115 	stw	r8,4(sp)
   488e4:	004a0b40 	call	4a0b4 <_Bfree>
   488e8:	da000117 	ldw	r8,4(sp)
   488ec:	95400044 	addi	r21,r18,1
   488f0:	883f061e 	bne	r17,zero,4850c <_dtoa_r+0xc10>
   488f4:	003f0a06 	br	48520 <_dtoa_r+0xc24>
   488f8:	100b883a 	mov	r5,r2
   488fc:	b00d883a 	mov	r6,r22
   48900:	8009883a 	mov	r4,r16
   48904:	004a7fc0 	call	4a7fc <__pow5mult>
   48908:	d8c00117 	ldw	r3,4(sp)
   4890c:	d8800315 	stw	r2,12(sp)
   48910:	18c00090 	cmplti	r3,r3,2
   48914:	1800461e 	bne	r3,zero,48a30 <_dtoa_r+0x1134>
   48918:	002d883a 	mov	r22,zero
   4891c:	d8c00317 	ldw	r3,12(sp)
   48920:	18800417 	ldw	r2,16(r3)
   48924:	10800104 	addi	r2,r2,4
   48928:	100490ba 	slli	r2,r2,2
   4892c:	1885883a 	add	r2,r3,r2
   48930:	11000017 	ldw	r4,0(r2)
   48934:	004a3640 	call	4a364 <__hi0bits>
   48938:	00c00804 	movi	r3,32
   4893c:	1885c83a 	sub	r2,r3,r2
   48940:	003e9706 	br	483a0 <_dtoa_r+0xaa4>
   48944:	00800174 	movhi	r2,5
   48948:	e714f304 	addi	fp,fp,21452
   4894c:	1094f3c4 	addi	r2,r2,21455
   48950:	003db106 	br	48018 <_dtoa_r+0x71c>
   48954:	00800044 	movi	r2,1
   48958:	d8800715 	stw	r2,28(sp)
   4895c:	003f4006 	br	48660 <_dtoa_r+0xd64>
   48960:	00800044 	movi	r2,1
   48964:	04800044 	movi	r18,1
   48968:	d8801f15 	stw	r2,124(sp)
   4896c:	003e6306 	br	482fc <_dtoa_r+0xa00>
   48970:	d8800217 	ldw	r2,8(sp)
   48974:	103e891e 	bne	r2,zero,4839c <_dtoa_r+0xaa0>
   48978:	00800434 	movhi	r2,16
   4897c:	10bfffc4 	addi	r2,r2,-1
   48980:	a884703a 	and	r2,r21,r2
   48984:	103e851e 	bne	r2,zero,4839c <_dtoa_r+0xaa0>
   48988:	a89ffc2c 	andhi	r2,r21,32752
   4898c:	10017c26 	beq	r2,zero,48f80 <_dtoa_r+0x1684>
   48990:	d8800517 	ldw	r2,20(sp)
   48994:	10800044 	addi	r2,r2,1
   48998:	d8800515 	stw	r2,20(sp)
   4899c:	d8800417 	ldw	r2,16(sp)
   489a0:	10800044 	addi	r2,r2,1
   489a4:	d8800415 	stw	r2,16(sp)
   489a8:	00800044 	movi	r2,1
   489ac:	b001761e 	bne	r22,zero,48f88 <_dtoa_r+0x168c>
   489b0:	102d883a 	mov	r22,r2
   489b4:	003e7906 	br	4839c <_dtoa_r+0xaa0>
   489b8:	18c00120 	cmpeqi	r3,r3,4
   489bc:	183e881e 	bne	r3,zero,483e0 <_dtoa_r+0xae4>
   489c0:	00c00f04 	movi	r3,60
   489c4:	1885c83a 	sub	r2,r3,r2
   489c8:	003f1206 	br	48614 <_dtoa_r+0xd18>
   489cc:	880b883a 	mov	r5,r17
   489d0:	980d883a 	mov	r6,r19
   489d4:	8009883a 	mov	r4,r16
   489d8:	004a93c0 	call	4a93c <__lshift>
   489dc:	1023883a 	mov	r17,r2
   489e0:	003f3406 	br	486b4 <_dtoa_r+0xdb8>
   489e4:	1805883a 	mov	r2,r3
   489e8:	003e5306 	br	48338 <_dtoa_r+0xa3c>
   489ec:	d8800317 	ldw	r2,12(sp)
   489f0:	d8c00517 	ldw	r3,20(sp)
   489f4:	dd000315 	stw	r20,12(sp)
   489f8:	a085c83a 	sub	r2,r20,r2
   489fc:	b0ad883a 	add	r22,r22,r2
   48a00:	d8800417 	ldw	r2,16(sp)
   48a04:	1827883a 	mov	r19,r3
   48a08:	0029883a 	mov	r20,zero
   48a0c:	1485883a 	add	r2,r2,r18
   48a10:	d8800415 	stw	r2,16(sp)
   48a14:	1c85883a 	add	r2,r3,r18
   48a18:	d8800515 	stw	r2,20(sp)
   48a1c:	01400044 	movi	r5,1
   48a20:	8009883a 	mov	r4,r16
   48a24:	004a4880 	call	4a488 <__i2b>
   48a28:	1023883a 	mov	r17,r2
   48a2c:	003e3d06 	br	48324 <_dtoa_r+0xa28>
   48a30:	d8800217 	ldw	r2,8(sp)
   48a34:	103fb81e 	bne	r2,zero,48918 <_dtoa_r+0x101c>
   48a38:	00800434 	movhi	r2,16
   48a3c:	10bfffc4 	addi	r2,r2,-1
   48a40:	a884703a 	and	r2,r21,r2
   48a44:	103fb41e 	bne	r2,zero,48918 <_dtoa_r+0x101c>
   48a48:	003fcf06 	br	48988 <_dtoa_r+0x108c>
   48a4c:	d9000217 	ldw	r4,8(sp)
   48a50:	a80b883a 	mov	r5,r21
   48a54:	04c00084 	movi	r19,2
   48a58:	003c9506 	br	47cb0 <_dtoa_r+0x3b4>
   48a5c:	00800084 	movi	r2,2
   48a60:	d8800115 	stw	r2,4(sp)
   48a64:	d8000715 	stw	zero,28(sp)
   48a68:	003efd06 	br	48660 <_dtoa_r+0xd64>
   48a6c:	103f691e 	bne	r2,zero,48814 <_dtoa_r+0xf18>
   48a70:	a080004c 	andi	r2,r20,1
   48a74:	103f641e 	bne	r2,zero,48808 <_dtoa_r+0xf0c>
   48a78:	003f6606 	br	48814 <_dtoa_r+0xf18>
   48a7c:	e029883a 	mov	r20,fp
   48a80:	a0800e60 	cmpeqi	r2,r20,57
   48a84:	df000817 	ldw	fp,32(sp)
   48a88:	10012f1e 	bne	r2,zero,48f48 <_dtoa_r+0x164c>
   48a8c:	04bf6016 	blt	zero,r18,48810 <_dtoa_r+0xf14>
   48a90:	003f6006 	br	48814 <_dtoa_r+0xf18>
   48a94:	04400044 	movi	r17,1
   48a98:	d8000715 	stw	zero,28(sp)
   48a9c:	003c5006 	br	47be0 <_dtoa_r+0x2e4>
   48aa0:	1000021e 	bne	r2,zero,48aac <_dtoa_r+0x11b0>
   48aa4:	a0c0004c 	andi	r3,r20,1
   48aa8:	183e821e 	bne	r3,zero,484b4 <_dtoa_r+0xbb8>
   48aac:	90bfffc7 	ldb	r2,-1(r18)
   48ab0:	9011883a 	mov	r8,r18
   48ab4:	94bfffc4 	addi	r18,r18,-1
   48ab8:	10800c20 	cmpeqi	r2,r2,48
   48abc:	103ffb1e 	bne	r2,zero,48aac <_dtoa_r+0x11b0>
   48ac0:	003e8606 	br	484dc <_dtoa_r+0xbe0>
   48ac4:	d8c00917 	ldw	r3,36(sp)
   48ac8:	18009526 	beq	r3,zero,48d20 <_dtoa_r+0x1424>
   48acc:	d8c00517 	ldw	r3,20(sp)
   48ad0:	d9000417 	ldw	r4,16(sp)
   48ad4:	10810cc4 	addi	r2,r2,1075
   48ad8:	dd000317 	ldw	r20,12(sp)
   48adc:	2089883a 	add	r4,r4,r2
   48ae0:	1885883a 	add	r2,r3,r2
   48ae4:	1827883a 	mov	r19,r3
   48ae8:	d9000415 	stw	r4,16(sp)
   48aec:	d8800515 	stw	r2,20(sp)
   48af0:	003fca06 	br	48a1c <_dtoa_r+0x1120>
   48af4:	00800c44 	movi	r2,49
   48af8:	e0800005 	stb	r2,0(fp)
   48afc:	ad400044 	addi	r21,r21,1
   48b00:	003e7606 	br	484dc <_dtoa_r+0xbe0>
   48b04:	00800044 	movi	r2,1
   48b08:	1505c83a 	sub	r2,r2,r20
   48b0c:	d8800515 	stw	r2,20(sp)
   48b10:	d8000415 	stw	zero,16(sp)
   48b14:	d8000815 	stw	zero,32(sp)
   48b18:	003dea06 	br	482c4 <_dtoa_r+0x9c8>
   48b1c:	d8800617 	ldw	r2,24(sp)
   48b20:	1000e326 	beq	r2,zero,48eb0 <_dtoa_r+0x15b4>
   48b24:	0091c83a 	sub	r8,zero,r2
   48b28:	408003cc 	andi	r2,r8,15
   48b2c:	100490fa 	slli	r2,r2,3
   48b30:	02c00174 	movhi	r11,5
   48b34:	5ad53004 	addi	r11,r11,21696
   48b38:	5885883a 	add	r2,r11,r2
   48b3c:	4011d13a 	srai	r8,r8,4
   48b40:	11800017 	ldw	r6,0(r2)
   48b44:	11c00117 	ldw	r7,4(r2)
   48b48:	d9000217 	ldw	r4,8(sp)
   48b4c:	a80b883a 	mov	r5,r21
   48b50:	da000b15 	stw	r8,44(sp)
   48b54:	0050dc40 	call	50dc4 <__muldf3>
   48b58:	da000b17 	ldw	r8,44(sp)
   48b5c:	40013726 	beq	r8,zero,4903c <_dtoa_r+0x1740>
   48b60:	02400174 	movhi	r9,5
   48b64:	000b883a 	mov	r5,zero
   48b68:	04c00084 	movi	r19,2
   48b6c:	4a552604 	addi	r9,r9,21656
   48b70:	dc800b15 	stw	r18,44(sp)
   48b74:	1009883a 	mov	r4,r2
   48b78:	9825883a 	mov	r18,r19
   48b7c:	d8800c15 	stw	r2,48(sp)
   48b80:	8027883a 	mov	r19,r16
   48b84:	2805883a 	mov	r2,r5
   48b88:	1829883a 	mov	r20,r3
   48b8c:	4021883a 	mov	r16,r8
   48b90:	4823883a 	mov	r17,r9
   48b94:	180b883a 	mov	r5,r3
   48b98:	8180004c 	andi	r6,r16,1
   48b9c:	30000726 	beq	r6,zero,48bbc <_dtoa_r+0x12c0>
   48ba0:	89800017 	ldw	r6,0(r17)
   48ba4:	89c00117 	ldw	r7,4(r17)
   48ba8:	94800044 	addi	r18,r18,1
   48bac:	0050dc40 	call	50dc4 <__muldf3>
   48bb0:	1009883a 	mov	r4,r2
   48bb4:	180b883a 	mov	r5,r3
   48bb8:	00800044 	movi	r2,1
   48bbc:	8021d07a 	srai	r16,r16,1
   48bc0:	8c400204 	addi	r17,r17,8
   48bc4:	803ff41e 	bne	r16,zero,48b98 <_dtoa_r+0x129c>
   48bc8:	a007883a 	mov	r3,r20
   48bcc:	2829883a 	mov	r20,r5
   48bd0:	100b883a 	mov	r5,r2
   48bd4:	29403fcc 	andi	r5,r5,255
   48bd8:	9821883a 	mov	r16,r19
   48bdc:	d8800c17 	ldw	r2,48(sp)
   48be0:	9027883a 	mov	r19,r18
   48be4:	2023883a 	mov	r17,r4
   48be8:	dc800b17 	ldw	r18,44(sp)
   48bec:	283c521e 	bne	r5,zero,47d38 <_dtoa_r+0x43c>
   48bf0:	1023883a 	mov	r17,r2
   48bf4:	1829883a 	mov	r20,r3
   48bf8:	003c4f06 	br	47d38 <_dtoa_r+0x43c>
   48bfc:	e011883a 	mov	r8,fp
   48c00:	003d5806 	br	48164 <_dtoa_r+0x868>
   48c04:	8023883a 	mov	r17,r16
   48c08:	ddc00217 	ldw	r23,8(sp)
   48c0c:	dc000417 	ldw	r16,16(sp)
   48c10:	200d883a 	mov	r6,r4
   48c14:	280f883a 	mov	r7,r5
   48c18:	00415640 	call	41564 <__adddf3>
   48c1c:	1009883a 	mov	r4,r2
   48c20:	d9800117 	ldw	r6,4(sp)
   48c24:	d9c00317 	ldw	r7,12(sp)
   48c28:	1029883a 	mov	r20,r2
   48c2c:	d8800617 	ldw	r2,24(sp)
   48c30:	180b883a 	mov	r5,r3
   48c34:	1825883a 	mov	r18,r3
   48c38:	15400044 	addi	r21,r2,1
   48c3c:	0050bd00 	call	50bd0 <__gedf2>
   48c40:	a82d883a 	mov	r22,r21
   48c44:	00bcd016 	blt	zero,r2,47f88 <_dtoa_r+0x68c>
   48c48:	d9800117 	ldw	r6,4(sp)
   48c4c:	d9c00317 	ldw	r7,12(sp)
   48c50:	a009883a 	mov	r4,r20
   48c54:	900b883a 	mov	r5,r18
   48c58:	0050b3c0 	call	50b3c <__eqdf2>
   48c5c:	1000021e 	bne	r2,zero,48c68 <_dtoa_r+0x136c>
   48c60:	8880004c 	andi	r2,r17,1
   48c64:	103cc81e 	bne	r2,zero,47f88 <_dtoa_r+0x68c>
   48c68:	9811883a 	mov	r8,r19
   48c6c:	003e2c06 	br	48520 <_dtoa_r+0xc24>
   48c70:	89400117 	ldw	r5,4(r17)
   48c74:	8009883a 	mov	r4,r16
   48c78:	004a0100 	call	4a010 <_Balloc>
   48c7c:	1027883a 	mov	r19,r2
   48c80:	1000f226 	beq	r2,zero,4904c <_dtoa_r+0x1750>
   48c84:	89800417 	ldw	r6,16(r17)
   48c88:	89400304 	addi	r5,r17,12
   48c8c:	11000304 	addi	r4,r2,12
   48c90:	31800084 	addi	r6,r6,2
   48c94:	300c90ba 	slli	r6,r6,2
   48c98:	00428d80 	call	428d8 <memcpy>
   48c9c:	980b883a 	mov	r5,r19
   48ca0:	01800044 	movi	r6,1
   48ca4:	8009883a 	mov	r4,r16
   48ca8:	004a93c0 	call	4a93c <__lshift>
   48cac:	1027883a 	mov	r19,r2
   48cb0:	003e8206 	br	486bc <_dtoa_r+0xdc0>
   48cb4:	d8800617 	ldw	r2,24(sp)
   48cb8:	e029883a 	mov	r20,fp
   48cbc:	dc400215 	stw	r17,8(sp)
   48cc0:	df000817 	ldw	fp,32(sp)
   48cc4:	15400044 	addi	r21,r2,1
   48cc8:	9823883a 	mov	r17,r19
   48ccc:	003dee06 	br	48488 <_dtoa_r+0xb8c>
   48cd0:	880b883a 	mov	r5,r17
   48cd4:	a00d883a 	mov	r6,r20
   48cd8:	8009883a 	mov	r4,r16
   48cdc:	004a7fc0 	call	4a7fc <__pow5mult>
   48ce0:	b80d883a 	mov	r6,r23
   48ce4:	100b883a 	mov	r5,r2
   48ce8:	8009883a 	mov	r4,r16
   48cec:	1023883a 	mov	r17,r2
   48cf0:	004a5380 	call	4a538 <__multiply>
   48cf4:	d8800915 	stw	r2,36(sp)
   48cf8:	d8800317 	ldw	r2,12(sp)
   48cfc:	b80b883a 	mov	r5,r23
   48d00:	8009883a 	mov	r4,r16
   48d04:	1529c83a 	sub	r20,r2,r20
   48d08:	dd000315 	stw	r20,12(sp)
   48d0c:	004a0b40 	call	4a0b4 <_Bfree>
   48d10:	d8800917 	ldw	r2,36(sp)
   48d14:	102f883a 	mov	r23,r2
   48d18:	a03d9826 	beq	r20,zero,4837c <_dtoa_r+0xa80>
   48d1c:	003d9206 	br	48368 <_dtoa_r+0xa6c>
   48d20:	d8c01317 	ldw	r3,76(sp)
   48d24:	00800d84 	movi	r2,54
   48d28:	d9000517 	ldw	r4,20(sp)
   48d2c:	10c5c83a 	sub	r2,r2,r3
   48d30:	d8c00417 	ldw	r3,16(sp)
   48d34:	dd000317 	ldw	r20,12(sp)
   48d38:	2027883a 	mov	r19,r4
   48d3c:	1887883a 	add	r3,r3,r2
   48d40:	2085883a 	add	r2,r4,r2
   48d44:	d8c00415 	stw	r3,16(sp)
   48d48:	d8800515 	stw	r2,20(sp)
   48d4c:	003f3306 	br	48a1c <_dtoa_r+0x1120>
   48d50:	d9000b17 	ldw	r4,44(sp)
   48d54:	d9800f17 	ldw	r6,60(sp)
   48d58:	d9c01017 	ldw	r7,64(sp)
   48d5c:	980b883a 	mov	r5,r19
   48d60:	dac01215 	stw	r11,72(sp)
   48d64:	da000d15 	stw	r8,52(sp)
   48d68:	0050dc40 	call	50dc4 <__muldf3>
   48d6c:	d9000e17 	ldw	r4,56(sp)
   48d70:	d9400c17 	ldw	r5,48(sp)
   48d74:	d8800715 	stw	r2,28(sp)
   48d78:	e1000005 	stb	r4,0(fp)
   48d7c:	d8c00915 	stw	r3,36(sp)
   48d80:	29000058 	cmpnei	r4,r5,1
   48d84:	da000d17 	ldw	r8,52(sp)
   48d88:	dac01217 	ldw	r11,72(sp)
   48d8c:	e167883a 	add	r19,fp,r5
   48d90:	2000a126 	beq	r4,zero,49018 <_dtoa_r+0x171c>
   48d94:	dc000c15 	stw	r16,48(sp)
   48d98:	dc800b15 	stw	r18,44(sp)
   48d9c:	4021883a 	mov	r16,r8
   48da0:	a009883a 	mov	r4,r20
   48da4:	880b883a 	mov	r5,r17
   48da8:	dac00d15 	stw	r11,52(sp)
   48dac:	000d883a 	mov	r6,zero
   48db0:	01d00934 	movhi	r7,16420
   48db4:	0050dc40 	call	50dc4 <__muldf3>
   48db8:	180b883a 	mov	r5,r3
   48dbc:	1009883a 	mov	r4,r2
   48dc0:	1825883a 	mov	r18,r3
   48dc4:	1029883a 	mov	r20,r2
   48dc8:	0041e680 	call	41e68 <__fixdfsi>
   48dcc:	1009883a 	mov	r4,r2
   48dd0:	1023883a 	mov	r17,r2
   48dd4:	0051fbc0 	call	51fbc <__floatsidf>
   48dd8:	a009883a 	mov	r4,r20
   48ddc:	900b883a 	mov	r5,r18
   48de0:	100d883a 	mov	r6,r2
   48de4:	180f883a 	mov	r7,r3
   48de8:	84000044 	addi	r16,r16,1
   48dec:	8c400c04 	addi	r17,r17,48
   48df0:	00515cc0 	call	515cc <__subdf3>
   48df4:	847fffc5 	stb	r17,-1(r16)
   48df8:	1009883a 	mov	r4,r2
   48dfc:	180b883a 	mov	r5,r3
   48e00:	9c3fea1e 	bne	r19,r16,48dac <_dtoa_r+0x14b0>
   48e04:	dc800b17 	ldw	r18,44(sp)
   48e08:	dc000c17 	ldw	r16,48(sp)
   48e0c:	dac00d17 	ldw	r11,52(sp)
   48e10:	1029883a 	mov	r20,r2
   48e14:	1823883a 	mov	r17,r3
   48e18:	d9000717 	ldw	r4,28(sp)
   48e1c:	d9400917 	ldw	r5,36(sp)
   48e20:	000d883a 	mov	r6,zero
   48e24:	01cff834 	movhi	r7,16352
   48e28:	dac00b15 	stw	r11,44(sp)
   48e2c:	00415640 	call	41564 <__adddf3>
   48e30:	100d883a 	mov	r6,r2
   48e34:	180f883a 	mov	r7,r3
   48e38:	a009883a 	mov	r4,r20
   48e3c:	880b883a 	mov	r5,r17
   48e40:	0050bd00 	call	50bd0 <__gedf2>
   48e44:	00805916 	blt	zero,r2,48fac <_dtoa_r+0x16b0>
   48e48:	d9800717 	ldw	r6,28(sp)
   48e4c:	d9c00917 	ldw	r7,36(sp)
   48e50:	0009883a 	mov	r4,zero
   48e54:	014ff834 	movhi	r5,16352
   48e58:	00515cc0 	call	515cc <__subdf3>
   48e5c:	100d883a 	mov	r6,r2
   48e60:	180f883a 	mov	r7,r3
   48e64:	a009883a 	mov	r4,r20
   48e68:	880b883a 	mov	r5,r17
   48e6c:	0050ccc0 	call	50ccc <__ledf2>
   48e70:	dac00b17 	ldw	r11,44(sp)
   48e74:	10000616 	blt	r2,zero,48e90 <_dtoa_r+0x1594>
   48e78:	d8801417 	ldw	r2,80(sp)
   48e7c:	103d2516 	blt	r2,zero,48314 <_dtoa_r+0xa18>
   48e80:	d8800617 	ldw	r2,24(sp)
   48e84:	108003c8 	cmpgei	r2,r2,15
   48e88:	103d221e 	bne	r2,zero,48314 <_dtoa_r+0xa18>
   48e8c:	003c9c06 	br	48100 <_dtoa_r+0x804>
   48e90:	98bfffc7 	ldb	r2,-1(r19)
   48e94:	9811883a 	mov	r8,r19
   48e98:	9cffffc4 	addi	r19,r19,-1
   48e9c:	10800c20 	cmpeqi	r2,r2,48
   48ea0:	103ffb1e 	bne	r2,zero,48e90 <_dtoa_r+0x1594>
   48ea4:	d8801117 	ldw	r2,68(sp)
   48ea8:	15400044 	addi	r21,r2,1
   48eac:	003d9c06 	br	48520 <_dtoa_r+0xc24>
   48eb0:	dc400217 	ldw	r17,8(sp)
   48eb4:	a829883a 	mov	r20,r21
   48eb8:	04c00084 	movi	r19,2
   48ebc:	003b9e06 	br	47d38 <_dtoa_r+0x43c>
   48ec0:	903c6626 	beq	r18,zero,4805c <_dtoa_r+0x760>
   48ec4:	d8800a17 	ldw	r2,40(sp)
   48ec8:	00bc860e 	bge	zero,r2,480e4 <_dtoa_r+0x7e8>
   48ecc:	a00b883a 	mov	r5,r20
   48ed0:	8809883a 	mov	r4,r17
   48ed4:	000d883a 	mov	r6,zero
   48ed8:	01d00934 	movhi	r7,16420
   48edc:	0050dc40 	call	50dc4 <__muldf3>
   48ee0:	99000044 	addi	r4,r19,1
   48ee4:	1023883a 	mov	r17,r2
   48ee8:	1829883a 	mov	r20,r3
   48eec:	0051fbc0 	call	51fbc <__floatsidf>
   48ef0:	880d883a 	mov	r6,r17
   48ef4:	a00f883a 	mov	r7,r20
   48ef8:	1009883a 	mov	r4,r2
   48efc:	180b883a 	mov	r5,r3
   48f00:	0050dc40 	call	50dc4 <__muldf3>
   48f04:	1009883a 	mov	r4,r2
   48f08:	000d883a 	mov	r6,zero
   48f0c:	01d00734 	movhi	r7,16412
   48f10:	180b883a 	mov	r5,r3
   48f14:	00415640 	call	41564 <__adddf3>
   48f18:	d9000617 	ldw	r4,24(sp)
   48f1c:	d8800b15 	stw	r2,44(sp)
   48f20:	00bf3034 	movhi	r2,64704
   48f24:	18a7883a 	add	r19,r3,r2
   48f28:	d8800a17 	ldw	r2,40(sp)
   48f2c:	213fffc4 	addi	r4,r4,-1
   48f30:	d9001115 	stw	r4,68(sp)
   48f34:	d8800c15 	stw	r2,48(sp)
   48f38:	003b9a06 	br	47da4 <_dtoa_r+0x4a8>
   48f3c:	00c00c44 	movi	r3,49
   48f40:	b5800044 	addi	r22,r22,1
   48f44:	003c1906 	br	47fac <_dtoa_r+0x6b0>
   48f48:	00800e44 	movi	r2,57
   48f4c:	b0800005 	stb	r2,0(r22)
   48f50:	d8800617 	ldw	r2,24(sp)
   48f54:	dc400215 	stw	r17,8(sp)
   48f58:	b4800044 	addi	r18,r22,1
   48f5c:	15400044 	addi	r21,r2,1
   48f60:	9823883a 	mov	r17,r19
   48f64:	003d5306 	br	484b4 <_dtoa_r+0xbb8>
   48f68:	d8000315 	stw	zero,12(sp)
   48f6c:	0023883a 	mov	r17,zero
   48f70:	003e5406 	br	488c4 <_dtoa_r+0xfc8>
   48f74:	e029883a 	mov	r20,fp
   48f78:	df000817 	ldw	fp,32(sp)
   48f7c:	003e2506 	br	48814 <_dtoa_r+0xf18>
   48f80:	0005883a 	mov	r2,zero
   48f84:	003e8906 	br	489ac <_dtoa_r+0x10b0>
   48f88:	102d883a 	mov	r22,r2
   48f8c:	003e6306 	br	4891c <_dtoa_r+0x1020>
   48f90:	d8c00417 	ldw	r3,16(sp)
   48f94:	1027883a 	mov	r19,r2
   48f98:	1485883a 	add	r2,r2,r18
   48f9c:	1c87883a 	add	r3,r3,r18
   48fa0:	d8c00415 	stw	r3,16(sp)
   48fa4:	d8800515 	stw	r2,20(sp)
   48fa8:	003e9c06 	br	48a1c <_dtoa_r+0x1120>
   48fac:	d8801117 	ldw	r2,68(sp)
   48fb0:	15800044 	addi	r22,r2,1
   48fb4:	003bf406 	br	47f88 <_dtoa_r+0x68c>
   48fb8:	ddc00b17 	ldw	r23,44(sp)
   48fbc:	dc000c17 	ldw	r16,48(sp)
   48fc0:	b011883a 	mov	r8,r22
   48fc4:	003fb706 	br	48ea4 <_dtoa_r+0x15a8>
   48fc8:	dc800d17 	ldw	r18,52(sp)
   48fcc:	dd800e17 	ldw	r22,56(sp)
   48fd0:	ddc00b17 	ldw	r23,44(sp)
   48fd4:	dc000c17 	ldw	r16,48(sp)
   48fd8:	dd400f17 	ldw	r21,60(sp)
   48fdc:	003c4106 	br	480e4 <_dtoa_r+0x7e8>
   48fe0:	d8800117 	ldw	r2,4(sp)
   48fe4:	108000c8 	cmpgei	r2,r2,3
   48fe8:	1000081e 	bne	r2,zero,4900c <_dtoa_r+0x1710>
   48fec:	d9400317 	ldw	r5,12(sp)
   48ff0:	b809883a 	mov	r4,r23
   48ff4:	00476e40 	call	476e4 <quorem>
   48ff8:	15000c04 	addi	r20,r2,48
   48ffc:	dd400617 	ldw	r21,24(sp)
   49000:	dc800a17 	ldw	r18,40(sp)
   49004:	e5000005 	stb	r20,0(fp)
   49008:	003d1b06 	br	48478 <_dtoa_r+0xb7c>
   4900c:	dc800a17 	ldw	r18,40(sp)
   49010:	dd400615 	stw	r21,24(sp)
   49014:	003e2006 	br	48898 <_dtoa_r+0xf9c>
   49018:	4027883a 	mov	r19,r8
   4901c:	003f7e06 	br	48e18 <_dtoa_r+0x151c>
   49020:	d8800117 	ldw	r2,4(sp)
   49024:	108000c8 	cmpgei	r2,r2,3
   49028:	103ff81e 	bne	r2,zero,4900c <_dtoa_r+0x1710>
   4902c:	dd400615 	stw	r21,24(sp)
   49030:	dc800a17 	ldw	r18,40(sp)
   49034:	04fd9f0e 	bge	zero,r19,486b4 <_dtoa_r+0xdb8>
   49038:	003e6406 	br	489cc <_dtoa_r+0x10d0>
   4903c:	1023883a 	mov	r17,r2
   49040:	1829883a 	mov	r20,r3
   49044:	04c00084 	movi	r19,2
   49048:	003b3b06 	br	47d38 <_dtoa_r+0x43c>
   4904c:	01c00174 	movhi	r7,5
   49050:	01000174 	movhi	r4,5
   49054:	39d4f404 	addi	r7,r7,21456
   49058:	000d883a 	mov	r6,zero
   4905c:	0140ba84 	movi	r5,746
   49060:	2114f904 	addi	r4,r4,21476
   49064:	004dac00 	call	4dac0 <__assert_func>
   49068:	01c00174 	movhi	r7,5
   4906c:	01000174 	movhi	r4,5
   49070:	39d4f404 	addi	r7,r7,21456
   49074:	000d883a 	mov	r6,zero
   49078:	01406a84 	movi	r5,426
   4907c:	2114f904 	addi	r4,r4,21476
   49080:	004dac00 	call	4dac0 <__assert_func>
   49084:	e714f004 	addi	fp,fp,21440
   49088:	003a4d06 	br	479c0 <_dtoa_r+0xc4>
   4908c:	80001115 	stw	zero,68(r16)
   49090:	000b883a 	mov	r5,zero
   49094:	8009883a 	mov	r4,r16
   49098:	004a0100 	call	4a010 <_Balloc>
   4909c:	1039883a 	mov	fp,r2
   490a0:	103ff126 	beq	r2,zero,49068 <_dtoa_r+0x176c>
   490a4:	80801015 	stw	r2,64(r16)
   490a8:	00bfffc4 	movi	r2,-1
   490ac:	d8800a15 	stw	r2,40(sp)
   490b0:	00800044 	movi	r2,1
   490b4:	04bfffc4 	movi	r18,-1
   490b8:	d8800715 	stw	r2,28(sp)
   490bc:	d8001f15 	stw	zero,124(sp)
   490c0:	003c0806 	br	480e4 <_dtoa_r+0x7e8>
   490c4:	80001115 	stw	zero,68(r16)
   490c8:	000b883a 	mov	r5,zero
   490cc:	003ad506 	br	47c24 <_dtoa_r+0x328>
   490d0:	a005883a 	mov	r2,r20
   490d4:	e029883a 	mov	r20,fp
   490d8:	df000817 	ldw	fp,32(sp)
   490dc:	00bdcd0e 	bge	zero,r2,48814 <_dtoa_r+0xf18>
   490e0:	003dc006 	br	487e4 <_dtoa_r+0xee8>

000490e4 <__sflush_r>:
   490e4:	2880030b 	ldhu	r2,12(r5)
   490e8:	defffb04 	addi	sp,sp,-20
   490ec:	dcc00315 	stw	r19,12(sp)
   490f0:	dc000015 	stw	r16,0(sp)
   490f4:	dfc00415 	stw	ra,16(sp)
   490f8:	dc800215 	stw	r18,8(sp)
   490fc:	dc400115 	stw	r17,4(sp)
   49100:	10c0020c 	andi	r3,r2,8
   49104:	2821883a 	mov	r16,r5
   49108:	2027883a 	mov	r19,r4
   4910c:	18003c1e 	bne	r3,zero,49200 <__sflush_r+0x11c>
   49110:	29000117 	ldw	r4,4(r5)
   49114:	10c20014 	ori	r3,r2,2048
   49118:	28c0030d 	sth	r3,12(r5)
   4911c:	0100580e 	bge	zero,r4,49280 <__sflush_r+0x19c>
   49120:	82000a17 	ldw	r8,40(r16)
   49124:	40003426 	beq	r8,zero,491f8 <__sflush_r+0x114>
   49128:	9c400017 	ldw	r17,0(r19)
   4912c:	1084000c 	andi	r2,r2,4096
   49130:	98000015 	stw	zero,0(r19)
   49134:	81400717 	ldw	r5,28(r16)
   49138:	1000561e 	bne	r2,zero,49294 <__sflush_r+0x1b0>
   4913c:	000d883a 	mov	r6,zero
   49140:	01c00044 	movi	r7,1
   49144:	9809883a 	mov	r4,r19
   49148:	403ee83a 	callr	r8
   4914c:	100d883a 	mov	r6,r2
   49150:	10bfffd8 	cmpnei	r2,r2,-1
   49154:	10005b26 	beq	r2,zero,492c4 <__sflush_r+0x1e0>
   49158:	80c0030b 	ldhu	r3,12(r16)
   4915c:	82000a17 	ldw	r8,40(r16)
   49160:	18c0010c 	andi	r3,r3,4
   49164:	18000626 	beq	r3,zero,49180 <__sflush_r+0x9c>
   49168:	80c00117 	ldw	r3,4(r16)
   4916c:	80800c17 	ldw	r2,48(r16)
   49170:	30cdc83a 	sub	r6,r6,r3
   49174:	10000226 	beq	r2,zero,49180 <__sflush_r+0x9c>
   49178:	80800f17 	ldw	r2,60(r16)
   4917c:	308dc83a 	sub	r6,r6,r2
   49180:	81400717 	ldw	r5,28(r16)
   49184:	000f883a 	mov	r7,zero
   49188:	9809883a 	mov	r4,r19
   4918c:	403ee83a 	callr	r8
   49190:	10ffffd8 	cmpnei	r3,r2,-1
   49194:	1800411e 	bne	r3,zero,4929c <__sflush_r+0x1b8>
   49198:	99400017 	ldw	r5,0(r19)
   4919c:	28c007b0 	cmpltui	r3,r5,30
   491a0:	18002c26 	beq	r3,zero,49254 <__sflush_r+0x170>
   491a4:	00f7f034 	movhi	r3,57280
   491a8:	18ffff84 	addi	r3,r3,-2
   491ac:	1949d83a 	sra	r4,r3,r5
   491b0:	80c0030b 	ldhu	r3,12(r16)
   491b4:	2100004c 	andi	r4,r4,1
   491b8:	2000271e 	bne	r4,zero,49258 <__sflush_r+0x174>
   491bc:	81000417 	ldw	r4,16(r16)
   491c0:	19bdffcc 	andi	r6,r3,63487
   491c4:	8180030d 	sth	r6,12(r16)
   491c8:	80000115 	stw	zero,4(r16)
   491cc:	81000015 	stw	r4,0(r16)
   491d0:	18c4000c 	andi	r3,r3,4096
   491d4:	1800431e 	bne	r3,zero,492e4 <__sflush_r+0x200>
   491d8:	81400c17 	ldw	r5,48(r16)
   491dc:	9c400015 	stw	r17,0(r19)
   491e0:	28000526 	beq	r5,zero,491f8 <__sflush_r+0x114>
   491e4:	80801004 	addi	r2,r16,64
   491e8:	28800226 	beq	r5,r2,491f4 <__sflush_r+0x110>
   491ec:	9809883a 	mov	r4,r19
   491f0:	00498800 	call	49880 <_free_r>
   491f4:	80000c15 	stw	zero,48(r16)
   491f8:	0005883a 	mov	r2,zero
   491fc:	00001906 	br	49264 <__sflush_r+0x180>
   49200:	2c800417 	ldw	r18,16(r5)
   49204:	903ffc26 	beq	r18,zero,491f8 <__sflush_r+0x114>
   49208:	2c400017 	ldw	r17,0(r5)
   4920c:	108000cc 	andi	r2,r2,3
   49210:	2c800015 	stw	r18,0(r5)
   49214:	8ca3c83a 	sub	r17,r17,r18
   49218:	10001c1e 	bne	r2,zero,4928c <__sflush_r+0x1a8>
   4921c:	28800517 	ldw	r2,20(r5)
   49220:	80800215 	stw	r2,8(r16)
   49224:	04400316 	blt	zero,r17,49234 <__sflush_r+0x150>
   49228:	003ff306 	br	491f8 <__sflush_r+0x114>
   4922c:	90a5883a 	add	r18,r18,r2
   49230:	047ff10e 	bge	zero,r17,491f8 <__sflush_r+0x114>
   49234:	80800917 	ldw	r2,36(r16)
   49238:	81400717 	ldw	r5,28(r16)
   4923c:	880f883a 	mov	r7,r17
   49240:	900d883a 	mov	r6,r18
   49244:	9809883a 	mov	r4,r19
   49248:	103ee83a 	callr	r2
   4924c:	88a3c83a 	sub	r17,r17,r2
   49250:	00bff616 	blt	zero,r2,4922c <__sflush_r+0x148>
   49254:	80c0030b 	ldhu	r3,12(r16)
   49258:	18c01014 	ori	r3,r3,64
   4925c:	80c0030d 	sth	r3,12(r16)
   49260:	00bfffc4 	movi	r2,-1
   49264:	dfc00417 	ldw	ra,16(sp)
   49268:	dcc00317 	ldw	r19,12(sp)
   4926c:	dc800217 	ldw	r18,8(sp)
   49270:	dc400117 	ldw	r17,4(sp)
   49274:	dc000017 	ldw	r16,0(sp)
   49278:	dec00504 	addi	sp,sp,20
   4927c:	f800283a 	ret
   49280:	29000f17 	ldw	r4,60(r5)
   49284:	013fa616 	blt	zero,r4,49120 <__sflush_r+0x3c>
   49288:	003fdb06 	br	491f8 <__sflush_r+0x114>
   4928c:	0005883a 	mov	r2,zero
   49290:	003fe306 	br	49220 <__sflush_r+0x13c>
   49294:	81801417 	ldw	r6,80(r16)
   49298:	003fb106 	br	49160 <__sflush_r+0x7c>
   4929c:	80c0030b 	ldhu	r3,12(r16)
   492a0:	81000417 	ldw	r4,16(r16)
   492a4:	80000115 	stw	zero,4(r16)
   492a8:	197dffcc 	andi	r5,r3,63487
   492ac:	8140030d 	sth	r5,12(r16)
   492b0:	81000015 	stw	r4,0(r16)
   492b4:	18c4000c 	andi	r3,r3,4096
   492b8:	183fc726 	beq	r3,zero,491d8 <__sflush_r+0xf4>
   492bc:	80801415 	stw	r2,80(r16)
   492c0:	003fc506 	br	491d8 <__sflush_r+0xf4>
   492c4:	98800017 	ldw	r2,0(r19)
   492c8:	103fa326 	beq	r2,zero,49158 <__sflush_r+0x74>
   492cc:	10c00760 	cmpeqi	r3,r2,29
   492d0:	1800021e 	bne	r3,zero,492dc <__sflush_r+0x1f8>
   492d4:	10800598 	cmpnei	r2,r2,22
   492d8:	103fde1e 	bne	r2,zero,49254 <__sflush_r+0x170>
   492dc:	9c400015 	stw	r17,0(r19)
   492e0:	003fc506 	br	491f8 <__sflush_r+0x114>
   492e4:	283fbc1e 	bne	r5,zero,491d8 <__sflush_r+0xf4>
   492e8:	003ff406 	br	492bc <__sflush_r+0x1d8>

000492ec <_fflush_r>:
   492ec:	defffd04 	addi	sp,sp,-12
   492f0:	dc000115 	stw	r16,4(sp)
   492f4:	dfc00215 	stw	ra,8(sp)
   492f8:	2021883a 	mov	r16,r4
   492fc:	20000226 	beq	r4,zero,49308 <_fflush_r+0x1c>
   49300:	20800e17 	ldw	r2,56(r4)
   49304:	10000726 	beq	r2,zero,49324 <_fflush_r+0x38>
   49308:	2880030f 	ldh	r2,12(r5)
   4930c:	10000a1e 	bne	r2,zero,49338 <_fflush_r+0x4c>
   49310:	0005883a 	mov	r2,zero
   49314:	dfc00217 	ldw	ra,8(sp)
   49318:	dc000117 	ldw	r16,4(sp)
   4931c:	dec00304 	addi	sp,sp,12
   49320:	f800283a 	ret
   49324:	d9400015 	stw	r5,0(sp)
   49328:	00497140 	call	49714 <__sinit>
   4932c:	d9400017 	ldw	r5,0(sp)
   49330:	2880030f 	ldh	r2,12(r5)
   49334:	103ff626 	beq	r2,zero,49310 <_fflush_r+0x24>
   49338:	8009883a 	mov	r4,r16
   4933c:	dfc00217 	ldw	ra,8(sp)
   49340:	dc000117 	ldw	r16,4(sp)
   49344:	dec00304 	addi	sp,sp,12
   49348:	00490e41 	jmpi	490e4 <__sflush_r>

0004934c <fflush>:
   4934c:	20001726 	beq	r4,zero,493ac <fflush+0x60>
   49350:	00800174 	movhi	r2,5
   49354:	200b883a 	mov	r5,r4
   49358:	111d2c17 	ldw	r4,29872(r2)
   4935c:	20000226 	beq	r4,zero,49368 <fflush+0x1c>
   49360:	20800e17 	ldw	r2,56(r4)
   49364:	10000526 	beq	r2,zero,4937c <fflush+0x30>
   49368:	2880030f 	ldh	r2,12(r5)
   4936c:	1000021e 	bne	r2,zero,49378 <fflush+0x2c>
   49370:	0005883a 	mov	r2,zero
   49374:	f800283a 	ret
   49378:	00490e41 	jmpi	490e4 <__sflush_r>
   4937c:	defffd04 	addi	sp,sp,-12
   49380:	d9400115 	stw	r5,4(sp)
   49384:	d9000015 	stw	r4,0(sp)
   49388:	dfc00215 	stw	ra,8(sp)
   4938c:	00497140 	call	49714 <__sinit>
   49390:	d9400117 	ldw	r5,4(sp)
   49394:	d9000017 	ldw	r4,0(sp)
   49398:	2880030f 	ldh	r2,12(r5)
   4939c:	10000826 	beq	r2,zero,493c0 <fflush+0x74>
   493a0:	dfc00217 	ldw	ra,8(sp)
   493a4:	dec00304 	addi	sp,sp,12
   493a8:	00490e41 	jmpi	490e4 <__sflush_r>
   493ac:	00800174 	movhi	r2,5
   493b0:	111d2b17 	ldw	r4,29868(r2)
   493b4:	01400174 	movhi	r5,5
   493b8:	2964bb04 	addi	r5,r5,-27924
   493bc:	0049c201 	jmpi	49c20 <_fwalk_reent>
   493c0:	0005883a 	mov	r2,zero
   493c4:	dfc00217 	ldw	ra,8(sp)
   493c8:	dec00304 	addi	sp,sp,12
   493cc:	f800283a 	ret

000493d0 <__fp_lock>:
   493d0:	0005883a 	mov	r2,zero
   493d4:	f800283a 	ret

000493d8 <_cleanup_r>:
   493d8:	01400174 	movhi	r5,5
   493dc:	29772b04 	addi	r5,r5,-9044
   493e0:	0049c201 	jmpi	49c20 <_fwalk_reent>

000493e4 <__fp_unlock>:
   493e4:	0005883a 	mov	r2,zero
   493e8:	f800283a 	ret

000493ec <__sinit.part.0>:
   493ec:	00c00174 	movhi	r3,5
   493f0:	20800117 	ldw	r2,4(r4)
   493f4:	18e4f604 	addi	r3,r3,-27688
   493f8:	20c00f15 	stw	r3,60(r4)
   493fc:	2140bb04 	addi	r5,r4,748
   49400:	00c000c4 	movi	r3,3
   49404:	20c0b915 	stw	r3,740(r4)
   49408:	2140ba15 	stw	r5,744(r4)
   4940c:	2000b815 	stw	zero,736(r4)
   49410:	10001705 	stb	zero,92(r2)
   49414:	10001745 	stb	zero,93(r2)
   49418:	10001785 	stb	zero,94(r2)
   4941c:	100017c5 	stb	zero,95(r2)
   49420:	10001805 	stb	zero,96(r2)
   49424:	10001845 	stb	zero,97(r2)
   49428:	10001885 	stb	zero,98(r2)
   4942c:	100018c5 	stb	zero,99(r2)
   49430:	00c00104 	movi	r3,4
   49434:	10c00315 	stw	r3,12(r2)
   49438:	02000174 	movhi	r8,5
   4943c:	20c00217 	ldw	r3,8(r4)
   49440:	01c00174 	movhi	r7,5
   49444:	01800174 	movhi	r6,5
   49448:	01400174 	movhi	r5,5
   4944c:	422c7d04 	addi	r8,r8,-19980
   49450:	39ec9404 	addi	r7,r7,-19888
   49454:	31acb404 	addi	r6,r6,-19760
   49458:	296ccb04 	addi	r5,r5,-19668
   4945c:	02400074 	movhi	r9,1
   49460:	10000015 	stw	zero,0(r2)
   49464:	10000115 	stw	zero,4(r2)
   49468:	10000215 	stw	zero,8(r2)
   4946c:	10001915 	stw	zero,100(r2)
   49470:	10000415 	stw	zero,16(r2)
   49474:	10000515 	stw	zero,20(r2)
   49478:	10000615 	stw	zero,24(r2)
   4947c:	10800715 	stw	r2,28(r2)
   49480:	12000815 	stw	r8,32(r2)
   49484:	11c00915 	stw	r7,36(r2)
   49488:	11800a15 	stw	r6,40(r2)
   4948c:	11400b15 	stw	r5,44(r2)
   49490:	4a400284 	addi	r9,r9,10
   49494:	1a400315 	stw	r9,12(r3)
   49498:	18000015 	stw	zero,0(r3)
   4949c:	18000115 	stw	zero,4(r3)
   494a0:	18000215 	stw	zero,8(r3)
   494a4:	18001915 	stw	zero,100(r3)
   494a8:	18000415 	stw	zero,16(r3)
   494ac:	18001705 	stb	zero,92(r3)
   494b0:	18001745 	stb	zero,93(r3)
   494b4:	18001785 	stb	zero,94(r3)
   494b8:	180017c5 	stb	zero,95(r3)
   494bc:	18001805 	stb	zero,96(r3)
   494c0:	18001845 	stb	zero,97(r3)
   494c4:	18001885 	stb	zero,98(r3)
   494c8:	180018c5 	stb	zero,99(r3)
   494cc:	20800317 	ldw	r2,12(r4)
   494d0:	024000b4 	movhi	r9,2
   494d4:	18000515 	stw	zero,20(r3)
   494d8:	18000615 	stw	zero,24(r3)
   494dc:	18c00715 	stw	r3,28(r3)
   494e0:	1a000815 	stw	r8,32(r3)
   494e4:	19c00915 	stw	r7,36(r3)
   494e8:	19800a15 	stw	r6,40(r3)
   494ec:	19400b15 	stw	r5,44(r3)
   494f0:	4a400484 	addi	r9,r9,18
   494f4:	10000015 	stw	zero,0(r2)
   494f8:	10000115 	stw	zero,4(r2)
   494fc:	10000215 	stw	zero,8(r2)
   49500:	10001915 	stw	zero,100(r2)
   49504:	12400315 	stw	r9,12(r2)
   49508:	10000415 	stw	zero,16(r2)
   4950c:	10000515 	stw	zero,20(r2)
   49510:	10000615 	stw	zero,24(r2)
   49514:	10001705 	stb	zero,92(r2)
   49518:	10001745 	stb	zero,93(r2)
   4951c:	10001785 	stb	zero,94(r2)
   49520:	100017c5 	stb	zero,95(r2)
   49524:	10001805 	stb	zero,96(r2)
   49528:	10001845 	stb	zero,97(r2)
   4952c:	10001885 	stb	zero,98(r2)
   49530:	100018c5 	stb	zero,99(r2)
   49534:	10800715 	stw	r2,28(r2)
   49538:	12000815 	stw	r8,32(r2)
   4953c:	11c00915 	stw	r7,36(r2)
   49540:	11800a15 	stw	r6,40(r2)
   49544:	11400b15 	stw	r5,44(r2)
   49548:	00800044 	movi	r2,1
   4954c:	20800e15 	stw	r2,56(r4)
   49550:	f800283a 	ret

00049554 <__sfmoreglue>:
   49554:	defffc04 	addi	sp,sp,-16
   49558:	dc800215 	stw	r18,8(sp)
   4955c:	2825883a 	mov	r18,r5
   49560:	dc000015 	stw	r16,0(sp)
   49564:	01401a04 	movi	r5,104
   49568:	2021883a 	mov	r16,r4
   4956c:	913fffc4 	addi	r4,r18,-1
   49570:	dfc00315 	stw	ra,12(sp)
   49574:	dc400115 	stw	r17,4(sp)
   49578:	0040b700 	call	40b70 <__mulsi3>
   4957c:	8009883a 	mov	r4,r16
   49580:	11401d04 	addi	r5,r2,116
   49584:	1023883a 	mov	r17,r2
   49588:	00421240 	call	42124 <_malloc_r>
   4958c:	1021883a 	mov	r16,r2
   49590:	10000726 	beq	r2,zero,495b0 <__sfmoreglue+0x5c>
   49594:	11000304 	addi	r4,r2,12
   49598:	10000015 	stw	zero,0(r2)
   4959c:	14800115 	stw	r18,4(r2)
   495a0:	11000215 	stw	r4,8(r2)
   495a4:	89801a04 	addi	r6,r17,104
   495a8:	000b883a 	mov	r5,zero
   495ac:	00429d80 	call	429d8 <memset>
   495b0:	8005883a 	mov	r2,r16
   495b4:	dfc00317 	ldw	ra,12(sp)
   495b8:	dc800217 	ldw	r18,8(sp)
   495bc:	dc400117 	ldw	r17,4(sp)
   495c0:	dc000017 	ldw	r16,0(sp)
   495c4:	dec00404 	addi	sp,sp,16
   495c8:	f800283a 	ret

000495cc <__sfp>:
   495cc:	defffc04 	addi	sp,sp,-16
   495d0:	00800174 	movhi	r2,5
   495d4:	dc400115 	stw	r17,4(sp)
   495d8:	145d2b17 	ldw	r17,29868(r2)
   495dc:	dc800215 	stw	r18,8(sp)
   495e0:	dfc00315 	stw	ra,12(sp)
   495e4:	88800e17 	ldw	r2,56(r17)
   495e8:	dc000015 	stw	r16,0(sp)
   495ec:	2025883a 	mov	r18,r4
   495f0:	10002d26 	beq	r2,zero,496a8 <__sfp+0xdc>
   495f4:	8c40b804 	addi	r17,r17,736
   495f8:	88800117 	ldw	r2,4(r17)
   495fc:	8c000217 	ldw	r16,8(r17)
   49600:	10bfffc4 	addi	r2,r2,-1
   49604:	1000030e 	bge	r2,zero,49614 <__sfp+0x48>
   49608:	00002306 	br	49698 <__sfp+0xcc>
   4960c:	84001a04 	addi	r16,r16,104
   49610:	28002126 	beq	r5,zero,49698 <__sfp+0xcc>
   49614:	80c0030f 	ldh	r3,12(r16)
   49618:	10bfffc4 	addi	r2,r2,-1
   4961c:	117fffd8 	cmpnei	r5,r2,-1
   49620:	183ffa1e 	bne	r3,zero,4960c <__sfp+0x40>
   49624:	00bffff4 	movhi	r2,65535
   49628:	10800044 	addi	r2,r2,1
   4962c:	80800315 	stw	r2,12(r16)
   49630:	80001915 	stw	zero,100(r16)
   49634:	80000015 	stw	zero,0(r16)
   49638:	80000215 	stw	zero,8(r16)
   4963c:	80000115 	stw	zero,4(r16)
   49640:	80000415 	stw	zero,16(r16)
   49644:	80000515 	stw	zero,20(r16)
   49648:	80000615 	stw	zero,24(r16)
   4964c:	80001705 	stb	zero,92(r16)
   49650:	80001745 	stb	zero,93(r16)
   49654:	80001785 	stb	zero,94(r16)
   49658:	800017c5 	stb	zero,95(r16)
   4965c:	80001805 	stb	zero,96(r16)
   49660:	80001845 	stb	zero,97(r16)
   49664:	80001885 	stb	zero,98(r16)
   49668:	800018c5 	stb	zero,99(r16)
   4966c:	80000c15 	stw	zero,48(r16)
   49670:	80000d15 	stw	zero,52(r16)
   49674:	80001115 	stw	zero,68(r16)
   49678:	80001215 	stw	zero,72(r16)
   4967c:	8005883a 	mov	r2,r16
   49680:	dfc00317 	ldw	ra,12(sp)
   49684:	dc800217 	ldw	r18,8(sp)
   49688:	dc400117 	ldw	r17,4(sp)
   4968c:	dc000017 	ldw	r16,0(sp)
   49690:	dec00404 	addi	sp,sp,16
   49694:	f800283a 	ret
   49698:	8c000017 	ldw	r16,0(r17)
   4969c:	80000526 	beq	r16,zero,496b4 <__sfp+0xe8>
   496a0:	8023883a 	mov	r17,r16
   496a4:	003fd406 	br	495f8 <__sfp+0x2c>
   496a8:	8809883a 	mov	r4,r17
   496ac:	00493ec0 	call	493ec <__sinit.part.0>
   496b0:	003fd006 	br	495f4 <__sfp+0x28>
   496b4:	01406b04 	movi	r5,428
   496b8:	9009883a 	mov	r4,r18
   496bc:	00421240 	call	42124 <_malloc_r>
   496c0:	1021883a 	mov	r16,r2
   496c4:	10000a26 	beq	r2,zero,496f0 <__sfp+0x124>
   496c8:	10000015 	stw	zero,0(r2)
   496cc:	11000304 	addi	r4,r2,12
   496d0:	00800104 	movi	r2,4
   496d4:	80800115 	stw	r2,4(r16)
   496d8:	81000215 	stw	r4,8(r16)
   496dc:	01806804 	movi	r6,416
   496e0:	000b883a 	mov	r5,zero
   496e4:	00429d80 	call	429d8 <memset>
   496e8:	8c000015 	stw	r16,0(r17)
   496ec:	003fec06 	br	496a0 <__sfp+0xd4>
   496f0:	88000015 	stw	zero,0(r17)
   496f4:	00800304 	movi	r2,12
   496f8:	90800015 	stw	r2,0(r18)
   496fc:	003fdf06 	br	4967c <__sfp+0xb0>

00049700 <_cleanup>:
   49700:	00800174 	movhi	r2,5
   49704:	111d2b17 	ldw	r4,29868(r2)
   49708:	01400174 	movhi	r5,5
   4970c:	29772b04 	addi	r5,r5,-9044
   49710:	0049c201 	jmpi	49c20 <_fwalk_reent>

00049714 <__sinit>:
   49714:	20800e17 	ldw	r2,56(r4)
   49718:	10000126 	beq	r2,zero,49720 <__sinit+0xc>
   4971c:	f800283a 	ret
   49720:	00493ec1 	jmpi	493ec <__sinit.part.0>

00049724 <__sfp_lock_acquire>:
   49724:	f800283a 	ret

00049728 <__sfp_lock_release>:
   49728:	f800283a 	ret

0004972c <__sinit_lock_acquire>:
   4972c:	f800283a 	ret

00049730 <__sinit_lock_release>:
   49730:	f800283a 	ret

00049734 <__fp_lock_all>:
   49734:	00800174 	movhi	r2,5
   49738:	111d2c17 	ldw	r4,29872(r2)
   4973c:	01400174 	movhi	r5,5
   49740:	2964f404 	addi	r5,r5,-27696
   49744:	0049b881 	jmpi	49b88 <_fwalk>

00049748 <__fp_unlock_all>:
   49748:	00800174 	movhi	r2,5
   4974c:	111d2c17 	ldw	r4,29872(r2)
   49750:	01400174 	movhi	r5,5
   49754:	2964f904 	addi	r5,r5,-27676
   49758:	0049b881 	jmpi	49b88 <_fwalk>

0004975c <_malloc_trim_r>:
   4975c:	defffa04 	addi	sp,sp,-24
   49760:	dcc00315 	stw	r19,12(sp)
   49764:	04c00174 	movhi	r19,5
   49768:	dd000415 	stw	r20,16(sp)
   4976c:	dc800215 	stw	r18,8(sp)
   49770:	dc400115 	stw	r17,4(sp)
   49774:	dc000015 	stw	r16,0(sp)
   49778:	2829883a 	mov	r20,r5
   4977c:	dfc00515 	stw	ra,20(sp)
   49780:	9cd74104 	addi	r19,r19,23812
   49784:	2025883a 	mov	r18,r4
   49788:	00529e00 	call	529e0 <__malloc_lock>
   4978c:	98800217 	ldw	r2,8(r19)
   49790:	14400117 	ldw	r17,4(r2)
   49794:	00bfff04 	movi	r2,-4
   49798:	88a2703a 	and	r17,r17,r2
   4979c:	8c03fbc4 	addi	r16,r17,4079
   497a0:	8521c83a 	sub	r16,r16,r20
   497a4:	8020d33a 	srli	r16,r16,12
   497a8:	843fffc4 	addi	r16,r16,-1
   497ac:	8020933a 	slli	r16,r16,12
   497b0:	80840008 	cmpgei	r2,r16,4096
   497b4:	10000626 	beq	r2,zero,497d0 <_malloc_trim_r+0x74>
   497b8:	000b883a 	mov	r5,zero
   497bc:	9009883a 	mov	r4,r18
   497c0:	0042b800 	call	42b80 <_sbrk_r>
   497c4:	98c00217 	ldw	r3,8(r19)
   497c8:	1c47883a 	add	r3,r3,r17
   497cc:	10c00b26 	beq	r2,r3,497fc <_malloc_trim_r+0xa0>
   497d0:	9009883a 	mov	r4,r18
   497d4:	0052a040 	call	52a04 <__malloc_unlock>
   497d8:	0005883a 	mov	r2,zero
   497dc:	dfc00517 	ldw	ra,20(sp)
   497e0:	dd000417 	ldw	r20,16(sp)
   497e4:	dcc00317 	ldw	r19,12(sp)
   497e8:	dc800217 	ldw	r18,8(sp)
   497ec:	dc400117 	ldw	r17,4(sp)
   497f0:	dc000017 	ldw	r16,0(sp)
   497f4:	dec00604 	addi	sp,sp,24
   497f8:	f800283a 	ret
   497fc:	040bc83a 	sub	r5,zero,r16
   49800:	9009883a 	mov	r4,r18
   49804:	0042b800 	call	42b80 <_sbrk_r>
   49808:	10bfffd8 	cmpnei	r2,r2,-1
   4980c:	10000d26 	beq	r2,zero,49844 <_malloc_trim_r+0xe8>
   49810:	008001b4 	movhi	r2,6
   49814:	10a44917 	ldw	r2,-28380(r2)
   49818:	98c00217 	ldw	r3,8(r19)
   4981c:	8c23c83a 	sub	r17,r17,r16
   49820:	8c400054 	ori	r17,r17,1
   49824:	1405c83a 	sub	r2,r2,r16
   49828:	1c400115 	stw	r17,4(r3)
   4982c:	9009883a 	mov	r4,r18
   49830:	00c001b4 	movhi	r3,6
   49834:	18a44915 	stw	r2,-28380(r3)
   49838:	0052a040 	call	52a04 <__malloc_unlock>
   4983c:	00800044 	movi	r2,1
   49840:	003fe606 	br	497dc <_malloc_trim_r+0x80>
   49844:	000b883a 	mov	r5,zero
   49848:	9009883a 	mov	r4,r18
   4984c:	0042b800 	call	42b80 <_sbrk_r>
   49850:	99000217 	ldw	r4,8(r19)
   49854:	1107c83a 	sub	r3,r2,r4
   49858:	19400410 	cmplti	r5,r3,16
   4985c:	283fdc1e 	bne	r5,zero,497d0 <_malloc_trim_r+0x74>
   49860:	01400174 	movhi	r5,5
   49864:	295d2d17 	ldw	r5,29876(r5)
   49868:	18c00054 	ori	r3,r3,1
   4986c:	20c00115 	stw	r3,4(r4)
   49870:	1145c83a 	sub	r2,r2,r5
   49874:	014001b4 	movhi	r5,6
   49878:	28a44915 	stw	r2,-28380(r5)
   4987c:	003fd406 	br	497d0 <_malloc_trim_r+0x74>

00049880 <_free_r>:
   49880:	28005f26 	beq	r5,zero,49a00 <_free_r+0x180>
   49884:	defffd04 	addi	sp,sp,-12
   49888:	dc400115 	stw	r17,4(sp)
   4988c:	dc000015 	stw	r16,0(sp)
   49890:	2023883a 	mov	r17,r4
   49894:	2821883a 	mov	r16,r5
   49898:	dfc00215 	stw	ra,8(sp)
   4989c:	00529e00 	call	529e0 <__malloc_lock>
   498a0:	81ffff17 	ldw	r7,-4(r16)
   498a4:	00bfff84 	movi	r2,-2
   498a8:	80fffe04 	addi	r3,r16,-8
   498ac:	3884703a 	and	r2,r7,r2
   498b0:	01800174 	movhi	r6,5
   498b4:	1889883a 	add	r4,r3,r2
   498b8:	31974104 	addi	r6,r6,23812
   498bc:	21400117 	ldw	r5,4(r4)
   498c0:	32000217 	ldw	r8,8(r6)
   498c4:	027fff04 	movi	r9,-4
   498c8:	2a4a703a 	and	r5,r5,r9
   498cc:	41006526 	beq	r8,r4,49a64 <_free_r+0x1e4>
   498d0:	21400115 	stw	r5,4(r4)
   498d4:	39c0004c 	andi	r7,r7,1
   498d8:	2151883a 	add	r8,r4,r5
   498dc:	3800281e 	bne	r7,zero,49980 <_free_r+0x100>
   498e0:	82bffe17 	ldw	r10,-8(r16)
   498e4:	42000117 	ldw	r8,4(r8)
   498e8:	01c00174 	movhi	r7,5
   498ec:	1a87c83a 	sub	r3,r3,r10
   498f0:	1a400217 	ldw	r9,8(r3)
   498f4:	39d74304 	addi	r7,r7,23820
   498f8:	1285883a 	add	r2,r2,r10
   498fc:	4200004c 	andi	r8,r8,1
   49900:	49c04d26 	beq	r9,r7,49a38 <_free_r+0x1b8>
   49904:	1a800317 	ldw	r10,12(r3)
   49908:	4a800315 	stw	r10,12(r9)
   4990c:	52400215 	stw	r9,8(r10)
   49910:	40006926 	beq	r8,zero,49ab8 <_free_r+0x238>
   49914:	11400054 	ori	r5,r2,1
   49918:	19400115 	stw	r5,4(r3)
   4991c:	20800015 	stw	r2,0(r4)
   49920:	11008028 	cmpgeui	r4,r2,512
   49924:	20001e1e 	bne	r4,zero,499a0 <_free_r+0x120>
   49928:	1008d0fa 	srli	r4,r2,3
   4992c:	100ad17a 	srli	r5,r2,5
   49930:	31c00117 	ldw	r7,4(r6)
   49934:	20800044 	addi	r2,r4,1
   49938:	100490fa 	slli	r2,r2,3
   4993c:	01000044 	movi	r4,1
   49940:	2148983a 	sll	r4,r4,r5
   49944:	3085883a 	add	r2,r6,r2
   49948:	11400017 	ldw	r5,0(r2)
   4994c:	21c8b03a 	or	r4,r4,r7
   49950:	11fffe04 	addi	r7,r2,-8
   49954:	19c00315 	stw	r7,12(r3)
   49958:	19400215 	stw	r5,8(r3)
   4995c:	31000115 	stw	r4,4(r6)
   49960:	10c00015 	stw	r3,0(r2)
   49964:	28c00315 	stw	r3,12(r5)
   49968:	8809883a 	mov	r4,r17
   4996c:	dfc00217 	ldw	ra,8(sp)
   49970:	dc400117 	ldw	r17,4(sp)
   49974:	dc000017 	ldw	r16,0(sp)
   49978:	dec00304 	addi	sp,sp,12
   4997c:	0052a041 	jmpi	52a04 <__malloc_unlock>
   49980:	41c00117 	ldw	r7,4(r8)
   49984:	39c0004c 	andi	r7,r7,1
   49988:	38001e26 	beq	r7,zero,49a04 <_free_r+0x184>
   4998c:	11400054 	ori	r5,r2,1
   49990:	817fff15 	stw	r5,-4(r16)
   49994:	20800015 	stw	r2,0(r4)
   49998:	11008028 	cmpgeui	r4,r2,512
   4999c:	203fe226 	beq	r4,zero,49928 <_free_r+0xa8>
   499a0:	1008d27a 	srli	r4,r2,9
   499a4:	21400168 	cmpgeui	r5,r4,5
   499a8:	2800451e 	bne	r5,zero,49ac0 <_free_r+0x240>
   499ac:	1008d1ba 	srli	r4,r2,6
   499b0:	21c00e44 	addi	r7,r4,57
   499b4:	380e90fa 	slli	r7,r7,3
   499b8:	21000e04 	addi	r4,r4,56
   499bc:	31cf883a 	add	r7,r6,r7
   499c0:	39400017 	ldw	r5,0(r7)
   499c4:	39fffe04 	addi	r7,r7,-8
   499c8:	39405326 	beq	r7,r5,49b18 <_free_r+0x298>
   499cc:	01bfff04 	movi	r6,-4
   499d0:	00000206 	br	499dc <_free_r+0x15c>
   499d4:	29400217 	ldw	r5,8(r5)
   499d8:	39400326 	beq	r7,r5,499e8 <_free_r+0x168>
   499dc:	29000117 	ldw	r4,4(r5)
   499e0:	2188703a 	and	r4,r4,r6
   499e4:	113ffb36 	bltu	r2,r4,499d4 <_free_r+0x154>
   499e8:	29c00317 	ldw	r7,12(r5)
   499ec:	19c00315 	stw	r7,12(r3)
   499f0:	19400215 	stw	r5,8(r3)
   499f4:	38c00215 	stw	r3,8(r7)
   499f8:	28c00315 	stw	r3,12(r5)
   499fc:	003fda06 	br	49968 <_free_r+0xe8>
   49a00:	f800283a 	ret
   49a04:	01c00174 	movhi	r7,5
   49a08:	1145883a 	add	r2,r2,r5
   49a0c:	39d74304 	addi	r7,r7,23820
   49a10:	21400217 	ldw	r5,8(r4)
   49a14:	29c03726 	beq	r5,r7,49af4 <_free_r+0x274>
   49a18:	22000317 	ldw	r8,12(r4)
   49a1c:	11c00054 	ori	r7,r2,1
   49a20:	1889883a 	add	r4,r3,r2
   49a24:	2a000315 	stw	r8,12(r5)
   49a28:	41400215 	stw	r5,8(r8)
   49a2c:	19c00115 	stw	r7,4(r3)
   49a30:	20800015 	stw	r2,0(r4)
   49a34:	003fba06 	br	49920 <_free_r+0xa0>
   49a38:	40004f1e 	bne	r8,zero,49b78 <_free_r+0x2f8>
   49a3c:	21800217 	ldw	r6,8(r4)
   49a40:	21000317 	ldw	r4,12(r4)
   49a44:	288b883a 	add	r5,r5,r2
   49a48:	28800054 	ori	r2,r5,1
   49a4c:	31000315 	stw	r4,12(r6)
   49a50:	21800215 	stw	r6,8(r4)
   49a54:	18800115 	stw	r2,4(r3)
   49a58:	1947883a 	add	r3,r3,r5
   49a5c:	19400015 	stw	r5,0(r3)
   49a60:	003fc106 	br	49968 <_free_r+0xe8>
   49a64:	39c0004c 	andi	r7,r7,1
   49a68:	114b883a 	add	r5,r2,r5
   49a6c:	3800071e 	bne	r7,zero,49a8c <_free_r+0x20c>
   49a70:	81fffe17 	ldw	r7,-8(r16)
   49a74:	19c7c83a 	sub	r3,r3,r7
   49a78:	18800317 	ldw	r2,12(r3)
   49a7c:	19000217 	ldw	r4,8(r3)
   49a80:	29cb883a 	add	r5,r5,r7
   49a84:	20800315 	stw	r2,12(r4)
   49a88:	11000215 	stw	r4,8(r2)
   49a8c:	00800174 	movhi	r2,5
   49a90:	29000054 	ori	r4,r5,1
   49a94:	109d2e17 	ldw	r2,29880(r2)
   49a98:	19000115 	stw	r4,4(r3)
   49a9c:	30c00215 	stw	r3,8(r6)
   49aa0:	28bfb136 	bltu	r5,r2,49968 <_free_r+0xe8>
   49aa4:	008001b4 	movhi	r2,6
   49aa8:	11643e17 	ldw	r5,-28424(r2)
   49aac:	8809883a 	mov	r4,r17
   49ab0:	004975c0 	call	4975c <_malloc_trim_r>
   49ab4:	003fac06 	br	49968 <_free_r+0xe8>
   49ab8:	1145883a 	add	r2,r2,r5
   49abc:	003fd406 	br	49a10 <_free_r+0x190>
   49ac0:	21400568 	cmpgeui	r5,r4,21
   49ac4:	28000726 	beq	r5,zero,49ae4 <_free_r+0x264>
   49ac8:	21401568 	cmpgeui	r5,r4,85
   49acc:	2800191e 	bne	r5,zero,49b34 <_free_r+0x2b4>
   49ad0:	1008d33a 	srli	r4,r2,12
   49ad4:	21c01bc4 	addi	r7,r4,111
   49ad8:	380e90fa 	slli	r7,r7,3
   49adc:	21001b84 	addi	r4,r4,110
   49ae0:	003fb606 	br	499bc <_free_r+0x13c>
   49ae4:	21c01704 	addi	r7,r4,92
   49ae8:	380e90fa 	slli	r7,r7,3
   49aec:	210016c4 	addi	r4,r4,91
   49af0:	003fb206 	br	499bc <_free_r+0x13c>
   49af4:	30c00515 	stw	r3,20(r6)
   49af8:	30c00415 	stw	r3,16(r6)
   49afc:	11000054 	ori	r4,r2,1
   49b00:	19c00315 	stw	r7,12(r3)
   49b04:	19c00215 	stw	r7,8(r3)
   49b08:	19000115 	stw	r4,4(r3)
   49b0c:	1887883a 	add	r3,r3,r2
   49b10:	18800015 	stw	r2,0(r3)
   49b14:	003f9406 	br	49968 <_free_r+0xe8>
   49b18:	2009d0ba 	srai	r4,r4,2
   49b1c:	00800044 	movi	r2,1
   49b20:	32000117 	ldw	r8,4(r6)
   49b24:	1104983a 	sll	r2,r2,r4
   49b28:	1204b03a 	or	r2,r2,r8
   49b2c:	30800115 	stw	r2,4(r6)
   49b30:	003fae06 	br	499ec <_free_r+0x16c>
   49b34:	21405568 	cmpgeui	r5,r4,341
   49b38:	2800051e 	bne	r5,zero,49b50 <_free_r+0x2d0>
   49b3c:	1008d3fa 	srli	r4,r2,15
   49b40:	21c01e04 	addi	r7,r4,120
   49b44:	380e90fa 	slli	r7,r7,3
   49b48:	21001dc4 	addi	r4,r4,119
   49b4c:	003f9b06 	br	499bc <_free_r+0x13c>
   49b50:	21015568 	cmpgeui	r4,r4,1365
   49b54:	2000051e 	bne	r4,zero,49b6c <_free_r+0x2ec>
   49b58:	1008d4ba 	srli	r4,r2,18
   49b5c:	21c01f44 	addi	r7,r4,125
   49b60:	380e90fa 	slli	r7,r7,3
   49b64:	21001f04 	addi	r4,r4,124
   49b68:	003f9406 	br	499bc <_free_r+0x13c>
   49b6c:	01c0fe04 	movi	r7,1016
   49b70:	01001f84 	movi	r4,126
   49b74:	003f9106 	br	499bc <_free_r+0x13c>
   49b78:	11400054 	ori	r5,r2,1
   49b7c:	19400115 	stw	r5,4(r3)
   49b80:	20800015 	stw	r2,0(r4)
   49b84:	003f7806 	br	49968 <_free_r+0xe8>

00049b88 <_fwalk>:
   49b88:	defffa04 	addi	sp,sp,-24
   49b8c:	dd000415 	stw	r20,16(sp)
   49b90:	dcc00315 	stw	r19,12(sp)
   49b94:	dc800215 	stw	r18,8(sp)
   49b98:	dfc00515 	stw	ra,20(sp)
   49b9c:	dc400115 	stw	r17,4(sp)
   49ba0:	dc000015 	stw	r16,0(sp)
   49ba4:	2827883a 	mov	r19,r5
   49ba8:	2480b804 	addi	r18,r4,736
   49bac:	0029883a 	mov	r20,zero
   49bb0:	94400117 	ldw	r17,4(r18)
   49bb4:	94000217 	ldw	r16,8(r18)
   49bb8:	8c7fffc4 	addi	r17,r17,-1
   49bbc:	88000d16 	blt	r17,zero,49bf4 <_fwalk+0x6c>
   49bc0:	8080030b 	ldhu	r2,12(r16)
   49bc4:	8c7fffc4 	addi	r17,r17,-1
   49bc8:	108000b0 	cmpltui	r2,r2,2
   49bcc:	1000061e 	bne	r2,zero,49be8 <_fwalk+0x60>
   49bd0:	8080038f 	ldh	r2,14(r16)
   49bd4:	8009883a 	mov	r4,r16
   49bd8:	10bfffe0 	cmpeqi	r2,r2,-1
   49bdc:	1000021e 	bne	r2,zero,49be8 <_fwalk+0x60>
   49be0:	983ee83a 	callr	r19
   49be4:	a0a8b03a 	or	r20,r20,r2
   49be8:	88bfffd8 	cmpnei	r2,r17,-1
   49bec:	84001a04 	addi	r16,r16,104
   49bf0:	103ff31e 	bne	r2,zero,49bc0 <_fwalk+0x38>
   49bf4:	94800017 	ldw	r18,0(r18)
   49bf8:	903fed1e 	bne	r18,zero,49bb0 <_fwalk+0x28>
   49bfc:	a005883a 	mov	r2,r20
   49c00:	dfc00517 	ldw	ra,20(sp)
   49c04:	dd000417 	ldw	r20,16(sp)
   49c08:	dcc00317 	ldw	r19,12(sp)
   49c0c:	dc800217 	ldw	r18,8(sp)
   49c10:	dc400117 	ldw	r17,4(sp)
   49c14:	dc000017 	ldw	r16,0(sp)
   49c18:	dec00604 	addi	sp,sp,24
   49c1c:	f800283a 	ret

00049c20 <_fwalk_reent>:
   49c20:	defff904 	addi	sp,sp,-28
   49c24:	dd400515 	stw	r21,20(sp)
   49c28:	dd000415 	stw	r20,16(sp)
   49c2c:	dcc00315 	stw	r19,12(sp)
   49c30:	dc800215 	stw	r18,8(sp)
   49c34:	dfc00615 	stw	ra,24(sp)
   49c38:	dc400115 	stw	r17,4(sp)
   49c3c:	dc000015 	stw	r16,0(sp)
   49c40:	2025883a 	mov	r18,r4
   49c44:	2829883a 	mov	r20,r5
   49c48:	24c0b804 	addi	r19,r4,736
   49c4c:	002b883a 	mov	r21,zero
   49c50:	9c400117 	ldw	r17,4(r19)
   49c54:	9c000217 	ldw	r16,8(r19)
   49c58:	8c7fffc4 	addi	r17,r17,-1
   49c5c:	88000e16 	blt	r17,zero,49c98 <_fwalk_reent+0x78>
   49c60:	8080030b 	ldhu	r2,12(r16)
   49c64:	8c7fffc4 	addi	r17,r17,-1
   49c68:	108000b0 	cmpltui	r2,r2,2
   49c6c:	1000071e 	bne	r2,zero,49c8c <_fwalk_reent+0x6c>
   49c70:	8080038f 	ldh	r2,14(r16)
   49c74:	800b883a 	mov	r5,r16
   49c78:	9009883a 	mov	r4,r18
   49c7c:	10bfffe0 	cmpeqi	r2,r2,-1
   49c80:	1000021e 	bne	r2,zero,49c8c <_fwalk_reent+0x6c>
   49c84:	a03ee83a 	callr	r20
   49c88:	a8aab03a 	or	r21,r21,r2
   49c8c:	88bfffd8 	cmpnei	r2,r17,-1
   49c90:	84001a04 	addi	r16,r16,104
   49c94:	103ff21e 	bne	r2,zero,49c60 <_fwalk_reent+0x40>
   49c98:	9cc00017 	ldw	r19,0(r19)
   49c9c:	983fec1e 	bne	r19,zero,49c50 <_fwalk_reent+0x30>
   49ca0:	a805883a 	mov	r2,r21
   49ca4:	dfc00617 	ldw	ra,24(sp)
   49ca8:	dd400517 	ldw	r21,20(sp)
   49cac:	dd000417 	ldw	r20,16(sp)
   49cb0:	dcc00317 	ldw	r19,12(sp)
   49cb4:	dc800217 	ldw	r18,8(sp)
   49cb8:	dc400117 	ldw	r17,4(sp)
   49cbc:	dc000017 	ldw	r16,0(sp)
   49cc0:	dec00704 	addi	sp,sp,28
   49cc4:	f800283a 	ret

00049cc8 <__localeconv_l>:
   49cc8:	20803c04 	addi	r2,r4,240
   49ccc:	f800283a 	ret

00049cd0 <_localeconv_r>:
   49cd0:	00800174 	movhi	r2,5
   49cd4:	10987f04 	addi	r2,r2,25084
   49cd8:	f800283a 	ret

00049cdc <localeconv>:
   49cdc:	00800174 	movhi	r2,5
   49ce0:	10987f04 	addi	r2,r2,25084
   49ce4:	f800283a 	ret

00049ce8 <__smakebuf_r>:
   49ce8:	2880030b 	ldhu	r2,12(r5)
   49cec:	deffe804 	addi	sp,sp,-96
   49cf0:	dc001215 	stw	r16,72(sp)
   49cf4:	dfc01715 	stw	ra,92(sp)
   49cf8:	dd001615 	stw	r20,88(sp)
   49cfc:	dcc01515 	stw	r19,84(sp)
   49d00:	dc801415 	stw	r18,80(sp)
   49d04:	dc401315 	stw	r17,76(sp)
   49d08:	10c0008c 	andi	r3,r2,2
   49d0c:	2821883a 	mov	r16,r5
   49d10:	18000d26 	beq	r3,zero,49d48 <__smakebuf_r+0x60>
   49d14:	288010c4 	addi	r2,r5,67
   49d18:	28800015 	stw	r2,0(r5)
   49d1c:	28800415 	stw	r2,16(r5)
   49d20:	00800044 	movi	r2,1
   49d24:	28800515 	stw	r2,20(r5)
   49d28:	dfc01717 	ldw	ra,92(sp)
   49d2c:	dd001617 	ldw	r20,88(sp)
   49d30:	dcc01517 	ldw	r19,84(sp)
   49d34:	dc801417 	ldw	r18,80(sp)
   49d38:	dc401317 	ldw	r17,76(sp)
   49d3c:	dc001217 	ldw	r16,72(sp)
   49d40:	dec01804 	addi	sp,sp,96
   49d44:	f800283a 	ret
   49d48:	2940038f 	ldh	r5,14(r5)
   49d4c:	2023883a 	mov	r17,r4
   49d50:	28002816 	blt	r5,zero,49df4 <__smakebuf_r+0x10c>
   49d54:	d80d883a 	mov	r6,sp
   49d58:	004e00c0 	call	4e00c <_fstat_r>
   49d5c:	10002416 	blt	r2,zero,49df0 <__smakebuf_r+0x108>
   49d60:	d8800117 	ldw	r2,4(sp)
   49d64:	10bc000c 	andi	r2,r2,61440
   49d68:	10880018 	cmpnei	r2,r2,8192
   49d6c:	1000421e 	bne	r2,zero,49e78 <__smakebuf_r+0x190>
   49d70:	8140038f 	ldh	r5,14(r16)
   49d74:	8809883a 	mov	r4,r17
   49d78:	004e5140 	call	4e514 <_isatty_r>
   49d7c:	10000826 	beq	r2,zero,49da0 <__smakebuf_r+0xb8>
   49d80:	8080030b 	ldhu	r2,12(r16)
   49d84:	80c010c4 	addi	r3,r16,67
   49d88:	80c00015 	stw	r3,0(r16)
   49d8c:	10800054 	ori	r2,r2,1
   49d90:	8080030d 	sth	r2,12(r16)
   49d94:	00800044 	movi	r2,1
   49d98:	80c00415 	stw	r3,16(r16)
   49d9c:	80800515 	stw	r2,20(r16)
   49da0:	04c00044 	movi	r19,1
   49da4:	05010004 	movi	r20,1024
   49da8:	04820004 	movi	r18,2048
   49dac:	a00b883a 	mov	r5,r20
   49db0:	8809883a 	mov	r4,r17
   49db4:	00421240 	call	42124 <_malloc_r>
   49db8:	10001726 	beq	r2,zero,49e18 <__smakebuf_r+0x130>
   49dbc:	80c0030b 	ldhu	r3,12(r16)
   49dc0:	01000174 	movhi	r4,5
   49dc4:	2124f604 	addi	r4,r4,-27688
   49dc8:	89000f15 	stw	r4,60(r17)
   49dcc:	18c02014 	ori	r3,r3,128
   49dd0:	80c0030d 	sth	r3,12(r16)
   49dd4:	80800015 	stw	r2,0(r16)
   49dd8:	80800415 	stw	r2,16(r16)
   49ddc:	85000515 	stw	r20,20(r16)
   49de0:	98001d1e 	bne	r19,zero,49e58 <__smakebuf_r+0x170>
   49de4:	90e4b03a 	or	r18,r18,r3
   49de8:	8480030d 	sth	r18,12(r16)
   49dec:	003fce06 	br	49d28 <__smakebuf_r+0x40>
   49df0:	8080030b 	ldhu	r2,12(r16)
   49df4:	1080200c 	andi	r2,r2,128
   49df8:	0027883a 	mov	r19,zero
   49dfc:	10001326 	beq	r2,zero,49e4c <__smakebuf_r+0x164>
   49e00:	05001004 	movi	r20,64
   49e04:	a00b883a 	mov	r5,r20
   49e08:	8809883a 	mov	r4,r17
   49e0c:	0025883a 	mov	r18,zero
   49e10:	00421240 	call	42124 <_malloc_r>
   49e14:	103fe91e 	bne	r2,zero,49dbc <__smakebuf_r+0xd4>
   49e18:	8080030b 	ldhu	r2,12(r16)
   49e1c:	10c0800c 	andi	r3,r2,512
   49e20:	183fc11e 	bne	r3,zero,49d28 <__smakebuf_r+0x40>
   49e24:	00ffff04 	movi	r3,-4
   49e28:	10c4703a 	and	r2,r2,r3
   49e2c:	10800094 	ori	r2,r2,2
   49e30:	80c010c4 	addi	r3,r16,67
   49e34:	8080030d 	sth	r2,12(r16)
   49e38:	00800044 	movi	r2,1
   49e3c:	80c00015 	stw	r3,0(r16)
   49e40:	80c00415 	stw	r3,16(r16)
   49e44:	80800515 	stw	r2,20(r16)
   49e48:	003fb706 	br	49d28 <__smakebuf_r+0x40>
   49e4c:	05010004 	movi	r20,1024
   49e50:	0025883a 	mov	r18,zero
   49e54:	003fd506 	br	49dac <__smakebuf_r+0xc4>
   49e58:	8140038f 	ldh	r5,14(r16)
   49e5c:	8809883a 	mov	r4,r17
   49e60:	004e5140 	call	4e514 <_isatty_r>
   49e64:	80c0030b 	ldhu	r3,12(r16)
   49e68:	103fde26 	beq	r2,zero,49de4 <__smakebuf_r+0xfc>
   49e6c:	18ffff0c 	andi	r3,r3,65532
   49e70:	18c00054 	ori	r3,r3,1
   49e74:	003fdb06 	br	49de4 <__smakebuf_r+0xfc>
   49e78:	0027883a 	mov	r19,zero
   49e7c:	05010004 	movi	r20,1024
   49e80:	04820004 	movi	r18,2048
   49e84:	003fc906 	br	49dac <__smakebuf_r+0xc4>

00049e88 <__swhatbuf_r>:
   49e88:	deffea04 	addi	sp,sp,-88
   49e8c:	dc001215 	stw	r16,72(sp)
   49e90:	2821883a 	mov	r16,r5
   49e94:	2940038f 	ldh	r5,14(r5)
   49e98:	dc801415 	stw	r18,80(sp)
   49e9c:	dc401315 	stw	r17,76(sp)
   49ea0:	dfc01515 	stw	ra,84(sp)
   49ea4:	3023883a 	mov	r17,r6
   49ea8:	3825883a 	mov	r18,r7
   49eac:	28001016 	blt	r5,zero,49ef0 <__swhatbuf_r+0x68>
   49eb0:	d80d883a 	mov	r6,sp
   49eb4:	004e00c0 	call	4e00c <_fstat_r>
   49eb8:	10000d16 	blt	r2,zero,49ef0 <__swhatbuf_r+0x68>
   49ebc:	d8c00117 	ldw	r3,4(sp)
   49ec0:	01010004 	movi	r4,1024
   49ec4:	00820004 	movi	r2,2048
   49ec8:	18fc000c 	andi	r3,r3,61440
   49ecc:	18c80020 	cmpeqi	r3,r3,8192
   49ed0:	90c00015 	stw	r3,0(r18)
   49ed4:	89000015 	stw	r4,0(r17)
   49ed8:	dfc01517 	ldw	ra,84(sp)
   49edc:	dc801417 	ldw	r18,80(sp)
   49ee0:	dc401317 	ldw	r17,76(sp)
   49ee4:	dc001217 	ldw	r16,72(sp)
   49ee8:	dec01604 	addi	sp,sp,88
   49eec:	f800283a 	ret
   49ef0:	8080030b 	ldhu	r2,12(r16)
   49ef4:	0007883a 	mov	r3,zero
   49ef8:	1080200c 	andi	r2,r2,128
   49efc:	10000326 	beq	r2,zero,49f0c <__swhatbuf_r+0x84>
   49f00:	01001004 	movi	r4,64
   49f04:	0005883a 	mov	r2,zero
   49f08:	003ff106 	br	49ed0 <__swhatbuf_r+0x48>
   49f0c:	01010004 	movi	r4,1024
   49f10:	003fef06 	br	49ed0 <__swhatbuf_r+0x48>

00049f14 <memchr>:
   49f14:	defffc04 	addi	sp,sp,-16
   49f18:	dc000015 	stw	r16,0(sp)
   49f1c:	2021883a 	mov	r16,r4
   49f20:	dc800215 	stw	r18,8(sp)
   49f24:	dfc00315 	stw	ra,12(sp)
   49f28:	dc400115 	stw	r17,4(sp)
   49f2c:	808000cc 	andi	r2,r16,3
   49f30:	2809883a 	mov	r4,r5
   49f34:	2825883a 	mov	r18,r5
   49f38:	10000e26 	beq	r2,zero,49f74 <memchr+0x60>
   49f3c:	347fffc4 	addi	r17,r6,-1
   49f40:	30001726 	beq	r6,zero,49fa0 <memchr+0x8c>
   49f44:	28c03fcc 	andi	r3,r5,255
   49f48:	00000606 	br	49f64 <memchr+0x50>
   49f4c:	84000044 	addi	r16,r16,1
   49f50:	808000cc 	andi	r2,r16,3
   49f54:	10000826 	beq	r2,zero,49f78 <memchr+0x64>
   49f58:	8c7fffc4 	addi	r17,r17,-1
   49f5c:	88bfffe0 	cmpeqi	r2,r17,-1
   49f60:	10000f1e 	bne	r2,zero,49fa0 <memchr+0x8c>
   49f64:	80800003 	ldbu	r2,0(r16)
   49f68:	10fff81e 	bne	r2,r3,49f4c <memchr+0x38>
   49f6c:	8005883a 	mov	r2,r16
   49f70:	00000c06 	br	49fa4 <memchr+0x90>
   49f74:	3023883a 	mov	r17,r6
   49f78:	88800130 	cmpltui	r2,r17,4
   49f7c:	10000f26 	beq	r2,zero,49fbc <memchr+0xa8>
   49f80:	88000726 	beq	r17,zero,49fa0 <memchr+0x8c>
   49f84:	8463883a 	add	r17,r16,r17
   49f88:	8005883a 	mov	r2,r16
   49f8c:	90c03fcc 	andi	r3,r18,255
   49f90:	11000003 	ldbu	r4,0(r2)
   49f94:	20c00326 	beq	r4,r3,49fa4 <memchr+0x90>
   49f98:	10800044 	addi	r2,r2,1
   49f9c:	88bffc1e 	bne	r17,r2,49f90 <memchr+0x7c>
   49fa0:	0005883a 	mov	r2,zero
   49fa4:	dfc00317 	ldw	ra,12(sp)
   49fa8:	dc800217 	ldw	r18,8(sp)
   49fac:	dc400117 	ldw	r17,4(sp)
   49fb0:	dc000017 	ldw	r16,0(sp)
   49fb4:	dec00404 	addi	sp,sp,16
   49fb8:	f800283a 	ret
   49fbc:	01404074 	movhi	r5,257
   49fc0:	29404044 	addi	r5,r5,257
   49fc4:	21003fcc 	andi	r4,r4,255
   49fc8:	0040b700 	call	40b70 <__mulsi3>
   49fcc:	01bfbff4 	movhi	r6,65279
   49fd0:	01602074 	movhi	r5,32897
   49fd4:	31bfbfc4 	addi	r6,r6,-257
   49fd8:	29602004 	addi	r5,r5,-32640
   49fdc:	00000406 	br	49ff0 <memchr+0xdc>
   49fe0:	8c7fff04 	addi	r17,r17,-4
   49fe4:	88c00128 	cmpgeui	r3,r17,4
   49fe8:	84000104 	addi	r16,r16,4
   49fec:	183fe426 	beq	r3,zero,49f80 <memchr+0x6c>
   49ff0:	80c00017 	ldw	r3,0(r16)
   49ff4:	10c6f03a 	xor	r3,r2,r3
   49ff8:	1989883a 	add	r4,r3,r6
   49ffc:	00c6303a 	nor	r3,zero,r3
   4a000:	20c6703a 	and	r3,r4,r3
   4a004:	1946703a 	and	r3,r3,r5
   4a008:	183ff526 	beq	r3,zero,49fe0 <memchr+0xcc>
   4a00c:	003fdc06 	br	49f80 <memchr+0x6c>

0004a010 <_Balloc>:
   4a010:	20801317 	ldw	r2,76(r4)
   4a014:	defffc04 	addi	sp,sp,-16
   4a018:	dc400115 	stw	r17,4(sp)
   4a01c:	dc000015 	stw	r16,0(sp)
   4a020:	dfc00315 	stw	ra,12(sp)
   4a024:	dc800215 	stw	r18,8(sp)
   4a028:	2021883a 	mov	r16,r4
   4a02c:	2823883a 	mov	r17,r5
   4a030:	10000e26 	beq	r2,zero,4a06c <_Balloc+0x5c>
   4a034:	880690ba 	slli	r3,r17,2
   4a038:	10c7883a 	add	r3,r2,r3
   4a03c:	18800017 	ldw	r2,0(r3)
   4a040:	10001126 	beq	r2,zero,4a088 <_Balloc+0x78>
   4a044:	11000017 	ldw	r4,0(r2)
   4a048:	19000015 	stw	r4,0(r3)
   4a04c:	10000415 	stw	zero,16(r2)
   4a050:	10000315 	stw	zero,12(r2)
   4a054:	dfc00317 	ldw	ra,12(sp)
   4a058:	dc800217 	ldw	r18,8(sp)
   4a05c:	dc400117 	ldw	r17,4(sp)
   4a060:	dc000017 	ldw	r16,0(sp)
   4a064:	dec00404 	addi	sp,sp,16
   4a068:	f800283a 	ret
   4a06c:	01800844 	movi	r6,33
   4a070:	01400104 	movi	r5,4
   4a074:	004db380 	call	4db38 <_calloc_r>
   4a078:	80801315 	stw	r2,76(r16)
   4a07c:	103fed1e 	bne	r2,zero,4a034 <_Balloc+0x24>
   4a080:	0005883a 	mov	r2,zero
   4a084:	003ff306 	br	4a054 <_Balloc+0x44>
   4a088:	04800044 	movi	r18,1
   4a08c:	9464983a 	sll	r18,r18,r17
   4a090:	01400044 	movi	r5,1
   4a094:	8009883a 	mov	r4,r16
   4a098:	91800144 	addi	r6,r18,5
   4a09c:	300c90ba 	slli	r6,r6,2
   4a0a0:	004db380 	call	4db38 <_calloc_r>
   4a0a4:	103ff626 	beq	r2,zero,4a080 <_Balloc+0x70>
   4a0a8:	14400115 	stw	r17,4(r2)
   4a0ac:	14800215 	stw	r18,8(r2)
   4a0b0:	003fe606 	br	4a04c <_Balloc+0x3c>

0004a0b4 <_Bfree>:
   4a0b4:	28000726 	beq	r5,zero,4a0d4 <_Bfree+0x20>
   4a0b8:	28c00117 	ldw	r3,4(r5)
   4a0bc:	20801317 	ldw	r2,76(r4)
   4a0c0:	180690ba 	slli	r3,r3,2
   4a0c4:	10c5883a 	add	r2,r2,r3
   4a0c8:	10c00017 	ldw	r3,0(r2)
   4a0cc:	28c00015 	stw	r3,0(r5)
   4a0d0:	11400015 	stw	r5,0(r2)
   4a0d4:	f800283a 	ret

0004a0d8 <__multadd>:
   4a0d8:	defff704 	addi	sp,sp,-36
   4a0dc:	dcc00315 	stw	r19,12(sp)
   4a0e0:	2cc00417 	ldw	r19,16(r5)
   4a0e4:	ddc00715 	stw	r23,28(sp)
   4a0e8:	dd800615 	stw	r22,24(sp)
   4a0ec:	dd400515 	stw	r21,20(sp)
   4a0f0:	dd000415 	stw	r20,16(sp)
   4a0f4:	dc800215 	stw	r18,8(sp)
   4a0f8:	dc400115 	stw	r17,4(sp)
   4a0fc:	dfc00815 	stw	ra,32(sp)
   4a100:	dc000015 	stw	r16,0(sp)
   4a104:	2829883a 	mov	r20,r5
   4a108:	202b883a 	mov	r21,r4
   4a10c:	3025883a 	mov	r18,r6
   4a110:	3823883a 	mov	r17,r7
   4a114:	2d800504 	addi	r22,r5,20
   4a118:	002f883a 	mov	r23,zero
   4a11c:	b4000017 	ldw	r16,0(r22)
   4a120:	900b883a 	mov	r5,r18
   4a124:	b5800104 	addi	r22,r22,4
   4a128:	813fffcc 	andi	r4,r16,65535
   4a12c:	0040b700 	call	40b70 <__mulsi3>
   4a130:	8008d43a 	srli	r4,r16,16
   4a134:	900b883a 	mov	r5,r18
   4a138:	1461883a 	add	r16,r2,r17
   4a13c:	0040b700 	call	40b70 <__mulsi3>
   4a140:	8006d43a 	srli	r3,r16,16
   4a144:	843fffcc 	andi	r16,r16,65535
   4a148:	bdc00044 	addi	r23,r23,1
   4a14c:	10c5883a 	add	r2,r2,r3
   4a150:	1006943a 	slli	r3,r2,16
   4a154:	1022d43a 	srli	r17,r2,16
   4a158:	1c05883a 	add	r2,r3,r16
   4a15c:	b0bfff15 	stw	r2,-4(r22)
   4a160:	bcffee16 	blt	r23,r19,4a11c <__multadd+0x44>
   4a164:	88000826 	beq	r17,zero,4a188 <__multadd+0xb0>
   4a168:	a0800217 	ldw	r2,8(r20)
   4a16c:	9880120e 	bge	r19,r2,4a1b8 <__multadd+0xe0>
   4a170:	98800144 	addi	r2,r19,5
   4a174:	100490ba 	slli	r2,r2,2
   4a178:	9cc00044 	addi	r19,r19,1
   4a17c:	a085883a 	add	r2,r20,r2
   4a180:	14400015 	stw	r17,0(r2)
   4a184:	a4c00415 	stw	r19,16(r20)
   4a188:	a005883a 	mov	r2,r20
   4a18c:	dfc00817 	ldw	ra,32(sp)
   4a190:	ddc00717 	ldw	r23,28(sp)
   4a194:	dd800617 	ldw	r22,24(sp)
   4a198:	dd400517 	ldw	r21,20(sp)
   4a19c:	dd000417 	ldw	r20,16(sp)
   4a1a0:	dcc00317 	ldw	r19,12(sp)
   4a1a4:	dc800217 	ldw	r18,8(sp)
   4a1a8:	dc400117 	ldw	r17,4(sp)
   4a1ac:	dc000017 	ldw	r16,0(sp)
   4a1b0:	dec00904 	addi	sp,sp,36
   4a1b4:	f800283a 	ret
   4a1b8:	a1400117 	ldw	r5,4(r20)
   4a1bc:	a809883a 	mov	r4,r21
   4a1c0:	29400044 	addi	r5,r5,1
   4a1c4:	004a0100 	call	4a010 <_Balloc>
   4a1c8:	1021883a 	mov	r16,r2
   4a1cc:	10001026 	beq	r2,zero,4a210 <__multadd+0x138>
   4a1d0:	a1800417 	ldw	r6,16(r20)
   4a1d4:	a1400304 	addi	r5,r20,12
   4a1d8:	11000304 	addi	r4,r2,12
   4a1dc:	31800084 	addi	r6,r6,2
   4a1e0:	300c90ba 	slli	r6,r6,2
   4a1e4:	00428d80 	call	428d8 <memcpy>
   4a1e8:	a0000726 	beq	r20,zero,4a208 <__multadd+0x130>
   4a1ec:	a0c00117 	ldw	r3,4(r20)
   4a1f0:	a8801317 	ldw	r2,76(r21)
   4a1f4:	180690ba 	slli	r3,r3,2
   4a1f8:	10c5883a 	add	r2,r2,r3
   4a1fc:	10c00017 	ldw	r3,0(r2)
   4a200:	a0c00015 	stw	r3,0(r20)
   4a204:	15000015 	stw	r20,0(r2)
   4a208:	8029883a 	mov	r20,r16
   4a20c:	003fd806 	br	4a170 <__multadd+0x98>
   4a210:	01c00174 	movhi	r7,5
   4a214:	01000174 	movhi	r4,5
   4a218:	39d4f404 	addi	r7,r7,21456
   4a21c:	000d883a 	mov	r6,zero
   4a220:	01402d44 	movi	r5,181
   4a224:	21150904 	addi	r4,r4,21540
   4a228:	004dac00 	call	4dac0 <__assert_func>

0004a22c <__s2b>:
   4a22c:	defff904 	addi	sp,sp,-28
   4a230:	dc800215 	stw	r18,8(sp)
   4a234:	dc000015 	stw	r16,0(sp)
   4a238:	2025883a 	mov	r18,r4
   4a23c:	2821883a 	mov	r16,r5
   4a240:	39000204 	addi	r4,r7,8
   4a244:	01400244 	movi	r5,9
   4a248:	dcc00315 	stw	r19,12(sp)
   4a24c:	dc400115 	stw	r17,4(sp)
   4a250:	dfc00615 	stw	ra,24(sp)
   4a254:	3823883a 	mov	r17,r7
   4a258:	dd400515 	stw	r21,20(sp)
   4a25c:	dd000415 	stw	r20,16(sp)
   4a260:	3027883a 	mov	r19,r6
   4a264:	00409bc0 	call	409bc <__divsi3>
   4a268:	88c00290 	cmplti	r3,r17,10
   4a26c:	1800341e 	bne	r3,zero,4a340 <__s2b+0x114>
   4a270:	00c00044 	movi	r3,1
   4a274:	000b883a 	mov	r5,zero
   4a278:	18c7883a 	add	r3,r3,r3
   4a27c:	29400044 	addi	r5,r5,1
   4a280:	18bffd16 	blt	r3,r2,4a278 <__s2b+0x4c>
   4a284:	9009883a 	mov	r4,r18
   4a288:	004a0100 	call	4a010 <_Balloc>
   4a28c:	100b883a 	mov	r5,r2
   4a290:	10002d26 	beq	r2,zero,4a348 <__s2b+0x11c>
   4a294:	d8800717 	ldw	r2,28(sp)
   4a298:	28800515 	stw	r2,20(r5)
   4a29c:	00800044 	movi	r2,1
   4a2a0:	28800415 	stw	r2,16(r5)
   4a2a4:	98800290 	cmplti	r2,r19,10
   4a2a8:	1000221e 	bne	r2,zero,4a334 <__s2b+0x108>
   4a2ac:	85400244 	addi	r21,r16,9
   4a2b0:	a829883a 	mov	r20,r21
   4a2b4:	84e1883a 	add	r16,r16,r19
   4a2b8:	a1c00007 	ldb	r7,0(r20)
   4a2bc:	01800284 	movi	r6,10
   4a2c0:	9009883a 	mov	r4,r18
   4a2c4:	39fff404 	addi	r7,r7,-48
   4a2c8:	004a0d80 	call	4a0d8 <__multadd>
   4a2cc:	a5000044 	addi	r20,r20,1
   4a2d0:	100b883a 	mov	r5,r2
   4a2d4:	a43ff81e 	bne	r20,r16,4a2b8 <__s2b+0x8c>
   4a2d8:	9c3ffe04 	addi	r16,r19,-8
   4a2dc:	ac21883a 	add	r16,r21,r16
   4a2e0:	9c400a0e 	bge	r19,r17,4a30c <__s2b+0xe0>
   4a2e4:	8ce3c83a 	sub	r17,r17,r19
   4a2e8:	8463883a 	add	r17,r16,r17
   4a2ec:	81c00007 	ldb	r7,0(r16)
   4a2f0:	01800284 	movi	r6,10
   4a2f4:	9009883a 	mov	r4,r18
   4a2f8:	39fff404 	addi	r7,r7,-48
   4a2fc:	004a0d80 	call	4a0d8 <__multadd>
   4a300:	84000044 	addi	r16,r16,1
   4a304:	100b883a 	mov	r5,r2
   4a308:	8c3ff81e 	bne	r17,r16,4a2ec <__s2b+0xc0>
   4a30c:	2805883a 	mov	r2,r5
   4a310:	dfc00617 	ldw	ra,24(sp)
   4a314:	dd400517 	ldw	r21,20(sp)
   4a318:	dd000417 	ldw	r20,16(sp)
   4a31c:	dcc00317 	ldw	r19,12(sp)
   4a320:	dc800217 	ldw	r18,8(sp)
   4a324:	dc400117 	ldw	r17,4(sp)
   4a328:	dc000017 	ldw	r16,0(sp)
   4a32c:	dec00704 	addi	sp,sp,28
   4a330:	f800283a 	ret
   4a334:	84000284 	addi	r16,r16,10
   4a338:	04c00244 	movi	r19,9
   4a33c:	003fe806 	br	4a2e0 <__s2b+0xb4>
   4a340:	000b883a 	mov	r5,zero
   4a344:	003fcf06 	br	4a284 <__s2b+0x58>
   4a348:	01c00174 	movhi	r7,5
   4a34c:	01000174 	movhi	r4,5
   4a350:	39d4f404 	addi	r7,r7,21456
   4a354:	000d883a 	mov	r6,zero
   4a358:	01403384 	movi	r5,206
   4a35c:	21150904 	addi	r4,r4,21540
   4a360:	004dac00 	call	4dac0 <__assert_func>

0004a364 <__hi0bits>:
   4a364:	00bfffd4 	movui	r2,65535
   4a368:	11001536 	bltu	r2,r4,4a3c0 <__hi0bits+0x5c>
   4a36c:	2008943a 	slli	r4,r4,16
   4a370:	00800404 	movi	r2,16
   4a374:	00c04034 	movhi	r3,256
   4a378:	20c0022e 	bgeu	r4,r3,4a384 <__hi0bits+0x20>
   4a37c:	2008923a 	slli	r4,r4,8
   4a380:	10800204 	addi	r2,r2,8
   4a384:	00c40034 	movhi	r3,4096
   4a388:	20c0022e 	bgeu	r4,r3,4a394 <__hi0bits+0x30>
   4a38c:	2008913a 	slli	r4,r4,4
   4a390:	10800104 	addi	r2,r2,4
   4a394:	00d00034 	movhi	r3,16384
   4a398:	20c00336 	bltu	r4,r3,4a3a8 <__hi0bits+0x44>
   4a39c:	20000716 	blt	r4,zero,4a3bc <__hi0bits+0x58>
   4a3a0:	10800044 	addi	r2,r2,1
   4a3a4:	f800283a 	ret
   4a3a8:	200890ba 	slli	r4,r4,2
   4a3ac:	20000616 	blt	r4,zero,4a3c8 <__hi0bits+0x64>
   4a3b0:	2110002c 	andhi	r4,r4,16384
   4a3b4:	2000061e 	bne	r4,zero,4a3d0 <__hi0bits+0x6c>
   4a3b8:	00800804 	movi	r2,32
   4a3bc:	f800283a 	ret
   4a3c0:	0005883a 	mov	r2,zero
   4a3c4:	003feb06 	br	4a374 <__hi0bits+0x10>
   4a3c8:	10800084 	addi	r2,r2,2
   4a3cc:	f800283a 	ret
   4a3d0:	108000c4 	addi	r2,r2,3
   4a3d4:	f800283a 	ret

0004a3d8 <__lo0bits>:
   4a3d8:	20c00017 	ldw	r3,0(r4)
   4a3dc:	188001cc 	andi	r2,r3,7
   4a3e0:	10000826 	beq	r2,zero,4a404 <__lo0bits+0x2c>
   4a3e4:	1880004c 	andi	r2,r3,1
   4a3e8:	10001f1e 	bne	r2,zero,4a468 <__lo0bits+0x90>
   4a3ec:	1880008c 	andi	r2,r3,2
   4a3f0:	10002126 	beq	r2,zero,4a478 <__lo0bits+0xa0>
   4a3f4:	1806d07a 	srli	r3,r3,1
   4a3f8:	00800044 	movi	r2,1
   4a3fc:	20c00015 	stw	r3,0(r4)
   4a400:	f800283a 	ret
   4a404:	18bfffcc 	andi	r2,r3,65535
   4a408:	10001426 	beq	r2,zero,4a45c <__lo0bits+0x84>
   4a40c:	0005883a 	mov	r2,zero
   4a410:	19403fcc 	andi	r5,r3,255
   4a414:	2800021e 	bne	r5,zero,4a420 <__lo0bits+0x48>
   4a418:	1806d23a 	srli	r3,r3,8
   4a41c:	10800204 	addi	r2,r2,8
   4a420:	194003cc 	andi	r5,r3,15
   4a424:	2800021e 	bne	r5,zero,4a430 <__lo0bits+0x58>
   4a428:	1806d13a 	srli	r3,r3,4
   4a42c:	10800104 	addi	r2,r2,4
   4a430:	194000cc 	andi	r5,r3,3
   4a434:	2800021e 	bne	r5,zero,4a440 <__lo0bits+0x68>
   4a438:	1806d0ba 	srli	r3,r3,2
   4a43c:	10800084 	addi	r2,r2,2
   4a440:	1940004c 	andi	r5,r3,1
   4a444:	2800031e 	bne	r5,zero,4a454 <__lo0bits+0x7c>
   4a448:	1806d07a 	srli	r3,r3,1
   4a44c:	10800044 	addi	r2,r2,1
   4a450:	18000726 	beq	r3,zero,4a470 <__lo0bits+0x98>
   4a454:	20c00015 	stw	r3,0(r4)
   4a458:	f800283a 	ret
   4a45c:	1806d43a 	srli	r3,r3,16
   4a460:	00800404 	movi	r2,16
   4a464:	003fea06 	br	4a410 <__lo0bits+0x38>
   4a468:	0005883a 	mov	r2,zero
   4a46c:	f800283a 	ret
   4a470:	00800804 	movi	r2,32
   4a474:	f800283a 	ret
   4a478:	1806d0ba 	srli	r3,r3,2
   4a47c:	00800084 	movi	r2,2
   4a480:	20c00015 	stw	r3,0(r4)
   4a484:	f800283a 	ret

0004a488 <__i2b>:
   4a488:	20c01317 	ldw	r3,76(r4)
   4a48c:	defffd04 	addi	sp,sp,-12
   4a490:	dc400115 	stw	r17,4(sp)
   4a494:	dc000015 	stw	r16,0(sp)
   4a498:	dfc00215 	stw	ra,8(sp)
   4a49c:	2021883a 	mov	r16,r4
   4a4a0:	2823883a 	mov	r17,r5
   4a4a4:	18000d26 	beq	r3,zero,4a4dc <__i2b+0x54>
   4a4a8:	18800117 	ldw	r2,4(r3)
   4a4ac:	10001826 	beq	r2,zero,4a510 <__i2b+0x88>
   4a4b0:	11000017 	ldw	r4,0(r2)
   4a4b4:	19000115 	stw	r4,4(r3)
   4a4b8:	00c00044 	movi	r3,1
   4a4bc:	10000315 	stw	zero,12(r2)
   4a4c0:	14400515 	stw	r17,20(r2)
   4a4c4:	10c00415 	stw	r3,16(r2)
   4a4c8:	dfc00217 	ldw	ra,8(sp)
   4a4cc:	dc400117 	ldw	r17,4(sp)
   4a4d0:	dc000017 	ldw	r16,0(sp)
   4a4d4:	dec00304 	addi	sp,sp,12
   4a4d8:	f800283a 	ret
   4a4dc:	01800844 	movi	r6,33
   4a4e0:	01400104 	movi	r5,4
   4a4e4:	004db380 	call	4db38 <_calloc_r>
   4a4e8:	80801315 	stw	r2,76(r16)
   4a4ec:	1007883a 	mov	r3,r2
   4a4f0:	103fed1e 	bne	r2,zero,4a4a8 <__i2b+0x20>
   4a4f4:	01c00174 	movhi	r7,5
   4a4f8:	01000174 	movhi	r4,5
   4a4fc:	39d4f404 	addi	r7,r7,21456
   4a500:	000d883a 	mov	r6,zero
   4a504:	01405004 	movi	r5,320
   4a508:	21150904 	addi	r4,r4,21540
   4a50c:	004dac00 	call	4dac0 <__assert_func>
   4a510:	01800704 	movi	r6,28
   4a514:	01400044 	movi	r5,1
   4a518:	8009883a 	mov	r4,r16
   4a51c:	004db380 	call	4db38 <_calloc_r>
   4a520:	103ff426 	beq	r2,zero,4a4f4 <__i2b+0x6c>
   4a524:	00c00044 	movi	r3,1
   4a528:	10c00115 	stw	r3,4(r2)
   4a52c:	00c00084 	movi	r3,2
   4a530:	10c00215 	stw	r3,8(r2)
   4a534:	003fe006 	br	4a4b8 <__i2b+0x30>

0004a538 <__multiply>:
   4a538:	defff004 	addi	sp,sp,-64
   4a53c:	dd800c15 	stw	r22,48(sp)
   4a540:	dc400715 	stw	r17,28(sp)
   4a544:	2d800417 	ldw	r22,16(r5)
   4a548:	34400417 	ldw	r17,16(r6)
   4a54c:	dc800815 	stw	r18,32(sp)
   4a550:	dc000615 	stw	r16,24(sp)
   4a554:	dfc00f15 	stw	ra,60(sp)
   4a558:	df000e15 	stw	fp,56(sp)
   4a55c:	ddc00d15 	stw	r23,52(sp)
   4a560:	dd400b15 	stw	r21,44(sp)
   4a564:	dd000a15 	stw	r20,40(sp)
   4a568:	dcc00915 	stw	r19,36(sp)
   4a56c:	2825883a 	mov	r18,r5
   4a570:	3021883a 	mov	r16,r6
   4a574:	b4400516 	blt	r22,r17,4a58c <__multiply+0x54>
   4a578:	8807883a 	mov	r3,r17
   4a57c:	2821883a 	mov	r16,r5
   4a580:	b023883a 	mov	r17,r22
   4a584:	3025883a 	mov	r18,r6
   4a588:	182d883a 	mov	r22,r3
   4a58c:	80800217 	ldw	r2,8(r16)
   4a590:	8d87883a 	add	r3,r17,r22
   4a594:	d8c00015 	stw	r3,0(sp)
   4a598:	81400117 	ldw	r5,4(r16)
   4a59c:	10c0010e 	bge	r2,r3,4a5a4 <__multiply+0x6c>
   4a5a0:	29400044 	addi	r5,r5,1
   4a5a4:	004a0100 	call	4a010 <_Balloc>
   4a5a8:	d8800515 	stw	r2,20(sp)
   4a5ac:	10008c26 	beq	r2,zero,4a7e0 <__multiply+0x2a8>
   4a5b0:	d8800017 	ldw	r2,0(sp)
   4a5b4:	102690ba 	slli	r19,r2,2
   4a5b8:	d8800517 	ldw	r2,20(sp)
   4a5bc:	15000504 	addi	r20,r2,20
   4a5c0:	a4c5883a 	add	r2,r20,r19
   4a5c4:	d8800115 	stw	r2,4(sp)
   4a5c8:	a0800a2e 	bgeu	r20,r2,4a5f4 <__multiply+0xbc>
   4a5cc:	d8800117 	ldw	r2,4(sp)
   4a5d0:	d8c00517 	ldw	r3,20(sp)
   4a5d4:	000b883a 	mov	r5,zero
   4a5d8:	a009883a 	mov	r4,r20
   4a5dc:	10cdc83a 	sub	r6,r2,r3
   4a5e0:	31bffac4 	addi	r6,r6,-21
   4a5e4:	300cd0ba 	srli	r6,r6,2
   4a5e8:	31800044 	addi	r6,r6,1
   4a5ec:	300c90ba 	slli	r6,r6,2
   4a5f0:	00429d80 	call	429d8 <memset>
   4a5f4:	b02c90ba 	slli	r22,r22,2
   4a5f8:	882290ba 	slli	r17,r17,2
   4a5fc:	94800504 	addi	r18,r18,20
   4a600:	80800504 	addi	r2,r16,20
   4a604:	9587883a 	add	r3,r18,r22
   4a608:	d8800315 	stw	r2,12(sp)
   4a60c:	d8c00215 	stw	r3,8(sp)
   4a610:	1463883a 	add	r17,r2,r17
   4a614:	90c0542e 	bgeu	r18,r3,4a768 <__multiply+0x230>
   4a618:	80800544 	addi	r2,r16,21
   4a61c:	88806d36 	bltu	r17,r2,4a7d4 <__multiply+0x29c>
   4a620:	8c05c83a 	sub	r2,r17,r16
   4a624:	10bffac4 	addi	r2,r2,-21
   4a628:	1004d0ba 	srli	r2,r2,2
   4a62c:	10800044 	addi	r2,r2,1
   4a630:	100490ba 	slli	r2,r2,2
   4a634:	d8800415 	stw	r2,16(sp)
   4a638:	00000606 	br	4a654 <__multiply+0x11c>
   4a63c:	1038d43a 	srli	fp,r2,16
   4a640:	e000271e 	bne	fp,zero,4a6e0 <__multiply+0x1a8>
   4a644:	d8800217 	ldw	r2,8(sp)
   4a648:	94800104 	addi	r18,r18,4
   4a64c:	a5000104 	addi	r20,r20,4
   4a650:	9080452e 	bgeu	r18,r2,4a768 <__multiply+0x230>
   4a654:	90800017 	ldw	r2,0(r18)
   4a658:	173fffcc 	andi	fp,r2,65535
   4a65c:	e03ff726 	beq	fp,zero,4a63c <__multiply+0x104>
   4a660:	dd400317 	ldw	r21,12(sp)
   4a664:	a02d883a 	mov	r22,r20
   4a668:	0027883a 	mov	r19,zero
   4a66c:	adc00017 	ldw	r23,0(r21)
   4a670:	b4000017 	ldw	r16,0(r22)
   4a674:	e00b883a 	mov	r5,fp
   4a678:	b93fffcc 	andi	r4,r23,65535
   4a67c:	0040b700 	call	40b70 <__mulsi3>
   4a680:	b808d43a 	srli	r4,r23,16
   4a684:	817fffcc 	andi	r5,r16,65535
   4a688:	1145883a 	add	r2,r2,r5
   4a68c:	e00b883a 	mov	r5,fp
   4a690:	14e7883a 	add	r19,r2,r19
   4a694:	8020d43a 	srli	r16,r16,16
   4a698:	0040b700 	call	40b70 <__mulsi3>
   4a69c:	9808d43a 	srli	r4,r19,16
   4a6a0:	1405883a 	add	r2,r2,r16
   4a6a4:	98ffffcc 	andi	r3,r19,65535
   4a6a8:	1105883a 	add	r2,r2,r4
   4a6ac:	1008943a 	slli	r4,r2,16
   4a6b0:	b5800104 	addi	r22,r22,4
   4a6b4:	ad400104 	addi	r21,r21,4
   4a6b8:	20c6b03a 	or	r3,r4,r3
   4a6bc:	b0ffff15 	stw	r3,-4(r22)
   4a6c0:	1026d43a 	srli	r19,r2,16
   4a6c4:	ac7fe936 	bltu	r21,r17,4a66c <__multiply+0x134>
   4a6c8:	d8800417 	ldw	r2,16(sp)
   4a6cc:	a085883a 	add	r2,r20,r2
   4a6d0:	14c00015 	stw	r19,0(r2)
   4a6d4:	90800017 	ldw	r2,0(r18)
   4a6d8:	1038d43a 	srli	fp,r2,16
   4a6dc:	e03fd926 	beq	fp,zero,4a644 <__multiply+0x10c>
   4a6e0:	a5c00017 	ldw	r23,0(r20)
   4a6e4:	dcc00317 	ldw	r19,12(sp)
   4a6e8:	a02b883a 	mov	r21,r20
   4a6ec:	b821883a 	mov	r16,r23
   4a6f0:	002d883a 	mov	r22,zero
   4a6f4:	9900000b 	ldhu	r4,0(r19)
   4a6f8:	8020d43a 	srli	r16,r16,16
   4a6fc:	e00b883a 	mov	r5,fp
   4a700:	0040b700 	call	40b70 <__mulsi3>
   4a704:	158d883a 	add	r6,r2,r22
   4a708:	342d883a 	add	r22,r6,r16
   4a70c:	b004943a 	slli	r2,r22,16
   4a710:	b8ffffcc 	andi	r3,r23,65535
   4a714:	9cc00104 	addi	r19,r19,4
   4a718:	10c4b03a 	or	r2,r2,r3
   4a71c:	a8800015 	stw	r2,0(r21)
   4a720:	993fff8b 	ldhu	r4,-2(r19)
   4a724:	e00b883a 	mov	r5,fp
   4a728:	ac000117 	ldw	r16,4(r21)
   4a72c:	0040b700 	call	40b70 <__mulsi3>
   4a730:	b00cd43a 	srli	r6,r22,16
   4a734:	80ffffcc 	andi	r3,r16,65535
   4a738:	10c7883a 	add	r3,r2,r3
   4a73c:	19af883a 	add	r23,r3,r6
   4a740:	ad400104 	addi	r21,r21,4
   4a744:	b82cd43a 	srli	r22,r23,16
   4a748:	9c7fea36 	bltu	r19,r17,4a6f4 <__multiply+0x1bc>
   4a74c:	d8800417 	ldw	r2,16(sp)
   4a750:	94800104 	addi	r18,r18,4
   4a754:	a085883a 	add	r2,r20,r2
   4a758:	15c00015 	stw	r23,0(r2)
   4a75c:	d8800217 	ldw	r2,8(sp)
   4a760:	a5000104 	addi	r20,r20,4
   4a764:	90bfbb36 	bltu	r18,r2,4a654 <__multiply+0x11c>
   4a768:	d8800017 	ldw	r2,0(sp)
   4a76c:	00800516 	blt	zero,r2,4a784 <__multiply+0x24c>
   4a770:	00000906 	br	4a798 <__multiply+0x260>
   4a774:	d8800017 	ldw	r2,0(sp)
   4a778:	10bfffc4 	addi	r2,r2,-1
   4a77c:	d8800015 	stw	r2,0(sp)
   4a780:	10000526 	beq	r2,zero,4a798 <__multiply+0x260>
   4a784:	d8c00117 	ldw	r3,4(sp)
   4a788:	18bfff17 	ldw	r2,-4(r3)
   4a78c:	18ffff04 	addi	r3,r3,-4
   4a790:	d8c00115 	stw	r3,4(sp)
   4a794:	103ff726 	beq	r2,zero,4a774 <__multiply+0x23c>
   4a798:	d8800517 	ldw	r2,20(sp)
   4a79c:	d8c00017 	ldw	r3,0(sp)
   4a7a0:	10c00415 	stw	r3,16(r2)
   4a7a4:	dfc00f17 	ldw	ra,60(sp)
   4a7a8:	df000e17 	ldw	fp,56(sp)
   4a7ac:	ddc00d17 	ldw	r23,52(sp)
   4a7b0:	dd800c17 	ldw	r22,48(sp)
   4a7b4:	dd400b17 	ldw	r21,44(sp)
   4a7b8:	dd000a17 	ldw	r20,40(sp)
   4a7bc:	dcc00917 	ldw	r19,36(sp)
   4a7c0:	dc800817 	ldw	r18,32(sp)
   4a7c4:	dc400717 	ldw	r17,28(sp)
   4a7c8:	dc000617 	ldw	r16,24(sp)
   4a7cc:	dec01004 	addi	sp,sp,64
   4a7d0:	f800283a 	ret
   4a7d4:	00800104 	movi	r2,4
   4a7d8:	d8800415 	stw	r2,16(sp)
   4a7dc:	003f9d06 	br	4a654 <__multiply+0x11c>
   4a7e0:	01c00174 	movhi	r7,5
   4a7e4:	01000174 	movhi	r4,5
   4a7e8:	39d4f404 	addi	r7,r7,21456
   4a7ec:	000d883a 	mov	r6,zero
   4a7f0:	01405744 	movi	r5,349
   4a7f4:	21150904 	addi	r4,r4,21540
   4a7f8:	004dac00 	call	4dac0 <__assert_func>

0004a7fc <__pow5mult>:
   4a7fc:	defffb04 	addi	sp,sp,-20
   4a800:	dcc00315 	stw	r19,12(sp)
   4a804:	dc000015 	stw	r16,0(sp)
   4a808:	dfc00415 	stw	ra,16(sp)
   4a80c:	dc800215 	stw	r18,8(sp)
   4a810:	dc400115 	stw	r17,4(sp)
   4a814:	308000cc 	andi	r2,r6,3
   4a818:	3021883a 	mov	r16,r6
   4a81c:	2027883a 	mov	r19,r4
   4a820:	10002b1e 	bne	r2,zero,4a8d0 <__pow5mult+0xd4>
   4a824:	2825883a 	mov	r18,r5
   4a828:	8021d0ba 	srai	r16,r16,2
   4a82c:	80001926 	beq	r16,zero,4a894 <__pow5mult+0x98>
   4a830:	9c401217 	ldw	r17,72(r19)
   4a834:	8800061e 	bne	r17,zero,4a850 <__pow5mult+0x54>
   4a838:	00002d06 	br	4a8f0 <__pow5mult+0xf4>
   4a83c:	8021d07a 	srai	r16,r16,1
   4a840:	80001426 	beq	r16,zero,4a894 <__pow5mult+0x98>
   4a844:	88800017 	ldw	r2,0(r17)
   4a848:	10001a26 	beq	r2,zero,4a8b4 <__pow5mult+0xb8>
   4a84c:	1023883a 	mov	r17,r2
   4a850:	8080004c 	andi	r2,r16,1
   4a854:	103ff926 	beq	r2,zero,4a83c <__pow5mult+0x40>
   4a858:	880d883a 	mov	r6,r17
   4a85c:	900b883a 	mov	r5,r18
   4a860:	9809883a 	mov	r4,r19
   4a864:	004a5380 	call	4a538 <__multiply>
   4a868:	90000726 	beq	r18,zero,4a888 <__pow5mult+0x8c>
   4a86c:	91000117 	ldw	r4,4(r18)
   4a870:	98c01317 	ldw	r3,76(r19)
   4a874:	200890ba 	slli	r4,r4,2
   4a878:	1907883a 	add	r3,r3,r4
   4a87c:	19000017 	ldw	r4,0(r3)
   4a880:	91000015 	stw	r4,0(r18)
   4a884:	1c800015 	stw	r18,0(r3)
   4a888:	8021d07a 	srai	r16,r16,1
   4a88c:	1025883a 	mov	r18,r2
   4a890:	803fec1e 	bne	r16,zero,4a844 <__pow5mult+0x48>
   4a894:	9005883a 	mov	r2,r18
   4a898:	dfc00417 	ldw	ra,16(sp)
   4a89c:	dcc00317 	ldw	r19,12(sp)
   4a8a0:	dc800217 	ldw	r18,8(sp)
   4a8a4:	dc400117 	ldw	r17,4(sp)
   4a8a8:	dc000017 	ldw	r16,0(sp)
   4a8ac:	dec00504 	addi	sp,sp,20
   4a8b0:	f800283a 	ret
   4a8b4:	880d883a 	mov	r6,r17
   4a8b8:	880b883a 	mov	r5,r17
   4a8bc:	9809883a 	mov	r4,r19
   4a8c0:	004a5380 	call	4a538 <__multiply>
   4a8c4:	88800015 	stw	r2,0(r17)
   4a8c8:	10000015 	stw	zero,0(r2)
   4a8cc:	003fdf06 	br	4a84c <__pow5mult+0x50>
   4a8d0:	100490ba 	slli	r2,r2,2
   4a8d4:	00c00174 	movhi	r3,5
   4a8d8:	000f883a 	mov	r7,zero
   4a8dc:	10c7883a 	add	r3,r2,r3
   4a8e0:	19951817 	ldw	r6,21600(r3)
   4a8e4:	004a0d80 	call	4a0d8 <__multadd>
   4a8e8:	1025883a 	mov	r18,r2
   4a8ec:	003fce06 	br	4a828 <__pow5mult+0x2c>
   4a8f0:	01400044 	movi	r5,1
   4a8f4:	9809883a 	mov	r4,r19
   4a8f8:	004a0100 	call	4a010 <_Balloc>
   4a8fc:	1023883a 	mov	r17,r2
   4a900:	10000726 	beq	r2,zero,4a920 <__pow5mult+0x124>
   4a904:	00809c44 	movi	r2,625
   4a908:	88800515 	stw	r2,20(r17)
   4a90c:	00800044 	movi	r2,1
   4a910:	88800415 	stw	r2,16(r17)
   4a914:	9c401215 	stw	r17,72(r19)
   4a918:	88000015 	stw	zero,0(r17)
   4a91c:	003fcc06 	br	4a850 <__pow5mult+0x54>
   4a920:	01c00174 	movhi	r7,5
   4a924:	01000174 	movhi	r4,5
   4a928:	39d4f404 	addi	r7,r7,21456
   4a92c:	000d883a 	mov	r6,zero
   4a930:	01405004 	movi	r5,320
   4a934:	21150904 	addi	r4,r4,21540
   4a938:	004dac00 	call	4dac0 <__assert_func>

0004a93c <__lshift>:
   4a93c:	defff804 	addi	sp,sp,-32
   4a940:	dd800615 	stw	r22,24(sp)
   4a944:	dc400115 	stw	r17,4(sp)
   4a948:	302dd17a 	srai	r22,r6,5
   4a94c:	2c400417 	ldw	r17,16(r5)
   4a950:	28800217 	ldw	r2,8(r5)
   4a954:	dd000415 	stw	r20,16(sp)
   4a958:	b463883a 	add	r17,r22,r17
   4a95c:	dcc00315 	stw	r19,12(sp)
   4a960:	dc800215 	stw	r18,8(sp)
   4a964:	dc000015 	stw	r16,0(sp)
   4a968:	dfc00715 	stw	ra,28(sp)
   4a96c:	dd400515 	stw	r21,20(sp)
   4a970:	8d000044 	addi	r20,r17,1
   4a974:	2827883a 	mov	r19,r5
   4a978:	3025883a 	mov	r18,r6
   4a97c:	29400117 	ldw	r5,4(r5)
   4a980:	2021883a 	mov	r16,r4
   4a984:	1500030e 	bge	r2,r20,4a994 <__lshift+0x58>
   4a988:	1085883a 	add	r2,r2,r2
   4a98c:	29400044 	addi	r5,r5,1
   4a990:	153ffd16 	blt	r2,r20,4a988 <__lshift+0x4c>
   4a994:	8009883a 	mov	r4,r16
   4a998:	004a0100 	call	4a010 <_Balloc>
   4a99c:	102b883a 	mov	r21,r2
   4a9a0:	10004126 	beq	r2,zero,4aaa8 <__lshift+0x16c>
   4a9a4:	11000504 	addi	r4,r2,20
   4a9a8:	0580050e 	bge	zero,r22,4a9c0 <__lshift+0x84>
   4a9ac:	b02c90ba 	slli	r22,r22,2
   4a9b0:	000b883a 	mov	r5,zero
   4a9b4:	b00d883a 	mov	r6,r22
   4a9b8:	00429d80 	call	429d8 <memset>
   4a9bc:	1589883a 	add	r4,r2,r22
   4a9c0:	9a400417 	ldw	r9,16(r19)
   4a9c4:	98c00504 	addi	r3,r19,20
   4a9c8:	948007cc 	andi	r18,r18,31
   4a9cc:	481290ba 	slli	r9,r9,2
   4a9d0:	1a53883a 	add	r9,r3,r9
   4a9d4:	90002c26 	beq	r18,zero,4aa88 <__lshift+0x14c>
   4a9d8:	01400804 	movi	r5,32
   4a9dc:	2c8bc83a 	sub	r5,r5,r18
   4a9e0:	2005883a 	mov	r2,r4
   4a9e4:	0011883a 	mov	r8,zero
   4a9e8:	19c00017 	ldw	r7,0(r3)
   4a9ec:	10800104 	addi	r2,r2,4
   4a9f0:	18c00104 	addi	r3,r3,4
   4a9f4:	3c8e983a 	sll	r7,r7,r18
   4a9f8:	3a0eb03a 	or	r7,r7,r8
   4a9fc:	11ffff15 	stw	r7,-4(r2)
   4aa00:	1a3fff17 	ldw	r8,-4(r3)
   4aa04:	4150d83a 	srl	r8,r8,r5
   4aa08:	1a7ff736 	bltu	r3,r9,4a9e8 <__lshift+0xac>
   4aa0c:	98800544 	addi	r2,r19,21
   4aa10:	48802336 	bltu	r9,r2,4aaa0 <__lshift+0x164>
   4aa14:	4cc7c83a 	sub	r3,r9,r19
   4aa18:	18fffac4 	addi	r3,r3,-21
   4aa1c:	1806d0ba 	srli	r3,r3,2
   4aa20:	18c00044 	addi	r3,r3,1
   4aa24:	180690ba 	slli	r3,r3,2
   4aa28:	20c9883a 	add	r4,r4,r3
   4aa2c:	22000015 	stw	r8,0(r4)
   4aa30:	4000011e 	bne	r8,zero,4aa38 <__lshift+0xfc>
   4aa34:	8829883a 	mov	r20,r17
   4aa38:	ad000415 	stw	r20,16(r21)
   4aa3c:	98000726 	beq	r19,zero,4aa5c <__lshift+0x120>
   4aa40:	98c00117 	ldw	r3,4(r19)
   4aa44:	80801317 	ldw	r2,76(r16)
   4aa48:	180690ba 	slli	r3,r3,2
   4aa4c:	10c5883a 	add	r2,r2,r3
   4aa50:	10c00017 	ldw	r3,0(r2)
   4aa54:	98c00015 	stw	r3,0(r19)
   4aa58:	14c00015 	stw	r19,0(r2)
   4aa5c:	a805883a 	mov	r2,r21
   4aa60:	dfc00717 	ldw	ra,28(sp)
   4aa64:	dd800617 	ldw	r22,24(sp)
   4aa68:	dd400517 	ldw	r21,20(sp)
   4aa6c:	dd000417 	ldw	r20,16(sp)
   4aa70:	dcc00317 	ldw	r19,12(sp)
   4aa74:	dc800217 	ldw	r18,8(sp)
   4aa78:	dc400117 	ldw	r17,4(sp)
   4aa7c:	dc000017 	ldw	r16,0(sp)
   4aa80:	dec00804 	addi	sp,sp,32
   4aa84:	f800283a 	ret
   4aa88:	18800017 	ldw	r2,0(r3)
   4aa8c:	18c00104 	addi	r3,r3,4
   4aa90:	21000104 	addi	r4,r4,4
   4aa94:	20bfff15 	stw	r2,-4(r4)
   4aa98:	1a7ffb36 	bltu	r3,r9,4aa88 <__lshift+0x14c>
   4aa9c:	003fe506 	br	4aa34 <__lshift+0xf8>
   4aaa0:	00c00104 	movi	r3,4
   4aaa4:	003fe006 	br	4aa28 <__lshift+0xec>
   4aaa8:	01c00174 	movhi	r7,5
   4aaac:	01000174 	movhi	r4,5
   4aab0:	39d4f404 	addi	r7,r7,21456
   4aab4:	000d883a 	mov	r6,zero
   4aab8:	01407644 	movi	r5,473
   4aabc:	21150904 	addi	r4,r4,21540
   4aac0:	004dac00 	call	4dac0 <__assert_func>

0004aac4 <__mcmp>:
   4aac4:	21800417 	ldw	r6,16(r4)
   4aac8:	28c00417 	ldw	r3,16(r5)
   4aacc:	30c5c83a 	sub	r2,r6,r3
   4aad0:	30c0101e 	bne	r6,r3,4ab14 <__mcmp+0x50>
   4aad4:	180690ba 	slli	r3,r3,2
   4aad8:	21000504 	addi	r4,r4,20
   4aadc:	29400504 	addi	r5,r5,20
   4aae0:	20cd883a 	add	r6,r4,r3
   4aae4:	28c7883a 	add	r3,r5,r3
   4aae8:	00000106 	br	4aaf0 <__mcmp+0x2c>
   4aaec:	21800a2e 	bgeu	r4,r6,4ab18 <__mcmp+0x54>
   4aaf0:	31ffff17 	ldw	r7,-4(r6)
   4aaf4:	197fff17 	ldw	r5,-4(r3)
   4aaf8:	31bfff04 	addi	r6,r6,-4
   4aafc:	18ffff04 	addi	r3,r3,-4
   4ab00:	397ffa26 	beq	r7,r5,4aaec <__mcmp+0x28>
   4ab04:	3940022e 	bgeu	r7,r5,4ab10 <__mcmp+0x4c>
   4ab08:	00bfffc4 	movi	r2,-1
   4ab0c:	f800283a 	ret
   4ab10:	00800044 	movi	r2,1
   4ab14:	f800283a 	ret
   4ab18:	f800283a 	ret

0004ab1c <__mdiff>:
   4ab1c:	28c00417 	ldw	r3,16(r5)
   4ab20:	30800417 	ldw	r2,16(r6)
   4ab24:	defffc04 	addi	sp,sp,-16
   4ab28:	dc800215 	stw	r18,8(sp)
   4ab2c:	dc400115 	stw	r17,4(sp)
   4ab30:	dc000015 	stw	r16,0(sp)
   4ab34:	dfc00315 	stw	ra,12(sp)
   4ab38:	2823883a 	mov	r17,r5
   4ab3c:	3021883a 	mov	r16,r6
   4ab40:	18a5c83a 	sub	r18,r3,r2
   4ab44:	1880121e 	bne	r3,r2,4ab90 <__mdiff+0x74>
   4ab48:	100c90ba 	slli	r6,r2,2
   4ab4c:	29400504 	addi	r5,r5,20
   4ab50:	80c00504 	addi	r3,r16,20
   4ab54:	2985883a 	add	r2,r5,r6
   4ab58:	1987883a 	add	r3,r3,r6
   4ab5c:	00000106 	br	4ab64 <__mdiff+0x48>
   4ab60:	28805f2e 	bgeu	r5,r2,4ace0 <__mdiff+0x1c4>
   4ab64:	11ffff17 	ldw	r7,-4(r2)
   4ab68:	19bfff17 	ldw	r6,-4(r3)
   4ab6c:	10bfff04 	addi	r2,r2,-4
   4ab70:	18ffff04 	addi	r3,r3,-4
   4ab74:	39bffa26 	beq	r7,r6,4ab60 <__mdiff+0x44>
   4ab78:	3980072e 	bgeu	r7,r6,4ab98 <__mdiff+0x7c>
   4ab7c:	8805883a 	mov	r2,r17
   4ab80:	04800044 	movi	r18,1
   4ab84:	8023883a 	mov	r17,r16
   4ab88:	1021883a 	mov	r16,r2
   4ab8c:	00000206 	br	4ab98 <__mdiff+0x7c>
   4ab90:	903ffa16 	blt	r18,zero,4ab7c <__mdiff+0x60>
   4ab94:	0025883a 	mov	r18,zero
   4ab98:	89400117 	ldw	r5,4(r17)
   4ab9c:	004a0100 	call	4a010 <_Balloc>
   4aba0:	10006326 	beq	r2,zero,4ad30 <__mdiff+0x214>
   4aba4:	8a400417 	ldw	r9,16(r17)
   4aba8:	83800417 	ldw	r14,16(r16)
   4abac:	89400504 	addi	r5,r17,20
   4abb0:	481490ba 	slli	r10,r9,2
   4abb4:	701c90ba 	slli	r14,r14,2
   4abb8:	81800504 	addi	r6,r16,20
   4abbc:	13400504 	addi	r13,r2,20
   4abc0:	14800315 	stw	r18,12(r2)
   4abc4:	2a95883a 	add	r10,r5,r10
   4abc8:	339d883a 	add	r14,r6,r14
   4abcc:	6819883a 	mov	r12,r13
   4abd0:	2817883a 	mov	r11,r5
   4abd4:	000f883a 	mov	r7,zero
   4abd8:	59000017 	ldw	r4,0(r11)
   4abdc:	32000017 	ldw	r8,0(r6)
   4abe0:	63000104 	addi	r12,r12,4
   4abe4:	20ffffcc 	andi	r3,r4,65535
   4abe8:	43ffffcc 	andi	r15,r8,65535
   4abec:	1bc7c83a 	sub	r3,r3,r15
   4abf0:	4010d43a 	srli	r8,r8,16
   4abf4:	19c7883a 	add	r3,r3,r7
   4abf8:	2008d43a 	srli	r4,r4,16
   4abfc:	180fd43a 	srai	r7,r3,16
   4ac00:	18ffffcc 	andi	r3,r3,65535
   4ac04:	2209c83a 	sub	r4,r4,r8
   4ac08:	21c9883a 	add	r4,r4,r7
   4ac0c:	2010943a 	slli	r8,r4,16
   4ac10:	31800104 	addi	r6,r6,4
   4ac14:	200fd43a 	srai	r7,r4,16
   4ac18:	1a06b03a 	or	r3,r3,r8
   4ac1c:	60ffff15 	stw	r3,-4(r12)
   4ac20:	5ac00104 	addi	r11,r11,4
   4ac24:	33bfec36 	bltu	r6,r14,4abd8 <__mdiff+0xbc>
   4ac28:	7409c83a 	sub	r4,r14,r16
   4ac2c:	213ffac4 	addi	r4,r4,-21
   4ac30:	84000544 	addi	r16,r16,21
   4ac34:	200cd0ba 	srli	r6,r4,2
   4ac38:	74002736 	bltu	r14,r16,4acd8 <__mdiff+0x1bc>
   4ac3c:	31000044 	addi	r4,r6,1
   4ac40:	200890ba 	slli	r4,r4,2
   4ac44:	290b883a 	add	r5,r5,r4
   4ac48:	6911883a 	add	r8,r13,r4
   4ac4c:	2a802b2e 	bgeu	r5,r10,4acfc <__mdiff+0x1e0>
   4ac50:	4017883a 	mov	r11,r8
   4ac54:	280d883a 	mov	r6,r5
   4ac58:	30c00017 	ldw	r3,0(r6)
   4ac5c:	5ac00104 	addi	r11,r11,4
   4ac60:	31800104 	addi	r6,r6,4
   4ac64:	193fffcc 	andi	r4,r3,65535
   4ac68:	21c9883a 	add	r4,r4,r7
   4ac6c:	1818d43a 	srli	r12,r3,16
   4ac70:	2009d43a 	srai	r4,r4,16
   4ac74:	19c7883a 	add	r3,r3,r7
   4ac78:	18ffffcc 	andi	r3,r3,65535
   4ac7c:	2309883a 	add	r4,r4,r12
   4ac80:	2018943a 	slli	r12,r4,16
   4ac84:	200fd43a 	srai	r7,r4,16
   4ac88:	1b06b03a 	or	r3,r3,r12
   4ac8c:	58ffff15 	stw	r3,-4(r11)
   4ac90:	32bff136 	bltu	r6,r10,4ac58 <__mdiff+0x13c>
   4ac94:	513fffc4 	addi	r4,r10,-1
   4ac98:	2149c83a 	sub	r4,r4,r5
   4ac9c:	2008d0ba 	srli	r4,r4,2
   4aca0:	200890ba 	slli	r4,r4,2
   4aca4:	4109883a 	add	r4,r8,r4
   4aca8:	1800041e 	bne	r3,zero,4acbc <__mdiff+0x1a0>
   4acac:	20ffff17 	ldw	r3,-4(r4)
   4acb0:	4a7fffc4 	addi	r9,r9,-1
   4acb4:	213fff04 	addi	r4,r4,-4
   4acb8:	183ffc26 	beq	r3,zero,4acac <__mdiff+0x190>
   4acbc:	12400415 	stw	r9,16(r2)
   4acc0:	dfc00317 	ldw	ra,12(sp)
   4acc4:	dc800217 	ldw	r18,8(sp)
   4acc8:	dc400117 	ldw	r17,4(sp)
   4accc:	dc000017 	ldw	r16,0(sp)
   4acd0:	dec00404 	addi	sp,sp,16
   4acd4:	f800283a 	ret
   4acd8:	01000104 	movi	r4,4
   4acdc:	003fd906 	br	4ac44 <__mdiff+0x128>
   4ace0:	000b883a 	mov	r5,zero
   4ace4:	004a0100 	call	4a010 <_Balloc>
   4ace8:	10000a26 	beq	r2,zero,4ad14 <__mdiff+0x1f8>
   4acec:	00c00044 	movi	r3,1
   4acf0:	10c00415 	stw	r3,16(r2)
   4acf4:	10000515 	stw	zero,20(r2)
   4acf8:	003ff106 	br	4acc0 <__mdiff+0x1a4>
   4acfc:	74000336 	bltu	r14,r16,4ad0c <__mdiff+0x1f0>
   4ad00:	300890ba 	slli	r4,r6,2
   4ad04:	6909883a 	add	r4,r13,r4
   4ad08:	003fe706 	br	4aca8 <__mdiff+0x18c>
   4ad0c:	0009883a 	mov	r4,zero
   4ad10:	003ffc06 	br	4ad04 <__mdiff+0x1e8>
   4ad14:	01c00174 	movhi	r7,5
   4ad18:	01000174 	movhi	r4,5
   4ad1c:	39d4f404 	addi	r7,r7,21456
   4ad20:	000d883a 	mov	r6,zero
   4ad24:	01408c84 	movi	r5,562
   4ad28:	21150904 	addi	r4,r4,21540
   4ad2c:	004dac00 	call	4dac0 <__assert_func>
   4ad30:	01c00174 	movhi	r7,5
   4ad34:	01000174 	movhi	r4,5
   4ad38:	39d4f404 	addi	r7,r7,21456
   4ad3c:	000d883a 	mov	r6,zero
   4ad40:	01409004 	movi	r5,576
   4ad44:	21150904 	addi	r4,r4,21540
   4ad48:	004dac00 	call	4dac0 <__assert_func>

0004ad4c <__ulp>:
   4ad4c:	28dffc2c 	andhi	r3,r5,32752
   4ad50:	00bf3034 	movhi	r2,64704
   4ad54:	1887883a 	add	r3,r3,r2
   4ad58:	00c0020e 	bge	zero,r3,4ad64 <__ulp+0x18>
   4ad5c:	0005883a 	mov	r2,zero
   4ad60:	f800283a 	ret
   4ad64:	00c7c83a 	sub	r3,zero,r3
   4ad68:	1807d53a 	srai	r3,r3,20
   4ad6c:	18800508 	cmpgei	r2,r3,20
   4ad70:	1000041e 	bne	r2,zero,4ad84 <__ulp+0x38>
   4ad74:	00800234 	movhi	r2,8
   4ad78:	10c7d83a 	sra	r3,r2,r3
   4ad7c:	0005883a 	mov	r2,zero
   4ad80:	f800283a 	ret
   4ad84:	18fffb04 	addi	r3,r3,-20
   4ad88:	188007c8 	cmpgei	r2,r3,31
   4ad8c:	10000326 	beq	r2,zero,4ad9c <__ulp+0x50>
   4ad90:	00800044 	movi	r2,1
   4ad94:	0007883a 	mov	r3,zero
   4ad98:	f800283a 	ret
   4ad9c:	00a00034 	movhi	r2,32768
   4ada0:	10c4d83a 	srl	r2,r2,r3
   4ada4:	0007883a 	mov	r3,zero
   4ada8:	f800283a 	ret

0004adac <__b2d>:
   4adac:	defffa04 	addi	sp,sp,-24
   4adb0:	dc400115 	stw	r17,4(sp)
   4adb4:	24400417 	ldw	r17,16(r4)
   4adb8:	dc000015 	stw	r16,0(sp)
   4adbc:	24000504 	addi	r16,r4,20
   4adc0:	882290ba 	slli	r17,r17,2
   4adc4:	dc800215 	stw	r18,8(sp)
   4adc8:	dd000415 	stw	r20,16(sp)
   4adcc:	8463883a 	add	r17,r16,r17
   4add0:	8cbfff17 	ldw	r18,-4(r17)
   4add4:	dcc00315 	stw	r19,12(sp)
   4add8:	dfc00515 	stw	ra,20(sp)
   4addc:	9009883a 	mov	r4,r18
   4ade0:	2827883a 	mov	r19,r5
   4ade4:	004a3640 	call	4a364 <__hi0bits>
   4ade8:	00c00804 	movi	r3,32
   4adec:	1889c83a 	sub	r4,r3,r2
   4adf0:	99000015 	stw	r4,0(r19)
   4adf4:	110002c8 	cmpgei	r4,r2,11
   4adf8:	8d3fff04 	addi	r20,r17,-4
   4adfc:	20001b26 	beq	r4,zero,4ae6c <__b2d+0xc0>
   4ae00:	117ffd44 	addi	r5,r2,-11
   4ae04:	85000e2e 	bgeu	r16,r20,4ae40 <__b2d+0x94>
   4ae08:	88bffe17 	ldw	r2,-8(r17)
   4ae0c:	28000e26 	beq	r5,zero,4ae48 <__b2d+0x9c>
   4ae10:	1949c83a 	sub	r4,r3,r5
   4ae14:	1106d83a 	srl	r3,r2,r4
   4ae18:	9164983a 	sll	r18,r18,r5
   4ae1c:	89bffe04 	addi	r6,r17,-8
   4ae20:	1144983a 	sll	r2,r2,r5
   4ae24:	90c6b03a 	or	r3,r18,r3
   4ae28:	18cffc34 	orhi	r3,r3,16368
   4ae2c:	8180072e 	bgeu	r16,r6,4ae4c <__b2d+0xa0>
   4ae30:	897ffd17 	ldw	r5,-12(r17)
   4ae34:	2908d83a 	srl	r4,r5,r4
   4ae38:	1104b03a 	or	r2,r2,r4
   4ae3c:	00000306 	br	4ae4c <__b2d+0xa0>
   4ae40:	108002d8 	cmpnei	r2,r2,11
   4ae44:	1000161e 	bne	r2,zero,4aea0 <__b2d+0xf4>
   4ae48:	90cffc34 	orhi	r3,r18,16368
   4ae4c:	dfc00517 	ldw	ra,20(sp)
   4ae50:	dd000417 	ldw	r20,16(sp)
   4ae54:	dcc00317 	ldw	r19,12(sp)
   4ae58:	dc800217 	ldw	r18,8(sp)
   4ae5c:	dc400117 	ldw	r17,4(sp)
   4ae60:	dc000017 	ldw	r16,0(sp)
   4ae64:	dec00604 	addi	sp,sp,24
   4ae68:	f800283a 	ret
   4ae6c:	014002c4 	movi	r5,11
   4ae70:	288bc83a 	sub	r5,r5,r2
   4ae74:	9146d83a 	srl	r3,r18,r5
   4ae78:	18cffc34 	orhi	r3,r3,16368
   4ae7c:	85000536 	bltu	r16,r20,4ae94 <__b2d+0xe8>
   4ae80:	0009883a 	mov	r4,zero
   4ae84:	10800544 	addi	r2,r2,21
   4ae88:	90a4983a 	sll	r18,r18,r2
   4ae8c:	9104b03a 	or	r2,r18,r4
   4ae90:	003fee06 	br	4ae4c <__b2d+0xa0>
   4ae94:	893ffe17 	ldw	r4,-8(r17)
   4ae98:	2148d83a 	srl	r4,r4,r5
   4ae9c:	003ff906 	br	4ae84 <__b2d+0xd8>
   4aea0:	9164983a 	sll	r18,r18,r5
   4aea4:	0005883a 	mov	r2,zero
   4aea8:	003fe706 	br	4ae48 <__b2d+0x9c>

0004aeac <__d2b>:
   4aeac:	defff804 	addi	sp,sp,-32
   4aeb0:	dd000615 	stw	r20,24(sp)
   4aeb4:	2829883a 	mov	r20,r5
   4aeb8:	01400044 	movi	r5,1
   4aebc:	dcc00515 	stw	r19,20(sp)
   4aec0:	dc000215 	stw	r16,8(sp)
   4aec4:	dfc00715 	stw	ra,28(sp)
   4aec8:	dc800415 	stw	r18,16(sp)
   4aecc:	dc400315 	stw	r17,12(sp)
   4aed0:	3021883a 	mov	r16,r6
   4aed4:	3827883a 	mov	r19,r7
   4aed8:	004a0100 	call	4a010 <_Balloc>
   4aedc:	10004226 	beq	r2,zero,4afe8 <__d2b+0x13c>
   4aee0:	8024d53a 	srli	r18,r16,20
   4aee4:	1023883a 	mov	r17,r2
   4aee8:	00800434 	movhi	r2,16
   4aeec:	10bfffc4 	addi	r2,r2,-1
   4aef0:	9481ffcc 	andi	r18,r18,2047
   4aef4:	80a0703a 	and	r16,r16,r2
   4aef8:	90000126 	beq	r18,zero,4af00 <__d2b+0x54>
   4aefc:	84000434 	orhi	r16,r16,16
   4af00:	dc000115 	stw	r16,4(sp)
   4af04:	a0001b26 	beq	r20,zero,4af74 <__d2b+0xc8>
   4af08:	d809883a 	mov	r4,sp
   4af0c:	dd000015 	stw	r20,0(sp)
   4af10:	004a3d80 	call	4a3d8 <__lo0bits>
   4af14:	d8c00117 	ldw	r3,4(sp)
   4af18:	10003026 	beq	r2,zero,4afdc <__d2b+0x130>
   4af1c:	01000804 	movi	r4,32
   4af20:	2089c83a 	sub	r4,r4,r2
   4af24:	1908983a 	sll	r4,r3,r4
   4af28:	d9400017 	ldw	r5,0(sp)
   4af2c:	1886d83a 	srl	r3,r3,r2
   4af30:	2148b03a 	or	r4,r4,r5
   4af34:	89000515 	stw	r4,20(r17)
   4af38:	d8c00115 	stw	r3,4(sp)
   4af3c:	88c00615 	stw	r3,24(r17)
   4af40:	18002426 	beq	r3,zero,4afd4 <__d2b+0x128>
   4af44:	04000084 	movi	r16,2
   4af48:	8c000415 	stw	r16,16(r17)
   4af4c:	9000111e 	bne	r18,zero,4af94 <__d2b+0xe8>
   4af50:	800690ba 	slli	r3,r16,2
   4af54:	10bef384 	addi	r2,r2,-1074
   4af58:	98800015 	stw	r2,0(r19)
   4af5c:	88c5883a 	add	r2,r17,r3
   4af60:	11000417 	ldw	r4,16(r2)
   4af64:	8020917a 	slli	r16,r16,5
   4af68:	004a3640 	call	4a364 <__hi0bits>
   4af6c:	8085c83a 	sub	r2,r16,r2
   4af70:	00000d06 	br	4afa8 <__d2b+0xfc>
   4af74:	d9000104 	addi	r4,sp,4
   4af78:	004a3d80 	call	4a3d8 <__lo0bits>
   4af7c:	d8c00117 	ldw	r3,4(sp)
   4af80:	10800804 	addi	r2,r2,32
   4af84:	04000044 	movi	r16,1
   4af88:	88c00515 	stw	r3,20(r17)
   4af8c:	8c000415 	stw	r16,16(r17)
   4af90:	903fef26 	beq	r18,zero,4af50 <__d2b+0xa4>
   4af94:	94bef344 	addi	r18,r18,-1075
   4af98:	90a5883a 	add	r18,r18,r2
   4af9c:	04000d44 	movi	r16,53
   4afa0:	9c800015 	stw	r18,0(r19)
   4afa4:	8085c83a 	sub	r2,r16,r2
   4afa8:	d8c00817 	ldw	r3,32(sp)
   4afac:	18800015 	stw	r2,0(r3)
   4afb0:	8805883a 	mov	r2,r17
   4afb4:	dfc00717 	ldw	ra,28(sp)
   4afb8:	dd000617 	ldw	r20,24(sp)
   4afbc:	dcc00517 	ldw	r19,20(sp)
   4afc0:	dc800417 	ldw	r18,16(sp)
   4afc4:	dc400317 	ldw	r17,12(sp)
   4afc8:	dc000217 	ldw	r16,8(sp)
   4afcc:	dec00804 	addi	sp,sp,32
   4afd0:	f800283a 	ret
   4afd4:	04000044 	movi	r16,1
   4afd8:	003fec06 	br	4af8c <__d2b+0xe0>
   4afdc:	d9000017 	ldw	r4,0(sp)
   4afe0:	89000515 	stw	r4,20(r17)
   4afe4:	003fd506 	br	4af3c <__d2b+0x90>
   4afe8:	01c00174 	movhi	r7,5
   4afec:	01000174 	movhi	r4,5
   4aff0:	39d4f404 	addi	r7,r7,21456
   4aff4:	000d883a 	mov	r6,zero
   4aff8:	0140c284 	movi	r5,778
   4affc:	21150904 	addi	r4,r4,21540
   4b000:	004dac00 	call	4dac0 <__assert_func>

0004b004 <__ratio>:
   4b004:	defff904 	addi	sp,sp,-28
   4b008:	dc400315 	stw	r17,12(sp)
   4b00c:	2823883a 	mov	r17,r5
   4b010:	d80b883a 	mov	r5,sp
   4b014:	dfc00615 	stw	ra,24(sp)
   4b018:	dcc00515 	stw	r19,20(sp)
   4b01c:	dc800415 	stw	r18,16(sp)
   4b020:	2027883a 	mov	r19,r4
   4b024:	dc000215 	stw	r16,8(sp)
   4b028:	004adac0 	call	4adac <__b2d>
   4b02c:	d9400104 	addi	r5,sp,4
   4b030:	8809883a 	mov	r4,r17
   4b034:	1025883a 	mov	r18,r2
   4b038:	1821883a 	mov	r16,r3
   4b03c:	004adac0 	call	4adac <__b2d>
   4b040:	89000417 	ldw	r4,16(r17)
   4b044:	9a000417 	ldw	r8,16(r19)
   4b048:	d9400117 	ldw	r5,4(sp)
   4b04c:	100d883a 	mov	r6,r2
   4b050:	4111c83a 	sub	r8,r8,r4
   4b054:	d9000017 	ldw	r4,0(sp)
   4b058:	4010917a 	slli	r8,r8,5
   4b05c:	180f883a 	mov	r7,r3
   4b060:	2149c83a 	sub	r4,r4,r5
   4b064:	4111883a 	add	r8,r8,r4
   4b068:	02000c0e 	bge	zero,r8,4b09c <__ratio+0x98>
   4b06c:	4010953a 	slli	r8,r8,20
   4b070:	4421883a 	add	r16,r8,r16
   4b074:	9009883a 	mov	r4,r18
   4b078:	800b883a 	mov	r5,r16
   4b07c:	00502500 	call	50250 <__divdf3>
   4b080:	dfc00617 	ldw	ra,24(sp)
   4b084:	dcc00517 	ldw	r19,20(sp)
   4b088:	dc800417 	ldw	r18,16(sp)
   4b08c:	dc400317 	ldw	r17,12(sp)
   4b090:	dc000217 	ldw	r16,8(sp)
   4b094:	dec00704 	addi	sp,sp,28
   4b098:	f800283a 	ret
   4b09c:	4010953a 	slli	r8,r8,20
   4b0a0:	1a0fc83a 	sub	r7,r3,r8
   4b0a4:	003ff306 	br	4b074 <__ratio+0x70>

0004b0a8 <_mprec_log10>:
   4b0a8:	defffe04 	addi	sp,sp,-8
   4b0ac:	dc000015 	stw	r16,0(sp)
   4b0b0:	dfc00115 	stw	ra,4(sp)
   4b0b4:	20800608 	cmpgei	r2,r4,24
   4b0b8:	2021883a 	mov	r16,r4
   4b0bc:	10000f26 	beq	r2,zero,4b0fc <_mprec_log10+0x54>
   4b0c0:	0009883a 	mov	r4,zero
   4b0c4:	014ffc34 	movhi	r5,16368
   4b0c8:	000d883a 	mov	r6,zero
   4b0cc:	01d00934 	movhi	r7,16420
   4b0d0:	0050dc40 	call	50dc4 <__muldf3>
   4b0d4:	843fffc4 	addi	r16,r16,-1
   4b0d8:	1009883a 	mov	r4,r2
   4b0dc:	180b883a 	mov	r5,r3
   4b0e0:	803ff91e 	bne	r16,zero,4b0c8 <_mprec_log10+0x20>
   4b0e4:	2005883a 	mov	r2,r4
   4b0e8:	2807883a 	mov	r3,r5
   4b0ec:	dfc00117 	ldw	ra,4(sp)
   4b0f0:	dc000017 	ldw	r16,0(sp)
   4b0f4:	dec00204 	addi	sp,sp,8
   4b0f8:	f800283a 	ret
   4b0fc:	202090fa 	slli	r16,r4,3
   4b100:	00800174 	movhi	r2,5
   4b104:	10953004 	addi	r2,r2,21696
   4b108:	1405883a 	add	r2,r2,r16
   4b10c:	11000017 	ldw	r4,0(r2)
   4b110:	11400117 	ldw	r5,4(r2)
   4b114:	003ff306 	br	4b0e4 <_mprec_log10+0x3c>

0004b118 <__copybits>:
   4b118:	297fffc4 	addi	r5,r5,-1
   4b11c:	280fd17a 	srai	r7,r5,5
   4b120:	31400417 	ldw	r5,16(r6)
   4b124:	30800504 	addi	r2,r6,20
   4b128:	39c00044 	addi	r7,r7,1
   4b12c:	280a90ba 	slli	r5,r5,2
   4b130:	380e90ba 	slli	r7,r7,2
   4b134:	114b883a 	add	r5,r2,r5
   4b138:	21cf883a 	add	r7,r4,r7
   4b13c:	11400c2e 	bgeu	r2,r5,4b170 <__copybits+0x58>
   4b140:	2007883a 	mov	r3,r4
   4b144:	12000017 	ldw	r8,0(r2)
   4b148:	10800104 	addi	r2,r2,4
   4b14c:	18c00104 	addi	r3,r3,4
   4b150:	1a3fff15 	stw	r8,-4(r3)
   4b154:	117ffb36 	bltu	r2,r5,4b144 <__copybits+0x2c>
   4b158:	2985c83a 	sub	r2,r5,r6
   4b15c:	10bffac4 	addi	r2,r2,-21
   4b160:	1004d0ba 	srli	r2,r2,2
   4b164:	10800044 	addi	r2,r2,1
   4b168:	100490ba 	slli	r2,r2,2
   4b16c:	2089883a 	add	r4,r4,r2
   4b170:	21c0072e 	bgeu	r4,r7,4b190 <__copybits+0x78>
   4b174:	39bfffc4 	addi	r6,r7,-1
   4b178:	310dc83a 	sub	r6,r6,r4
   4b17c:	300cd0ba 	srli	r6,r6,2
   4b180:	000b883a 	mov	r5,zero
   4b184:	31800044 	addi	r6,r6,1
   4b188:	300c90ba 	slli	r6,r6,2
   4b18c:	00429d81 	jmpi	429d8 <memset>
   4b190:	f800283a 	ret

0004b194 <__any_on>:
   4b194:	20c00417 	ldw	r3,16(r4)
   4b198:	280dd17a 	srai	r6,r5,5
   4b19c:	21000504 	addi	r4,r4,20
   4b1a0:	1980080e 	bge	r3,r6,4b1c4 <__any_on+0x30>
   4b1a4:	180690ba 	slli	r3,r3,2
   4b1a8:	20c5883a 	add	r2,r4,r3
   4b1ac:	20800f2e 	bgeu	r4,r2,4b1ec <__any_on+0x58>
   4b1b0:	10ffff17 	ldw	r3,-4(r2)
   4b1b4:	10bfff04 	addi	r2,r2,-4
   4b1b8:	183ffc26 	beq	r3,zero,4b1ac <__any_on+0x18>
   4b1bc:	00800044 	movi	r2,1
   4b1c0:	f800283a 	ret
   4b1c4:	300490ba 	slli	r2,r6,2
   4b1c8:	2085883a 	add	r2,r4,r2
   4b1cc:	30fff70e 	bge	r6,r3,4b1ac <__any_on+0x18>
   4b1d0:	294007cc 	andi	r5,r5,31
   4b1d4:	283ff526 	beq	r5,zero,4b1ac <__any_on+0x18>
   4b1d8:	11800017 	ldw	r6,0(r2)
   4b1dc:	3146d83a 	srl	r3,r6,r5
   4b1e0:	1946983a 	sll	r3,r3,r5
   4b1e4:	30fff51e 	bne	r6,r3,4b1bc <__any_on+0x28>
   4b1e8:	003ff006 	br	4b1ac <__any_on+0x18>
   4b1ec:	0005883a 	mov	r2,zero
   4b1f0:	f800283a 	ret

0004b1f4 <__sread>:
   4b1f4:	defffe04 	addi	sp,sp,-8
   4b1f8:	dc000015 	stw	r16,0(sp)
   4b1fc:	2821883a 	mov	r16,r5
   4b200:	2940038f 	ldh	r5,14(r5)
   4b204:	dfc00115 	stw	ra,4(sp)
   4b208:	004e83c0 	call	4e83c <_read_r>
   4b20c:	10000716 	blt	r2,zero,4b22c <__sread+0x38>
   4b210:	80c01417 	ldw	r3,80(r16)
   4b214:	1887883a 	add	r3,r3,r2
   4b218:	80c01415 	stw	r3,80(r16)
   4b21c:	dfc00117 	ldw	ra,4(sp)
   4b220:	dc000017 	ldw	r16,0(sp)
   4b224:	dec00204 	addi	sp,sp,8
   4b228:	f800283a 	ret
   4b22c:	80c0030b 	ldhu	r3,12(r16)
   4b230:	18fbffcc 	andi	r3,r3,61439
   4b234:	80c0030d 	sth	r3,12(r16)
   4b238:	dfc00117 	ldw	ra,4(sp)
   4b23c:	dc000017 	ldw	r16,0(sp)
   4b240:	dec00204 	addi	sp,sp,8
   4b244:	f800283a 	ret

0004b248 <__seofread>:
   4b248:	0005883a 	mov	r2,zero
   4b24c:	f800283a 	ret

0004b250 <__swrite>:
   4b250:	2880030b 	ldhu	r2,12(r5)
   4b254:	defffb04 	addi	sp,sp,-20
   4b258:	dcc00315 	stw	r19,12(sp)
   4b25c:	dc800215 	stw	r18,8(sp)
   4b260:	dc400115 	stw	r17,4(sp)
   4b264:	dc000015 	stw	r16,0(sp)
   4b268:	dfc00415 	stw	ra,16(sp)
   4b26c:	10c0400c 	andi	r3,r2,256
   4b270:	2821883a 	mov	r16,r5
   4b274:	2023883a 	mov	r17,r4
   4b278:	3025883a 	mov	r18,r6
   4b27c:	3827883a 	mov	r19,r7
   4b280:	18000d1e 	bne	r3,zero,4b2b8 <__swrite+0x68>
   4b284:	8140038f 	ldh	r5,14(r16)
   4b288:	10bbffcc 	andi	r2,r2,61439
   4b28c:	980f883a 	mov	r7,r19
   4b290:	900d883a 	mov	r6,r18
   4b294:	8809883a 	mov	r4,r17
   4b298:	8080030d 	sth	r2,12(r16)
   4b29c:	dfc00417 	ldw	ra,16(sp)
   4b2a0:	dcc00317 	ldw	r19,12(sp)
   4b2a4:	dc800217 	ldw	r18,8(sp)
   4b2a8:	dc400117 	ldw	r17,4(sp)
   4b2ac:	dc000017 	ldw	r16,0(sp)
   4b2b0:	dec00504 	addi	sp,sp,20
   4b2b4:	004da041 	jmpi	4da04 <_write_r>
   4b2b8:	2940038f 	ldh	r5,14(r5)
   4b2bc:	01c00084 	movi	r7,2
   4b2c0:	000d883a 	mov	r6,zero
   4b2c4:	004e6600 	call	4e660 <_lseek_r>
   4b2c8:	8080030b 	ldhu	r2,12(r16)
   4b2cc:	003fed06 	br	4b284 <__swrite+0x34>

0004b2d0 <__sseek>:
   4b2d0:	defffe04 	addi	sp,sp,-8
   4b2d4:	dc000015 	stw	r16,0(sp)
   4b2d8:	2821883a 	mov	r16,r5
   4b2dc:	2940038f 	ldh	r5,14(r5)
   4b2e0:	dfc00115 	stw	ra,4(sp)
   4b2e4:	004e6600 	call	4e660 <_lseek_r>
   4b2e8:	10ffffd8 	cmpnei	r3,r2,-1
   4b2ec:	18000826 	beq	r3,zero,4b310 <__sseek+0x40>
   4b2f0:	80c0030b 	ldhu	r3,12(r16)
   4b2f4:	80801415 	stw	r2,80(r16)
   4b2f8:	18c40014 	ori	r3,r3,4096
   4b2fc:	80c0030d 	sth	r3,12(r16)
   4b300:	dfc00117 	ldw	ra,4(sp)
   4b304:	dc000017 	ldw	r16,0(sp)
   4b308:	dec00204 	addi	sp,sp,8
   4b30c:	f800283a 	ret
   4b310:	80c0030b 	ldhu	r3,12(r16)
   4b314:	18fbffcc 	andi	r3,r3,61439
   4b318:	80c0030d 	sth	r3,12(r16)
   4b31c:	dfc00117 	ldw	ra,4(sp)
   4b320:	dc000017 	ldw	r16,0(sp)
   4b324:	dec00204 	addi	sp,sp,8
   4b328:	f800283a 	ret

0004b32c <__sclose>:
   4b32c:	2940038f 	ldh	r5,14(r5)
   4b330:	004da681 	jmpi	4da68 <_close_r>

0004b334 <strlen>:
   4b334:	208000cc 	andi	r2,r4,3
   4b338:	10000926 	beq	r2,zero,4b360 <strlen+0x2c>
   4b33c:	2005883a 	mov	r2,r4
   4b340:	00000306 	br	4b350 <strlen+0x1c>
   4b344:	10800044 	addi	r2,r2,1
   4b348:	10c000cc 	andi	r3,r2,3
   4b34c:	18000526 	beq	r3,zero,4b364 <strlen+0x30>
   4b350:	10c00007 	ldb	r3,0(r2)
   4b354:	183ffb1e 	bne	r3,zero,4b344 <strlen+0x10>
   4b358:	1105c83a 	sub	r2,r2,r4
   4b35c:	f800283a 	ret
   4b360:	2005883a 	mov	r2,r4
   4b364:	11400017 	ldw	r5,0(r2)
   4b368:	01ffbff4 	movhi	r7,65279
   4b36c:	39ffbfc4 	addi	r7,r7,-257
   4b370:	29c7883a 	add	r3,r5,r7
   4b374:	01a02074 	movhi	r6,32897
   4b378:	014a303a 	nor	r5,zero,r5
   4b37c:	1946703a 	and	r3,r3,r5
   4b380:	31a02004 	addi	r6,r6,-32640
   4b384:	1986703a 	and	r3,r3,r6
   4b388:	1800071e 	bne	r3,zero,4b3a8 <strlen+0x74>
   4b38c:	11400117 	ldw	r5,4(r2)
   4b390:	10800104 	addi	r2,r2,4
   4b394:	29c7883a 	add	r3,r5,r7
   4b398:	014a303a 	nor	r5,zero,r5
   4b39c:	1946703a 	and	r3,r3,r5
   4b3a0:	1986703a 	and	r3,r3,r6
   4b3a4:	183ff926 	beq	r3,zero,4b38c <strlen+0x58>
   4b3a8:	10c00007 	ldb	r3,0(r2)
   4b3ac:	183fea26 	beq	r3,zero,4b358 <strlen+0x24>
   4b3b0:	10c00047 	ldb	r3,1(r2)
   4b3b4:	10800044 	addi	r2,r2,1
   4b3b8:	183fe726 	beq	r3,zero,4b358 <strlen+0x24>
   4b3bc:	10c00047 	ldb	r3,1(r2)
   4b3c0:	10800044 	addi	r2,r2,1
   4b3c4:	183ffa1e 	bne	r3,zero,4b3b0 <strlen+0x7c>
   4b3c8:	003fe306 	br	4b358 <strlen+0x24>

0004b3cc <__ssprint_r>:
   4b3cc:	30800217 	ldw	r2,8(r6)
   4b3d0:	defff604 	addi	sp,sp,-40
   4b3d4:	dd800615 	stw	r22,24(sp)
   4b3d8:	dcc00315 	stw	r19,12(sp)
   4b3dc:	dfc00915 	stw	ra,36(sp)
   4b3e0:	df000815 	stw	fp,32(sp)
   4b3e4:	ddc00715 	stw	r23,28(sp)
   4b3e8:	dd400515 	stw	r21,20(sp)
   4b3ec:	dd000415 	stw	r20,16(sp)
   4b3f0:	dc800215 	stw	r18,8(sp)
   4b3f4:	dc400115 	stw	r17,4(sp)
   4b3f8:	dc000015 	stw	r16,0(sp)
   4b3fc:	35800017 	ldw	r22,0(r6)
   4b400:	3027883a 	mov	r19,r6
   4b404:	10005726 	beq	r2,zero,4b564 <__ssprint_r+0x198>
   4b408:	28c00217 	ldw	r3,8(r5)
   4b40c:	28800017 	ldw	r2,0(r5)
   4b410:	2029883a 	mov	r20,r4
   4b414:	2823883a 	mov	r17,r5
   4b418:	0039883a 	mov	fp,zero
   4b41c:	0025883a 	mov	r18,zero
   4b420:	057edfc4 	movi	r21,-1153
   4b424:	00003806 	br	4b508 <__ssprint_r+0x13c>
   4b428:	88c0030b 	ldhu	r3,12(r17)
   4b42c:	1941200c 	andi	r5,r3,1152
   4b430:	28002526 	beq	r5,zero,4b4c8 <__ssprint_r+0xfc>
   4b434:	89800517 	ldw	r6,20(r17)
   4b438:	89400417 	ldw	r5,16(r17)
   4b43c:	3189883a 	add	r4,r6,r6
   4b440:	2189883a 	add	r4,r4,r6
   4b444:	202ed7fa 	srli	r23,r4,31
   4b448:	1161c83a 	sub	r16,r2,r5
   4b44c:	80800044 	addi	r2,r16,1
   4b450:	b92f883a 	add	r23,r23,r4
   4b454:	b82fd07a 	srai	r23,r23,1
   4b458:	1485883a 	add	r2,r2,r18
   4b45c:	b80d883a 	mov	r6,r23
   4b460:	b880022e 	bgeu	r23,r2,4b46c <__ssprint_r+0xa0>
   4b464:	102f883a 	mov	r23,r2
   4b468:	100d883a 	mov	r6,r2
   4b46c:	18c1000c 	andi	r3,r3,1024
   4b470:	18002d26 	beq	r3,zero,4b528 <__ssprint_r+0x15c>
   4b474:	300b883a 	mov	r5,r6
   4b478:	a009883a 	mov	r4,r20
   4b47c:	00421240 	call	42124 <_malloc_r>
   4b480:	10003026 	beq	r2,zero,4b544 <__ssprint_r+0x178>
   4b484:	89400417 	ldw	r5,16(r17)
   4b488:	800d883a 	mov	r6,r16
   4b48c:	1009883a 	mov	r4,r2
   4b490:	00428d80 	call	428d8 <memcpy>
   4b494:	1007883a 	mov	r3,r2
   4b498:	8880030b 	ldhu	r2,12(r17)
   4b49c:	1544703a 	and	r2,r2,r21
   4b4a0:	10802014 	ori	r2,r2,128
   4b4a4:	8880030d 	sth	r2,12(r17)
   4b4a8:	1c09883a 	add	r4,r3,r16
   4b4ac:	bc21c83a 	sub	r16,r23,r16
   4b4b0:	8dc00515 	stw	r23,20(r17)
   4b4b4:	8c000215 	stw	r16,8(r17)
   4b4b8:	88c00415 	stw	r3,16(r17)
   4b4bc:	89000015 	stw	r4,0(r17)
   4b4c0:	902f883a 	mov	r23,r18
   4b4c4:	9021883a 	mov	r16,r18
   4b4c8:	800d883a 	mov	r6,r16
   4b4cc:	e00b883a 	mov	r5,fp
   4b4d0:	004e7140 	call	4e714 <memmove>
   4b4d4:	88c00217 	ldw	r3,8(r17)
   4b4d8:	88800017 	ldw	r2,0(r17)
   4b4dc:	99000217 	ldw	r4,8(r19)
   4b4e0:	1dc7c83a 	sub	r3,r3,r23
   4b4e4:	1405883a 	add	r2,r2,r16
   4b4e8:	88c00215 	stw	r3,8(r17)
   4b4ec:	88800015 	stw	r2,0(r17)
   4b4f0:	2489c83a 	sub	r4,r4,r18
   4b4f4:	99000215 	stw	r4,8(r19)
   4b4f8:	20001a26 	beq	r4,zero,4b564 <__ssprint_r+0x198>
   4b4fc:	b7000017 	ldw	fp,0(r22)
   4b500:	b4800117 	ldw	r18,4(r22)
   4b504:	b5800204 	addi	r22,r22,8
   4b508:	182f883a 	mov	r23,r3
   4b50c:	1009883a 	mov	r4,r2
   4b510:	903ffa26 	beq	r18,zero,4b4fc <__ssprint_r+0x130>
   4b514:	1821883a 	mov	r16,r3
   4b518:	90ffc32e 	bgeu	r18,r3,4b428 <__ssprint_r+0x5c>
   4b51c:	902f883a 	mov	r23,r18
   4b520:	9021883a 	mov	r16,r18
   4b524:	003fe806 	br	4b4c8 <__ssprint_r+0xfc>
   4b528:	a009883a 	mov	r4,r20
   4b52c:	004e8a00 	call	4e8a0 <_realloc_r>
   4b530:	1007883a 	mov	r3,r2
   4b534:	103fdc1e 	bne	r2,zero,4b4a8 <__ssprint_r+0xdc>
   4b538:	89400417 	ldw	r5,16(r17)
   4b53c:	a009883a 	mov	r4,r20
   4b540:	00498800 	call	49880 <_free_r>
   4b544:	8880030b 	ldhu	r2,12(r17)
   4b548:	00c00304 	movi	r3,12
   4b54c:	a0c00015 	stw	r3,0(r20)
   4b550:	10801014 	ori	r2,r2,64
   4b554:	8880030d 	sth	r2,12(r17)
   4b558:	98000215 	stw	zero,8(r19)
   4b55c:	00bfffc4 	movi	r2,-1
   4b560:	00000106 	br	4b568 <__ssprint_r+0x19c>
   4b564:	0005883a 	mov	r2,zero
   4b568:	98000115 	stw	zero,4(r19)
   4b56c:	dfc00917 	ldw	ra,36(sp)
   4b570:	df000817 	ldw	fp,32(sp)
   4b574:	ddc00717 	ldw	r23,28(sp)
   4b578:	dd800617 	ldw	r22,24(sp)
   4b57c:	dd400517 	ldw	r21,20(sp)
   4b580:	dd000417 	ldw	r20,16(sp)
   4b584:	dcc00317 	ldw	r19,12(sp)
   4b588:	dc800217 	ldw	r18,8(sp)
   4b58c:	dc400117 	ldw	r17,4(sp)
   4b590:	dc000017 	ldw	r16,0(sp)
   4b594:	dec00a04 	addi	sp,sp,40
   4b598:	f800283a 	ret

0004b59c <___svfiprintf_internal_r>:
   4b59c:	2880030b 	ldhu	r2,12(r5)
   4b5a0:	deffcf04 	addi	sp,sp,-196
   4b5a4:	dd802d15 	stw	r22,180(sp)
   4b5a8:	dfc03015 	stw	ra,192(sp)
   4b5ac:	df002f15 	stw	fp,188(sp)
   4b5b0:	ddc02e15 	stw	r23,184(sp)
   4b5b4:	dd402c15 	stw	r21,176(sp)
   4b5b8:	dd002b15 	stw	r20,172(sp)
   4b5bc:	dcc02a15 	stw	r19,168(sp)
   4b5c0:	dc802915 	stw	r18,164(sp)
   4b5c4:	dc402815 	stw	r17,160(sp)
   4b5c8:	dc002715 	stw	r16,156(sp)
   4b5cc:	d9400015 	stw	r5,0(sp)
   4b5d0:	1080200c 	andi	r2,r2,128
   4b5d4:	d9000115 	stw	r4,4(sp)
   4b5d8:	d9c00315 	stw	r7,12(sp)
   4b5dc:	302d883a 	mov	r22,r6
   4b5e0:	10000226 	beq	r2,zero,4b5ec <___svfiprintf_internal_r+0x50>
   4b5e4:	28800417 	ldw	r2,16(r5)
   4b5e8:	10037c26 	beq	r2,zero,4c3dc <___svfiprintf_internal_r+0xe40>
   4b5ec:	dc401704 	addi	r17,sp,92
   4b5f0:	05400174 	movhi	r21,5
   4b5f4:	dc400a15 	stw	r17,40(sp)
   4b5f8:	d8000c15 	stw	zero,48(sp)
   4b5fc:	d8000b15 	stw	zero,44(sp)
   4b600:	0013883a 	mov	r9,zero
   4b604:	8811883a 	mov	r8,r17
   4b608:	d8000515 	stw	zero,20(sp)
   4b60c:	d8000215 	stw	zero,8(sp)
   4b610:	ad556204 	addi	r21,r21,21896
   4b614:	b0800007 	ldb	r2,0(r22)
   4b618:	1000c726 	beq	r2,zero,4b938 <___svfiprintf_internal_r+0x39c>
   4b61c:	b021883a 	mov	r16,r22
   4b620:	00000306 	br	4b630 <___svfiprintf_internal_r+0x94>
   4b624:	80800047 	ldb	r2,1(r16)
   4b628:	84000044 	addi	r16,r16,1
   4b62c:	10011226 	beq	r2,zero,4ba78 <___svfiprintf_internal_r+0x4dc>
   4b630:	10800958 	cmpnei	r2,r2,37
   4b634:	103ffb1e 	bne	r2,zero,4b624 <___svfiprintf_internal_r+0x88>
   4b638:	85a7c83a 	sub	r19,r16,r22
   4b63c:	8581101e 	bne	r16,r22,4ba80 <___svfiprintf_internal_r+0x4e4>
   4b640:	80800003 	ldbu	r2,0(r16)
   4b644:	10803fcc 	andi	r2,r2,255
   4b648:	1080201c 	xori	r2,r2,128
   4b64c:	10bfe004 	addi	r2,r2,-128
   4b650:	1000b926 	beq	r2,zero,4b938 <___svfiprintf_internal_r+0x39c>
   4b654:	80800047 	ldb	r2,1(r16)
   4b658:	85800044 	addi	r22,r16,1
   4b65c:	d8000945 	stb	zero,37(sp)
   4b660:	04bfffc4 	movi	r18,-1
   4b664:	0021883a 	mov	r16,zero
   4b668:	0039883a 	mov	fp,zero
   4b66c:	b5800044 	addi	r22,r22,1
   4b670:	10fff804 	addi	r3,r2,-32
   4b674:	19001668 	cmpgeui	r4,r3,89
   4b678:	20006c1e 	bne	r4,zero,4b82c <___svfiprintf_internal_r+0x290>
   4b67c:	180690ba 	slli	r3,r3,2
   4b680:	01000174 	movhi	r4,5
   4b684:	1909883a 	add	r4,r3,r4
   4b688:	20eda417 	ldw	r3,-18800(r4)
   4b68c:	1800683a 	jmp	r3
   4b690:	0004bef8 	rdprs	zero,zero,4859
   4b694:	0004b82c 	andhi	zero,zero,4832
   4b698:	0004b82c 	andhi	zero,zero,4832
   4b69c:	0004beec 	andhi	zero,zero,4859
   4b6a0:	0004b82c 	andhi	zero,zero,4832
   4b6a4:	0004b82c 	andhi	zero,zero,4832
   4b6a8:	0004b82c 	andhi	zero,zero,4832
   4b6ac:	0004b82c 	andhi	zero,zero,4832
   4b6b0:	0004b82c 	andhi	zero,zero,4832
   4b6b4:	0004b82c 	andhi	zero,zero,4832
   4b6b8:	0004bed0 	cmplti	zero,zero,4859
   4b6bc:	0004bec0 	call	4bec <__reset-0x3b414>
   4b6c0:	0004b82c 	andhi	zero,zero,4832
   4b6c4:	0004ba6c 	andhi	zero,zero,4841
   4b6c8:	0004be74 	movhi	zero,4857
   4b6cc:	0004b82c 	andhi	zero,zero,4832
   4b6d0:	0004be68 	cmpgeui	zero,zero,4857
   4b6d4:	0004b7f4 	movhi	zero,4831
   4b6d8:	0004b7f4 	movhi	zero,4831
   4b6dc:	0004b7f4 	movhi	zero,4831
   4b6e0:	0004b7f4 	movhi	zero,4831
   4b6e4:	0004b7f4 	movhi	zero,4831
   4b6e8:	0004b7f4 	movhi	zero,4831
   4b6ec:	0004b7f4 	movhi	zero,4831
   4b6f0:	0004b7f4 	movhi	zero,4831
   4b6f4:	0004b7f4 	movhi	zero,4831
   4b6f8:	0004b82c 	andhi	zero,zero,4832
   4b6fc:	0004b82c 	andhi	zero,zero,4832
   4b700:	0004b82c 	andhi	zero,zero,4832
   4b704:	0004b82c 	andhi	zero,zero,4832
   4b708:	0004b82c 	andhi	zero,zero,4832
   4b70c:	0004b82c 	andhi	zero,zero,4832
   4b710:	0004b82c 	andhi	zero,zero,4832
   4b714:	0004b82c 	andhi	zero,zero,4832
   4b718:	0004b82c 	andhi	zero,zero,4832
   4b71c:	0004b82c 	andhi	zero,zero,4832
   4b720:	0004b980 	call	4b98 <__reset-0x3b468>
   4b724:	0004b82c 	andhi	zero,zero,4832
   4b728:	0004b82c 	andhi	zero,zero,4832
   4b72c:	0004b82c 	andhi	zero,zero,4832
   4b730:	0004b82c 	andhi	zero,zero,4832
   4b734:	0004b82c 	andhi	zero,zero,4832
   4b738:	0004b82c 	andhi	zero,zero,4832
   4b73c:	0004b82c 	andhi	zero,zero,4832
   4b740:	0004b82c 	andhi	zero,zero,4832
   4b744:	0004b82c 	andhi	zero,zero,4832
   4b748:	0004b82c 	andhi	zero,zero,4832
   4b74c:	0004b9d8 	cmpnei	zero,zero,4839
   4b750:	0004b82c 	andhi	zero,zero,4832
   4b754:	0004b82c 	andhi	zero,zero,4832
   4b758:	0004b82c 	andhi	zero,zero,4832
   4b75c:	0004b82c 	andhi	zero,zero,4832
   4b760:	0004b82c 	andhi	zero,zero,4832
   4b764:	0004be04 	movi	zero,4856
   4b768:	0004b82c 	andhi	zero,zero,4832
   4b76c:	0004b82c 	andhi	zero,zero,4832
   4b770:	0004c374 	movhi	zero,4877
   4b774:	0004b82c 	andhi	zero,zero,4832
   4b778:	0004b82c 	andhi	zero,zero,4832
   4b77c:	0004b82c 	andhi	zero,zero,4832
   4b780:	0004b82c 	andhi	zero,zero,4832
   4b784:	0004b82c 	andhi	zero,zero,4832
   4b788:	0004b82c 	andhi	zero,zero,4832
   4b78c:	0004b82c 	andhi	zero,zero,4832
   4b790:	0004b82c 	andhi	zero,zero,4832
   4b794:	0004b82c 	andhi	zero,zero,4832
   4b798:	0004b82c 	andhi	zero,zero,4832
   4b79c:	0004bddc 	xori	zero,zero,4855
   4b7a0:	0004b984 	movi	zero,4838
   4b7a4:	0004b82c 	andhi	zero,zero,4832
   4b7a8:	0004b82c 	andhi	zero,zero,4832
   4b7ac:	0004b82c 	andhi	zero,zero,4832
   4b7b0:	0004bdd0 	cmplti	zero,zero,4855
   4b7b4:	0004b984 	movi	zero,4838
   4b7b8:	0004b82c 	andhi	zero,zero,4832
   4b7bc:	0004b82c 	andhi	zero,zero,4832
   4b7c0:	0004bdbc 	xorhi	zero,zero,4854
   4b7c4:	0004b82c 	andhi	zero,zero,4832
   4b7c8:	0004bd8c 	andi	zero,zero,4854
   4b7cc:	0004b9dc 	xori	zero,zero,4839
   4b7d0:	0004bd0c 	andi	zero,zero,4852
   4b7d4:	0004bd00 	call	4bd0 <__reset-0x3b430>
   4b7d8:	0004b82c 	andhi	zero,zero,4832
   4b7dc:	0004bca8 	cmpgeui	zero,zero,4850
   4b7e0:	0004b82c 	andhi	zero,zero,4832
   4b7e4:	0004c36c 	andhi	zero,zero,4877
   4b7e8:	0004b82c 	andhi	zero,zero,4832
   4b7ec:	0004b82c 	andhi	zero,zero,4832
   4b7f0:	0004c3cc 	andi	zero,zero,4879
   4b7f4:	0021883a 	mov	r16,zero
   4b7f8:	113ff404 	addi	r4,r2,-48
   4b7fc:	800690ba 	slli	r3,r16,2
   4b800:	b0800007 	ldb	r2,0(r22)
   4b804:	b5800044 	addi	r22,r22,1
   4b808:	1c07883a 	add	r3,r3,r16
   4b80c:	18c7883a 	add	r3,r3,r3
   4b810:	20e1883a 	add	r16,r4,r3
   4b814:	113ff404 	addi	r4,r2,-48
   4b818:	20c002b0 	cmpltui	r3,r4,10
   4b81c:	183ff71e 	bne	r3,zero,4b7fc <___svfiprintf_internal_r+0x260>
   4b820:	10fff804 	addi	r3,r2,-32
   4b824:	19001668 	cmpgeui	r4,r3,89
   4b828:	203f9426 	beq	r4,zero,4b67c <___svfiprintf_internal_r+0xe0>
   4b82c:	10004226 	beq	r2,zero,4b938 <___svfiprintf_internal_r+0x39c>
   4b830:	d8800d05 	stb	r2,52(sp)
   4b834:	d8000945 	stb	zero,37(sp)
   4b838:	04c00044 	movi	r19,1
   4b83c:	05000044 	movi	r20,1
   4b840:	ddc00d04 	addi	r23,sp,52
   4b844:	0025883a 	mov	r18,zero
   4b848:	e3c0008c 	andi	r15,fp,2
   4b84c:	78000126 	beq	r15,zero,4b854 <___svfiprintf_internal_r+0x2b8>
   4b850:	9cc00084 	addi	r19,r19,2
   4b854:	e380210c 	andi	r14,fp,132
   4b858:	d8800b17 	ldw	r2,44(sp)
   4b85c:	7000021e 	bne	r14,zero,4b868 <___svfiprintf_internal_r+0x2cc>
   4b860:	84c7c83a 	sub	r3,r16,r19
   4b864:	00c23b16 	blt	zero,r3,4c154 <___svfiprintf_internal_r+0xbb8>
   4b868:	d8c00947 	ldb	r3,37(sp)
   4b86c:	18000b26 	beq	r3,zero,4b89c <___svfiprintf_internal_r+0x300>
   4b870:	d8c00944 	addi	r3,sp,37
   4b874:	10800044 	addi	r2,r2,1
   4b878:	4a400044 	addi	r9,r9,1
   4b87c:	40c00015 	stw	r3,0(r8)
   4b880:	00c00044 	movi	r3,1
   4b884:	40c00115 	stw	r3,4(r8)
   4b888:	da400c15 	stw	r9,48(sp)
   4b88c:	d8800b15 	stw	r2,44(sp)
   4b890:	10c00208 	cmpgei	r3,r2,8
   4b894:	18026a1e 	bne	r3,zero,4c240 <___svfiprintf_internal_r+0xca4>
   4b898:	42000204 	addi	r8,r8,8
   4b89c:	78000b26 	beq	r15,zero,4b8cc <___svfiprintf_internal_r+0x330>
   4b8a0:	d8c00984 	addi	r3,sp,38
   4b8a4:	10800044 	addi	r2,r2,1
   4b8a8:	4a400084 	addi	r9,r9,2
   4b8ac:	40c00015 	stw	r3,0(r8)
   4b8b0:	00c00084 	movi	r3,2
   4b8b4:	40c00115 	stw	r3,4(r8)
   4b8b8:	da400c15 	stw	r9,48(sp)
   4b8bc:	d8800b15 	stw	r2,44(sp)
   4b8c0:	10c00208 	cmpgei	r3,r2,8
   4b8c4:	1802531e 	bne	r3,zero,4c214 <___svfiprintf_internal_r+0xc78>
   4b8c8:	42000204 	addi	r8,r8,8
   4b8cc:	73802018 	cmpnei	r14,r14,128
   4b8d0:	7001b926 	beq	r14,zero,4bfb8 <___svfiprintf_internal_r+0xa1c>
   4b8d4:	9525c83a 	sub	r18,r18,r20
   4b8d8:	0481e716 	blt	zero,r18,4c078 <___svfiprintf_internal_r+0xadc>
   4b8dc:	10800044 	addi	r2,r2,1
   4b8e0:	4d13883a 	add	r9,r9,r20
   4b8e4:	d8800b15 	stw	r2,44(sp)
   4b8e8:	45c00015 	stw	r23,0(r8)
   4b8ec:	45000115 	stw	r20,4(r8)
   4b8f0:	da400c15 	stw	r9,48(sp)
   4b8f4:	10800208 	cmpgei	r2,r2,8
   4b8f8:	1002071e 	bne	r2,zero,4c118 <___svfiprintf_internal_r+0xb7c>
   4b8fc:	42000204 	addi	r8,r8,8
   4b900:	e340010c 	andi	r13,fp,4
   4b904:	68000226 	beq	r13,zero,4b910 <___svfiprintf_internal_r+0x374>
   4b908:	84e9c83a 	sub	r20,r16,r19
   4b90c:	05007316 	blt	zero,r20,4badc <___svfiprintf_internal_r+0x540>
   4b910:	84c0010e 	bge	r16,r19,4b918 <___svfiprintf_internal_r+0x37c>
   4b914:	9821883a 	mov	r16,r19
   4b918:	d8800217 	ldw	r2,8(sp)
   4b91c:	1405883a 	add	r2,r2,r16
   4b920:	d8800215 	stw	r2,8(sp)
   4b924:	4802041e 	bne	r9,zero,4c138 <___svfiprintf_internal_r+0xb9c>
   4b928:	b0800007 	ldb	r2,0(r22)
   4b92c:	d8000b15 	stw	zero,44(sp)
   4b930:	8811883a 	mov	r8,r17
   4b934:	103f391e 	bne	r2,zero,4b61c <___svfiprintf_internal_r+0x80>
   4b938:	4802f51e 	bne	r9,zero,4c510 <___svfiprintf_internal_r+0xf74>
   4b93c:	d8800017 	ldw	r2,0(sp)
   4b940:	1080030b 	ldhu	r2,12(r2)
   4b944:	1080100c 	andi	r2,r2,64
   4b948:	1002ff1e 	bne	r2,zero,4c548 <___svfiprintf_internal_r+0xfac>
   4b94c:	d8800217 	ldw	r2,8(sp)
   4b950:	dfc03017 	ldw	ra,192(sp)
   4b954:	df002f17 	ldw	fp,188(sp)
   4b958:	ddc02e17 	ldw	r23,184(sp)
   4b95c:	dd802d17 	ldw	r22,180(sp)
   4b960:	dd402c17 	ldw	r21,176(sp)
   4b964:	dd002b17 	ldw	r20,172(sp)
   4b968:	dcc02a17 	ldw	r19,168(sp)
   4b96c:	dc802917 	ldw	r18,164(sp)
   4b970:	dc402817 	ldw	r17,160(sp)
   4b974:	dc002717 	ldw	r16,156(sp)
   4b978:	dec03104 	addi	sp,sp,196
   4b97c:	f800283a 	ret
   4b980:	e7000414 	ori	fp,fp,16
   4b984:	e080080c 	andi	r2,fp,32
   4b988:	10009b26 	beq	r2,zero,4bbf8 <___svfiprintf_internal_r+0x65c>
   4b98c:	d8c00317 	ldw	r3,12(sp)
   4b990:	18800117 	ldw	r2,4(r3)
   4b994:	1cc00017 	ldw	r19,0(r3)
   4b998:	18c00204 	addi	r3,r3,8
   4b99c:	d8c00315 	stw	r3,12(sp)
   4b9a0:	1029883a 	mov	r20,r2
   4b9a4:	1000a216 	blt	r2,zero,4bc30 <___svfiprintf_internal_r+0x694>
   4b9a8:	90bfffd8 	cmpnei	r2,r18,-1
   4b9ac:	db800943 	ldbu	r14,37(sp)
   4b9b0:	1000aa26 	beq	r2,zero,4bc5c <___svfiprintf_internal_r+0x6c0>
   4b9b4:	00ffdfc4 	movi	r3,-129
   4b9b8:	9d04b03a 	or	r2,r19,r20
   4b9bc:	e0f8703a 	and	fp,fp,r3
   4b9c0:	1000a61e 	bne	r2,zero,4bc5c <___svfiprintf_internal_r+0x6c0>
   4b9c4:	9002db1e 	bne	r18,zero,4c534 <___svfiprintf_internal_r+0xf98>
   4b9c8:	0027883a 	mov	r19,zero
   4b9cc:	0029883a 	mov	r20,zero
   4b9d0:	882f883a 	mov	r23,r17
   4b9d4:	0000ab06 	br	4bc84 <___svfiprintf_internal_r+0x6e8>
   4b9d8:	e7000414 	ori	fp,fp,16
   4b9dc:	e080080c 	andi	r2,fp,32
   4b9e0:	10006d26 	beq	r2,zero,4bb98 <___svfiprintf_internal_r+0x5fc>
   4b9e4:	d8800317 	ldw	r2,12(sp)
   4b9e8:	d8000945 	stb	zero,37(sp)
   4b9ec:	14c00017 	ldw	r19,0(r2)
   4b9f0:	15000117 	ldw	r20,4(r2)
   4b9f4:	10800204 	addi	r2,r2,8
   4b9f8:	d8800315 	stw	r2,12(sp)
   4b9fc:	90bfffd8 	cmpnei	r2,r18,-1
   4ba00:	1000721e 	bne	r2,zero,4bbcc <___svfiprintf_internal_r+0x630>
   4ba04:	882f883a 	mov	r23,r17
   4ba08:	a008977a 	slli	r4,r20,29
   4ba0c:	9806d0fa 	srli	r3,r19,3
   4ba10:	a028d0fa 	srli	r20,r20,3
   4ba14:	988001cc 	andi	r2,r19,7
   4ba18:	10800c04 	addi	r2,r2,48
   4ba1c:	20e6b03a 	or	r19,r4,r3
   4ba20:	b8bfffc5 	stb	r2,-1(r23)
   4ba24:	9d06b03a 	or	r3,r19,r20
   4ba28:	b80b883a 	mov	r5,r23
   4ba2c:	bdffffc4 	addi	r23,r23,-1
   4ba30:	183ff51e 	bne	r3,zero,4ba08 <___svfiprintf_internal_r+0x46c>
   4ba34:	e0c0004c 	andi	r3,fp,1
   4ba38:	1800cf26 	beq	r3,zero,4bd78 <___svfiprintf_internal_r+0x7dc>
   4ba3c:	10800c18 	cmpnei	r2,r2,48
   4ba40:	1000cd26 	beq	r2,zero,4bd78 <___svfiprintf_internal_r+0x7dc>
   4ba44:	297fff84 	addi	r5,r5,-2
   4ba48:	00800c04 	movi	r2,48
   4ba4c:	b8bfffc5 	stb	r2,-1(r23)
   4ba50:	8969c83a 	sub	r20,r17,r5
   4ba54:	9027883a 	mov	r19,r18
   4ba58:	95023816 	blt	r18,r20,4c33c <___svfiprintf_internal_r+0xda0>
   4ba5c:	282f883a 	mov	r23,r5
   4ba60:	003f7906 	br	4b848 <___svfiprintf_internal_r+0x2ac>
   4ba64:	0421c83a 	sub	r16,zero,r16
   4ba68:	ddc00315 	stw	r23,12(sp)
   4ba6c:	b0800007 	ldb	r2,0(r22)
   4ba70:	e7000114 	ori	fp,fp,4
   4ba74:	003efd06 	br	4b66c <___svfiprintf_internal_r+0xd0>
   4ba78:	85a7c83a 	sub	r19,r16,r22
   4ba7c:	85bfae26 	beq	r16,r22,4b938 <___svfiprintf_internal_r+0x39c>
   4ba80:	d8800b17 	ldw	r2,44(sp)
   4ba84:	4cd3883a 	add	r9,r9,r19
   4ba88:	45800015 	stw	r22,0(r8)
   4ba8c:	10800044 	addi	r2,r2,1
   4ba90:	d8800b15 	stw	r2,44(sp)
   4ba94:	44c00115 	stw	r19,4(r8)
   4ba98:	da400c15 	stw	r9,48(sp)
   4ba9c:	10800208 	cmpgei	r2,r2,8
   4baa0:	1000061e 	bne	r2,zero,4babc <___svfiprintf_internal_r+0x520>
   4baa4:	42000204 	addi	r8,r8,8
   4baa8:	d8c00217 	ldw	r3,8(sp)
   4baac:	80800003 	ldbu	r2,0(r16)
   4bab0:	1cc7883a 	add	r3,r3,r19
   4bab4:	d8c00215 	stw	r3,8(sp)
   4bab8:	003ee206 	br	4b644 <___svfiprintf_internal_r+0xa8>
   4babc:	d9400017 	ldw	r5,0(sp)
   4bac0:	d9000117 	ldw	r4,4(sp)
   4bac4:	d9800a04 	addi	r6,sp,40
   4bac8:	004b3cc0 	call	4b3cc <__ssprint_r>
   4bacc:	103f9b1e 	bne	r2,zero,4b93c <___svfiprintf_internal_r+0x3a0>
   4bad0:	da400c17 	ldw	r9,48(sp)
   4bad4:	8811883a 	mov	r8,r17
   4bad8:	003ff306 	br	4baa8 <___svfiprintf_internal_r+0x50c>
   4badc:	01c00174 	movhi	r7,5
   4bae0:	a0c00450 	cmplti	r3,r20,17
   4bae4:	d8800b17 	ldw	r2,44(sp)
   4bae8:	39d56604 	addi	r7,r7,21912
   4baec:	04800404 	movi	r18,16
   4baf0:	18000526 	beq	r3,zero,4bb08 <___svfiprintf_internal_r+0x56c>
   4baf4:	00001906 	br	4bb5c <___svfiprintf_internal_r+0x5c0>
   4baf8:	a53ffc04 	addi	r20,r20,-16
   4bafc:	a0c00448 	cmpgei	r3,r20,17
   4bb00:	42000204 	addi	r8,r8,8
   4bb04:	18001526 	beq	r3,zero,4bb5c <___svfiprintf_internal_r+0x5c0>
   4bb08:	10800044 	addi	r2,r2,1
   4bb0c:	4a400404 	addi	r9,r9,16
   4bb10:	41c00015 	stw	r7,0(r8)
   4bb14:	44800115 	stw	r18,4(r8)
   4bb18:	da400c15 	stw	r9,48(sp)
   4bb1c:	d8800b15 	stw	r2,44(sp)
   4bb20:	10c00208 	cmpgei	r3,r2,8
   4bb24:	183ff426 	beq	r3,zero,4baf8 <___svfiprintf_internal_r+0x55c>
   4bb28:	d9400017 	ldw	r5,0(sp)
   4bb2c:	d9000117 	ldw	r4,4(sp)
   4bb30:	d9800a04 	addi	r6,sp,40
   4bb34:	d9c00415 	stw	r7,16(sp)
   4bb38:	004b3cc0 	call	4b3cc <__ssprint_r>
   4bb3c:	103f7f1e 	bne	r2,zero,4b93c <___svfiprintf_internal_r+0x3a0>
   4bb40:	a53ffc04 	addi	r20,r20,-16
   4bb44:	a0c00448 	cmpgei	r3,r20,17
   4bb48:	da400c17 	ldw	r9,48(sp)
   4bb4c:	d8800b17 	ldw	r2,44(sp)
   4bb50:	d9c00417 	ldw	r7,16(sp)
   4bb54:	8811883a 	mov	r8,r17
   4bb58:	183feb1e 	bne	r3,zero,4bb08 <___svfiprintf_internal_r+0x56c>
   4bb5c:	10800044 	addi	r2,r2,1
   4bb60:	4d13883a 	add	r9,r9,r20
   4bb64:	d8800b15 	stw	r2,44(sp)
   4bb68:	41c00015 	stw	r7,0(r8)
   4bb6c:	45000115 	stw	r20,4(r8)
   4bb70:	da400c15 	stw	r9,48(sp)
   4bb74:	10800210 	cmplti	r2,r2,8
   4bb78:	103f651e 	bne	r2,zero,4b910 <___svfiprintf_internal_r+0x374>
   4bb7c:	d9400017 	ldw	r5,0(sp)
   4bb80:	d9000117 	ldw	r4,4(sp)
   4bb84:	d9800a04 	addi	r6,sp,40
   4bb88:	004b3cc0 	call	4b3cc <__ssprint_r>
   4bb8c:	103f6b1e 	bne	r2,zero,4b93c <___svfiprintf_internal_r+0x3a0>
   4bb90:	da400c17 	ldw	r9,48(sp)
   4bb94:	003f5e06 	br	4b910 <___svfiprintf_internal_r+0x374>
   4bb98:	d8c00317 	ldw	r3,12(sp)
   4bb9c:	e080040c 	andi	r2,fp,16
   4bba0:	1cc00017 	ldw	r19,0(r3)
   4bba4:	18c00104 	addi	r3,r3,4
   4bba8:	d8c00315 	stw	r3,12(sp)
   4bbac:	1000031e 	bne	r2,zero,4bbbc <___svfiprintf_internal_r+0x620>
   4bbb0:	e080100c 	andi	r2,fp,64
   4bbb4:	10000126 	beq	r2,zero,4bbbc <___svfiprintf_internal_r+0x620>
   4bbb8:	9cffffcc 	andi	r19,r19,65535
   4bbbc:	d8000945 	stb	zero,37(sp)
   4bbc0:	90bfffd8 	cmpnei	r2,r18,-1
   4bbc4:	0029883a 	mov	r20,zero
   4bbc8:	103f8e26 	beq	r2,zero,4ba04 <___svfiprintf_internal_r+0x468>
   4bbcc:	e009883a 	mov	r4,fp
   4bbd0:	037fdfc4 	movi	r13,-129
   4bbd4:	9d06b03a 	or	r3,r19,r20
   4bbd8:	0005883a 	mov	r2,zero
   4bbdc:	2378703a 	and	fp,r4,r13
   4bbe0:	18009826 	beq	r3,zero,4be44 <___svfiprintf_internal_r+0x8a8>
   4bbe4:	10c00060 	cmpeqi	r3,r2,1
   4bbe8:	1802691e 	bne	r3,zero,4c590 <___svfiprintf_internal_r+0xff4>
   4bbec:	108000a0 	cmpeqi	r2,r2,2
   4bbf0:	1000541e 	bne	r2,zero,4bd44 <___svfiprintf_internal_r+0x7a8>
   4bbf4:	003f8306 	br	4ba04 <___svfiprintf_internal_r+0x468>
   4bbf8:	d8c00317 	ldw	r3,12(sp)
   4bbfc:	e080040c 	andi	r2,fp,16
   4bc00:	1cc00017 	ldw	r19,0(r3)
   4bc04:	18c00104 	addi	r3,r3,4
   4bc08:	d8c00315 	stw	r3,12(sp)
   4bc0c:	1000231e 	bne	r2,zero,4bc9c <___svfiprintf_internal_r+0x700>
   4bc10:	e080100c 	andi	r2,fp,64
   4bc14:	10002126 	beq	r2,zero,4bc9c <___svfiprintf_internal_r+0x700>
   4bc18:	9cffffcc 	andi	r19,r19,65535
   4bc1c:	9ce0001c 	xori	r19,r19,32768
   4bc20:	9ce00004 	addi	r19,r19,-32768
   4bc24:	9829d7fa 	srai	r20,r19,31
   4bc28:	a005883a 	mov	r2,r20
   4bc2c:	103f5e0e 	bge	r2,zero,4b9a8 <___svfiprintf_internal_r+0x40c>
   4bc30:	00800b44 	movi	r2,45
   4bc34:	9806c03a 	cmpne	r3,r19,zero
   4bc38:	0529c83a 	sub	r20,zero,r20
   4bc3c:	d8800945 	stb	r2,37(sp)
   4bc40:	90bfffd8 	cmpnei	r2,r18,-1
   4bc44:	a0e9c83a 	sub	r20,r20,r3
   4bc48:	04e7c83a 	sub	r19,zero,r19
   4bc4c:	10000226 	beq	r2,zero,4bc58 <___svfiprintf_internal_r+0x6bc>
   4bc50:	00bfdfc4 	movi	r2,-129
   4bc54:	e0b8703a 	and	fp,fp,r2
   4bc58:	03800b44 	movi	r14,45
   4bc5c:	a000b61e 	bne	r20,zero,4bf38 <___svfiprintf_internal_r+0x99c>
   4bc60:	988002a8 	cmpgeui	r2,r19,10
   4bc64:	1000b41e 	bne	r2,zero,4bf38 <___svfiprintf_internal_r+0x99c>
   4bc68:	9cc00c04 	addi	r19,r19,48
   4bc6c:	dcc016c5 	stb	r19,91(sp)
   4bc70:	9027883a 	mov	r19,r18
   4bc74:	04800116 	blt	zero,r18,4bc7c <___svfiprintf_internal_r+0x6e0>
   4bc78:	04c00044 	movi	r19,1
   4bc7c:	05000044 	movi	r20,1
   4bc80:	ddc016c4 	addi	r23,sp,91
   4bc84:	73803fcc 	andi	r14,r14,255
   4bc88:	7380201c 	xori	r14,r14,128
   4bc8c:	73bfe004 	addi	r14,r14,-128
   4bc90:	703eed26 	beq	r14,zero,4b848 <___svfiprintf_internal_r+0x2ac>
   4bc94:	9cc00044 	addi	r19,r19,1
   4bc98:	003eeb06 	br	4b848 <___svfiprintf_internal_r+0x2ac>
   4bc9c:	9829d7fa 	srai	r20,r19,31
   4bca0:	a005883a 	mov	r2,r20
   4bca4:	003f3f06 	br	4b9a4 <___svfiprintf_internal_r+0x408>
   4bca8:	d8800317 	ldw	r2,12(sp)
   4bcac:	d8000945 	stb	zero,37(sp)
   4bcb0:	15c00017 	ldw	r23,0(r2)
   4bcb4:	10c00104 	addi	r3,r2,4
   4bcb8:	b8020426 	beq	r23,zero,4c4cc <___svfiprintf_internal_r+0xf30>
   4bcbc:	da400615 	stw	r9,24(sp)
   4bcc0:	90bfffe0 	cmpeqi	r2,r18,-1
   4bcc4:	1001a01e 	bne	r2,zero,4c348 <___svfiprintf_internal_r+0xdac>
   4bcc8:	900d883a 	mov	r6,r18
   4bccc:	000b883a 	mov	r5,zero
   4bcd0:	b809883a 	mov	r4,r23
   4bcd4:	d8c00415 	stw	r3,16(sp)
   4bcd8:	da000315 	stw	r8,12(sp)
   4bcdc:	0049f140 	call	49f14 <memchr>
   4bce0:	da000317 	ldw	r8,12(sp)
   4bce4:	d8c00417 	ldw	r3,16(sp)
   4bce8:	da400617 	ldw	r9,24(sp)
   4bcec:	10020d26 	beq	r2,zero,4c524 <___svfiprintf_internal_r+0xf88>
   4bcf0:	15e9c83a 	sub	r20,r2,r23
   4bcf4:	a027883a 	mov	r19,r20
   4bcf8:	d8c00315 	stw	r3,12(sp)
   4bcfc:	003ed106 	br	4b844 <___svfiprintf_internal_r+0x2a8>
   4bd00:	b0800007 	ldb	r2,0(r22)
   4bd04:	e7000814 	ori	fp,fp,32
   4bd08:	003e5806 	br	4b66c <___svfiprintf_internal_r+0xd0>
   4bd0c:	d8c00317 	ldw	r3,12(sp)
   4bd10:	009e0c04 	movi	r2,30768
   4bd14:	01000174 	movhi	r4,5
   4bd18:	d880098d 	sth	r2,38(sp)
   4bd1c:	1cc00017 	ldw	r19,0(r3)
   4bd20:	18800104 	addi	r2,r3,4
   4bd24:	d8800315 	stw	r2,12(sp)
   4bd28:	2094d804 	addi	r2,r4,21344
   4bd2c:	0029883a 	mov	r20,zero
   4bd30:	e7000094 	ori	fp,fp,2
   4bd34:	d8800515 	stw	r2,20(sp)
   4bd38:	d8000945 	stb	zero,37(sp)
   4bd3c:	90bfffd8 	cmpnei	r2,r18,-1
   4bd40:	1001651e 	bne	r2,zero,4c2d8 <___svfiprintf_internal_r+0xd3c>
   4bd44:	882f883a 	mov	r23,r17
   4bd48:	d9000517 	ldw	r4,20(sp)
   4bd4c:	988003cc 	andi	r2,r19,15
   4bd50:	a006973a 	slli	r3,r20,28
   4bd54:	9826d13a 	srli	r19,r19,4
   4bd58:	2085883a 	add	r2,r4,r2
   4bd5c:	10800003 	ldbu	r2,0(r2)
   4bd60:	a028d13a 	srli	r20,r20,4
   4bd64:	1ce6b03a 	or	r19,r3,r19
   4bd68:	b8bfffc5 	stb	r2,-1(r23)
   4bd6c:	9d04b03a 	or	r2,r19,r20
   4bd70:	bdffffc4 	addi	r23,r23,-1
   4bd74:	103ff41e 	bne	r2,zero,4bd48 <___svfiprintf_internal_r+0x7ac>
   4bd78:	8de9c83a 	sub	r20,r17,r23
   4bd7c:	9027883a 	mov	r19,r18
   4bd80:	953eb10e 	bge	r18,r20,4b848 <___svfiprintf_internal_r+0x2ac>
   4bd84:	a027883a 	mov	r19,r20
   4bd88:	003eaf06 	br	4b848 <___svfiprintf_internal_r+0x2ac>
   4bd8c:	e080080c 	andi	r2,fp,32
   4bd90:	10016126 	beq	r2,zero,4c318 <___svfiprintf_internal_r+0xd7c>
   4bd94:	d9000217 	ldw	r4,8(sp)
   4bd98:	d8800317 	ldw	r2,12(sp)
   4bd9c:	2007d7fa 	srai	r3,r4,31
   4bda0:	10800017 	ldw	r2,0(r2)
   4bda4:	11000015 	stw	r4,0(r2)
   4bda8:	10c00115 	stw	r3,4(r2)
   4bdac:	d8800317 	ldw	r2,12(sp)
   4bdb0:	10800104 	addi	r2,r2,4
   4bdb4:	d8800315 	stw	r2,12(sp)
   4bdb8:	003e1606 	br	4b614 <___svfiprintf_internal_r+0x78>
   4bdbc:	b0800007 	ldb	r2,0(r22)
   4bdc0:	10c01b18 	cmpnei	r3,r2,108
   4bdc4:	18005526 	beq	r3,zero,4bf1c <___svfiprintf_internal_r+0x980>
   4bdc8:	e7000414 	ori	fp,fp,16
   4bdcc:	003e2706 	br	4b66c <___svfiprintf_internal_r+0xd0>
   4bdd0:	b0800007 	ldb	r2,0(r22)
   4bdd4:	e7001014 	ori	fp,fp,64
   4bdd8:	003e2406 	br	4b66c <___svfiprintf_internal_r+0xd0>
   4bddc:	d8c00317 	ldw	r3,12(sp)
   4bde0:	d8000945 	stb	zero,37(sp)
   4bde4:	04c00044 	movi	r19,1
   4bde8:	18800017 	ldw	r2,0(r3)
   4bdec:	18c00104 	addi	r3,r3,4
   4bdf0:	d8c00315 	stw	r3,12(sp)
   4bdf4:	d8800d05 	stb	r2,52(sp)
   4bdf8:	05000044 	movi	r20,1
   4bdfc:	ddc00d04 	addi	r23,sp,52
   4be00:	003e9006 	br	4b844 <___svfiprintf_internal_r+0x2a8>
   4be04:	e1000414 	ori	r4,fp,16
   4be08:	2080080c 	andi	r2,r4,32
   4be0c:	10011926 	beq	r2,zero,4c274 <___svfiprintf_internal_r+0xcd8>
   4be10:	d8800317 	ldw	r2,12(sp)
   4be14:	d8000945 	stb	zero,37(sp)
   4be18:	14c00017 	ldw	r19,0(r2)
   4be1c:	15000117 	ldw	r20,4(r2)
   4be20:	10800204 	addi	r2,r2,8
   4be24:	d8800315 	stw	r2,12(sp)
   4be28:	90bfffd8 	cmpnei	r2,r18,-1
   4be2c:	10011e26 	beq	r2,zero,4c2a8 <___svfiprintf_internal_r+0xd0c>
   4be30:	00800044 	movi	r2,1
   4be34:	037fdfc4 	movi	r13,-129
   4be38:	9d06b03a 	or	r3,r19,r20
   4be3c:	2378703a 	and	fp,r4,r13
   4be40:	183f681e 	bne	r3,zero,4bbe4 <___svfiprintf_internal_r+0x648>
   4be44:	9001911e 	bne	r18,zero,4c48c <___svfiprintf_internal_r+0xef0>
   4be48:	10012c1e 	bne	r2,zero,4c2fc <___svfiprintf_internal_r+0xd60>
   4be4c:	2500004c 	andi	r20,r4,1
   4be50:	a0012e26 	beq	r20,zero,4c30c <___svfiprintf_internal_r+0xd70>
   4be54:	00800c04 	movi	r2,48
   4be58:	d88016c5 	stb	r2,91(sp)
   4be5c:	a027883a 	mov	r19,r20
   4be60:	ddc016c4 	addi	r23,sp,91
   4be64:	003e7806 	br	4b848 <___svfiprintf_internal_r+0x2ac>
   4be68:	b0800007 	ldb	r2,0(r22)
   4be6c:	e7002014 	ori	fp,fp,128
   4be70:	003dfe06 	br	4b66c <___svfiprintf_internal_r+0xd0>
   4be74:	b0800007 	ldb	r2,0(r22)
   4be78:	b0c00044 	addi	r3,r22,1
   4be7c:	11000aa0 	cmpeqi	r4,r2,42
   4be80:	2001b71e 	bne	r4,zero,4c560 <___svfiprintf_internal_r+0xfc4>
   4be84:	113ff404 	addi	r4,r2,-48
   4be88:	214002b0 	cmpltui	r5,r4,10
   4be8c:	182d883a 	mov	r22,r3
   4be90:	0025883a 	mov	r18,zero
   4be94:	283df626 	beq	r5,zero,4b670 <___svfiprintf_internal_r+0xd4>
   4be98:	900690ba 	slli	r3,r18,2
   4be9c:	b0800007 	ldb	r2,0(r22)
   4bea0:	b5800044 	addi	r22,r22,1
   4bea4:	1c87883a 	add	r3,r3,r18
   4bea8:	18c7883a 	add	r3,r3,r3
   4beac:	1925883a 	add	r18,r3,r4
   4beb0:	113ff404 	addi	r4,r2,-48
   4beb4:	20c002b0 	cmpltui	r3,r4,10
   4beb8:	183ff71e 	bne	r3,zero,4be98 <___svfiprintf_internal_r+0x8fc>
   4bebc:	003dec06 	br	4b670 <___svfiprintf_internal_r+0xd4>
   4bec0:	00c00ac4 	movi	r3,43
   4bec4:	b0800007 	ldb	r2,0(r22)
   4bec8:	d8c00945 	stb	r3,37(sp)
   4becc:	003de706 	br	4b66c <___svfiprintf_internal_r+0xd0>
   4bed0:	d8800317 	ldw	r2,12(sp)
   4bed4:	14000017 	ldw	r16,0(r2)
   4bed8:	15c00104 	addi	r23,r2,4
   4bedc:	803ee116 	blt	r16,zero,4ba64 <___svfiprintf_internal_r+0x4c8>
   4bee0:	b0800007 	ldb	r2,0(r22)
   4bee4:	ddc00315 	stw	r23,12(sp)
   4bee8:	003de006 	br	4b66c <___svfiprintf_internal_r+0xd0>
   4beec:	b0800007 	ldb	r2,0(r22)
   4bef0:	e7000054 	ori	fp,fp,1
   4bef4:	003ddd06 	br	4b66c <___svfiprintf_internal_r+0xd0>
   4bef8:	d8c00947 	ldb	r3,37(sp)
   4befc:	b0800003 	ldbu	r2,0(r22)
   4bf00:	1800091e 	bne	r3,zero,4bf28 <___svfiprintf_internal_r+0x98c>
   4bf04:	10803fcc 	andi	r2,r2,255
   4bf08:	00c00804 	movi	r3,32
   4bf0c:	1080201c 	xori	r2,r2,128
   4bf10:	d8c00945 	stb	r3,37(sp)
   4bf14:	10bfe004 	addi	r2,r2,-128
   4bf18:	003dd406 	br	4b66c <___svfiprintf_internal_r+0xd0>
   4bf1c:	b0800043 	ldbu	r2,1(r22)
   4bf20:	e7000814 	ori	fp,fp,32
   4bf24:	b5800044 	addi	r22,r22,1
   4bf28:	10803fcc 	andi	r2,r2,255
   4bf2c:	1080201c 	xori	r2,r2,128
   4bf30:	10bfe004 	addi	r2,r2,-128
   4bf34:	003dcd06 	br	4b66c <___svfiprintf_internal_r+0xd0>
   4bf38:	882f883a 	mov	r23,r17
   4bf3c:	9809883a 	mov	r4,r19
   4bf40:	a00b883a 	mov	r5,r20
   4bf44:	01800284 	movi	r6,10
   4bf48:	000f883a 	mov	r7,zero
   4bf4c:	db800715 	stw	r14,28(sp)
   4bf50:	da400615 	stw	r9,24(sp)
   4bf54:	da000415 	stw	r8,16(sp)
   4bf58:	004fcf40 	call	4fcf4 <__umoddi3>
   4bf5c:	10800c04 	addi	r2,r2,48
   4bf60:	9809883a 	mov	r4,r19
   4bf64:	a00b883a 	mov	r5,r20
   4bf68:	b8bfffc5 	stb	r2,-1(r23)
   4bf6c:	01800284 	movi	r6,10
   4bf70:	000f883a 	mov	r7,zero
   4bf74:	004f71c0 	call	4f71c <__udivdi3>
   4bf78:	a009883a 	mov	r4,r20
   4bf7c:	980b883a 	mov	r5,r19
   4bf80:	da000417 	ldw	r8,16(sp)
   4bf84:	da400617 	ldw	r9,24(sp)
   4bf88:	db800717 	ldw	r14,28(sp)
   4bf8c:	bdffffc4 	addi	r23,r23,-1
   4bf90:	1027883a 	mov	r19,r2
   4bf94:	1829883a 	mov	r20,r3
   4bf98:	203fe81e 	bne	r4,zero,4bf3c <___svfiprintf_internal_r+0x9a0>
   4bf9c:	294002a8 	cmpgeui	r5,r5,10
   4bfa0:	283fe61e 	bne	r5,zero,4bf3c <___svfiprintf_internal_r+0x9a0>
   4bfa4:	8de9c83a 	sub	r20,r17,r23
   4bfa8:	9027883a 	mov	r19,r18
   4bfac:	953f350e 	bge	r18,r20,4bc84 <___svfiprintf_internal_r+0x6e8>
   4bfb0:	a027883a 	mov	r19,r20
   4bfb4:	003f3306 	br	4bc84 <___svfiprintf_internal_r+0x6e8>
   4bfb8:	84c7c83a 	sub	r3,r16,r19
   4bfbc:	00fe450e 	bge	zero,r3,4b8d4 <___svfiprintf_internal_r+0x338>
   4bfc0:	01000174 	movhi	r4,5
   4bfc4:	21156204 	addi	r4,r4,21896
   4bfc8:	d9000415 	stw	r4,16(sp)
   4bfcc:	19000450 	cmplti	r4,r3,17
   4bfd0:	01c00404 	movi	r7,16
   4bfd4:	20000526 	beq	r4,zero,4bfec <___svfiprintf_internal_r+0xa50>
   4bfd8:	00001b06 	br	4c048 <___svfiprintf_internal_r+0xaac>
   4bfdc:	18fffc04 	addi	r3,r3,-16
   4bfe0:	19000448 	cmpgei	r4,r3,17
   4bfe4:	42000204 	addi	r8,r8,8
   4bfe8:	20001726 	beq	r4,zero,4c048 <___svfiprintf_internal_r+0xaac>
   4bfec:	d9000417 	ldw	r4,16(sp)
   4bff0:	10800044 	addi	r2,r2,1
   4bff4:	4a400404 	addi	r9,r9,16
   4bff8:	41000015 	stw	r4,0(r8)
   4bffc:	41c00115 	stw	r7,4(r8)
   4c000:	da400c15 	stw	r9,48(sp)
   4c004:	d8800b15 	stw	r2,44(sp)
   4c008:	11000208 	cmpgei	r4,r2,8
   4c00c:	203ff326 	beq	r4,zero,4bfdc <___svfiprintf_internal_r+0xa40>
   4c010:	d9400017 	ldw	r5,0(sp)
   4c014:	d9000117 	ldw	r4,4(sp)
   4c018:	d9800a04 	addi	r6,sp,40
   4c01c:	d8c00615 	stw	r3,24(sp)
   4c020:	004b3cc0 	call	4b3cc <__ssprint_r>
   4c024:	103e451e 	bne	r2,zero,4b93c <___svfiprintf_internal_r+0x3a0>
   4c028:	d8c00617 	ldw	r3,24(sp)
   4c02c:	da400c17 	ldw	r9,48(sp)
   4c030:	d8800b17 	ldw	r2,44(sp)
   4c034:	18fffc04 	addi	r3,r3,-16
   4c038:	19000448 	cmpgei	r4,r3,17
   4c03c:	8811883a 	mov	r8,r17
   4c040:	01c00404 	movi	r7,16
   4c044:	203fe91e 	bne	r4,zero,4bfec <___svfiprintf_internal_r+0xa50>
   4c048:	d9000417 	ldw	r4,16(sp)
   4c04c:	10800044 	addi	r2,r2,1
   4c050:	48d3883a 	add	r9,r9,r3
   4c054:	40c00115 	stw	r3,4(r8)
   4c058:	41000015 	stw	r4,0(r8)
   4c05c:	da400c15 	stw	r9,48(sp)
   4c060:	d8800b15 	stw	r2,44(sp)
   4c064:	10c00208 	cmpgei	r3,r2,8
   4c068:	18010f1e 	bne	r3,zero,4c4a8 <___svfiprintf_internal_r+0xf0c>
   4c06c:	9525c83a 	sub	r18,r18,r20
   4c070:	42000204 	addi	r8,r8,8
   4c074:	04be190e 	bge	zero,r18,4b8dc <___svfiprintf_internal_r+0x340>
   4c078:	90c00450 	cmplti	r3,r18,17
   4c07c:	1801201e 	bne	r3,zero,4c500 <___svfiprintf_internal_r+0xf64>
   4c080:	dd400415 	stw	r21,16(sp)
   4c084:	01c00404 	movi	r7,16
   4c088:	00000406 	br	4c09c <___svfiprintf_internal_r+0xb00>
   4c08c:	94bffc04 	addi	r18,r18,-16
   4c090:	90c00448 	cmpgei	r3,r18,17
   4c094:	42000204 	addi	r8,r8,8
   4c098:	18001426 	beq	r3,zero,4c0ec <___svfiprintf_internal_r+0xb50>
   4c09c:	10800044 	addi	r2,r2,1
   4c0a0:	4a400404 	addi	r9,r9,16
   4c0a4:	45400015 	stw	r21,0(r8)
   4c0a8:	41c00115 	stw	r7,4(r8)
   4c0ac:	da400c15 	stw	r9,48(sp)
   4c0b0:	d8800b15 	stw	r2,44(sp)
   4c0b4:	10c00208 	cmpgei	r3,r2,8
   4c0b8:	183ff426 	beq	r3,zero,4c08c <___svfiprintf_internal_r+0xaf0>
   4c0bc:	d9400017 	ldw	r5,0(sp)
   4c0c0:	d9000117 	ldw	r4,4(sp)
   4c0c4:	d9800a04 	addi	r6,sp,40
   4c0c8:	004b3cc0 	call	4b3cc <__ssprint_r>
   4c0cc:	103e1b1e 	bne	r2,zero,4b93c <___svfiprintf_internal_r+0x3a0>
   4c0d0:	94bffc04 	addi	r18,r18,-16
   4c0d4:	90c00448 	cmpgei	r3,r18,17
   4c0d8:	da400c17 	ldw	r9,48(sp)
   4c0dc:	d8800b17 	ldw	r2,44(sp)
   4c0e0:	8811883a 	mov	r8,r17
   4c0e4:	01c00404 	movi	r7,16
   4c0e8:	183fec1e 	bne	r3,zero,4c09c <___svfiprintf_internal_r+0xb00>
   4c0ec:	d8c00417 	ldw	r3,16(sp)
   4c0f0:	10800044 	addi	r2,r2,1
   4c0f4:	4c93883a 	add	r9,r9,r18
   4c0f8:	40c00015 	stw	r3,0(r8)
   4c0fc:	44800115 	stw	r18,4(r8)
   4c100:	da400c15 	stw	r9,48(sp)
   4c104:	d8800b15 	stw	r2,44(sp)
   4c108:	10c00208 	cmpgei	r3,r2,8
   4c10c:	1800691e 	bne	r3,zero,4c2b4 <___svfiprintf_internal_r+0xd18>
   4c110:	42000204 	addi	r8,r8,8
   4c114:	003df106 	br	4b8dc <___svfiprintf_internal_r+0x340>
   4c118:	d9400017 	ldw	r5,0(sp)
   4c11c:	d9000117 	ldw	r4,4(sp)
   4c120:	d9800a04 	addi	r6,sp,40
   4c124:	004b3cc0 	call	4b3cc <__ssprint_r>
   4c128:	103e041e 	bne	r2,zero,4b93c <___svfiprintf_internal_r+0x3a0>
   4c12c:	da400c17 	ldw	r9,48(sp)
   4c130:	8811883a 	mov	r8,r17
   4c134:	003df206 	br	4b900 <___svfiprintf_internal_r+0x364>
   4c138:	d9400017 	ldw	r5,0(sp)
   4c13c:	d9000117 	ldw	r4,4(sp)
   4c140:	d9800a04 	addi	r6,sp,40
   4c144:	004b3cc0 	call	4b3cc <__ssprint_r>
   4c148:	103dfc1e 	bne	r2,zero,4b93c <___svfiprintf_internal_r+0x3a0>
   4c14c:	da400c17 	ldw	r9,48(sp)
   4c150:	003df506 	br	4b928 <___svfiprintf_internal_r+0x38c>
   4c154:	01c00174 	movhi	r7,5
   4c158:	19000450 	cmplti	r4,r3,17
   4c15c:	39d56604 	addi	r7,r7,21912
   4c160:	02800404 	movi	r10,16
   4c164:	20000526 	beq	r4,zero,4c17c <___svfiprintf_internal_r+0xbe0>
   4c168:	00002006 	br	4c1ec <___svfiprintf_internal_r+0xc50>
   4c16c:	18fffc04 	addi	r3,r3,-16
   4c170:	19000448 	cmpgei	r4,r3,17
   4c174:	42000204 	addi	r8,r8,8
   4c178:	20001c26 	beq	r4,zero,4c1ec <___svfiprintf_internal_r+0xc50>
   4c17c:	10800044 	addi	r2,r2,1
   4c180:	4a400404 	addi	r9,r9,16
   4c184:	41c00015 	stw	r7,0(r8)
   4c188:	42800115 	stw	r10,4(r8)
   4c18c:	da400c15 	stw	r9,48(sp)
   4c190:	d8800b15 	stw	r2,44(sp)
   4c194:	11000208 	cmpgei	r4,r2,8
   4c198:	203ff426 	beq	r4,zero,4c16c <___svfiprintf_internal_r+0xbd0>
   4c19c:	d9400017 	ldw	r5,0(sp)
   4c1a0:	d9000117 	ldw	r4,4(sp)
   4c1a4:	d9800a04 	addi	r6,sp,40
   4c1a8:	d9c00815 	stw	r7,32(sp)
   4c1ac:	d8c00715 	stw	r3,28(sp)
   4c1b0:	db800615 	stw	r14,24(sp)
   4c1b4:	dbc00415 	stw	r15,16(sp)
   4c1b8:	004b3cc0 	call	4b3cc <__ssprint_r>
   4c1bc:	103ddf1e 	bne	r2,zero,4b93c <___svfiprintf_internal_r+0x3a0>
   4c1c0:	d8c00717 	ldw	r3,28(sp)
   4c1c4:	da400c17 	ldw	r9,48(sp)
   4c1c8:	d8800b17 	ldw	r2,44(sp)
   4c1cc:	18fffc04 	addi	r3,r3,-16
   4c1d0:	19000448 	cmpgei	r4,r3,17
   4c1d4:	d9c00817 	ldw	r7,32(sp)
   4c1d8:	db800617 	ldw	r14,24(sp)
   4c1dc:	dbc00417 	ldw	r15,16(sp)
   4c1e0:	8811883a 	mov	r8,r17
   4c1e4:	02800404 	movi	r10,16
   4c1e8:	203fe41e 	bne	r4,zero,4c17c <___svfiprintf_internal_r+0xbe0>
   4c1ec:	10800044 	addi	r2,r2,1
   4c1f0:	48d3883a 	add	r9,r9,r3
   4c1f4:	40c00115 	stw	r3,4(r8)
   4c1f8:	41c00015 	stw	r7,0(r8)
   4c1fc:	da400c15 	stw	r9,48(sp)
   4c200:	d8800b15 	stw	r2,44(sp)
   4c204:	10c00208 	cmpgei	r3,r2,8
   4c208:	1800901e 	bne	r3,zero,4c44c <___svfiprintf_internal_r+0xeb0>
   4c20c:	42000204 	addi	r8,r8,8
   4c210:	003d9506 	br	4b868 <___svfiprintf_internal_r+0x2cc>
   4c214:	d9400017 	ldw	r5,0(sp)
   4c218:	d9000117 	ldw	r4,4(sp)
   4c21c:	d9800a04 	addi	r6,sp,40
   4c220:	db800415 	stw	r14,16(sp)
   4c224:	004b3cc0 	call	4b3cc <__ssprint_r>
   4c228:	103dc41e 	bne	r2,zero,4b93c <___svfiprintf_internal_r+0x3a0>
   4c22c:	da400c17 	ldw	r9,48(sp)
   4c230:	d8800b17 	ldw	r2,44(sp)
   4c234:	db800417 	ldw	r14,16(sp)
   4c238:	8811883a 	mov	r8,r17
   4c23c:	003da306 	br	4b8cc <___svfiprintf_internal_r+0x330>
   4c240:	d9400017 	ldw	r5,0(sp)
   4c244:	d9000117 	ldw	r4,4(sp)
   4c248:	d9800a04 	addi	r6,sp,40
   4c24c:	db800615 	stw	r14,24(sp)
   4c250:	dbc00415 	stw	r15,16(sp)
   4c254:	004b3cc0 	call	4b3cc <__ssprint_r>
   4c258:	103db81e 	bne	r2,zero,4b93c <___svfiprintf_internal_r+0x3a0>
   4c25c:	da400c17 	ldw	r9,48(sp)
   4c260:	d8800b17 	ldw	r2,44(sp)
   4c264:	db800617 	ldw	r14,24(sp)
   4c268:	dbc00417 	ldw	r15,16(sp)
   4c26c:	8811883a 	mov	r8,r17
   4c270:	003d8a06 	br	4b89c <___svfiprintf_internal_r+0x300>
   4c274:	d8c00317 	ldw	r3,12(sp)
   4c278:	2080040c 	andi	r2,r4,16
   4c27c:	1cc00017 	ldw	r19,0(r3)
   4c280:	18c00104 	addi	r3,r3,4
   4c284:	d8c00315 	stw	r3,12(sp)
   4c288:	1000031e 	bne	r2,zero,4c298 <___svfiprintf_internal_r+0xcfc>
   4c28c:	2080100c 	andi	r2,r4,64
   4c290:	10000126 	beq	r2,zero,4c298 <___svfiprintf_internal_r+0xcfc>
   4c294:	9cffffcc 	andi	r19,r19,65535
   4c298:	d8000945 	stb	zero,37(sp)
   4c29c:	90bfffd8 	cmpnei	r2,r18,-1
   4c2a0:	0029883a 	mov	r20,zero
   4c2a4:	103ee21e 	bne	r2,zero,4be30 <___svfiprintf_internal_r+0x894>
   4c2a8:	2039883a 	mov	fp,r4
   4c2ac:	001d883a 	mov	r14,zero
   4c2b0:	003e6a06 	br	4bc5c <___svfiprintf_internal_r+0x6c0>
   4c2b4:	d9400017 	ldw	r5,0(sp)
   4c2b8:	d9000117 	ldw	r4,4(sp)
   4c2bc:	d9800a04 	addi	r6,sp,40
   4c2c0:	004b3cc0 	call	4b3cc <__ssprint_r>
   4c2c4:	103d9d1e 	bne	r2,zero,4b93c <___svfiprintf_internal_r+0x3a0>
   4c2c8:	da400c17 	ldw	r9,48(sp)
   4c2cc:	d8800b17 	ldw	r2,44(sp)
   4c2d0:	8811883a 	mov	r8,r17
   4c2d4:	003d8106 	br	4b8dc <___svfiprintf_internal_r+0x340>
   4c2d8:	e009883a 	mov	r4,fp
   4c2dc:	00800084 	movi	r2,2
   4c2e0:	003ed406 	br	4be34 <___svfiprintf_internal_r+0x898>
   4c2e4:	d8000945 	stb	zero,37(sp)
   4c2e8:	90bfffd8 	cmpnei	r2,r18,-1
   4c2ec:	103e9526 	beq	r2,zero,4bd44 <___svfiprintf_internal_r+0x7a8>
   4c2f0:	00bfdfc4 	movi	r2,-129
   4c2f4:	e0b8703a 	and	fp,fp,r2
   4c2f8:	9000611e 	bne	r18,zero,4c480 <___svfiprintf_internal_r+0xee4>
   4c2fc:	0027883a 	mov	r19,zero
   4c300:	0029883a 	mov	r20,zero
   4c304:	882f883a 	mov	r23,r17
   4c308:	003d4f06 	br	4b848 <___svfiprintf_internal_r+0x2ac>
   4c30c:	0027883a 	mov	r19,zero
   4c310:	882f883a 	mov	r23,r17
   4c314:	003d4c06 	br	4b848 <___svfiprintf_internal_r+0x2ac>
   4c318:	e080040c 	andi	r2,fp,16
   4c31c:	1000391e 	bne	r2,zero,4c404 <___svfiprintf_internal_r+0xe68>
   4c320:	e340100c 	andi	r13,fp,64
   4c324:	68003726 	beq	r13,zero,4c404 <___svfiprintf_internal_r+0xe68>
   4c328:	d8800317 	ldw	r2,12(sp)
   4c32c:	d8c00217 	ldw	r3,8(sp)
   4c330:	10800017 	ldw	r2,0(r2)
   4c334:	10c0000d 	sth	r3,0(r2)
   4c338:	003e9c06 	br	4bdac <___svfiprintf_internal_r+0x810>
   4c33c:	a027883a 	mov	r19,r20
   4c340:	282f883a 	mov	r23,r5
   4c344:	003d4006 	br	4b848 <___svfiprintf_internal_r+0x2ac>
   4c348:	b809883a 	mov	r4,r23
   4c34c:	da000415 	stw	r8,16(sp)
   4c350:	d8c00315 	stw	r3,12(sp)
   4c354:	004b3340 	call	4b334 <strlen>
   4c358:	da000417 	ldw	r8,16(sp)
   4c35c:	da400617 	ldw	r9,24(sp)
   4c360:	1029883a 	mov	r20,r2
   4c364:	1027883a 	mov	r19,r2
   4c368:	003d3606 	br	4b844 <___svfiprintf_internal_r+0x2a8>
   4c36c:	e009883a 	mov	r4,fp
   4c370:	003ea506 	br	4be08 <___svfiprintf_internal_r+0x86c>
   4c374:	00c00174 	movhi	r3,5
   4c378:	18d4d304 	addi	r3,r3,21324
   4c37c:	d8c00515 	stw	r3,20(sp)
   4c380:	e0c0080c 	andi	r3,fp,32
   4c384:	18002426 	beq	r3,zero,4c418 <___svfiprintf_internal_r+0xe7c>
   4c388:	d8c00317 	ldw	r3,12(sp)
   4c38c:	1cc00017 	ldw	r19,0(r3)
   4c390:	1d000117 	ldw	r20,4(r3)
   4c394:	18c00204 	addi	r3,r3,8
   4c398:	d8c00315 	stw	r3,12(sp)
   4c39c:	e0c0004c 	andi	r3,fp,1
   4c3a0:	183e6526 	beq	r3,zero,4bd38 <___svfiprintf_internal_r+0x79c>
   4c3a4:	9d06b03a 	or	r3,r19,r20
   4c3a8:	183fce26 	beq	r3,zero,4c2e4 <___svfiprintf_internal_r+0xd48>
   4c3ac:	00c00c04 	movi	r3,48
   4c3b0:	d88009c5 	stb	r2,39(sp)
   4c3b4:	d8c00985 	stb	r3,38(sp)
   4c3b8:	d8000945 	stb	zero,37(sp)
   4c3bc:	90bfffd8 	cmpnei	r2,r18,-1
   4c3c0:	10004b1e 	bne	r2,zero,4c4f0 <___svfiprintf_internal_r+0xf54>
   4c3c4:	e7000094 	ori	fp,fp,2
   4c3c8:	003e5e06 	br	4bd44 <___svfiprintf_internal_r+0x7a8>
   4c3cc:	00c00174 	movhi	r3,5
   4c3d0:	18d4d804 	addi	r3,r3,21344
   4c3d4:	d8c00515 	stw	r3,20(sp)
   4c3d8:	003fe906 	br	4c380 <___svfiprintf_internal_r+0xde4>
   4c3dc:	01401004 	movi	r5,64
   4c3e0:	00421240 	call	42124 <_malloc_r>
   4c3e4:	d8c00017 	ldw	r3,0(sp)
   4c3e8:	18800015 	stw	r2,0(r3)
   4c3ec:	18800415 	stw	r2,16(r3)
   4c3f0:	10005226 	beq	r2,zero,4c53c <___svfiprintf_internal_r+0xfa0>
   4c3f4:	d8c00017 	ldw	r3,0(sp)
   4c3f8:	00801004 	movi	r2,64
   4c3fc:	18800515 	stw	r2,20(r3)
   4c400:	003c7a06 	br	4b5ec <___svfiprintf_internal_r+0x50>
   4c404:	d8800317 	ldw	r2,12(sp)
   4c408:	d8c00217 	ldw	r3,8(sp)
   4c40c:	10800017 	ldw	r2,0(r2)
   4c410:	10c00015 	stw	r3,0(r2)
   4c414:	003e6506 	br	4bdac <___svfiprintf_internal_r+0x810>
   4c418:	d9000317 	ldw	r4,12(sp)
   4c41c:	e0c0040c 	andi	r3,fp,16
   4c420:	24c00017 	ldw	r19,0(r4)
   4c424:	21000104 	addi	r4,r4,4
   4c428:	d9000315 	stw	r4,12(sp)
   4c42c:	1800051e 	bne	r3,zero,4c444 <___svfiprintf_internal_r+0xea8>
   4c430:	e0c0100c 	andi	r3,fp,64
   4c434:	18000326 	beq	r3,zero,4c444 <___svfiprintf_internal_r+0xea8>
   4c438:	9cffffcc 	andi	r19,r19,65535
   4c43c:	0029883a 	mov	r20,zero
   4c440:	003fd606 	br	4c39c <___svfiprintf_internal_r+0xe00>
   4c444:	0029883a 	mov	r20,zero
   4c448:	003fd406 	br	4c39c <___svfiprintf_internal_r+0xe00>
   4c44c:	d9400017 	ldw	r5,0(sp)
   4c450:	d9000117 	ldw	r4,4(sp)
   4c454:	d9800a04 	addi	r6,sp,40
   4c458:	db800615 	stw	r14,24(sp)
   4c45c:	dbc00415 	stw	r15,16(sp)
   4c460:	004b3cc0 	call	4b3cc <__ssprint_r>
   4c464:	103d351e 	bne	r2,zero,4b93c <___svfiprintf_internal_r+0x3a0>
   4c468:	da400c17 	ldw	r9,48(sp)
   4c46c:	d8800b17 	ldw	r2,44(sp)
   4c470:	db800617 	ldw	r14,24(sp)
   4c474:	dbc00417 	ldw	r15,16(sp)
   4c478:	8811883a 	mov	r8,r17
   4c47c:	003cfa06 	br	4b868 <___svfiprintf_internal_r+0x2cc>
   4c480:	0027883a 	mov	r19,zero
   4c484:	0029883a 	mov	r20,zero
   4c488:	003e2e06 	br	4bd44 <___svfiprintf_internal_r+0x7a8>
   4c48c:	10c00060 	cmpeqi	r3,r2,1
   4c490:	1800301e 	bne	r3,zero,4c554 <___svfiprintf_internal_r+0xfb8>
   4c494:	108000a0 	cmpeqi	r2,r2,2
   4c498:	103ff91e 	bne	r2,zero,4c480 <___svfiprintf_internal_r+0xee4>
   4c49c:	0027883a 	mov	r19,zero
   4c4a0:	0029883a 	mov	r20,zero
   4c4a4:	003d5706 	br	4ba04 <___svfiprintf_internal_r+0x468>
   4c4a8:	d9400017 	ldw	r5,0(sp)
   4c4ac:	d9000117 	ldw	r4,4(sp)
   4c4b0:	d9800a04 	addi	r6,sp,40
   4c4b4:	004b3cc0 	call	4b3cc <__ssprint_r>
   4c4b8:	103d201e 	bne	r2,zero,4b93c <___svfiprintf_internal_r+0x3a0>
   4c4bc:	da400c17 	ldw	r9,48(sp)
   4c4c0:	d8800b17 	ldw	r2,44(sp)
   4c4c4:	8811883a 	mov	r8,r17
   4c4c8:	003d0206 	br	4b8d4 <___svfiprintf_internal_r+0x338>
   4c4cc:	908001f0 	cmpltui	r2,r18,7
   4c4d0:	9029883a 	mov	r20,r18
   4c4d4:	1000011e 	bne	r2,zero,4c4dc <___svfiprintf_internal_r+0xf40>
   4c4d8:	05000184 	movi	r20,6
   4c4dc:	05c00174 	movhi	r23,5
   4c4e0:	a027883a 	mov	r19,r20
   4c4e4:	d8c00315 	stw	r3,12(sp)
   4c4e8:	bdd4dd04 	addi	r23,r23,21364
   4c4ec:	003cd506 	br	4b844 <___svfiprintf_internal_r+0x2a8>
   4c4f0:	00bfdfc4 	movi	r2,-129
   4c4f4:	e084703a 	and	r2,fp,r2
   4c4f8:	17000094 	ori	fp,r2,2
   4c4fc:	003e1106 	br	4bd44 <___svfiprintf_internal_r+0x7a8>
   4c500:	00c00174 	movhi	r3,5
   4c504:	18d56204 	addi	r3,r3,21896
   4c508:	d8c00415 	stw	r3,16(sp)
   4c50c:	003ef706 	br	4c0ec <___svfiprintf_internal_r+0xb50>
   4c510:	d9400017 	ldw	r5,0(sp)
   4c514:	d9000117 	ldw	r4,4(sp)
   4c518:	d9800a04 	addi	r6,sp,40
   4c51c:	004b3cc0 	call	4b3cc <__ssprint_r>
   4c520:	003d0606 	br	4b93c <___svfiprintf_internal_r+0x3a0>
   4c524:	9027883a 	mov	r19,r18
   4c528:	d8c00315 	stw	r3,12(sp)
   4c52c:	9029883a 	mov	r20,r18
   4c530:	003cc406 	br	4b844 <___svfiprintf_internal_r+0x2a8>
   4c534:	04c00c04 	movi	r19,48
   4c538:	003dcc06 	br	4bc6c <___svfiprintf_internal_r+0x6d0>
   4c53c:	d8c00117 	ldw	r3,4(sp)
   4c540:	00800304 	movi	r2,12
   4c544:	18800015 	stw	r2,0(r3)
   4c548:	00bfffc4 	movi	r2,-1
   4c54c:	d8800215 	stw	r2,8(sp)
   4c550:	003cfe06 	br	4b94c <___svfiprintf_internal_r+0x3b0>
   4c554:	001d883a 	mov	r14,zero
   4c558:	04c00c04 	movi	r19,48
   4c55c:	003dc306 	br	4bc6c <___svfiprintf_internal_r+0x6d0>
   4c560:	d8800317 	ldw	r2,12(sp)
   4c564:	14800017 	ldw	r18,0(r2)
   4c568:	15c00104 	addi	r23,r2,4
   4c56c:	9000010e 	bge	r18,zero,4c574 <___svfiprintf_internal_r+0xfd8>
   4c570:	04bfffc4 	movi	r18,-1
   4c574:	b0800043 	ldbu	r2,1(r22)
   4c578:	ddc00315 	stw	r23,12(sp)
   4c57c:	182d883a 	mov	r22,r3
   4c580:	10803fcc 	andi	r2,r2,255
   4c584:	1080201c 	xori	r2,r2,128
   4c588:	10bfe004 	addi	r2,r2,-128
   4c58c:	003c3706 	br	4b66c <___svfiprintf_internal_r+0xd0>
   4c590:	001d883a 	mov	r14,zero
   4c594:	003db106 	br	4bc5c <___svfiprintf_internal_r+0x6c0>

0004c598 <__sprint_r.part.0>:
   4c598:	28801917 	ldw	r2,100(r5)
   4c59c:	defff604 	addi	sp,sp,-40
   4c5a0:	dcc00315 	stw	r19,12(sp)
   4c5a4:	dfc00915 	stw	ra,36(sp)
   4c5a8:	df000815 	stw	fp,32(sp)
   4c5ac:	ddc00715 	stw	r23,28(sp)
   4c5b0:	dd800615 	stw	r22,24(sp)
   4c5b4:	dd400515 	stw	r21,20(sp)
   4c5b8:	dd000415 	stw	r20,16(sp)
   4c5bc:	dc800215 	stw	r18,8(sp)
   4c5c0:	dc400115 	stw	r17,4(sp)
   4c5c4:	dc000015 	stw	r16,0(sp)
   4c5c8:	1088000c 	andi	r2,r2,8192
   4c5cc:	3027883a 	mov	r19,r6
   4c5d0:	10002c26 	beq	r2,zero,4c684 <__sprint_r.part.0+0xec>
   4c5d4:	30800217 	ldw	r2,8(r6)
   4c5d8:	35000017 	ldw	r20,0(r6)
   4c5dc:	2821883a 	mov	r16,r5
   4c5e0:	2023883a 	mov	r17,r4
   4c5e4:	05bfff04 	movi	r22,-4
   4c5e8:	10002426 	beq	r2,zero,4c67c <__sprint_r.part.0+0xe4>
   4c5ec:	a5400117 	ldw	r21,4(r20)
   4c5f0:	a5c00017 	ldw	r23,0(r20)
   4c5f4:	a824d0ba 	srli	r18,r21,2
   4c5f8:	90001b26 	beq	r18,zero,4c668 <__sprint_r.part.0+0xd0>
   4c5fc:	0039883a 	mov	fp,zero
   4c600:	00000206 	br	4c60c <__sprint_r.part.0+0x74>
   4c604:	bdc00104 	addi	r23,r23,4
   4c608:	97001626 	beq	r18,fp,4c664 <__sprint_r.part.0+0xcc>
   4c60c:	b9400017 	ldw	r5,0(r23)
   4c610:	800d883a 	mov	r6,r16
   4c614:	8809883a 	mov	r4,r17
   4c618:	004df700 	call	4df70 <_fputwc_r>
   4c61c:	10bfffe0 	cmpeqi	r2,r2,-1
   4c620:	e7000044 	addi	fp,fp,1
   4c624:	103ff726 	beq	r2,zero,4c604 <__sprint_r.part.0+0x6c>
   4c628:	00bfffc4 	movi	r2,-1
   4c62c:	98000215 	stw	zero,8(r19)
   4c630:	98000115 	stw	zero,4(r19)
   4c634:	dfc00917 	ldw	ra,36(sp)
   4c638:	df000817 	ldw	fp,32(sp)
   4c63c:	ddc00717 	ldw	r23,28(sp)
   4c640:	dd800617 	ldw	r22,24(sp)
   4c644:	dd400517 	ldw	r21,20(sp)
   4c648:	dd000417 	ldw	r20,16(sp)
   4c64c:	dcc00317 	ldw	r19,12(sp)
   4c650:	dc800217 	ldw	r18,8(sp)
   4c654:	dc400117 	ldw	r17,4(sp)
   4c658:	dc000017 	ldw	r16,0(sp)
   4c65c:	dec00a04 	addi	sp,sp,40
   4c660:	f800283a 	ret
   4c664:	98800217 	ldw	r2,8(r19)
   4c668:	adaa703a 	and	r21,r21,r22
   4c66c:	1545c83a 	sub	r2,r2,r21
   4c670:	98800215 	stw	r2,8(r19)
   4c674:	a5000204 	addi	r20,r20,8
   4c678:	103fdc1e 	bne	r2,zero,4c5ec <__sprint_r.part.0+0x54>
   4c67c:	0005883a 	mov	r2,zero
   4c680:	003fea06 	br	4c62c <__sprint_r.part.0+0x94>
   4c684:	004e06c0 	call	4e06c <__sfvwrite_r>
   4c688:	003fe806 	br	4c62c <__sprint_r.part.0+0x94>

0004c68c <__sprint_r>:
   4c68c:	30c00217 	ldw	r3,8(r6)
   4c690:	18000126 	beq	r3,zero,4c698 <__sprint_r+0xc>
   4c694:	004c5981 	jmpi	4c598 <__sprint_r.part.0>
   4c698:	30000115 	stw	zero,4(r6)
   4c69c:	0005883a 	mov	r2,zero
   4c6a0:	f800283a 	ret

0004c6a4 <___vfiprintf_internal_r>:
   4c6a4:	deffcf04 	addi	sp,sp,-196
   4c6a8:	dd002b15 	stw	r20,172(sp)
   4c6ac:	dc802915 	stw	r18,164(sp)
   4c6b0:	dfc03015 	stw	ra,192(sp)
   4c6b4:	df002f15 	stw	fp,188(sp)
   4c6b8:	ddc02e15 	stw	r23,184(sp)
   4c6bc:	dd802d15 	stw	r22,180(sp)
   4c6c0:	dd402c15 	stw	r21,176(sp)
   4c6c4:	dcc02a15 	stw	r19,168(sp)
   4c6c8:	dc402815 	stw	r17,160(sp)
   4c6cc:	dc002715 	stw	r16,156(sp)
   4c6d0:	d9000015 	stw	r4,0(sp)
   4c6d4:	d9c00315 	stw	r7,12(sp)
   4c6d8:	2825883a 	mov	r18,r5
   4c6dc:	3029883a 	mov	r20,r6
   4c6e0:	20000226 	beq	r4,zero,4c6ec <___vfiprintf_internal_r+0x48>
   4c6e4:	20800e17 	ldw	r2,56(r4)
   4c6e8:	1001b726 	beq	r2,zero,4cdc8 <___vfiprintf_internal_r+0x724>
   4c6ec:	9080030b 	ldhu	r2,12(r18)
   4c6f0:	10c8000c 	andi	r3,r2,8192
   4c6f4:	1800071e 	bne	r3,zero,4c714 <___vfiprintf_internal_r+0x70>
   4c6f8:	90c01917 	ldw	r3,100(r18)
   4c6fc:	11080014 	ori	r4,r2,8192
   4c700:	00b7ffc4 	movi	r2,-8193
   4c704:	1886703a 	and	r3,r3,r2
   4c708:	9100030d 	sth	r4,12(r18)
   4c70c:	2005883a 	mov	r2,r4
   4c710:	90c01915 	stw	r3,100(r18)
   4c714:	10c0020c 	andi	r3,r2,8
   4c718:	1800ff26 	beq	r3,zero,4cb18 <___vfiprintf_internal_r+0x474>
   4c71c:	90c00417 	ldw	r3,16(r18)
   4c720:	1800fd26 	beq	r3,zero,4cb18 <___vfiprintf_internal_r+0x474>
   4c724:	1080068c 	andi	r2,r2,26
   4c728:	10800298 	cmpnei	r2,r2,10
   4c72c:	10010226 	beq	r2,zero,4cb38 <___vfiprintf_internal_r+0x494>
   4c730:	dcc01704 	addi	r19,sp,92
   4c734:	05c00174 	movhi	r23,5
   4c738:	dcc00a15 	stw	r19,40(sp)
   4c73c:	d8000c15 	stw	zero,48(sp)
   4c740:	d8000b15 	stw	zero,44(sp)
   4c744:	9811883a 	mov	r8,r19
   4c748:	d8000515 	stw	zero,20(sp)
   4c74c:	d8000115 	stw	zero,4(sp)
   4c750:	bdd56a04 	addi	r23,r23,21928
   4c754:	a0800007 	ldb	r2,0(r20)
   4c758:	1000dd26 	beq	r2,zero,4cad0 <___vfiprintf_internal_r+0x42c>
   4c75c:	a021883a 	mov	r16,r20
   4c760:	00000306 	br	4c770 <___vfiprintf_internal_r+0xcc>
   4c764:	80800047 	ldb	r2,1(r16)
   4c768:	84000044 	addi	r16,r16,1
   4c76c:	10011a26 	beq	r2,zero,4cbd8 <___vfiprintf_internal_r+0x534>
   4c770:	10800958 	cmpnei	r2,r2,37
   4c774:	103ffb1e 	bne	r2,zero,4c764 <___vfiprintf_internal_r+0xc0>
   4c778:	8523c83a 	sub	r17,r16,r20
   4c77c:	8501181e 	bne	r16,r20,4cbe0 <___vfiprintf_internal_r+0x53c>
   4c780:	80800003 	ldbu	r2,0(r16)
   4c784:	10803fcc 	andi	r2,r2,255
   4c788:	1080201c 	xori	r2,r2,128
   4c78c:	10bfe004 	addi	r2,r2,-128
   4c790:	1000cf26 	beq	r2,zero,4cad0 <___vfiprintf_internal_r+0x42c>
   4c794:	80800047 	ldb	r2,1(r16)
   4c798:	85000044 	addi	r20,r16,1
   4c79c:	d8000945 	stb	zero,37(sp)
   4c7a0:	027fffc4 	movi	r9,-1
   4c7a4:	0023883a 	mov	r17,zero
   4c7a8:	0021883a 	mov	r16,zero
   4c7ac:	a5000044 	addi	r20,r20,1
   4c7b0:	10fff804 	addi	r3,r2,-32
   4c7b4:	19001668 	cmpgeui	r4,r3,89
   4c7b8:	20006c1e 	bne	r4,zero,4c96c <___vfiprintf_internal_r+0x2c8>
   4c7bc:	180690ba 	slli	r3,r3,2
   4c7c0:	01000174 	movhi	r4,5
   4c7c4:	1909883a 	add	r4,r3,r4
   4c7c8:	20f1f417 	ldw	r3,-14384(r4)
   4c7cc:	1800683a 	jmp	r3
   4c7d0:	0004ce74 	movhi	zero,4921
   4c7d4:	0004c96c 	andhi	zero,zero,4901
   4c7d8:	0004c96c 	andhi	zero,zero,4901
   4c7dc:	0004ce68 	cmpgeui	zero,zero,4921
   4c7e0:	0004c96c 	andhi	zero,zero,4901
   4c7e4:	0004c96c 	andhi	zero,zero,4901
   4c7e8:	0004c96c 	andhi	zero,zero,4901
   4c7ec:	0004c96c 	andhi	zero,zero,4901
   4c7f0:	0004c96c 	andhi	zero,zero,4901
   4c7f4:	0004c96c 	andhi	zero,zero,4901
   4c7f8:	0004cddc 	xori	zero,zero,4919
   4c7fc:	0004ce58 	cmpnei	zero,zero,4921
   4c800:	0004c96c 	andhi	zero,zero,4901
   4c804:	0004cdf4 	movhi	zero,4919
   4c808:	0004ce00 	call	4ce0 <__reset-0x3b320>
   4c80c:	0004c96c 	andhi	zero,zero,4901
   4c810:	0004ce4c 	andi	zero,zero,4921
   4c814:	0004c934 	movhi	zero,4900
   4c818:	0004c934 	movhi	zero,4900
   4c81c:	0004c934 	movhi	zero,4900
   4c820:	0004c934 	movhi	zero,4900
   4c824:	0004c934 	movhi	zero,4900
   4c828:	0004c934 	movhi	zero,4900
   4c82c:	0004c934 	movhi	zero,4900
   4c830:	0004c934 	movhi	zero,4900
   4c834:	0004c934 	movhi	zero,4900
   4c838:	0004c96c 	andhi	zero,zero,4901
   4c83c:	0004c96c 	andhi	zero,zero,4901
   4c840:	0004c96c 	andhi	zero,zero,4901
   4c844:	0004c96c 	andhi	zero,zero,4901
   4c848:	0004c96c 	andhi	zero,zero,4901
   4c84c:	0004c96c 	andhi	zero,zero,4901
   4c850:	0004c96c 	andhi	zero,zero,4901
   4c854:	0004c96c 	andhi	zero,zero,4901
   4c858:	0004c96c 	andhi	zero,zero,4901
   4c85c:	0004c96c 	andhi	zero,zero,4901
   4c860:	0004cb80 	call	4cb8 <__reset-0x3b348>
   4c864:	0004c96c 	andhi	zero,zero,4901
   4c868:	0004c96c 	andhi	zero,zero,4901
   4c86c:	0004c96c 	andhi	zero,zero,4901
   4c870:	0004c96c 	andhi	zero,zero,4901
   4c874:	0004c96c 	andhi	zero,zero,4901
   4c878:	0004c96c 	andhi	zero,zero,4901
   4c87c:	0004c96c 	andhi	zero,zero,4901
   4c880:	0004c96c 	andhi	zero,zero,4901
   4c884:	0004c96c 	andhi	zero,zero,4901
   4c888:	0004c96c 	andhi	zero,zero,4901
   4c88c:	0004cf90 	cmplti	zero,zero,4926
   4c890:	0004c96c 	andhi	zero,zero,4901
   4c894:	0004c96c 	andhi	zero,zero,4901
   4c898:	0004c96c 	andhi	zero,zero,4901
   4c89c:	0004c96c 	andhi	zero,zero,4901
   4c8a0:	0004c96c 	andhi	zero,zero,4901
   4c8a4:	0004cf2c 	andhi	zero,zero,4924
   4c8a8:	0004c96c 	andhi	zero,zero,4901
   4c8ac:	0004c96c 	andhi	zero,zero,4901
   4c8b0:	0004d704 	movi	zero,4956
   4c8b4:	0004c96c 	andhi	zero,zero,4901
   4c8b8:	0004c96c 	andhi	zero,zero,4901
   4c8bc:	0004c96c 	andhi	zero,zero,4901
   4c8c0:	0004c96c 	andhi	zero,zero,4901
   4c8c4:	0004c96c 	andhi	zero,zero,4901
   4c8c8:	0004c96c 	andhi	zero,zero,4901
   4c8cc:	0004c96c 	andhi	zero,zero,4901
   4c8d0:	0004c96c 	andhi	zero,zero,4901
   4c8d4:	0004c96c 	andhi	zero,zero,4901
   4c8d8:	0004c96c 	andhi	zero,zero,4901
   4c8dc:	0004cf04 	movi	zero,4924
   4c8e0:	0004cb84 	movi	zero,4910
   4c8e4:	0004c96c 	andhi	zero,zero,4901
   4c8e8:	0004c96c 	andhi	zero,zero,4901
   4c8ec:	0004c96c 	andhi	zero,zero,4901
   4c8f0:	0004cef8 	rdprs	zero,zero,4923
   4c8f4:	0004cb84 	movi	zero,4910
   4c8f8:	0004c96c 	andhi	zero,zero,4901
   4c8fc:	0004c96c 	andhi	zero,zero,4901
   4c900:	0004cee4 	muli	zero,zero,4923
   4c904:	0004c96c 	andhi	zero,zero,4901
   4c908:	0004ceb4 	movhi	zero,4922
   4c90c:	0004d760 	cmpeqi	zero,zero,4957
   4c910:	0004d0a4 	muli	zero,zero,4930
   4c914:	0004d098 	cmpnei	zero,zero,4930
   4c918:	0004c96c 	andhi	zero,zero,4901
   4c91c:	0004d040 	call	4d04 <__reset-0x3b2fc>
   4c920:	0004c96c 	andhi	zero,zero,4901
   4c924:	0004d6fc 	xorhi	zero,zero,4955
   4c928:	0004c96c 	andhi	zero,zero,4901
   4c92c:	0004c96c 	andhi	zero,zero,4901
   4c930:	0004d78c 	andi	zero,zero,4958
   4c934:	0023883a 	mov	r17,zero
   4c938:	113ff404 	addi	r4,r2,-48
   4c93c:	880690ba 	slli	r3,r17,2
   4c940:	a0800007 	ldb	r2,0(r20)
   4c944:	a5000044 	addi	r20,r20,1
   4c948:	1c47883a 	add	r3,r3,r17
   4c94c:	18c7883a 	add	r3,r3,r3
   4c950:	20e3883a 	add	r17,r4,r3
   4c954:	113ff404 	addi	r4,r2,-48
   4c958:	20c002b0 	cmpltui	r3,r4,10
   4c95c:	183ff71e 	bne	r3,zero,4c93c <___vfiprintf_internal_r+0x298>
   4c960:	10fff804 	addi	r3,r2,-32
   4c964:	19001668 	cmpgeui	r4,r3,89
   4c968:	203f9426 	beq	r4,zero,4c7bc <___vfiprintf_internal_r+0x118>
   4c96c:	10005826 	beq	r2,zero,4cad0 <___vfiprintf_internal_r+0x42c>
   4c970:	d8800d05 	stb	r2,52(sp)
   4c974:	d8000945 	stb	zero,37(sp)
   4c978:	05800044 	movi	r22,1
   4c97c:	05400044 	movi	r21,1
   4c980:	df000d04 	addi	fp,sp,52
   4c984:	0013883a 	mov	r9,zero
   4c988:	8340008c 	andi	r13,r16,2
   4c98c:	68000126 	beq	r13,zero,4c994 <___vfiprintf_internal_r+0x2f0>
   4c990:	b5800084 	addi	r22,r22,2
   4c994:	d9000b17 	ldw	r4,44(sp)
   4c998:	8300210c 	andi	r12,r16,132
   4c99c:	d8800c17 	ldw	r2,48(sp)
   4c9a0:	21800044 	addi	r6,r4,1
   4c9a4:	300b883a 	mov	r5,r6
   4c9a8:	6000021e 	bne	r12,zero,4c9b4 <___vfiprintf_internal_r+0x310>
   4c9ac:	8d87c83a 	sub	r3,r17,r22
   4c9b0:	00c29116 	blt	zero,r3,4d3f8 <___vfiprintf_internal_r+0xd54>
   4c9b4:	d8c00947 	ldb	r3,37(sp)
   4c9b8:	18000c26 	beq	r3,zero,4c9ec <___vfiprintf_internal_r+0x348>
   4c9bc:	d8c00944 	addi	r3,sp,37
   4c9c0:	10800044 	addi	r2,r2,1
   4c9c4:	40c00015 	stw	r3,0(r8)
   4c9c8:	00c00044 	movi	r3,1
   4c9cc:	40c00115 	stw	r3,4(r8)
   4c9d0:	d8800c15 	stw	r2,48(sp)
   4c9d4:	d9400b15 	stw	r5,44(sp)
   4c9d8:	28c00208 	cmpgei	r3,r5,8
   4c9dc:	18026a1e 	bne	r3,zero,4d388 <___vfiprintf_internal_r+0xce4>
   4c9e0:	2809883a 	mov	r4,r5
   4c9e4:	42000204 	addi	r8,r8,8
   4c9e8:	29400044 	addi	r5,r5,1
   4c9ec:	68001726 	beq	r13,zero,4ca4c <___vfiprintf_internal_r+0x3a8>
   4c9f0:	d8c00984 	addi	r3,sp,38
   4c9f4:	10800084 	addi	r2,r2,2
   4c9f8:	40c00015 	stw	r3,0(r8)
   4c9fc:	00c00084 	movi	r3,2
   4ca00:	40c00115 	stw	r3,4(r8)
   4ca04:	d8800c15 	stw	r2,48(sp)
   4ca08:	d9400b15 	stw	r5,44(sp)
   4ca0c:	28c00208 	cmpgei	r3,r5,8
   4ca10:	18027526 	beq	r3,zero,4d3e8 <___vfiprintf_internal_r+0xd44>
   4ca14:	1002f826 	beq	r2,zero,4d5f8 <___vfiprintf_internal_r+0xf54>
   4ca18:	d9000017 	ldw	r4,0(sp)
   4ca1c:	d9800a04 	addi	r6,sp,40
   4ca20:	900b883a 	mov	r5,r18
   4ca24:	da400415 	stw	r9,16(sp)
   4ca28:	db000215 	stw	r12,8(sp)
   4ca2c:	004c5980 	call	4c598 <__sprint_r.part.0>
   4ca30:	1000291e 	bne	r2,zero,4cad8 <___vfiprintf_internal_r+0x434>
   4ca34:	d9000b17 	ldw	r4,44(sp)
   4ca38:	d8800c17 	ldw	r2,48(sp)
   4ca3c:	da400417 	ldw	r9,16(sp)
   4ca40:	db000217 	ldw	r12,8(sp)
   4ca44:	9811883a 	mov	r8,r19
   4ca48:	21400044 	addi	r5,r4,1
   4ca4c:	63002018 	cmpnei	r12,r12,128
   4ca50:	6001d126 	beq	r12,zero,4d198 <___vfiprintf_internal_r+0xaf4>
   4ca54:	4d53c83a 	sub	r9,r9,r21
   4ca58:	02420f16 	blt	zero,r9,4d298 <___vfiprintf_internal_r+0xbf4>
   4ca5c:	a885883a 	add	r2,r21,r2
   4ca60:	d9400b15 	stw	r5,44(sp)
   4ca64:	47000015 	stw	fp,0(r8)
   4ca68:	45400115 	stw	r21,4(r8)
   4ca6c:	d8800c15 	stw	r2,48(sp)
   4ca70:	29400208 	cmpgei	r5,r5,8
   4ca74:	2801c226 	beq	r5,zero,4d180 <___vfiprintf_internal_r+0xadc>
   4ca78:	10007126 	beq	r2,zero,4cc40 <___vfiprintf_internal_r+0x59c>
   4ca7c:	d9000017 	ldw	r4,0(sp)
   4ca80:	d9800a04 	addi	r6,sp,40
   4ca84:	900b883a 	mov	r5,r18
   4ca88:	004c5980 	call	4c598 <__sprint_r.part.0>
   4ca8c:	1000121e 	bne	r2,zero,4cad8 <___vfiprintf_internal_r+0x434>
   4ca90:	d8800c17 	ldw	r2,48(sp)
   4ca94:	9811883a 	mov	r8,r19
   4ca98:	8400010c 	andi	r16,r16,4
   4ca9c:	80000226 	beq	r16,zero,4caa8 <___vfiprintf_internal_r+0x404>
   4caa0:	8da1c83a 	sub	r16,r17,r22
   4caa4:	04006c16 	blt	zero,r16,4cc58 <___vfiprintf_internal_r+0x5b4>
   4caa8:	8d80010e 	bge	r17,r22,4cab0 <___vfiprintf_internal_r+0x40c>
   4caac:	b023883a 	mov	r17,r22
   4cab0:	d8c00117 	ldw	r3,4(sp)
   4cab4:	1c47883a 	add	r3,r3,r17
   4cab8:	d8c00115 	stw	r3,4(sp)
   4cabc:	1002281e 	bne	r2,zero,4d360 <___vfiprintf_internal_r+0xcbc>
   4cac0:	a0800007 	ldb	r2,0(r20)
   4cac4:	d8000b15 	stw	zero,44(sp)
   4cac8:	9811883a 	mov	r8,r19
   4cacc:	103f231e 	bne	r2,zero,4c75c <___vfiprintf_internal_r+0xb8>
   4cad0:	d8800c17 	ldw	r2,48(sp)
   4cad4:	1003651e 	bne	r2,zero,4d86c <___vfiprintf_internal_r+0x11c8>
   4cad8:	9080030b 	ldhu	r2,12(r18)
   4cadc:	1080100c 	andi	r2,r2,64
   4cae0:	1003761e 	bne	r2,zero,4d8bc <___vfiprintf_internal_r+0x1218>
   4cae4:	d8800117 	ldw	r2,4(sp)
   4cae8:	dfc03017 	ldw	ra,192(sp)
   4caec:	df002f17 	ldw	fp,188(sp)
   4caf0:	ddc02e17 	ldw	r23,184(sp)
   4caf4:	dd802d17 	ldw	r22,180(sp)
   4caf8:	dd402c17 	ldw	r21,176(sp)
   4cafc:	dd002b17 	ldw	r20,172(sp)
   4cb00:	dcc02a17 	ldw	r19,168(sp)
   4cb04:	dc802917 	ldw	r18,164(sp)
   4cb08:	dc402817 	ldw	r17,160(sp)
   4cb0c:	dc002717 	ldw	r16,156(sp)
   4cb10:	dec03104 	addi	sp,sp,196
   4cb14:	f800283a 	ret
   4cb18:	d9000017 	ldw	r4,0(sp)
   4cb1c:	900b883a 	mov	r5,r18
   4cb20:	00475980 	call	47598 <__swsetup_r>
   4cb24:	1003651e 	bne	r2,zero,4d8bc <___vfiprintf_internal_r+0x1218>
   4cb28:	9080030b 	ldhu	r2,12(r18)
   4cb2c:	1080068c 	andi	r2,r2,26
   4cb30:	10800298 	cmpnei	r2,r2,10
   4cb34:	103efe1e 	bne	r2,zero,4c730 <___vfiprintf_internal_r+0x8c>
   4cb38:	9080038f 	ldh	r2,14(r18)
   4cb3c:	103efc16 	blt	r2,zero,4c730 <___vfiprintf_internal_r+0x8c>
   4cb40:	d9c00317 	ldw	r7,12(sp)
   4cb44:	d9000017 	ldw	r4,0(sp)
   4cb48:	a00d883a 	mov	r6,r20
   4cb4c:	900b883a 	mov	r5,r18
   4cb50:	dfc03017 	ldw	ra,192(sp)
   4cb54:	df002f17 	ldw	fp,188(sp)
   4cb58:	ddc02e17 	ldw	r23,184(sp)
   4cb5c:	dd802d17 	ldw	r22,180(sp)
   4cb60:	dd402c17 	ldw	r21,176(sp)
   4cb64:	dd002b17 	ldw	r20,172(sp)
   4cb68:	dcc02a17 	ldw	r19,168(sp)
   4cb6c:	dc802917 	ldw	r18,164(sp)
   4cb70:	dc402817 	ldw	r17,160(sp)
   4cb74:	dc002717 	ldw	r16,156(sp)
   4cb78:	dec03104 	addi	sp,sp,196
   4cb7c:	004d9401 	jmpi	4d940 <__sbprintf>
   4cb80:	84000414 	ori	r16,r16,16
   4cb84:	8080080c 	andi	r2,r16,32
   4cb88:	10006626 	beq	r2,zero,4cd24 <___vfiprintf_internal_r+0x680>
   4cb8c:	d8c00317 	ldw	r3,12(sp)
   4cb90:	18800117 	ldw	r2,4(r3)
   4cb94:	1d800017 	ldw	r22,0(r3)
   4cb98:	18c00204 	addi	r3,r3,8
   4cb9c:	d8c00315 	stw	r3,12(sp)
   4cba0:	102b883a 	mov	r21,r2
   4cba4:	10006d16 	blt	r2,zero,4cd5c <___vfiprintf_internal_r+0x6b8>
   4cba8:	48bfffd8 	cmpnei	r2,r9,-1
   4cbac:	db000943 	ldbu	r12,37(sp)
   4cbb0:	10007526 	beq	r2,zero,4cd88 <___vfiprintf_internal_r+0x6e4>
   4cbb4:	00ffdfc4 	movi	r3,-129
   4cbb8:	b544b03a 	or	r2,r22,r21
   4cbbc:	80e0703a 	and	r16,r16,r3
   4cbc0:	1000711e 	bne	r2,zero,4cd88 <___vfiprintf_internal_r+0x6e4>
   4cbc4:	4803401e 	bne	r9,zero,4d8c8 <___vfiprintf_internal_r+0x1224>
   4cbc8:	002d883a 	mov	r22,zero
   4cbcc:	002b883a 	mov	r21,zero
   4cbd0:	9839883a 	mov	fp,r19
   4cbd4:	00007606 	br	4cdb0 <___vfiprintf_internal_r+0x70c>
   4cbd8:	8523c83a 	sub	r17,r16,r20
   4cbdc:	853fbc26 	beq	r16,r20,4cad0 <___vfiprintf_internal_r+0x42c>
   4cbe0:	d8c00c17 	ldw	r3,48(sp)
   4cbe4:	d8800b17 	ldw	r2,44(sp)
   4cbe8:	45000015 	stw	r20,0(r8)
   4cbec:	88c7883a 	add	r3,r17,r3
   4cbf0:	10800044 	addi	r2,r2,1
   4cbf4:	d8800b15 	stw	r2,44(sp)
   4cbf8:	44400115 	stw	r17,4(r8)
   4cbfc:	d8c00c15 	stw	r3,48(sp)
   4cc00:	10800208 	cmpgei	r2,r2,8
   4cc04:	1000061e 	bne	r2,zero,4cc20 <___vfiprintf_internal_r+0x57c>
   4cc08:	42000204 	addi	r8,r8,8
   4cc0c:	d8c00117 	ldw	r3,4(sp)
   4cc10:	80800003 	ldbu	r2,0(r16)
   4cc14:	1c47883a 	add	r3,r3,r17
   4cc18:	d8c00115 	stw	r3,4(sp)
   4cc1c:	003ed906 	br	4c784 <___vfiprintf_internal_r+0xe0>
   4cc20:	18025426 	beq	r3,zero,4d574 <___vfiprintf_internal_r+0xed0>
   4cc24:	d9000017 	ldw	r4,0(sp)
   4cc28:	d9800a04 	addi	r6,sp,40
   4cc2c:	900b883a 	mov	r5,r18
   4cc30:	004c5980 	call	4c598 <__sprint_r.part.0>
   4cc34:	103fa81e 	bne	r2,zero,4cad8 <___vfiprintf_internal_r+0x434>
   4cc38:	9811883a 	mov	r8,r19
   4cc3c:	003ff306 	br	4cc0c <___vfiprintf_internal_r+0x568>
   4cc40:	d8000b15 	stw	zero,44(sp)
   4cc44:	8400010c 	andi	r16,r16,4
   4cc48:	80022626 	beq	r16,zero,4d4e4 <___vfiprintf_internal_r+0xe40>
   4cc4c:	8da1c83a 	sub	r16,r17,r22
   4cc50:	0402240e 	bge	zero,r16,4d4e4 <___vfiprintf_internal_r+0xe40>
   4cc54:	9811883a 	mov	r8,r19
   4cc58:	80c00450 	cmplti	r3,r16,17
   4cc5c:	d9000b17 	ldw	r4,44(sp)
   4cc60:	01c00174 	movhi	r7,5
   4cc64:	18030d1e 	bne	r3,zero,4d89c <___vfiprintf_internal_r+0x11f8>
   4cc68:	39d56e04 	addi	r7,r7,21944
   4cc6c:	05400404 	movi	r21,16
   4cc70:	00000606 	br	4cc8c <___vfiprintf_internal_r+0x5e8>
   4cc74:	21400084 	addi	r5,r4,2
   4cc78:	42000204 	addi	r8,r8,8
   4cc7c:	1809883a 	mov	r4,r3
   4cc80:	843ffc04 	addi	r16,r16,-16
   4cc84:	80c00448 	cmpgei	r3,r16,17
   4cc88:	18001726 	beq	r3,zero,4cce8 <___vfiprintf_internal_r+0x644>
   4cc8c:	20c00044 	addi	r3,r4,1
   4cc90:	10800404 	addi	r2,r2,16
   4cc94:	41c00015 	stw	r7,0(r8)
   4cc98:	45400115 	stw	r21,4(r8)
   4cc9c:	d8800c15 	stw	r2,48(sp)
   4cca0:	d8c00b15 	stw	r3,44(sp)
   4cca4:	19400208 	cmpgei	r5,r3,8
   4cca8:	283ff226 	beq	r5,zero,4cc74 <___vfiprintf_internal_r+0x5d0>
   4ccac:	d9000017 	ldw	r4,0(sp)
   4ccb0:	d9800a04 	addi	r6,sp,40
   4ccb4:	900b883a 	mov	r5,r18
   4ccb8:	10013326 	beq	r2,zero,4d188 <___vfiprintf_internal_r+0xae4>
   4ccbc:	d9c00215 	stw	r7,8(sp)
   4ccc0:	004c5980 	call	4c598 <__sprint_r.part.0>
   4ccc4:	103f841e 	bne	r2,zero,4cad8 <___vfiprintf_internal_r+0x434>
   4ccc8:	d9000b17 	ldw	r4,44(sp)
   4cccc:	843ffc04 	addi	r16,r16,-16
   4ccd0:	80c00448 	cmpgei	r3,r16,17
   4ccd4:	d8800c17 	ldw	r2,48(sp)
   4ccd8:	d9c00217 	ldw	r7,8(sp)
   4ccdc:	9811883a 	mov	r8,r19
   4cce0:	21400044 	addi	r5,r4,1
   4cce4:	183fe91e 	bne	r3,zero,4cc8c <___vfiprintf_internal_r+0x5e8>
   4cce8:	1405883a 	add	r2,r2,r16
   4ccec:	d9400b15 	stw	r5,44(sp)
   4ccf0:	41c00015 	stw	r7,0(r8)
   4ccf4:	44000115 	stw	r16,4(r8)
   4ccf8:	d8800c15 	stw	r2,48(sp)
   4ccfc:	29400210 	cmplti	r5,r5,8
   4cd00:	283f691e 	bne	r5,zero,4caa8 <___vfiprintf_internal_r+0x404>
   4cd04:	1001f726 	beq	r2,zero,4d4e4 <___vfiprintf_internal_r+0xe40>
   4cd08:	d9000017 	ldw	r4,0(sp)
   4cd0c:	d9800a04 	addi	r6,sp,40
   4cd10:	900b883a 	mov	r5,r18
   4cd14:	004c5980 	call	4c598 <__sprint_r.part.0>
   4cd18:	103f6f1e 	bne	r2,zero,4cad8 <___vfiprintf_internal_r+0x434>
   4cd1c:	d8800c17 	ldw	r2,48(sp)
   4cd20:	003f6106 	br	4caa8 <___vfiprintf_internal_r+0x404>
   4cd24:	d8c00317 	ldw	r3,12(sp)
   4cd28:	8080040c 	andi	r2,r16,16
   4cd2c:	1d800017 	ldw	r22,0(r3)
   4cd30:	18c00104 	addi	r3,r3,4
   4cd34:	d8c00315 	stw	r3,12(sp)
   4cd38:	1000251e 	bne	r2,zero,4cdd0 <___vfiprintf_internal_r+0x72c>
   4cd3c:	8080100c 	andi	r2,r16,64
   4cd40:	10002326 	beq	r2,zero,4cdd0 <___vfiprintf_internal_r+0x72c>
   4cd44:	b5bfffcc 	andi	r22,r22,65535
   4cd48:	b5a0001c 	xori	r22,r22,32768
   4cd4c:	b5a00004 	addi	r22,r22,-32768
   4cd50:	b02bd7fa 	srai	r21,r22,31
   4cd54:	a805883a 	mov	r2,r21
   4cd58:	103f930e 	bge	r2,zero,4cba8 <___vfiprintf_internal_r+0x504>
   4cd5c:	00800b44 	movi	r2,45
   4cd60:	b006c03a 	cmpne	r3,r22,zero
   4cd64:	056bc83a 	sub	r21,zero,r21
   4cd68:	d8800945 	stb	r2,37(sp)
   4cd6c:	48bfffd8 	cmpnei	r2,r9,-1
   4cd70:	a8ebc83a 	sub	r21,r21,r3
   4cd74:	05adc83a 	sub	r22,zero,r22
   4cd78:	10000226 	beq	r2,zero,4cd84 <___vfiprintf_internal_r+0x6e0>
   4cd7c:	00bfdfc4 	movi	r2,-129
   4cd80:	80a0703a 	and	r16,r16,r2
   4cd84:	03000b44 	movi	r12,45
   4cd88:	a800d61e 	bne	r21,zero,4d0e4 <___vfiprintf_internal_r+0xa40>
   4cd8c:	b08002a8 	cmpgeui	r2,r22,10
   4cd90:	1000d41e 	bne	r2,zero,4d0e4 <___vfiprintf_internal_r+0xa40>
   4cd94:	b5800c04 	addi	r22,r22,48
   4cd98:	dd8016c5 	stb	r22,91(sp)
   4cd9c:	482d883a 	mov	r22,r9
   4cda0:	02400116 	blt	zero,r9,4cda8 <___vfiprintf_internal_r+0x704>
   4cda4:	05800044 	movi	r22,1
   4cda8:	05400044 	movi	r21,1
   4cdac:	df0016c4 	addi	fp,sp,91
   4cdb0:	63003fcc 	andi	r12,r12,255
   4cdb4:	6300201c 	xori	r12,r12,128
   4cdb8:	633fe004 	addi	r12,r12,-128
   4cdbc:	603ef226 	beq	r12,zero,4c988 <___vfiprintf_internal_r+0x2e4>
   4cdc0:	b5800044 	addi	r22,r22,1
   4cdc4:	003ef006 	br	4c988 <___vfiprintf_internal_r+0x2e4>
   4cdc8:	00497140 	call	49714 <__sinit>
   4cdcc:	003e4706 	br	4c6ec <___vfiprintf_internal_r+0x48>
   4cdd0:	b02bd7fa 	srai	r21,r22,31
   4cdd4:	a805883a 	mov	r2,r21
   4cdd8:	003f7206 	br	4cba4 <___vfiprintf_internal_r+0x500>
   4cddc:	d8800317 	ldw	r2,12(sp)
   4cde0:	14400017 	ldw	r17,0(r2)
   4cde4:	17000104 	addi	fp,r2,4
   4cde8:	8802220e 	bge	r17,zero,4d674 <___vfiprintf_internal_r+0xfd0>
   4cdec:	0463c83a 	sub	r17,zero,r17
   4cdf0:	df000315 	stw	fp,12(sp)
   4cdf4:	a0800007 	ldb	r2,0(r20)
   4cdf8:	84000114 	ori	r16,r16,4
   4cdfc:	003e6b06 	br	4c7ac <___vfiprintf_internal_r+0x108>
   4ce00:	a0800007 	ldb	r2,0(r20)
   4ce04:	a0c00044 	addi	r3,r20,1
   4ce08:	11000aa0 	cmpeqi	r4,r2,42
   4ce0c:	2002b31e 	bne	r4,zero,4d8dc <___vfiprintf_internal_r+0x1238>
   4ce10:	113ff404 	addi	r4,r2,-48
   4ce14:	214002b0 	cmpltui	r5,r4,10
   4ce18:	1829883a 	mov	r20,r3
   4ce1c:	0013883a 	mov	r9,zero
   4ce20:	283e6326 	beq	r5,zero,4c7b0 <___vfiprintf_internal_r+0x10c>
   4ce24:	480690ba 	slli	r3,r9,2
   4ce28:	a0800007 	ldb	r2,0(r20)
   4ce2c:	a5000044 	addi	r20,r20,1
   4ce30:	1a47883a 	add	r3,r3,r9
   4ce34:	18c7883a 	add	r3,r3,r3
   4ce38:	1913883a 	add	r9,r3,r4
   4ce3c:	113ff404 	addi	r4,r2,-48
   4ce40:	20c002b0 	cmpltui	r3,r4,10
   4ce44:	183ff71e 	bne	r3,zero,4ce24 <___vfiprintf_internal_r+0x780>
   4ce48:	003e5906 	br	4c7b0 <___vfiprintf_internal_r+0x10c>
   4ce4c:	a0800007 	ldb	r2,0(r20)
   4ce50:	84002014 	ori	r16,r16,128
   4ce54:	003e5506 	br	4c7ac <___vfiprintf_internal_r+0x108>
   4ce58:	00c00ac4 	movi	r3,43
   4ce5c:	a0800007 	ldb	r2,0(r20)
   4ce60:	d8c00945 	stb	r3,37(sp)
   4ce64:	003e5106 	br	4c7ac <___vfiprintf_internal_r+0x108>
   4ce68:	a0800007 	ldb	r2,0(r20)
   4ce6c:	84000054 	ori	r16,r16,1
   4ce70:	003e4e06 	br	4c7ac <___vfiprintf_internal_r+0x108>
   4ce74:	d8c00947 	ldb	r3,37(sp)
   4ce78:	a0800003 	ldbu	r2,0(r20)
   4ce7c:	1800091e 	bne	r3,zero,4cea4 <___vfiprintf_internal_r+0x800>
   4ce80:	10803fcc 	andi	r2,r2,255
   4ce84:	00c00804 	movi	r3,32
   4ce88:	1080201c 	xori	r2,r2,128
   4ce8c:	d8c00945 	stb	r3,37(sp)
   4ce90:	10bfe004 	addi	r2,r2,-128
   4ce94:	003e4506 	br	4c7ac <___vfiprintf_internal_r+0x108>
   4ce98:	a0800043 	ldbu	r2,1(r20)
   4ce9c:	84000814 	ori	r16,r16,32
   4cea0:	a5000044 	addi	r20,r20,1
   4cea4:	10803fcc 	andi	r2,r2,255
   4cea8:	1080201c 	xori	r2,r2,128
   4ceac:	10bfe004 	addi	r2,r2,-128
   4ceb0:	003e3e06 	br	4c7ac <___vfiprintf_internal_r+0x108>
   4ceb4:	8080080c 	andi	r2,r16,32
   4ceb8:	1001f826 	beq	r2,zero,4d69c <___vfiprintf_internal_r+0xff8>
   4cebc:	d9000117 	ldw	r4,4(sp)
   4cec0:	d8800317 	ldw	r2,12(sp)
   4cec4:	2007d7fa 	srai	r3,r4,31
   4cec8:	10800017 	ldw	r2,0(r2)
   4cecc:	11000015 	stw	r4,0(r2)
   4ced0:	10c00115 	stw	r3,4(r2)
   4ced4:	d8800317 	ldw	r2,12(sp)
   4ced8:	10800104 	addi	r2,r2,4
   4cedc:	d8800315 	stw	r2,12(sp)
   4cee0:	003e1c06 	br	4c754 <___vfiprintf_internal_r+0xb0>
   4cee4:	a0800007 	ldb	r2,0(r20)
   4cee8:	10c01b18 	cmpnei	r3,r2,108
   4ceec:	183fea26 	beq	r3,zero,4ce98 <___vfiprintf_internal_r+0x7f4>
   4cef0:	84000414 	ori	r16,r16,16
   4cef4:	003e2d06 	br	4c7ac <___vfiprintf_internal_r+0x108>
   4cef8:	a0800007 	ldb	r2,0(r20)
   4cefc:	84001014 	ori	r16,r16,64
   4cf00:	003e2a06 	br	4c7ac <___vfiprintf_internal_r+0x108>
   4cf04:	d8c00317 	ldw	r3,12(sp)
   4cf08:	d8000945 	stb	zero,37(sp)
   4cf0c:	05800044 	movi	r22,1
   4cf10:	18800017 	ldw	r2,0(r3)
   4cf14:	18c00104 	addi	r3,r3,4
   4cf18:	d8c00315 	stw	r3,12(sp)
   4cf1c:	d8800d05 	stb	r2,52(sp)
   4cf20:	05400044 	movi	r21,1
   4cf24:	df000d04 	addi	fp,sp,52
   4cf28:	003e9606 	br	4c984 <___vfiprintf_internal_r+0x2e0>
   4cf2c:	80800414 	ori	r2,r16,16
   4cf30:	10c0080c 	andi	r3,r2,32
   4cf34:	18019126 	beq	r3,zero,4d57c <___vfiprintf_internal_r+0xed8>
   4cf38:	d8c00317 	ldw	r3,12(sp)
   4cf3c:	d8000945 	stb	zero,37(sp)
   4cf40:	1d800017 	ldw	r22,0(r3)
   4cf44:	1d400117 	ldw	r21,4(r3)
   4cf48:	18c00204 	addi	r3,r3,8
   4cf4c:	d8c00315 	stw	r3,12(sp)
   4cf50:	48ffffd8 	cmpnei	r3,r9,-1
   4cf54:	18019626 	beq	r3,zero,4d5b0 <___vfiprintf_internal_r+0xf0c>
   4cf58:	00c00044 	movi	r3,1
   4cf5c:	043fdfc4 	movi	r16,-129
   4cf60:	b548b03a 	or	r4,r22,r21
   4cf64:	1420703a 	and	r16,r2,r16
   4cf68:	2000191e 	bne	r4,zero,4cfd0 <___vfiprintf_internal_r+0x92c>
   4cf6c:	4802221e 	bne	r9,zero,4d7f8 <___vfiprintf_internal_r+0x1154>
   4cf70:	1801bc1e 	bne	r3,zero,4d664 <___vfiprintf_internal_r+0xfc0>
   4cf74:	1540004c 	andi	r21,r2,1
   4cf78:	a801c126 	beq	r21,zero,4d680 <___vfiprintf_internal_r+0xfdc>
   4cf7c:	00800c04 	movi	r2,48
   4cf80:	d88016c5 	stb	r2,91(sp)
   4cf84:	a82d883a 	mov	r22,r21
   4cf88:	df0016c4 	addi	fp,sp,91
   4cf8c:	003e7e06 	br	4c988 <___vfiprintf_internal_r+0x2e4>
   4cf90:	80800414 	ori	r2,r16,16
   4cf94:	10c0080c 	andi	r3,r2,32
   4cf98:	18018826 	beq	r3,zero,4d5bc <___vfiprintf_internal_r+0xf18>
   4cf9c:	d8c00317 	ldw	r3,12(sp)
   4cfa0:	d8000945 	stb	zero,37(sp)
   4cfa4:	1d800017 	ldw	r22,0(r3)
   4cfa8:	1d400117 	ldw	r21,4(r3)
   4cfac:	18c00204 	addi	r3,r3,8
   4cfb0:	d8c00315 	stw	r3,12(sp)
   4cfb4:	48ffffd8 	cmpnei	r3,r9,-1
   4cfb8:	18018d26 	beq	r3,zero,4d5f0 <___vfiprintf_internal_r+0xf4c>
   4cfbc:	043fdfc4 	movi	r16,-129
   4cfc0:	b548b03a 	or	r4,r22,r21
   4cfc4:	0007883a 	mov	r3,zero
   4cfc8:	1420703a 	and	r16,r2,r16
   4cfcc:	203fe726 	beq	r4,zero,4cf6c <___vfiprintf_internal_r+0x8c8>
   4cfd0:	18800060 	cmpeqi	r2,r3,1
   4cfd4:	1002511e 	bne	r2,zero,4d91c <___vfiprintf_internal_r+0x1278>
   4cfd8:	18c000a0 	cmpeqi	r3,r3,2
   4cfdc:	1801481e 	bne	r3,zero,4d500 <___vfiprintf_internal_r+0xe5c>
   4cfe0:	9839883a 	mov	fp,r19
   4cfe4:	a808977a 	slli	r4,r21,29
   4cfe8:	b006d0fa 	srli	r3,r22,3
   4cfec:	a82ad0fa 	srli	r21,r21,3
   4cff0:	b08001cc 	andi	r2,r22,7
   4cff4:	10800c04 	addi	r2,r2,48
   4cff8:	20ecb03a 	or	r22,r4,r3
   4cffc:	e0bfffc5 	stb	r2,-1(fp)
   4d000:	b546b03a 	or	r3,r22,r21
   4d004:	e00b883a 	mov	r5,fp
   4d008:	e73fffc4 	addi	fp,fp,-1
   4d00c:	183ff51e 	bne	r3,zero,4cfe4 <___vfiprintf_internal_r+0x940>
   4d010:	80c0004c 	andi	r3,r16,1
   4d014:	18014726 	beq	r3,zero,4d534 <___vfiprintf_internal_r+0xe90>
   4d018:	10800c18 	cmpnei	r2,r2,48
   4d01c:	10014526 	beq	r2,zero,4d534 <___vfiprintf_internal_r+0xe90>
   4d020:	297fff84 	addi	r5,r5,-2
   4d024:	00800c04 	movi	r2,48
   4d028:	e0bfffc5 	stb	r2,-1(fp)
   4d02c:	996bc83a 	sub	r21,r19,r5
   4d030:	482d883a 	mov	r22,r9
   4d034:	4d41a616 	blt	r9,r21,4d6d0 <___vfiprintf_internal_r+0x102c>
   4d038:	2839883a 	mov	fp,r5
   4d03c:	003e5206 	br	4c988 <___vfiprintf_internal_r+0x2e4>
   4d040:	d8800317 	ldw	r2,12(sp)
   4d044:	d8000945 	stb	zero,37(sp)
   4d048:	17000017 	ldw	fp,0(r2)
   4d04c:	10c00104 	addi	r3,r2,4
   4d050:	e001f026 	beq	fp,zero,4d814 <___vfiprintf_internal_r+0x1170>
   4d054:	48bfffe0 	cmpeqi	r2,r9,-1
   4d058:	1001a01e 	bne	r2,zero,4d6dc <___vfiprintf_internal_r+0x1038>
   4d05c:	480d883a 	mov	r6,r9
   4d060:	000b883a 	mov	r5,zero
   4d064:	e009883a 	mov	r4,fp
   4d068:	d8c00415 	stw	r3,16(sp)
   4d06c:	da000315 	stw	r8,12(sp)
   4d070:	da400215 	stw	r9,8(sp)
   4d074:	0049f140 	call	49f14 <memchr>
   4d078:	da400217 	ldw	r9,8(sp)
   4d07c:	da000317 	ldw	r8,12(sp)
   4d080:	d8c00417 	ldw	r3,16(sp)
   4d084:	1001fe26 	beq	r2,zero,4d880 <___vfiprintf_internal_r+0x11dc>
   4d088:	172bc83a 	sub	r21,r2,fp
   4d08c:	a82d883a 	mov	r22,r21
   4d090:	d8c00315 	stw	r3,12(sp)
   4d094:	003e3b06 	br	4c984 <___vfiprintf_internal_r+0x2e0>
   4d098:	a0800007 	ldb	r2,0(r20)
   4d09c:	84000814 	ori	r16,r16,32
   4d0a0:	003dc206 	br	4c7ac <___vfiprintf_internal_r+0x108>
   4d0a4:	d9000317 	ldw	r4,12(sp)
   4d0a8:	00de0c04 	movi	r3,30768
   4d0ac:	01400174 	movhi	r5,5
   4d0b0:	d8c0098d 	sth	r3,38(sp)
   4d0b4:	25800017 	ldw	r22,0(r4)
   4d0b8:	20c00104 	addi	r3,r4,4
   4d0bc:	d8c00315 	stw	r3,12(sp)
   4d0c0:	28d4d804 	addi	r3,r5,21344
   4d0c4:	002b883a 	mov	r21,zero
   4d0c8:	80800094 	ori	r2,r16,2
   4d0cc:	d8c00515 	stw	r3,20(sp)
   4d0d0:	d8000945 	stb	zero,37(sp)
   4d0d4:	48ffffd8 	cmpnei	r3,r9,-1
   4d0d8:	18010826 	beq	r3,zero,4d4fc <___vfiprintf_internal_r+0xe58>
   4d0dc:	00c00084 	movi	r3,2
   4d0e0:	003f9e06 	br	4cf5c <___vfiprintf_internal_r+0x8b8>
   4d0e4:	9839883a 	mov	fp,r19
   4d0e8:	b009883a 	mov	r4,r22
   4d0ec:	a80b883a 	mov	r5,r21
   4d0f0:	01800284 	movi	r6,10
   4d0f4:	000f883a 	mov	r7,zero
   4d0f8:	db000615 	stw	r12,24(sp)
   4d0fc:	da000415 	stw	r8,16(sp)
   4d100:	da400215 	stw	r9,8(sp)
   4d104:	004fcf40 	call	4fcf4 <__umoddi3>
   4d108:	10800c04 	addi	r2,r2,48
   4d10c:	b009883a 	mov	r4,r22
   4d110:	a80b883a 	mov	r5,r21
   4d114:	e0bfffc5 	stb	r2,-1(fp)
   4d118:	01800284 	movi	r6,10
   4d11c:	000f883a 	mov	r7,zero
   4d120:	004f71c0 	call	4f71c <__udivdi3>
   4d124:	a809883a 	mov	r4,r21
   4d128:	b00b883a 	mov	r5,r22
   4d12c:	da400217 	ldw	r9,8(sp)
   4d130:	da000417 	ldw	r8,16(sp)
   4d134:	db000617 	ldw	r12,24(sp)
   4d138:	e73fffc4 	addi	fp,fp,-1
   4d13c:	102d883a 	mov	r22,r2
   4d140:	182b883a 	mov	r21,r3
   4d144:	203fe81e 	bne	r4,zero,4d0e8 <___vfiprintf_internal_r+0xa44>
   4d148:	294002a8 	cmpgeui	r5,r5,10
   4d14c:	283fe61e 	bne	r5,zero,4d0e8 <___vfiprintf_internal_r+0xa44>
   4d150:	9f2bc83a 	sub	r21,r19,fp
   4d154:	482d883a 	mov	r22,r9
   4d158:	4d7f150e 	bge	r9,r21,4cdb0 <___vfiprintf_internal_r+0x70c>
   4d15c:	a82d883a 	mov	r22,r21
   4d160:	003f1306 	br	4cdb0 <___vfiprintf_internal_r+0x70c>
   4d164:	00c00044 	movi	r3,1
   4d168:	a805883a 	mov	r2,r21
   4d16c:	df001715 	stw	fp,92(sp)
   4d170:	dd401815 	stw	r21,96(sp)
   4d174:	dd400c15 	stw	r21,48(sp)
   4d178:	d8c00b15 	stw	r3,44(sp)
   4d17c:	9811883a 	mov	r8,r19
   4d180:	42000204 	addi	r8,r8,8
   4d184:	003e4406 	br	4ca98 <___vfiprintf_internal_r+0x3f4>
   4d188:	01400044 	movi	r5,1
   4d18c:	0009883a 	mov	r4,zero
   4d190:	9811883a 	mov	r8,r19
   4d194:	003eba06 	br	4cc80 <___vfiprintf_internal_r+0x5dc>
   4d198:	8d87c83a 	sub	r3,r17,r22
   4d19c:	00fe2d0e 	bge	zero,r3,4ca54 <___vfiprintf_internal_r+0x3b0>
   4d1a0:	19800450 	cmplti	r6,r3,17
   4d1a4:	3001c01e 	bne	r6,zero,4d8a8 <___vfiprintf_internal_r+0x1204>
   4d1a8:	01400174 	movhi	r5,5
   4d1ac:	29556a04 	addi	r5,r5,21928
   4d1b0:	d9400415 	stw	r5,16(sp)
   4d1b4:	01c00404 	movi	r7,16
   4d1b8:	00000606 	br	4d1d4 <___vfiprintf_internal_r+0xb30>
   4d1bc:	21800084 	addi	r6,r4,2
   4d1c0:	42000204 	addi	r8,r8,8
   4d1c4:	2809883a 	mov	r4,r5
   4d1c8:	18fffc04 	addi	r3,r3,-16
   4d1cc:	19400448 	cmpgei	r5,r3,17
   4d1d0:	28001b26 	beq	r5,zero,4d240 <___vfiprintf_internal_r+0xb9c>
   4d1d4:	d9800417 	ldw	r6,16(sp)
   4d1d8:	21400044 	addi	r5,r4,1
   4d1dc:	10800404 	addi	r2,r2,16
   4d1e0:	41800015 	stw	r6,0(r8)
   4d1e4:	41c00115 	stw	r7,4(r8)
   4d1e8:	d8800c15 	stw	r2,48(sp)
   4d1ec:	d9400b15 	stw	r5,44(sp)
   4d1f0:	29800208 	cmpgei	r6,r5,8
   4d1f4:	303ff126 	beq	r6,zero,4d1bc <___vfiprintf_internal_r+0xb18>
   4d1f8:	d9000017 	ldw	r4,0(sp)
   4d1fc:	d9800a04 	addi	r6,sp,40
   4d200:	900b883a 	mov	r5,r18
   4d204:	10005c26 	beq	r2,zero,4d378 <___vfiprintf_internal_r+0xcd4>
   4d208:	d8c00615 	stw	r3,24(sp)
   4d20c:	da400215 	stw	r9,8(sp)
   4d210:	004c5980 	call	4c598 <__sprint_r.part.0>
   4d214:	103e301e 	bne	r2,zero,4cad8 <___vfiprintf_internal_r+0x434>
   4d218:	d8c00617 	ldw	r3,24(sp)
   4d21c:	d9000b17 	ldw	r4,44(sp)
   4d220:	d8800c17 	ldw	r2,48(sp)
   4d224:	18fffc04 	addi	r3,r3,-16
   4d228:	19400448 	cmpgei	r5,r3,17
   4d22c:	da400217 	ldw	r9,8(sp)
   4d230:	9811883a 	mov	r8,r19
   4d234:	21800044 	addi	r6,r4,1
   4d238:	01c00404 	movi	r7,16
   4d23c:	283fe51e 	bne	r5,zero,4d1d4 <___vfiprintf_internal_r+0xb30>
   4d240:	d9000417 	ldw	r4,16(sp)
   4d244:	10c5883a 	add	r2,r2,r3
   4d248:	40c00115 	stw	r3,4(r8)
   4d24c:	41000015 	stw	r4,0(r8)
   4d250:	d8800c15 	stw	r2,48(sp)
   4d254:	d9800b15 	stw	r6,44(sp)
   4d258:	30c00208 	cmpgei	r3,r6,8
   4d25c:	18010b26 	beq	r3,zero,4d68c <___vfiprintf_internal_r+0xfe8>
   4d260:	10017826 	beq	r2,zero,4d844 <___vfiprintf_internal_r+0x11a0>
   4d264:	d9000017 	ldw	r4,0(sp)
   4d268:	d9800a04 	addi	r6,sp,40
   4d26c:	900b883a 	mov	r5,r18
   4d270:	da400215 	stw	r9,8(sp)
   4d274:	004c5980 	call	4c598 <__sprint_r.part.0>
   4d278:	103e171e 	bne	r2,zero,4cad8 <___vfiprintf_internal_r+0x434>
   4d27c:	da400217 	ldw	r9,8(sp)
   4d280:	d9000b17 	ldw	r4,44(sp)
   4d284:	d8800c17 	ldw	r2,48(sp)
   4d288:	4d53c83a 	sub	r9,r9,r21
   4d28c:	9811883a 	mov	r8,r19
   4d290:	21400044 	addi	r5,r4,1
   4d294:	027df10e 	bge	zero,r9,4ca5c <___vfiprintf_internal_r+0x3b8>
   4d298:	48c00450 	cmplti	r3,r9,17
   4d29c:	1801651e 	bne	r3,zero,4d834 <___vfiprintf_internal_r+0x1190>
   4d2a0:	ddc00415 	stw	r23,16(sp)
   4d2a4:	01c00404 	movi	r7,16
   4d2a8:	00000606 	br	4d2c4 <___vfiprintf_internal_r+0xc20>
   4d2ac:	21400084 	addi	r5,r4,2
   4d2b0:	42000204 	addi	r8,r8,8
   4d2b4:	1809883a 	mov	r4,r3
   4d2b8:	4a7ffc04 	addi	r9,r9,-16
   4d2bc:	48c00448 	cmpgei	r3,r9,17
   4d2c0:	18001826 	beq	r3,zero,4d324 <___vfiprintf_internal_r+0xc80>
   4d2c4:	20c00044 	addi	r3,r4,1
   4d2c8:	10800404 	addi	r2,r2,16
   4d2cc:	45c00015 	stw	r23,0(r8)
   4d2d0:	41c00115 	stw	r7,4(r8)
   4d2d4:	d8800c15 	stw	r2,48(sp)
   4d2d8:	d8c00b15 	stw	r3,44(sp)
   4d2dc:	19400208 	cmpgei	r5,r3,8
   4d2e0:	283ff226 	beq	r5,zero,4d2ac <___vfiprintf_internal_r+0xc08>
   4d2e4:	d9000017 	ldw	r4,0(sp)
   4d2e8:	d9800a04 	addi	r6,sp,40
   4d2ec:	900b883a 	mov	r5,r18
   4d2f0:	10001726 	beq	r2,zero,4d350 <___vfiprintf_internal_r+0xcac>
   4d2f4:	da400215 	stw	r9,8(sp)
   4d2f8:	004c5980 	call	4c598 <__sprint_r.part.0>
   4d2fc:	103df61e 	bne	r2,zero,4cad8 <___vfiprintf_internal_r+0x434>
   4d300:	da400217 	ldw	r9,8(sp)
   4d304:	d9000b17 	ldw	r4,44(sp)
   4d308:	d8800c17 	ldw	r2,48(sp)
   4d30c:	4a7ffc04 	addi	r9,r9,-16
   4d310:	48c00448 	cmpgei	r3,r9,17
   4d314:	9811883a 	mov	r8,r19
   4d318:	21400044 	addi	r5,r4,1
   4d31c:	01c00404 	movi	r7,16
   4d320:	183fe81e 	bne	r3,zero,4d2c4 <___vfiprintf_internal_r+0xc20>
   4d324:	d8c00417 	ldw	r3,16(sp)
   4d328:	1245883a 	add	r2,r2,r9
   4d32c:	42400115 	stw	r9,4(r8)
   4d330:	40c00015 	stw	r3,0(r8)
   4d334:	d8800c15 	stw	r2,48(sp)
   4d338:	d9400b15 	stw	r5,44(sp)
   4d33c:	28c00208 	cmpgei	r3,r5,8
   4d340:	1800811e 	bne	r3,zero,4d548 <___vfiprintf_internal_r+0xea4>
   4d344:	42000204 	addi	r8,r8,8
   4d348:	29400044 	addi	r5,r5,1
   4d34c:	003dc306 	br	4ca5c <___vfiprintf_internal_r+0x3b8>
   4d350:	01400044 	movi	r5,1
   4d354:	0009883a 	mov	r4,zero
   4d358:	9811883a 	mov	r8,r19
   4d35c:	003fd606 	br	4d2b8 <___vfiprintf_internal_r+0xc14>
   4d360:	d9000017 	ldw	r4,0(sp)
   4d364:	d9800a04 	addi	r6,sp,40
   4d368:	900b883a 	mov	r5,r18
   4d36c:	004c5980 	call	4c598 <__sprint_r.part.0>
   4d370:	103dd326 	beq	r2,zero,4cac0 <___vfiprintf_internal_r+0x41c>
   4d374:	003dd806 	br	4cad8 <___vfiprintf_internal_r+0x434>
   4d378:	01800044 	movi	r6,1
   4d37c:	0009883a 	mov	r4,zero
   4d380:	9811883a 	mov	r8,r19
   4d384:	003f9006 	br	4d1c8 <___vfiprintf_internal_r+0xb24>
   4d388:	10001026 	beq	r2,zero,4d3cc <___vfiprintf_internal_r+0xd28>
   4d38c:	d9000017 	ldw	r4,0(sp)
   4d390:	d9800a04 	addi	r6,sp,40
   4d394:	900b883a 	mov	r5,r18
   4d398:	da400615 	stw	r9,24(sp)
   4d39c:	db000415 	stw	r12,16(sp)
   4d3a0:	db400215 	stw	r13,8(sp)
   4d3a4:	004c5980 	call	4c598 <__sprint_r.part.0>
   4d3a8:	103dcb1e 	bne	r2,zero,4cad8 <___vfiprintf_internal_r+0x434>
   4d3ac:	d9000b17 	ldw	r4,44(sp)
   4d3b0:	d8800c17 	ldw	r2,48(sp)
   4d3b4:	da400617 	ldw	r9,24(sp)
   4d3b8:	db000417 	ldw	r12,16(sp)
   4d3bc:	db400217 	ldw	r13,8(sp)
   4d3c0:	9811883a 	mov	r8,r19
   4d3c4:	21400044 	addi	r5,r4,1
   4d3c8:	003d8806 	br	4c9ec <___vfiprintf_internal_r+0x348>
   4d3cc:	6800bc26 	beq	r13,zero,4d6c0 <___vfiprintf_internal_r+0x101c>
   4d3d0:	d8800984 	addi	r2,sp,38
   4d3d4:	d8801715 	stw	r2,92(sp)
   4d3d8:	00800084 	movi	r2,2
   4d3dc:	d8801815 	stw	r2,96(sp)
   4d3e0:	01400044 	movi	r5,1
   4d3e4:	9811883a 	mov	r8,r19
   4d3e8:	2809883a 	mov	r4,r5
   4d3ec:	42000204 	addi	r8,r8,8
   4d3f0:	29400044 	addi	r5,r5,1
   4d3f4:	003d9506 	br	4ca4c <___vfiprintf_internal_r+0x3a8>
   4d3f8:	19400450 	cmplti	r5,r3,17
   4d3fc:	01c00174 	movhi	r7,5
   4d400:	2801231e 	bne	r5,zero,4d890 <___vfiprintf_internal_r+0x11ec>
   4d404:	39d56e04 	addi	r7,r7,21944
   4d408:	03800404 	movi	r14,16
   4d40c:	00000706 	br	4d42c <___vfiprintf_internal_r+0xd88>
   4d410:	23c00084 	addi	r15,r4,2
   4d414:	42000204 	addi	r8,r8,8
   4d418:	3009883a 	mov	r4,r6
   4d41c:	18fffc04 	addi	r3,r3,-16
   4d420:	19400448 	cmpgei	r5,r3,17
   4d424:	28002026 	beq	r5,zero,4d4a8 <___vfiprintf_internal_r+0xe04>
   4d428:	21800044 	addi	r6,r4,1
   4d42c:	10800404 	addi	r2,r2,16
   4d430:	41c00015 	stw	r7,0(r8)
   4d434:	43800115 	stw	r14,4(r8)
   4d438:	d8800c15 	stw	r2,48(sp)
   4d43c:	d9800b15 	stw	r6,44(sp)
   4d440:	31400208 	cmpgei	r5,r6,8
   4d444:	283ff226 	beq	r5,zero,4d410 <___vfiprintf_internal_r+0xd6c>
   4d448:	d9000017 	ldw	r4,0(sp)
   4d44c:	d9800a04 	addi	r6,sp,40
   4d450:	900b883a 	mov	r5,r18
   4d454:	10001f26 	beq	r2,zero,4d4d4 <___vfiprintf_internal_r+0xe30>
   4d458:	d9c00815 	stw	r7,32(sp)
   4d45c:	d8c00715 	stw	r3,28(sp)
   4d460:	da400615 	stw	r9,24(sp)
   4d464:	db000415 	stw	r12,16(sp)
   4d468:	db400215 	stw	r13,8(sp)
   4d46c:	004c5980 	call	4c598 <__sprint_r.part.0>
   4d470:	103d991e 	bne	r2,zero,4cad8 <___vfiprintf_internal_r+0x434>
   4d474:	d8c00717 	ldw	r3,28(sp)
   4d478:	d9000b17 	ldw	r4,44(sp)
   4d47c:	d8800c17 	ldw	r2,48(sp)
   4d480:	18fffc04 	addi	r3,r3,-16
   4d484:	19400448 	cmpgei	r5,r3,17
   4d488:	d9c00817 	ldw	r7,32(sp)
   4d48c:	da400617 	ldw	r9,24(sp)
   4d490:	db000417 	ldw	r12,16(sp)
   4d494:	db400217 	ldw	r13,8(sp)
   4d498:	9811883a 	mov	r8,r19
   4d49c:	23c00044 	addi	r15,r4,1
   4d4a0:	03800404 	movi	r14,16
   4d4a4:	283fe01e 	bne	r5,zero,4d428 <___vfiprintf_internal_r+0xd84>
   4d4a8:	10c5883a 	add	r2,r2,r3
   4d4ac:	40c00115 	stw	r3,4(r8)
   4d4b0:	41c00015 	stw	r7,0(r8)
   4d4b4:	d8800c15 	stw	r2,48(sp)
   4d4b8:	dbc00b15 	stw	r15,44(sp)
   4d4bc:	78c00208 	cmpgei	r3,r15,8
   4d4c0:	1800511e 	bne	r3,zero,4d608 <___vfiprintf_internal_r+0xf64>
   4d4c4:	42000204 	addi	r8,r8,8
   4d4c8:	79400044 	addi	r5,r15,1
   4d4cc:	7809883a 	mov	r4,r15
   4d4d0:	003d3806 	br	4c9b4 <___vfiprintf_internal_r+0x310>
   4d4d4:	0009883a 	mov	r4,zero
   4d4d8:	03c00044 	movi	r15,1
   4d4dc:	9811883a 	mov	r8,r19
   4d4e0:	003fce06 	br	4d41c <___vfiprintf_internal_r+0xd78>
   4d4e4:	8d80010e 	bge	r17,r22,4d4ec <___vfiprintf_internal_r+0xe48>
   4d4e8:	b023883a 	mov	r17,r22
   4d4ec:	d8800117 	ldw	r2,4(sp)
   4d4f0:	1445883a 	add	r2,r2,r17
   4d4f4:	d8800115 	stw	r2,4(sp)
   4d4f8:	003d7106 	br	4cac0 <___vfiprintf_internal_r+0x41c>
   4d4fc:	1021883a 	mov	r16,r2
   4d500:	9839883a 	mov	fp,r19
   4d504:	d9000517 	ldw	r4,20(sp)
   4d508:	b08003cc 	andi	r2,r22,15
   4d50c:	a806973a 	slli	r3,r21,28
   4d510:	b02cd13a 	srli	r22,r22,4
   4d514:	2085883a 	add	r2,r4,r2
   4d518:	10800003 	ldbu	r2,0(r2)
   4d51c:	a82ad13a 	srli	r21,r21,4
   4d520:	1dacb03a 	or	r22,r3,r22
   4d524:	e0bfffc5 	stb	r2,-1(fp)
   4d528:	b544b03a 	or	r2,r22,r21
   4d52c:	e73fffc4 	addi	fp,fp,-1
   4d530:	103ff41e 	bne	r2,zero,4d504 <___vfiprintf_internal_r+0xe60>
   4d534:	9f2bc83a 	sub	r21,r19,fp
   4d538:	482d883a 	mov	r22,r9
   4d53c:	4d7d120e 	bge	r9,r21,4c988 <___vfiprintf_internal_r+0x2e4>
   4d540:	a82d883a 	mov	r22,r21
   4d544:	003d1006 	br	4c988 <___vfiprintf_internal_r+0x2e4>
   4d548:	103f0626 	beq	r2,zero,4d164 <___vfiprintf_internal_r+0xac0>
   4d54c:	d9000017 	ldw	r4,0(sp)
   4d550:	d9800a04 	addi	r6,sp,40
   4d554:	900b883a 	mov	r5,r18
   4d558:	004c5980 	call	4c598 <__sprint_r.part.0>
   4d55c:	103d5e1e 	bne	r2,zero,4cad8 <___vfiprintf_internal_r+0x434>
   4d560:	d9400b17 	ldw	r5,44(sp)
   4d564:	d8800c17 	ldw	r2,48(sp)
   4d568:	9811883a 	mov	r8,r19
   4d56c:	29400044 	addi	r5,r5,1
   4d570:	003d3a06 	br	4ca5c <___vfiprintf_internal_r+0x3b8>
   4d574:	d8000b15 	stw	zero,44(sp)
   4d578:	003daf06 	br	4cc38 <___vfiprintf_internal_r+0x594>
   4d57c:	d9000317 	ldw	r4,12(sp)
   4d580:	10c0040c 	andi	r3,r2,16
   4d584:	25800017 	ldw	r22,0(r4)
   4d588:	21000104 	addi	r4,r4,4
   4d58c:	d9000315 	stw	r4,12(sp)
   4d590:	1800031e 	bne	r3,zero,4d5a0 <___vfiprintf_internal_r+0xefc>
   4d594:	10c0100c 	andi	r3,r2,64
   4d598:	18000126 	beq	r3,zero,4d5a0 <___vfiprintf_internal_r+0xefc>
   4d59c:	b5bfffcc 	andi	r22,r22,65535
   4d5a0:	d8000945 	stb	zero,37(sp)
   4d5a4:	48ffffd8 	cmpnei	r3,r9,-1
   4d5a8:	002b883a 	mov	r21,zero
   4d5ac:	183e6a1e 	bne	r3,zero,4cf58 <___vfiprintf_internal_r+0x8b4>
   4d5b0:	1021883a 	mov	r16,r2
   4d5b4:	0019883a 	mov	r12,zero
   4d5b8:	003df306 	br	4cd88 <___vfiprintf_internal_r+0x6e4>
   4d5bc:	d9000317 	ldw	r4,12(sp)
   4d5c0:	10c0040c 	andi	r3,r2,16
   4d5c4:	25800017 	ldw	r22,0(r4)
   4d5c8:	21000104 	addi	r4,r4,4
   4d5cc:	d9000315 	stw	r4,12(sp)
   4d5d0:	1800031e 	bne	r3,zero,4d5e0 <___vfiprintf_internal_r+0xf3c>
   4d5d4:	10c0100c 	andi	r3,r2,64
   4d5d8:	18000126 	beq	r3,zero,4d5e0 <___vfiprintf_internal_r+0xf3c>
   4d5dc:	b5bfffcc 	andi	r22,r22,65535
   4d5e0:	d8000945 	stb	zero,37(sp)
   4d5e4:	48ffffd8 	cmpnei	r3,r9,-1
   4d5e8:	002b883a 	mov	r21,zero
   4d5ec:	183e731e 	bne	r3,zero,4cfbc <___vfiprintf_internal_r+0x918>
   4d5f0:	1021883a 	mov	r16,r2
   4d5f4:	003e7a06 	br	4cfe0 <___vfiprintf_internal_r+0x93c>
   4d5f8:	01400044 	movi	r5,1
   4d5fc:	0009883a 	mov	r4,zero
   4d600:	9811883a 	mov	r8,r19
   4d604:	003d1106 	br	4ca4c <___vfiprintf_internal_r+0x3a8>
   4d608:	10005726 	beq	r2,zero,4d768 <___vfiprintf_internal_r+0x10c4>
   4d60c:	d9000017 	ldw	r4,0(sp)
   4d610:	d9800a04 	addi	r6,sp,40
   4d614:	900b883a 	mov	r5,r18
   4d618:	da400615 	stw	r9,24(sp)
   4d61c:	db000415 	stw	r12,16(sp)
   4d620:	db400215 	stw	r13,8(sp)
   4d624:	004c5980 	call	4c598 <__sprint_r.part.0>
   4d628:	103d2b1e 	bne	r2,zero,4cad8 <___vfiprintf_internal_r+0x434>
   4d62c:	d9000b17 	ldw	r4,44(sp)
   4d630:	d8800c17 	ldw	r2,48(sp)
   4d634:	da400617 	ldw	r9,24(sp)
   4d638:	db000417 	ldw	r12,16(sp)
   4d63c:	db400217 	ldw	r13,8(sp)
   4d640:	9811883a 	mov	r8,r19
   4d644:	21400044 	addi	r5,r4,1
   4d648:	003cda06 	br	4c9b4 <___vfiprintf_internal_r+0x310>
   4d64c:	d8000945 	stb	zero,37(sp)
   4d650:	48bfffd8 	cmpnei	r2,r9,-1
   4d654:	103faa26 	beq	r2,zero,4d500 <___vfiprintf_internal_r+0xe5c>
   4d658:	00bfdfc4 	movi	r2,-129
   4d65c:	80a0703a 	and	r16,r16,r2
   4d660:	4800621e 	bne	r9,zero,4d7ec <___vfiprintf_internal_r+0x1148>
   4d664:	002d883a 	mov	r22,zero
   4d668:	002b883a 	mov	r21,zero
   4d66c:	9839883a 	mov	fp,r19
   4d670:	003cc506 	br	4c988 <___vfiprintf_internal_r+0x2e4>
   4d674:	a0800007 	ldb	r2,0(r20)
   4d678:	df000315 	stw	fp,12(sp)
   4d67c:	003c4b06 	br	4c7ac <___vfiprintf_internal_r+0x108>
   4d680:	002d883a 	mov	r22,zero
   4d684:	9839883a 	mov	fp,r19
   4d688:	003cbf06 	br	4c988 <___vfiprintf_internal_r+0x2e4>
   4d68c:	42000204 	addi	r8,r8,8
   4d690:	31400044 	addi	r5,r6,1
   4d694:	3009883a 	mov	r4,r6
   4d698:	003cee06 	br	4ca54 <___vfiprintf_internal_r+0x3b0>
   4d69c:	8080040c 	andi	r2,r16,16
   4d6a0:	10003e1e 	bne	r2,zero,4d79c <___vfiprintf_internal_r+0x10f8>
   4d6a4:	8400100c 	andi	r16,r16,64
   4d6a8:	80003c26 	beq	r16,zero,4d79c <___vfiprintf_internal_r+0x10f8>
   4d6ac:	d8800317 	ldw	r2,12(sp)
   4d6b0:	d8c00117 	ldw	r3,4(sp)
   4d6b4:	10800017 	ldw	r2,0(r2)
   4d6b8:	10c0000d 	sth	r3,0(r2)
   4d6bc:	003e0506 	br	4ced4 <___vfiprintf_internal_r+0x830>
   4d6c0:	0009883a 	mov	r4,zero
   4d6c4:	01400044 	movi	r5,1
   4d6c8:	9811883a 	mov	r8,r19
   4d6cc:	003cdf06 	br	4ca4c <___vfiprintf_internal_r+0x3a8>
   4d6d0:	a82d883a 	mov	r22,r21
   4d6d4:	2839883a 	mov	fp,r5
   4d6d8:	003cab06 	br	4c988 <___vfiprintf_internal_r+0x2e4>
   4d6dc:	e009883a 	mov	r4,fp
   4d6e0:	da000215 	stw	r8,8(sp)
   4d6e4:	d8c00315 	stw	r3,12(sp)
   4d6e8:	004b3340 	call	4b334 <strlen>
   4d6ec:	da000217 	ldw	r8,8(sp)
   4d6f0:	102b883a 	mov	r21,r2
   4d6f4:	102d883a 	mov	r22,r2
   4d6f8:	003ca206 	br	4c984 <___vfiprintf_internal_r+0x2e0>
   4d6fc:	8005883a 	mov	r2,r16
   4d700:	003e0b06 	br	4cf30 <___vfiprintf_internal_r+0x88c>
   4d704:	00c00174 	movhi	r3,5
   4d708:	18d4d304 	addi	r3,r3,21324
   4d70c:	d8c00515 	stw	r3,20(sp)
   4d710:	80c0080c 	andi	r3,r16,32
   4d714:	18002826 	beq	r3,zero,4d7b8 <___vfiprintf_internal_r+0x1114>
   4d718:	d8c00317 	ldw	r3,12(sp)
   4d71c:	1d800017 	ldw	r22,0(r3)
   4d720:	1d400117 	ldw	r21,4(r3)
   4d724:	18c00204 	addi	r3,r3,8
   4d728:	d8c00315 	stw	r3,12(sp)
   4d72c:	80c0004c 	andi	r3,r16,1
   4d730:	18001f26 	beq	r3,zero,4d7b0 <___vfiprintf_internal_r+0x110c>
   4d734:	b546b03a 	or	r3,r22,r21
   4d738:	183fc426 	beq	r3,zero,4d64c <___vfiprintf_internal_r+0xfa8>
   4d73c:	00c00c04 	movi	r3,48
   4d740:	d8c00985 	stb	r3,38(sp)
   4d744:	d88009c5 	stb	r2,39(sp)
   4d748:	d8000945 	stb	zero,37(sp)
   4d74c:	48bfffd8 	cmpnei	r2,r9,-1
   4d750:	80c00094 	ori	r3,r16,2
   4d754:	10006d1e 	bne	r2,zero,4d90c <___vfiprintf_internal_r+0x1268>
   4d758:	1821883a 	mov	r16,r3
   4d75c:	003f6806 	br	4d500 <___vfiprintf_internal_r+0xe5c>
   4d760:	8005883a 	mov	r2,r16
   4d764:	003e0b06 	br	4cf94 <___vfiprintf_internal_r+0x8f0>
   4d768:	d8c00947 	ldb	r3,37(sp)
   4d76c:	18003b26 	beq	r3,zero,4d85c <___vfiprintf_internal_r+0x11b8>
   4d770:	d8800944 	addi	r2,sp,37
   4d774:	d8801715 	stw	r2,92(sp)
   4d778:	00800044 	movi	r2,1
   4d77c:	d8801815 	stw	r2,96(sp)
   4d780:	01400044 	movi	r5,1
   4d784:	9811883a 	mov	r8,r19
   4d788:	003c9506 	br	4c9e0 <___vfiprintf_internal_r+0x33c>
   4d78c:	00c00174 	movhi	r3,5
   4d790:	18d4d804 	addi	r3,r3,21344
   4d794:	d8c00515 	stw	r3,20(sp)
   4d798:	003fdd06 	br	4d710 <___vfiprintf_internal_r+0x106c>
   4d79c:	d8800317 	ldw	r2,12(sp)
   4d7a0:	d8c00117 	ldw	r3,4(sp)
   4d7a4:	10800017 	ldw	r2,0(r2)
   4d7a8:	10c00015 	stw	r3,0(r2)
   4d7ac:	003dc906 	br	4ced4 <___vfiprintf_internal_r+0x830>
   4d7b0:	8005883a 	mov	r2,r16
   4d7b4:	003e4606 	br	4d0d0 <___vfiprintf_internal_r+0xa2c>
   4d7b8:	d9000317 	ldw	r4,12(sp)
   4d7bc:	80c0040c 	andi	r3,r16,16
   4d7c0:	25800017 	ldw	r22,0(r4)
   4d7c4:	21000104 	addi	r4,r4,4
   4d7c8:	d9000315 	stw	r4,12(sp)
   4d7cc:	1800051e 	bne	r3,zero,4d7e4 <___vfiprintf_internal_r+0x1140>
   4d7d0:	80c0100c 	andi	r3,r16,64
   4d7d4:	18000326 	beq	r3,zero,4d7e4 <___vfiprintf_internal_r+0x1140>
   4d7d8:	b5bfffcc 	andi	r22,r22,65535
   4d7dc:	002b883a 	mov	r21,zero
   4d7e0:	003fd206 	br	4d72c <___vfiprintf_internal_r+0x1088>
   4d7e4:	002b883a 	mov	r21,zero
   4d7e8:	003fd006 	br	4d72c <___vfiprintf_internal_r+0x1088>
   4d7ec:	002d883a 	mov	r22,zero
   4d7f0:	002b883a 	mov	r21,zero
   4d7f4:	003f4206 	br	4d500 <___vfiprintf_internal_r+0xe5c>
   4d7f8:	18800060 	cmpeqi	r2,r3,1
   4d7fc:	1000341e 	bne	r2,zero,4d8d0 <___vfiprintf_internal_r+0x122c>
   4d800:	18c000a0 	cmpeqi	r3,r3,2
   4d804:	183ff91e 	bne	r3,zero,4d7ec <___vfiprintf_internal_r+0x1148>
   4d808:	002d883a 	mov	r22,zero
   4d80c:	002b883a 	mov	r21,zero
   4d810:	003df306 	br	4cfe0 <___vfiprintf_internal_r+0x93c>
   4d814:	488001f0 	cmpltui	r2,r9,7
   4d818:	482b883a 	mov	r21,r9
   4d81c:	10000d26 	beq	r2,zero,4d854 <___vfiprintf_internal_r+0x11b0>
   4d820:	07000174 	movhi	fp,5
   4d824:	a82d883a 	mov	r22,r21
   4d828:	d8c00315 	stw	r3,12(sp)
   4d82c:	e714dd04 	addi	fp,fp,21364
   4d830:	003c5406 	br	4c984 <___vfiprintf_internal_r+0x2e0>
   4d834:	00c00174 	movhi	r3,5
   4d838:	18d56a04 	addi	r3,r3,21928
   4d83c:	d8c00415 	stw	r3,16(sp)
   4d840:	003eb806 	br	4d324 <___vfiprintf_internal_r+0xc80>
   4d844:	01400044 	movi	r5,1
   4d848:	0009883a 	mov	r4,zero
   4d84c:	9811883a 	mov	r8,r19
   4d850:	003c8006 	br	4ca54 <___vfiprintf_internal_r+0x3b0>
   4d854:	05400184 	movi	r21,6
   4d858:	003ff106 	br	4d820 <___vfiprintf_internal_r+0x117c>
   4d85c:	0009883a 	mov	r4,zero
   4d860:	01400044 	movi	r5,1
   4d864:	9811883a 	mov	r8,r19
   4d868:	003c6006 	br	4c9ec <___vfiprintf_internal_r+0x348>
   4d86c:	d9000017 	ldw	r4,0(sp)
   4d870:	d9800a04 	addi	r6,sp,40
   4d874:	900b883a 	mov	r5,r18
   4d878:	004c5980 	call	4c598 <__sprint_r.part.0>
   4d87c:	003c9606 	br	4cad8 <___vfiprintf_internal_r+0x434>
   4d880:	482d883a 	mov	r22,r9
   4d884:	d8c00315 	stw	r3,12(sp)
   4d888:	482b883a 	mov	r21,r9
   4d88c:	003c3d06 	br	4c984 <___vfiprintf_internal_r+0x2e0>
   4d890:	301f883a 	mov	r15,r6
   4d894:	39d56e04 	addi	r7,r7,21944
   4d898:	003f0306 	br	4d4a8 <___vfiprintf_internal_r+0xe04>
   4d89c:	21400044 	addi	r5,r4,1
   4d8a0:	39d56e04 	addi	r7,r7,21944
   4d8a4:	003d1006 	br	4cce8 <___vfiprintf_internal_r+0x644>
   4d8a8:	01000174 	movhi	r4,5
   4d8ac:	21156a04 	addi	r4,r4,21928
   4d8b0:	280d883a 	mov	r6,r5
   4d8b4:	d9000415 	stw	r4,16(sp)
   4d8b8:	003e6106 	br	4d240 <___vfiprintf_internal_r+0xb9c>
   4d8bc:	00bfffc4 	movi	r2,-1
   4d8c0:	d8800115 	stw	r2,4(sp)
   4d8c4:	003c8706 	br	4cae4 <___vfiprintf_internal_r+0x440>
   4d8c8:	05800c04 	movi	r22,48
   4d8cc:	003d3206 	br	4cd98 <___vfiprintf_internal_r+0x6f4>
   4d8d0:	0019883a 	mov	r12,zero
   4d8d4:	05800c04 	movi	r22,48
   4d8d8:	003d2f06 	br	4cd98 <___vfiprintf_internal_r+0x6f4>
   4d8dc:	d8800317 	ldw	r2,12(sp)
   4d8e0:	12400017 	ldw	r9,0(r2)
   4d8e4:	17000104 	addi	fp,r2,4
   4d8e8:	4800010e 	bge	r9,zero,4d8f0 <___vfiprintf_internal_r+0x124c>
   4d8ec:	027fffc4 	movi	r9,-1
   4d8f0:	a0800043 	ldbu	r2,1(r20)
   4d8f4:	df000315 	stw	fp,12(sp)
   4d8f8:	1829883a 	mov	r20,r3
   4d8fc:	10803fcc 	andi	r2,r2,255
   4d900:	1080201c 	xori	r2,r2,128
   4d904:	10bfe004 	addi	r2,r2,-128
   4d908:	003ba806 	br	4c7ac <___vfiprintf_internal_r+0x108>
   4d90c:	00bfdfc4 	movi	r2,-129
   4d910:	8084703a 	and	r2,r16,r2
   4d914:	14000094 	ori	r16,r2,2
   4d918:	003ef906 	br	4d500 <___vfiprintf_internal_r+0xe5c>
   4d91c:	0019883a 	mov	r12,zero
   4d920:	003d1906 	br	4cd88 <___vfiprintf_internal_r+0x6e4>

0004d924 <__vfiprintf_internal>:
   4d924:	00c00174 	movhi	r3,5
   4d928:	2005883a 	mov	r2,r4
   4d92c:	191d2c17 	ldw	r4,29872(r3)
   4d930:	300f883a 	mov	r7,r6
   4d934:	280d883a 	mov	r6,r5
   4d938:	100b883a 	mov	r5,r2
   4d93c:	004c6a41 	jmpi	4c6a4 <___vfiprintf_internal_r>

0004d940 <__sbprintf>:
   4d940:	28c0038b 	ldhu	r3,14(r5)
   4d944:	2880030b 	ldhu	r2,12(r5)
   4d948:	2ac01917 	ldw	r11,100(r5)
   4d94c:	1806943a 	slli	r3,r3,16
   4d950:	2a800717 	ldw	r10,28(r5)
   4d954:	2a400917 	ldw	r9,36(r5)
   4d958:	defee204 	addi	sp,sp,-1144
   4d95c:	10bfff4c 	andi	r2,r2,65533
   4d960:	10c4b03a 	or	r2,r2,r3
   4d964:	da001a04 	addi	r8,sp,104
   4d968:	00c10004 	movi	r3,1024
   4d96c:	dc011a15 	stw	r16,1128(sp)
   4d970:	2821883a 	mov	r16,r5
   4d974:	d80b883a 	mov	r5,sp
   4d978:	dc811c15 	stw	r18,1136(sp)
   4d97c:	dc411b15 	stw	r17,1132(sp)
   4d980:	dfc11d15 	stw	ra,1140(sp)
   4d984:	2025883a 	mov	r18,r4
   4d988:	dac01915 	stw	r11,100(sp)
   4d98c:	d8800315 	stw	r2,12(sp)
   4d990:	da800715 	stw	r10,28(sp)
   4d994:	da400915 	stw	r9,36(sp)
   4d998:	da000015 	stw	r8,0(sp)
   4d99c:	da000415 	stw	r8,16(sp)
   4d9a0:	d8c00215 	stw	r3,8(sp)
   4d9a4:	d8c00515 	stw	r3,20(sp)
   4d9a8:	d8000615 	stw	zero,24(sp)
   4d9ac:	004c6a40 	call	4c6a4 <___vfiprintf_internal_r>
   4d9b0:	1023883a 	mov	r17,r2
   4d9b4:	10000d0e 	bge	r2,zero,4d9ec <__sbprintf+0xac>
   4d9b8:	d880030b 	ldhu	r2,12(sp)
   4d9bc:	1080100c 	andi	r2,r2,64
   4d9c0:	10000326 	beq	r2,zero,4d9d0 <__sbprintf+0x90>
   4d9c4:	8080030b 	ldhu	r2,12(r16)
   4d9c8:	10801014 	ori	r2,r2,64
   4d9cc:	8080030d 	sth	r2,12(r16)
   4d9d0:	8805883a 	mov	r2,r17
   4d9d4:	dfc11d17 	ldw	ra,1140(sp)
   4d9d8:	dc811c17 	ldw	r18,1136(sp)
   4d9dc:	dc411b17 	ldw	r17,1132(sp)
   4d9e0:	dc011a17 	ldw	r16,1128(sp)
   4d9e4:	dec11e04 	addi	sp,sp,1144
   4d9e8:	f800283a 	ret
   4d9ec:	d80b883a 	mov	r5,sp
   4d9f0:	9009883a 	mov	r4,r18
   4d9f4:	00492ec0 	call	492ec <_fflush_r>
   4d9f8:	103fef26 	beq	r2,zero,4d9b8 <__sbprintf+0x78>
   4d9fc:	047fffc4 	movi	r17,-1
   4da00:	003fed06 	br	4d9b8 <__sbprintf+0x78>

0004da04 <_write_r>:
   4da04:	2807883a 	mov	r3,r5
   4da08:	defffe04 	addi	sp,sp,-8
   4da0c:	dc000015 	stw	r16,0(sp)
   4da10:	300b883a 	mov	r5,r6
   4da14:	008001b4 	movhi	r2,6
   4da18:	380d883a 	mov	r6,r7
   4da1c:	2021883a 	mov	r16,r4
   4da20:	1809883a 	mov	r4,r3
   4da24:	dfc00115 	stw	ra,4(sp)
   4da28:	10243f15 	stw	zero,-28420(r2)
   4da2c:	0052d0c0 	call	52d0c <write>
   4da30:	10ffffd8 	cmpnei	r3,r2,-1
   4da34:	18000426 	beq	r3,zero,4da48 <_write_r+0x44>
   4da38:	dfc00117 	ldw	ra,4(sp)
   4da3c:	dc000017 	ldw	r16,0(sp)
   4da40:	dec00204 	addi	sp,sp,8
   4da44:	f800283a 	ret
   4da48:	00c001b4 	movhi	r3,6
   4da4c:	18e43f17 	ldw	r3,-28420(r3)
   4da50:	183ff926 	beq	r3,zero,4da38 <_write_r+0x34>
   4da54:	80c00015 	stw	r3,0(r16)
   4da58:	dfc00117 	ldw	ra,4(sp)
   4da5c:	dc000017 	ldw	r16,0(sp)
   4da60:	dec00204 	addi	sp,sp,8
   4da64:	f800283a 	ret

0004da68 <_close_r>:
   4da68:	defffe04 	addi	sp,sp,-8
   4da6c:	dc000015 	stw	r16,0(sp)
   4da70:	008001b4 	movhi	r2,6
   4da74:	2021883a 	mov	r16,r4
   4da78:	2809883a 	mov	r4,r5
   4da7c:	dfc00115 	stw	ra,4(sp)
   4da80:	10243f15 	stw	zero,-28420(r2)
   4da84:	00521400 	call	52140 <close>
   4da88:	10ffffd8 	cmpnei	r3,r2,-1
   4da8c:	18000426 	beq	r3,zero,4daa0 <_close_r+0x38>
   4da90:	dfc00117 	ldw	ra,4(sp)
   4da94:	dc000017 	ldw	r16,0(sp)
   4da98:	dec00204 	addi	sp,sp,8
   4da9c:	f800283a 	ret
   4daa0:	00c001b4 	movhi	r3,6
   4daa4:	18e43f17 	ldw	r3,-28420(r3)
   4daa8:	183ff926 	beq	r3,zero,4da90 <_close_r+0x28>
   4daac:	80c00015 	stw	r3,0(r16)
   4dab0:	dfc00117 	ldw	ra,4(sp)
   4dab4:	dc000017 	ldw	r16,0(sp)
   4dab8:	dec00204 	addi	sp,sp,8
   4dabc:	f800283a 	ret

0004dac0 <__assert_func>:
   4dac0:	00800174 	movhi	r2,5
   4dac4:	121d2c17 	ldw	r8,29872(r2)
   4dac8:	defffc04 	addi	sp,sp,-16
   4dacc:	3807883a 	mov	r3,r7
   4dad0:	3005883a 	mov	r2,r6
   4dad4:	dfc00315 	stw	ra,12(sp)
   4dad8:	42400317 	ldw	r9,12(r8)
   4dadc:	200f883a 	mov	r7,r4
   4dae0:	2811883a 	mov	r8,r5
   4dae4:	180d883a 	mov	r6,r3
   4dae8:	10000a26 	beq	r2,zero,4db14 <__assert_func+0x54>
   4daec:	00c00174 	movhi	r3,5
   4daf0:	18d57204 	addi	r3,r3,21960
   4daf4:	01400174 	movhi	r5,5
   4daf8:	29557604 	addi	r5,r5,21976
   4dafc:	4809883a 	mov	r4,r9
   4db00:	d8c00115 	stw	r3,4(sp)
   4db04:	da000015 	stw	r8,0(sp)
   4db08:	d8800215 	stw	r2,8(sp)
   4db0c:	004ddd40 	call	4ddd4 <fiprintf>
   4db10:	004f1e00 	call	4f1e0 <abort>
   4db14:	00c00174 	movhi	r3,5
   4db18:	18d57504 	addi	r3,r3,21972
   4db1c:	1805883a 	mov	r2,r3
   4db20:	003ff406 	br	4daf4 <__assert_func+0x34>

0004db24 <__assert>:
   4db24:	deffff04 	addi	sp,sp,-4
   4db28:	300f883a 	mov	r7,r6
   4db2c:	000d883a 	mov	r6,zero
   4db30:	dfc00015 	stw	ra,0(sp)
   4db34:	004dac00 	call	4dac0 <__assert_func>

0004db38 <_calloc_r>:
   4db38:	2806d43a 	srli	r3,r5,16
   4db3c:	defffb04 	addi	sp,sp,-20
   4db40:	dc000015 	stw	r16,0(sp)
   4db44:	dfc00415 	stw	ra,16(sp)
   4db48:	dcc00315 	stw	r19,12(sp)
   4db4c:	dc800215 	stw	r18,8(sp)
   4db50:	dc400115 	stw	r17,4(sp)
   4db54:	2805883a 	mov	r2,r5
   4db58:	2021883a 	mov	r16,r4
   4db5c:	300ad43a 	srli	r5,r6,16
   4db60:	18002d1e 	bne	r3,zero,4dc18 <_calloc_r+0xe0>
   4db64:	2800431e 	bne	r5,zero,4dc74 <_calloc_r+0x13c>
   4db68:	317fffcc 	andi	r5,r6,65535
   4db6c:	113fffcc 	andi	r4,r2,65535
   4db70:	0040b700 	call	40b70 <__mulsi3>
   4db74:	8009883a 	mov	r4,r16
   4db78:	100b883a 	mov	r5,r2
   4db7c:	00421240 	call	42124 <_malloc_r>
   4db80:	1009883a 	mov	r4,r2
   4db84:	10003926 	beq	r2,zero,4dc6c <_calloc_r+0x134>
   4db88:	11bfff17 	ldw	r6,-4(r2)
   4db8c:	00bfff04 	movi	r2,-4
   4db90:	308c703a 	and	r6,r6,r2
   4db94:	31bfff04 	addi	r6,r6,-4
   4db98:	30800968 	cmpgeui	r2,r6,37
   4db9c:	10000c1e 	bne	r2,zero,4dbd0 <_calloc_r+0x98>
   4dba0:	30800530 	cmpltui	r2,r6,20
   4dba4:	1000151e 	bne	r2,zero,4dbfc <_calloc_r+0xc4>
   4dba8:	20000015 	stw	zero,0(r4)
   4dbac:	20000115 	stw	zero,4(r4)
   4dbb0:	30800728 	cmpgeui	r2,r6,28
   4dbb4:	10001626 	beq	r2,zero,4dc10 <_calloc_r+0xd8>
   4dbb8:	20000215 	stw	zero,8(r4)
   4dbbc:	20000315 	stw	zero,12(r4)
   4dbc0:	31800920 	cmpeqi	r6,r6,36
   4dbc4:	3000321e 	bne	r6,zero,4dc90 <_calloc_r+0x158>
   4dbc8:	20800404 	addi	r2,r4,16
   4dbcc:	00000c06 	br	4dc00 <_calloc_r+0xc8>
   4dbd0:	000b883a 	mov	r5,zero
   4dbd4:	00429d80 	call	429d8 <memset>
   4dbd8:	1009883a 	mov	r4,r2
   4dbdc:	2005883a 	mov	r2,r4
   4dbe0:	dfc00417 	ldw	ra,16(sp)
   4dbe4:	dcc00317 	ldw	r19,12(sp)
   4dbe8:	dc800217 	ldw	r18,8(sp)
   4dbec:	dc400117 	ldw	r17,4(sp)
   4dbf0:	dc000017 	ldw	r16,0(sp)
   4dbf4:	dec00504 	addi	sp,sp,20
   4dbf8:	f800283a 	ret
   4dbfc:	2005883a 	mov	r2,r4
   4dc00:	10000015 	stw	zero,0(r2)
   4dc04:	10000115 	stw	zero,4(r2)
   4dc08:	10000215 	stw	zero,8(r2)
   4dc0c:	003ff306 	br	4dbdc <_calloc_r+0xa4>
   4dc10:	20800204 	addi	r2,r4,8
   4dc14:	003ffa06 	br	4dc00 <_calloc_r+0xc8>
   4dc18:	2800191e 	bne	r5,zero,4dc80 <_calloc_r+0x148>
   4dc1c:	1823883a 	mov	r17,r3
   4dc20:	3027883a 	mov	r19,r6
   4dc24:	317fffcc 	andi	r5,r6,65535
   4dc28:	113fffcc 	andi	r4,r2,65535
   4dc2c:	0040b700 	call	40b70 <__mulsi3>
   4dc30:	897fffcc 	andi	r5,r17,65535
   4dc34:	993fffcc 	andi	r4,r19,65535
   4dc38:	1025883a 	mov	r18,r2
   4dc3c:	0040b700 	call	40b70 <__mulsi3>
   4dc40:	9006d43a 	srli	r3,r18,16
   4dc44:	10cb883a 	add	r5,r2,r3
   4dc48:	2804d43a 	srli	r2,r5,16
   4dc4c:	10000c1e 	bne	r2,zero,4dc80 <_calloc_r+0x148>
   4dc50:	280a943a 	slli	r5,r5,16
   4dc54:	94bfffcc 	andi	r18,r18,65535
   4dc58:	8009883a 	mov	r4,r16
   4dc5c:	2c8ab03a 	or	r5,r5,r18
   4dc60:	00421240 	call	42124 <_malloc_r>
   4dc64:	1009883a 	mov	r4,r2
   4dc68:	103fc71e 	bne	r2,zero,4db88 <_calloc_r+0x50>
   4dc6c:	0009883a 	mov	r4,zero
   4dc70:	003fda06 	br	4dbdc <_calloc_r+0xa4>
   4dc74:	2823883a 	mov	r17,r5
   4dc78:	1027883a 	mov	r19,r2
   4dc7c:	003fe906 	br	4dc24 <_calloc_r+0xec>
   4dc80:	004dca00 	call	4dca0 <__errno>
   4dc84:	00c00304 	movi	r3,12
   4dc88:	10c00015 	stw	r3,0(r2)
   4dc8c:	003ff706 	br	4dc6c <_calloc_r+0x134>
   4dc90:	20000415 	stw	zero,16(r4)
   4dc94:	20800604 	addi	r2,r4,24
   4dc98:	20000515 	stw	zero,20(r4)
   4dc9c:	003fd806 	br	4dc00 <_calloc_r+0xc8>

0004dca0 <__errno>:
   4dca0:	00800174 	movhi	r2,5
   4dca4:	109d2c17 	ldw	r2,29872(r2)
   4dca8:	f800283a 	ret

0004dcac <_fclose_r>:
   4dcac:	defffc04 	addi	sp,sp,-16
   4dcb0:	dfc00315 	stw	ra,12(sp)
   4dcb4:	dc800215 	stw	r18,8(sp)
   4dcb8:	dc400115 	stw	r17,4(sp)
   4dcbc:	dc000015 	stw	r16,0(sp)
   4dcc0:	28000726 	beq	r5,zero,4dce0 <_fclose_r+0x34>
   4dcc4:	2821883a 	mov	r16,r5
   4dcc8:	2023883a 	mov	r17,r4
   4dccc:	20000226 	beq	r4,zero,4dcd8 <_fclose_r+0x2c>
   4dcd0:	20800e17 	ldw	r2,56(r4)
   4dcd4:	10002726 	beq	r2,zero,4dd74 <_fclose_r+0xc8>
   4dcd8:	8080030f 	ldh	r2,12(r16)
   4dcdc:	1000081e 	bne	r2,zero,4dd00 <_fclose_r+0x54>
   4dce0:	0025883a 	mov	r18,zero
   4dce4:	9005883a 	mov	r2,r18
   4dce8:	dfc00317 	ldw	ra,12(sp)
   4dcec:	dc800217 	ldw	r18,8(sp)
   4dcf0:	dc400117 	ldw	r17,4(sp)
   4dcf4:	dc000017 	ldw	r16,0(sp)
   4dcf8:	dec00404 	addi	sp,sp,16
   4dcfc:	f800283a 	ret
   4dd00:	800b883a 	mov	r5,r16
   4dd04:	8809883a 	mov	r4,r17
   4dd08:	00490e40 	call	490e4 <__sflush_r>
   4dd0c:	80c00b17 	ldw	r3,44(r16)
   4dd10:	1025883a 	mov	r18,r2
   4dd14:	18000426 	beq	r3,zero,4dd28 <_fclose_r+0x7c>
   4dd18:	81400717 	ldw	r5,28(r16)
   4dd1c:	8809883a 	mov	r4,r17
   4dd20:	183ee83a 	callr	r3
   4dd24:	10001716 	blt	r2,zero,4dd84 <_fclose_r+0xd8>
   4dd28:	8080030b 	ldhu	r2,12(r16)
   4dd2c:	1080200c 	andi	r2,r2,128
   4dd30:	1000181e 	bne	r2,zero,4dd94 <_fclose_r+0xe8>
   4dd34:	81400c17 	ldw	r5,48(r16)
   4dd38:	28000526 	beq	r5,zero,4dd50 <_fclose_r+0xa4>
   4dd3c:	80801004 	addi	r2,r16,64
   4dd40:	28800226 	beq	r5,r2,4dd4c <_fclose_r+0xa0>
   4dd44:	8809883a 	mov	r4,r17
   4dd48:	00498800 	call	49880 <_free_r>
   4dd4c:	80000c15 	stw	zero,48(r16)
   4dd50:	81401117 	ldw	r5,68(r16)
   4dd54:	28000326 	beq	r5,zero,4dd64 <_fclose_r+0xb8>
   4dd58:	8809883a 	mov	r4,r17
   4dd5c:	00498800 	call	49880 <_free_r>
   4dd60:	80001115 	stw	zero,68(r16)
   4dd64:	00497240 	call	49724 <__sfp_lock_acquire>
   4dd68:	8000030d 	sth	zero,12(r16)
   4dd6c:	00497280 	call	49728 <__sfp_lock_release>
   4dd70:	003fdc06 	br	4dce4 <_fclose_r+0x38>
   4dd74:	00497140 	call	49714 <__sinit>
   4dd78:	8080030f 	ldh	r2,12(r16)
   4dd7c:	103fd826 	beq	r2,zero,4dce0 <_fclose_r+0x34>
   4dd80:	003fdf06 	br	4dd00 <_fclose_r+0x54>
   4dd84:	8080030b 	ldhu	r2,12(r16)
   4dd88:	04bfffc4 	movi	r18,-1
   4dd8c:	1080200c 	andi	r2,r2,128
   4dd90:	103fe826 	beq	r2,zero,4dd34 <_fclose_r+0x88>
   4dd94:	81400417 	ldw	r5,16(r16)
   4dd98:	8809883a 	mov	r4,r17
   4dd9c:	00498800 	call	49880 <_free_r>
   4dda0:	003fe406 	br	4dd34 <_fclose_r+0x88>

0004dda4 <fclose>:
   4dda4:	00800174 	movhi	r2,5
   4dda8:	200b883a 	mov	r5,r4
   4ddac:	111d2c17 	ldw	r4,29872(r2)
   4ddb0:	004dcac1 	jmpi	4dcac <_fclose_r>

0004ddb4 <_fiprintf_r>:
   4ddb4:	defffe04 	addi	sp,sp,-8
   4ddb8:	dfc00015 	stw	ra,0(sp)
   4ddbc:	d9c00115 	stw	r7,4(sp)
   4ddc0:	d9c00104 	addi	r7,sp,4
   4ddc4:	004ef4c0 	call	4ef4c <_vfiprintf_r>
   4ddc8:	dfc00017 	ldw	ra,0(sp)
   4ddcc:	dec00204 	addi	sp,sp,8
   4ddd0:	f800283a 	ret

0004ddd4 <fiprintf>:
   4ddd4:	defffd04 	addi	sp,sp,-12
   4ddd8:	2005883a 	mov	r2,r4
   4dddc:	dfc00015 	stw	ra,0(sp)
   4dde0:	d9800115 	stw	r6,4(sp)
   4dde4:	d9c00215 	stw	r7,8(sp)
   4dde8:	00c00174 	movhi	r3,5
   4ddec:	191d2c17 	ldw	r4,29872(r3)
   4ddf0:	280d883a 	mov	r6,r5
   4ddf4:	d9c00104 	addi	r7,sp,4
   4ddf8:	100b883a 	mov	r5,r2
   4ddfc:	004ef4c0 	call	4ef4c <_vfiprintf_r>
   4de00:	dfc00017 	ldw	ra,0(sp)
   4de04:	dec00304 	addi	sp,sp,12
   4de08:	f800283a 	ret

0004de0c <__fputwc>:
   4de0c:	defff904 	addi	sp,sp,-28
   4de10:	dcc00415 	stw	r19,16(sp)
   4de14:	dc800315 	stw	r18,12(sp)
   4de18:	dc000115 	stw	r16,4(sp)
   4de1c:	dfc00615 	stw	ra,24(sp)
   4de20:	dd000515 	stw	r20,20(sp)
   4de24:	dc400215 	stw	r17,8(sp)
   4de28:	2027883a 	mov	r19,r4
   4de2c:	2825883a 	mov	r18,r5
   4de30:	3021883a 	mov	r16,r6
   4de34:	004e5e00 	call	4e5e0 <__locale_mb_cur_max>
   4de38:	10800058 	cmpnei	r2,r2,1
   4de3c:	1000071e 	bne	r2,zero,4de5c <__fputwc+0x50>
   4de40:	90bfffc4 	addi	r2,r18,-1
   4de44:	10803fe8 	cmpgeui	r2,r2,255
   4de48:	1000041e 	bne	r2,zero,4de5c <__fputwc+0x50>
   4de4c:	900b883a 	mov	r5,r18
   4de50:	dc8000c5 	stb	r18,3(sp)
   4de54:	05000044 	movi	r20,1
   4de58:	00000a06 	br	4de84 <__fputwc+0x78>
   4de5c:	81c01704 	addi	r7,r16,92
   4de60:	900d883a 	mov	r6,r18
   4de64:	d94000c4 	addi	r5,sp,3
   4de68:	9809883a 	mov	r4,r19
   4de6c:	004f0b00 	call	4f0b0 <_wcrtomb_r>
   4de70:	1029883a 	mov	r20,r2
   4de74:	10bfffd8 	cmpnei	r2,r2,-1
   4de78:	10003826 	beq	r2,zero,4df5c <__fputwc+0x150>
   4de7c:	a0001f26 	beq	r20,zero,4defc <__fputwc+0xf0>
   4de80:	d94000c3 	ldbu	r5,3(sp)
   4de84:	0023883a 	mov	r17,zero
   4de88:	00000a06 	br	4deb4 <__fputwc+0xa8>
   4de8c:	80800017 	ldw	r2,0(r16)
   4de90:	11400005 	stb	r5,0(r2)
   4de94:	80c00017 	ldw	r3,0(r16)
   4de98:	18c00044 	addi	r3,r3,1
   4de9c:	80c00015 	stw	r3,0(r16)
   4dea0:	8c400044 	addi	r17,r17,1
   4dea4:	d88000c4 	addi	r2,sp,3
   4dea8:	1447883a 	add	r3,r2,r17
   4deac:	8d00132e 	bgeu	r17,r20,4defc <__fputwc+0xf0>
   4deb0:	19400003 	ldbu	r5,0(r3)
   4deb4:	80c00217 	ldw	r3,8(r16)
   4deb8:	18ffffc4 	addi	r3,r3,-1
   4debc:	80c00215 	stw	r3,8(r16)
   4dec0:	183ff20e 	bge	r3,zero,4de8c <__fputwc+0x80>
   4dec4:	80800617 	ldw	r2,24(r16)
   4dec8:	18801516 	blt	r3,r2,4df20 <__fputwc+0x114>
   4decc:	80800017 	ldw	r2,0(r16)
   4ded0:	11400005 	stb	r5,0(r2)
   4ded4:	80800017 	ldw	r2,0(r16)
   4ded8:	10c00003 	ldbu	r3,0(r2)
   4dedc:	10800044 	addi	r2,r2,1
   4dee0:	18c002a0 	cmpeqi	r3,r3,10
   4dee4:	1800161e 	bne	r3,zero,4df40 <__fputwc+0x134>
   4dee8:	80800015 	stw	r2,0(r16)
   4deec:	8c400044 	addi	r17,r17,1
   4def0:	d88000c4 	addi	r2,sp,3
   4def4:	1447883a 	add	r3,r2,r17
   4def8:	8d3fed36 	bltu	r17,r20,4deb0 <__fputwc+0xa4>
   4defc:	9005883a 	mov	r2,r18
   4df00:	dfc00617 	ldw	ra,24(sp)
   4df04:	dd000517 	ldw	r20,20(sp)
   4df08:	dcc00417 	ldw	r19,16(sp)
   4df0c:	dc800317 	ldw	r18,12(sp)
   4df10:	dc400217 	ldw	r17,8(sp)
   4df14:	dc000117 	ldw	r16,4(sp)
   4df18:	dec00704 	addi	sp,sp,28
   4df1c:	f800283a 	ret
   4df20:	29403fcc 	andi	r5,r5,255
   4df24:	800d883a 	mov	r6,r16
   4df28:	9809883a 	mov	r4,r19
   4df2c:	004ef500 	call	4ef50 <__swbuf_r>
   4df30:	10bfffe0 	cmpeqi	r2,r2,-1
   4df34:	103fda26 	beq	r2,zero,4dea0 <__fputwc+0x94>
   4df38:	00bfffc4 	movi	r2,-1
   4df3c:	003ff006 	br	4df00 <__fputwc+0xf4>
   4df40:	800d883a 	mov	r6,r16
   4df44:	01400284 	movi	r5,10
   4df48:	9809883a 	mov	r4,r19
   4df4c:	004ef500 	call	4ef50 <__swbuf_r>
   4df50:	10bfffe0 	cmpeqi	r2,r2,-1
   4df54:	103fd226 	beq	r2,zero,4dea0 <__fputwc+0x94>
   4df58:	003ff706 	br	4df38 <__fputwc+0x12c>
   4df5c:	8080030b 	ldhu	r2,12(r16)
   4df60:	10801014 	ori	r2,r2,64
   4df64:	8080030d 	sth	r2,12(r16)
   4df68:	00bfffc4 	movi	r2,-1
   4df6c:	003fe406 	br	4df00 <__fputwc+0xf4>

0004df70 <_fputwc_r>:
   4df70:	3080030b 	ldhu	r2,12(r6)
   4df74:	10c8000c 	andi	r3,r2,8192
   4df78:	1800051e 	bne	r3,zero,4df90 <_fputwc_r+0x20>
   4df7c:	30c01917 	ldw	r3,100(r6)
   4df80:	10880014 	ori	r2,r2,8192
   4df84:	3080030d 	sth	r2,12(r6)
   4df88:	18880014 	ori	r2,r3,8192
   4df8c:	30801915 	stw	r2,100(r6)
   4df90:	004de0c1 	jmpi	4de0c <__fputwc>

0004df94 <fputwc>:
   4df94:	defffc04 	addi	sp,sp,-16
   4df98:	00800174 	movhi	r2,5
   4df9c:	dc000215 	stw	r16,8(sp)
   4dfa0:	141d2c17 	ldw	r16,29872(r2)
   4dfa4:	dfc00315 	stw	ra,12(sp)
   4dfa8:	280d883a 	mov	r6,r5
   4dfac:	200b883a 	mov	r5,r4
   4dfb0:	80000226 	beq	r16,zero,4dfbc <fputwc+0x28>
   4dfb4:	80800e17 	ldw	r2,56(r16)
   4dfb8:	10000d26 	beq	r2,zero,4dff0 <fputwc+0x5c>
   4dfbc:	3080030b 	ldhu	r2,12(r6)
   4dfc0:	10c8000c 	andi	r3,r2,8192
   4dfc4:	1800051e 	bne	r3,zero,4dfdc <fputwc+0x48>
   4dfc8:	30c01917 	ldw	r3,100(r6)
   4dfcc:	10880014 	ori	r2,r2,8192
   4dfd0:	3080030d 	sth	r2,12(r6)
   4dfd4:	18880014 	ori	r2,r3,8192
   4dfd8:	30801915 	stw	r2,100(r6)
   4dfdc:	8009883a 	mov	r4,r16
   4dfe0:	dfc00317 	ldw	ra,12(sp)
   4dfe4:	dc000217 	ldw	r16,8(sp)
   4dfe8:	dec00404 	addi	sp,sp,16
   4dfec:	004de0c1 	jmpi	4de0c <__fputwc>
   4dff0:	d9000015 	stw	r4,0(sp)
   4dff4:	8009883a 	mov	r4,r16
   4dff8:	d9800115 	stw	r6,4(sp)
   4dffc:	00497140 	call	49714 <__sinit>
   4e000:	d9800117 	ldw	r6,4(sp)
   4e004:	d9400017 	ldw	r5,0(sp)
   4e008:	003fec06 	br	4dfbc <fputwc+0x28>

0004e00c <_fstat_r>:
   4e00c:	2807883a 	mov	r3,r5
   4e010:	defffe04 	addi	sp,sp,-8
   4e014:	dc000015 	stw	r16,0(sp)
   4e018:	008001b4 	movhi	r2,6
   4e01c:	300b883a 	mov	r5,r6
   4e020:	2021883a 	mov	r16,r4
   4e024:	1809883a 	mov	r4,r3
   4e028:	dfc00115 	stw	ra,4(sp)
   4e02c:	10243f15 	stw	zero,-28420(r2)
   4e030:	00522c00 	call	522c0 <fstat>
   4e034:	10ffffd8 	cmpnei	r3,r2,-1
   4e038:	18000426 	beq	r3,zero,4e04c <_fstat_r+0x40>
   4e03c:	dfc00117 	ldw	ra,4(sp)
   4e040:	dc000017 	ldw	r16,0(sp)
   4e044:	dec00204 	addi	sp,sp,8
   4e048:	f800283a 	ret
   4e04c:	00c001b4 	movhi	r3,6
   4e050:	18e43f17 	ldw	r3,-28420(r3)
   4e054:	183ff926 	beq	r3,zero,4e03c <_fstat_r+0x30>
   4e058:	80c00015 	stw	r3,0(r16)
   4e05c:	dfc00117 	ldw	ra,4(sp)
   4e060:	dc000017 	ldw	r16,0(sp)
   4e064:	dec00204 	addi	sp,sp,8
   4e068:	f800283a 	ret

0004e06c <__sfvwrite_r>:
   4e06c:	30800217 	ldw	r2,8(r6)
   4e070:	1000c426 	beq	r2,zero,4e384 <__sfvwrite_r+0x318>
   4e074:	2a80030b 	ldhu	r10,12(r5)
   4e078:	defff504 	addi	sp,sp,-44
   4e07c:	df000915 	stw	fp,36(sp)
   4e080:	dcc00415 	stw	r19,16(sp)
   4e084:	dc000115 	stw	r16,4(sp)
   4e088:	dfc00a15 	stw	ra,40(sp)
   4e08c:	ddc00815 	stw	r23,32(sp)
   4e090:	dd800715 	stw	r22,28(sp)
   4e094:	dd400615 	stw	r21,24(sp)
   4e098:	dd000515 	stw	r20,20(sp)
   4e09c:	dc800315 	stw	r18,12(sp)
   4e0a0:	dc400215 	stw	r17,8(sp)
   4e0a4:	5080020c 	andi	r2,r10,8
   4e0a8:	3039883a 	mov	fp,r6
   4e0ac:	2027883a 	mov	r19,r4
   4e0b0:	2821883a 	mov	r16,r5
   4e0b4:	10002226 	beq	r2,zero,4e140 <__sfvwrite_r+0xd4>
   4e0b8:	28800417 	ldw	r2,16(r5)
   4e0bc:	10002026 	beq	r2,zero,4e140 <__sfvwrite_r+0xd4>
   4e0c0:	5080008c 	andi	r2,r10,2
   4e0c4:	e4400017 	ldw	r17,0(fp)
   4e0c8:	10002526 	beq	r2,zero,4e160 <__sfvwrite_r+0xf4>
   4e0cc:	80800917 	ldw	r2,36(r16)
   4e0d0:	81400717 	ldw	r5,28(r16)
   4e0d4:	05600034 	movhi	r21,32768
   4e0d8:	0029883a 	mov	r20,zero
   4e0dc:	0025883a 	mov	r18,zero
   4e0e0:	ad7f0004 	addi	r21,r21,-1024
   4e0e4:	a00d883a 	mov	r6,r20
   4e0e8:	9809883a 	mov	r4,r19
   4e0ec:	90001026 	beq	r18,zero,4e130 <__sfvwrite_r+0xc4>
   4e0f0:	900f883a 	mov	r7,r18
   4e0f4:	ac80012e 	bgeu	r21,r18,4e0fc <__sfvwrite_r+0x90>
   4e0f8:	a80f883a 	mov	r7,r21
   4e0fc:	103ee83a 	callr	r2
   4e100:	00809b0e 	bge	zero,r2,4e370 <__sfvwrite_r+0x304>
   4e104:	e0c00217 	ldw	r3,8(fp)
   4e108:	a0a9883a 	add	r20,r20,r2
   4e10c:	90a5c83a 	sub	r18,r18,r2
   4e110:	1885c83a 	sub	r2,r3,r2
   4e114:	e0800215 	stw	r2,8(fp)
   4e118:	10008426 	beq	r2,zero,4e32c <__sfvwrite_r+0x2c0>
   4e11c:	80800917 	ldw	r2,36(r16)
   4e120:	81400717 	ldw	r5,28(r16)
   4e124:	a00d883a 	mov	r6,r20
   4e128:	9809883a 	mov	r4,r19
   4e12c:	903ff01e 	bne	r18,zero,4e0f0 <__sfvwrite_r+0x84>
   4e130:	8d000017 	ldw	r20,0(r17)
   4e134:	8c800117 	ldw	r18,4(r17)
   4e138:	8c400204 	addi	r17,r17,8
   4e13c:	003fe906 	br	4e0e4 <__sfvwrite_r+0x78>
   4e140:	800b883a 	mov	r5,r16
   4e144:	9809883a 	mov	r4,r19
   4e148:	00475980 	call	47598 <__swsetup_r>
   4e14c:	10008b1e 	bne	r2,zero,4e37c <__sfvwrite_r+0x310>
   4e150:	8280030b 	ldhu	r10,12(r16)
   4e154:	e4400017 	ldw	r17,0(fp)
   4e158:	5080008c 	andi	r2,r10,2
   4e15c:	103fdb1e 	bne	r2,zero,4e0cc <__sfvwrite_r+0x60>
   4e160:	5080004c 	andi	r2,r10,1
   4e164:	10004f1e 	bne	r2,zero,4e2a4 <__sfvwrite_r+0x238>
   4e168:	00a00034 	movhi	r2,32768
   4e16c:	81c00017 	ldw	r7,0(r16)
   4e170:	80c00217 	ldw	r3,8(r16)
   4e174:	10bfffc4 	addi	r2,r2,-1
   4e178:	002d883a 	mov	r22,zero
   4e17c:	0025883a 	mov	r18,zero
   4e180:	d8800015 	stw	r2,0(sp)
   4e184:	3809883a 	mov	r4,r7
   4e188:	1829883a 	mov	r20,r3
   4e18c:	90004126 	beq	r18,zero,4e294 <__sfvwrite_r+0x228>
   4e190:	5080800c 	andi	r2,r10,512
   4e194:	10009526 	beq	r2,zero,4e3ec <__sfvwrite_r+0x380>
   4e198:	182b883a 	mov	r21,r3
   4e19c:	90c0ba36 	bltu	r18,r3,4e488 <__sfvwrite_r+0x41c>
   4e1a0:	5081200c 	andi	r2,r10,1152
   4e1a4:	10002526 	beq	r2,zero,4e23c <__sfvwrite_r+0x1d0>
   4e1a8:	80c00517 	ldw	r3,20(r16)
   4e1ac:	81000417 	ldw	r4,16(r16)
   4e1b0:	18c5883a 	add	r2,r3,r3
   4e1b4:	10c5883a 	add	r2,r2,r3
   4e1b8:	1012d7fa 	srli	r9,r2,31
   4e1bc:	392fc83a 	sub	r23,r7,r4
   4e1c0:	b8c00044 	addi	r3,r23,1
   4e1c4:	4893883a 	add	r9,r9,r2
   4e1c8:	4829d07a 	srai	r20,r9,1
   4e1cc:	1c85883a 	add	r2,r3,r18
   4e1d0:	a00b883a 	mov	r5,r20
   4e1d4:	a080022e 	bgeu	r20,r2,4e1e0 <__sfvwrite_r+0x174>
   4e1d8:	1029883a 	mov	r20,r2
   4e1dc:	100b883a 	mov	r5,r2
   4e1e0:	5281000c 	andi	r10,r10,1024
   4e1e4:	5000b926 	beq	r10,zero,4e4cc <__sfvwrite_r+0x460>
   4e1e8:	9809883a 	mov	r4,r19
   4e1ec:	00421240 	call	42124 <_malloc_r>
   4e1f0:	1000c426 	beq	r2,zero,4e504 <__sfvwrite_r+0x498>
   4e1f4:	81400417 	ldw	r5,16(r16)
   4e1f8:	1009883a 	mov	r4,r2
   4e1fc:	b80d883a 	mov	r6,r23
   4e200:	00428d80 	call	428d8 <memcpy>
   4e204:	1007883a 	mov	r3,r2
   4e208:	8080030b 	ldhu	r2,12(r16)
   4e20c:	013edfc4 	movi	r4,-1153
   4e210:	1104703a 	and	r2,r2,r4
   4e214:	10802014 	ori	r2,r2,128
   4e218:	8080030d 	sth	r2,12(r16)
   4e21c:	a5cfc83a 	sub	r7,r20,r23
   4e220:	1dc9883a 	add	r4,r3,r23
   4e224:	85000515 	stw	r20,20(r16)
   4e228:	80c00415 	stw	r3,16(r16)
   4e22c:	81000015 	stw	r4,0(r16)
   4e230:	9029883a 	mov	r20,r18
   4e234:	81c00215 	stw	r7,8(r16)
   4e238:	902b883a 	mov	r21,r18
   4e23c:	a80d883a 	mov	r6,r21
   4e240:	b00b883a 	mov	r5,r22
   4e244:	004e7140 	call	4e714 <memmove>
   4e248:	80c00217 	ldw	r3,8(r16)
   4e24c:	81c00017 	ldw	r7,0(r16)
   4e250:	902f883a 	mov	r23,r18
   4e254:	1d07c83a 	sub	r3,r3,r20
   4e258:	3d4d883a 	add	r6,r7,r21
   4e25c:	80c00215 	stw	r3,8(r16)
   4e260:	81800015 	stw	r6,0(r16)
   4e264:	0025883a 	mov	r18,zero
   4e268:	e0800217 	ldw	r2,8(fp)
   4e26c:	b5ed883a 	add	r22,r22,r23
   4e270:	15c5c83a 	sub	r2,r2,r23
   4e274:	e0800215 	stw	r2,8(fp)
   4e278:	10002c26 	beq	r2,zero,4e32c <__sfvwrite_r+0x2c0>
   4e27c:	81c00017 	ldw	r7,0(r16)
   4e280:	80c00217 	ldw	r3,8(r16)
   4e284:	8280030b 	ldhu	r10,12(r16)
   4e288:	3809883a 	mov	r4,r7
   4e28c:	1829883a 	mov	r20,r3
   4e290:	903fbf1e 	bne	r18,zero,4e190 <__sfvwrite_r+0x124>
   4e294:	8d800017 	ldw	r22,0(r17)
   4e298:	8c800117 	ldw	r18,4(r17)
   4e29c:	8c400204 	addi	r17,r17,8
   4e2a0:	003fb806 	br	4e184 <__sfvwrite_r+0x118>
   4e2a4:	002f883a 	mov	r23,zero
   4e2a8:	0005883a 	mov	r2,zero
   4e2ac:	002b883a 	mov	r21,zero
   4e2b0:	0029883a 	mov	r20,zero
   4e2b4:	a0003526 	beq	r20,zero,4e38c <__sfvwrite_r+0x320>
   4e2b8:	10003926 	beq	r2,zero,4e3a0 <__sfvwrite_r+0x334>
   4e2bc:	b805883a 	mov	r2,r23
   4e2c0:	a02d883a 	mov	r22,r20
   4e2c4:	1500012e 	bgeu	r2,r20,4e2cc <__sfvwrite_r+0x260>
   4e2c8:	102d883a 	mov	r22,r2
   4e2cc:	81000017 	ldw	r4,0(r16)
   4e2d0:	80800417 	ldw	r2,16(r16)
   4e2d4:	84800217 	ldw	r18,8(r16)
   4e2d8:	81c00517 	ldw	r7,20(r16)
   4e2dc:	1100022e 	bgeu	r2,r4,4e2e8 <__sfvwrite_r+0x27c>
   4e2e0:	91e5883a 	add	r18,r18,r7
   4e2e4:	95803616 	blt	r18,r22,4e3c0 <__sfvwrite_r+0x354>
   4e2e8:	b1c06a16 	blt	r22,r7,4e494 <__sfvwrite_r+0x428>
   4e2ec:	80800917 	ldw	r2,36(r16)
   4e2f0:	81400717 	ldw	r5,28(r16)
   4e2f4:	a80d883a 	mov	r6,r21
   4e2f8:	9809883a 	mov	r4,r19
   4e2fc:	103ee83a 	callr	r2
   4e300:	1025883a 	mov	r18,r2
   4e304:	00801a0e 	bge	zero,r2,4e370 <__sfvwrite_r+0x304>
   4e308:	bcafc83a 	sub	r23,r23,r18
   4e30c:	b8001426 	beq	r23,zero,4e360 <__sfvwrite_r+0x2f4>
   4e310:	00800044 	movi	r2,1
   4e314:	e0c00217 	ldw	r3,8(fp)
   4e318:	acab883a 	add	r21,r21,r18
   4e31c:	a4a9c83a 	sub	r20,r20,r18
   4e320:	1c87c83a 	sub	r3,r3,r18
   4e324:	e0c00215 	stw	r3,8(fp)
   4e328:	183fe21e 	bne	r3,zero,4e2b4 <__sfvwrite_r+0x248>
   4e32c:	0005883a 	mov	r2,zero
   4e330:	dfc00a17 	ldw	ra,40(sp)
   4e334:	df000917 	ldw	fp,36(sp)
   4e338:	ddc00817 	ldw	r23,32(sp)
   4e33c:	dd800717 	ldw	r22,28(sp)
   4e340:	dd400617 	ldw	r21,24(sp)
   4e344:	dd000517 	ldw	r20,20(sp)
   4e348:	dcc00417 	ldw	r19,16(sp)
   4e34c:	dc800317 	ldw	r18,12(sp)
   4e350:	dc400217 	ldw	r17,8(sp)
   4e354:	dc000117 	ldw	r16,4(sp)
   4e358:	dec00b04 	addi	sp,sp,44
   4e35c:	f800283a 	ret
   4e360:	800b883a 	mov	r5,r16
   4e364:	9809883a 	mov	r4,r19
   4e368:	00492ec0 	call	492ec <_fflush_r>
   4e36c:	103fe926 	beq	r2,zero,4e314 <__sfvwrite_r+0x2a8>
   4e370:	8080030b 	ldhu	r2,12(r16)
   4e374:	10801014 	ori	r2,r2,64
   4e378:	8080030d 	sth	r2,12(r16)
   4e37c:	00bfffc4 	movi	r2,-1
   4e380:	003feb06 	br	4e330 <__sfvwrite_r+0x2c4>
   4e384:	0005883a 	mov	r2,zero
   4e388:	f800283a 	ret
   4e38c:	8d000117 	ldw	r20,4(r17)
   4e390:	8805883a 	mov	r2,r17
   4e394:	8c400204 	addi	r17,r17,8
   4e398:	a03ffc26 	beq	r20,zero,4e38c <__sfvwrite_r+0x320>
   4e39c:	15400017 	ldw	r21,0(r2)
   4e3a0:	a00d883a 	mov	r6,r20
   4e3a4:	01400284 	movi	r5,10
   4e3a8:	a809883a 	mov	r4,r21
   4e3ac:	0049f140 	call	49f14 <memchr>
   4e3b0:	10004326 	beq	r2,zero,4e4c0 <__sfvwrite_r+0x454>
   4e3b4:	10800044 	addi	r2,r2,1
   4e3b8:	156fc83a 	sub	r23,r2,r21
   4e3bc:	003fbf06 	br	4e2bc <__sfvwrite_r+0x250>
   4e3c0:	a80b883a 	mov	r5,r21
   4e3c4:	900d883a 	mov	r6,r18
   4e3c8:	004e7140 	call	4e714 <memmove>
   4e3cc:	80800017 	ldw	r2,0(r16)
   4e3d0:	800b883a 	mov	r5,r16
   4e3d4:	9809883a 	mov	r4,r19
   4e3d8:	1485883a 	add	r2,r2,r18
   4e3dc:	80800015 	stw	r2,0(r16)
   4e3e0:	00492ec0 	call	492ec <_fflush_r>
   4e3e4:	103fc826 	beq	r2,zero,4e308 <__sfvwrite_r+0x29c>
   4e3e8:	003fe106 	br	4e370 <__sfvwrite_r+0x304>
   4e3ec:	80800417 	ldw	r2,16(r16)
   4e3f0:	11c01236 	bltu	r2,r7,4e43c <__sfvwrite_r+0x3d0>
   4e3f4:	81400517 	ldw	r5,20(r16)
   4e3f8:	91401036 	bltu	r18,r5,4e43c <__sfvwrite_r+0x3d0>
   4e3fc:	00a00034 	movhi	r2,32768
   4e400:	902f883a 	mov	r23,r18
   4e404:	90800136 	bltu	r18,r2,4e40c <__sfvwrite_r+0x3a0>
   4e408:	ddc00017 	ldw	r23,0(sp)
   4e40c:	b809883a 	mov	r4,r23
   4e410:	0040a3c0 	call	40a3c <__modsi3>
   4e414:	80c00917 	ldw	r3,36(r16)
   4e418:	81400717 	ldw	r5,28(r16)
   4e41c:	b88fc83a 	sub	r7,r23,r2
   4e420:	b00d883a 	mov	r6,r22
   4e424:	9809883a 	mov	r4,r19
   4e428:	183ee83a 	callr	r3
   4e42c:	102f883a 	mov	r23,r2
   4e430:	00bfcf0e 	bge	zero,r2,4e370 <__sfvwrite_r+0x304>
   4e434:	95e5c83a 	sub	r18,r18,r23
   4e438:	003f8b06 	br	4e268 <__sfvwrite_r+0x1fc>
   4e43c:	182f883a 	mov	r23,r3
   4e440:	90c0012e 	bgeu	r18,r3,4e448 <__sfvwrite_r+0x3dc>
   4e444:	902f883a 	mov	r23,r18
   4e448:	3809883a 	mov	r4,r7
   4e44c:	b80d883a 	mov	r6,r23
   4e450:	b00b883a 	mov	r5,r22
   4e454:	004e7140 	call	4e714 <memmove>
   4e458:	80c00217 	ldw	r3,8(r16)
   4e45c:	81c00017 	ldw	r7,0(r16)
   4e460:	1dc7c83a 	sub	r3,r3,r23
   4e464:	3dcf883a 	add	r7,r7,r23
   4e468:	80c00215 	stw	r3,8(r16)
   4e46c:	81c00015 	stw	r7,0(r16)
   4e470:	183ff01e 	bne	r3,zero,4e434 <__sfvwrite_r+0x3c8>
   4e474:	800b883a 	mov	r5,r16
   4e478:	9809883a 	mov	r4,r19
   4e47c:	00492ec0 	call	492ec <_fflush_r>
   4e480:	103fec26 	beq	r2,zero,4e434 <__sfvwrite_r+0x3c8>
   4e484:	003fba06 	br	4e370 <__sfvwrite_r+0x304>
   4e488:	9029883a 	mov	r20,r18
   4e48c:	902b883a 	mov	r21,r18
   4e490:	003f6a06 	br	4e23c <__sfvwrite_r+0x1d0>
   4e494:	b00d883a 	mov	r6,r22
   4e498:	a80b883a 	mov	r5,r21
   4e49c:	004e7140 	call	4e714 <memmove>
   4e4a0:	80c00217 	ldw	r3,8(r16)
   4e4a4:	80800017 	ldw	r2,0(r16)
   4e4a8:	b025883a 	mov	r18,r22
   4e4ac:	1d87c83a 	sub	r3,r3,r22
   4e4b0:	1585883a 	add	r2,r2,r22
   4e4b4:	80c00215 	stw	r3,8(r16)
   4e4b8:	80800015 	stw	r2,0(r16)
   4e4bc:	003f9206 	br	4e308 <__sfvwrite_r+0x29c>
   4e4c0:	a0800044 	addi	r2,r20,1
   4e4c4:	102f883a 	mov	r23,r2
   4e4c8:	003f7d06 	br	4e2c0 <__sfvwrite_r+0x254>
   4e4cc:	280d883a 	mov	r6,r5
   4e4d0:	200b883a 	mov	r5,r4
   4e4d4:	9809883a 	mov	r4,r19
   4e4d8:	004e8a00 	call	4e8a0 <_realloc_r>
   4e4dc:	1007883a 	mov	r3,r2
   4e4e0:	103f4e1e 	bne	r2,zero,4e21c <__sfvwrite_r+0x1b0>
   4e4e4:	81400417 	ldw	r5,16(r16)
   4e4e8:	9809883a 	mov	r4,r19
   4e4ec:	00498800 	call	49880 <_free_r>
   4e4f0:	8080030b 	ldhu	r2,12(r16)
   4e4f4:	00c00304 	movi	r3,12
   4e4f8:	98c00015 	stw	r3,0(r19)
   4e4fc:	10bfdfcc 	andi	r2,r2,65407
   4e500:	003f9c06 	br	4e374 <__sfvwrite_r+0x308>
   4e504:	00c00304 	movi	r3,12
   4e508:	8080030b 	ldhu	r2,12(r16)
   4e50c:	98c00015 	stw	r3,0(r19)
   4e510:	003f9806 	br	4e374 <__sfvwrite_r+0x308>

0004e514 <_isatty_r>:
   4e514:	defffe04 	addi	sp,sp,-8
   4e518:	dc000015 	stw	r16,0(sp)
   4e51c:	008001b4 	movhi	r2,6
   4e520:	2021883a 	mov	r16,r4
   4e524:	2809883a 	mov	r4,r5
   4e528:	dfc00115 	stw	ra,4(sp)
   4e52c:	10243f15 	stw	zero,-28420(r2)
   4e530:	00525800 	call	52580 <isatty>
   4e534:	10ffffd8 	cmpnei	r3,r2,-1
   4e538:	18000426 	beq	r3,zero,4e54c <_isatty_r+0x38>
   4e53c:	dfc00117 	ldw	ra,4(sp)
   4e540:	dc000017 	ldw	r16,0(sp)
   4e544:	dec00204 	addi	sp,sp,8
   4e548:	f800283a 	ret
   4e54c:	00c001b4 	movhi	r3,6
   4e550:	18e43f17 	ldw	r3,-28420(r3)
   4e554:	183ff926 	beq	r3,zero,4e53c <_isatty_r+0x28>
   4e558:	80c00015 	stw	r3,0(r16)
   4e55c:	dfc00117 	ldw	ra,4(sp)
   4e560:	dc000017 	ldw	r16,0(sp)
   4e564:	dec00204 	addi	sp,sp,8
   4e568:	f800283a 	ret

0004e56c <_setlocale_r>:
   4e56c:	30001626 	beq	r6,zero,4e5c8 <_setlocale_r+0x5c>
   4e570:	01400174 	movhi	r5,5
   4e574:	defffe04 	addi	sp,sp,-8
   4e578:	29558304 	addi	r5,r5,22028
   4e57c:	3009883a 	mov	r4,r6
   4e580:	dc000015 	stw	r16,0(sp)
   4e584:	dfc00115 	stw	ra,4(sp)
   4e588:	3021883a 	mov	r16,r6
   4e58c:	004ee940 	call	4ee94 <strcmp>
   4e590:	1000061e 	bne	r2,zero,4e5ac <_setlocale_r+0x40>
   4e594:	00800174 	movhi	r2,5
   4e598:	10958204 	addi	r2,r2,22024
   4e59c:	dfc00117 	ldw	ra,4(sp)
   4e5a0:	dc000017 	ldw	r16,0(sp)
   4e5a4:	dec00204 	addi	sp,sp,8
   4e5a8:	f800283a 	ret
   4e5ac:	80800003 	ldbu	r2,0(r16)
   4e5b0:	10bfef44 	addi	r2,r2,-67
   4e5b4:	10000726 	beq	r2,zero,4e5d4 <_setlocale_r+0x68>
   4e5b8:	80800003 	ldbu	r2,0(r16)
   4e5bc:	103ff526 	beq	r2,zero,4e594 <_setlocale_r+0x28>
   4e5c0:	0005883a 	mov	r2,zero
   4e5c4:	003ff506 	br	4e59c <_setlocale_r+0x30>
   4e5c8:	00800174 	movhi	r2,5
   4e5cc:	10958204 	addi	r2,r2,22024
   4e5d0:	f800283a 	ret
   4e5d4:	80800043 	ldbu	r2,1(r16)
   4e5d8:	103fee26 	beq	r2,zero,4e594 <_setlocale_r+0x28>
   4e5dc:	003ff606 	br	4e5b8 <_setlocale_r+0x4c>

0004e5e0 <__locale_mb_cur_max>:
   4e5e0:	00800174 	movhi	r2,5
   4e5e4:	10988d07 	ldb	r2,25140(r2)
   4e5e8:	f800283a 	ret

0004e5ec <setlocale>:
   4e5ec:	28001626 	beq	r5,zero,4e648 <setlocale+0x5c>
   4e5f0:	defffe04 	addi	sp,sp,-8
   4e5f4:	dc000015 	stw	r16,0(sp)
   4e5f8:	2821883a 	mov	r16,r5
   4e5fc:	01400174 	movhi	r5,5
   4e600:	29558304 	addi	r5,r5,22028
   4e604:	8009883a 	mov	r4,r16
   4e608:	dfc00115 	stw	ra,4(sp)
   4e60c:	004ee940 	call	4ee94 <strcmp>
   4e610:	1000061e 	bne	r2,zero,4e62c <setlocale+0x40>
   4e614:	00800174 	movhi	r2,5
   4e618:	10958204 	addi	r2,r2,22024
   4e61c:	dfc00117 	ldw	ra,4(sp)
   4e620:	dc000017 	ldw	r16,0(sp)
   4e624:	dec00204 	addi	sp,sp,8
   4e628:	f800283a 	ret
   4e62c:	80800003 	ldbu	r2,0(r16)
   4e630:	10bfef44 	addi	r2,r2,-67
   4e634:	10000726 	beq	r2,zero,4e654 <setlocale+0x68>
   4e638:	80800003 	ldbu	r2,0(r16)
   4e63c:	103ff526 	beq	r2,zero,4e614 <setlocale+0x28>
   4e640:	0005883a 	mov	r2,zero
   4e644:	003ff506 	br	4e61c <setlocale+0x30>
   4e648:	00800174 	movhi	r2,5
   4e64c:	10958204 	addi	r2,r2,22024
   4e650:	f800283a 	ret
   4e654:	80800043 	ldbu	r2,1(r16)
   4e658:	103fee26 	beq	r2,zero,4e614 <setlocale+0x28>
   4e65c:	003ff606 	br	4e638 <setlocale+0x4c>

0004e660 <_lseek_r>:
   4e660:	2807883a 	mov	r3,r5
   4e664:	defffe04 	addi	sp,sp,-8
   4e668:	dc000015 	stw	r16,0(sp)
   4e66c:	300b883a 	mov	r5,r6
   4e670:	008001b4 	movhi	r2,6
   4e674:	380d883a 	mov	r6,r7
   4e678:	2021883a 	mov	r16,r4
   4e67c:	1809883a 	mov	r4,r3
   4e680:	dfc00115 	stw	ra,4(sp)
   4e684:	10243f15 	stw	zero,-28420(r2)
   4e688:	00528840 	call	52884 <lseek>
   4e68c:	10ffffd8 	cmpnei	r3,r2,-1
   4e690:	18000426 	beq	r3,zero,4e6a4 <_lseek_r+0x44>
   4e694:	dfc00117 	ldw	ra,4(sp)
   4e698:	dc000017 	ldw	r16,0(sp)
   4e69c:	dec00204 	addi	sp,sp,8
   4e6a0:	f800283a 	ret
   4e6a4:	00c001b4 	movhi	r3,6
   4e6a8:	18e43f17 	ldw	r3,-28420(r3)
   4e6ac:	183ff926 	beq	r3,zero,4e694 <_lseek_r+0x34>
   4e6b0:	80c00015 	stw	r3,0(r16)
   4e6b4:	dfc00117 	ldw	ra,4(sp)
   4e6b8:	dc000017 	ldw	r16,0(sp)
   4e6bc:	dec00204 	addi	sp,sp,8
   4e6c0:	f800283a 	ret

0004e6c4 <_mbtowc_r>:
   4e6c4:	00800174 	movhi	r2,5
   4e6c8:	10987c17 	ldw	r2,25072(r2)
   4e6cc:	1000683a 	jmp	r2

0004e6d0 <__ascii_mbtowc>:
   4e6d0:	deffff04 	addi	sp,sp,-4
   4e6d4:	28000826 	beq	r5,zero,4e6f8 <__ascii_mbtowc+0x28>
   4e6d8:	30000926 	beq	r6,zero,4e700 <__ascii_mbtowc+0x30>
   4e6dc:	38000b26 	beq	r7,zero,4e70c <__ascii_mbtowc+0x3c>
   4e6e0:	30800003 	ldbu	r2,0(r6)
   4e6e4:	28800015 	stw	r2,0(r5)
   4e6e8:	30800003 	ldbu	r2,0(r6)
   4e6ec:	1004c03a 	cmpne	r2,r2,zero
   4e6f0:	dec00104 	addi	sp,sp,4
   4e6f4:	f800283a 	ret
   4e6f8:	d80b883a 	mov	r5,sp
   4e6fc:	303ff71e 	bne	r6,zero,4e6dc <__ascii_mbtowc+0xc>
   4e700:	0005883a 	mov	r2,zero
   4e704:	dec00104 	addi	sp,sp,4
   4e708:	f800283a 	ret
   4e70c:	00bfff84 	movi	r2,-2
   4e710:	003ff706 	br	4e6f0 <__ascii_mbtowc+0x20>

0004e714 <memmove>:
   4e714:	2005883a 	mov	r2,r4
   4e718:	29000a2e 	bgeu	r5,r4,4e744 <memmove+0x30>
   4e71c:	298f883a 	add	r7,r5,r6
   4e720:	21c0082e 	bgeu	r4,r7,4e744 <memmove+0x30>
   4e724:	2187883a 	add	r3,r4,r6
   4e728:	30001226 	beq	r6,zero,4e774 <memmove+0x60>
   4e72c:	397fffc3 	ldbu	r5,-1(r7)
   4e730:	18ffffc4 	addi	r3,r3,-1
   4e734:	39ffffc4 	addi	r7,r7,-1
   4e738:	19400005 	stb	r5,0(r3)
   4e73c:	10fffb1e 	bne	r2,r3,4e72c <memmove+0x18>
   4e740:	f800283a 	ret
   4e744:	30c00428 	cmpgeui	r3,r6,16
   4e748:	18000b1e 	bne	r3,zero,4e778 <memmove+0x64>
   4e74c:	1007883a 	mov	r3,r2
   4e750:	31ffffc4 	addi	r7,r6,-1
   4e754:	30003626 	beq	r6,zero,4e830 <memmove+0x11c>
   4e758:	39c00044 	addi	r7,r7,1
   4e75c:	19cf883a 	add	r7,r3,r7
   4e760:	29800003 	ldbu	r6,0(r5)
   4e764:	18c00044 	addi	r3,r3,1
   4e768:	29400044 	addi	r5,r5,1
   4e76c:	19bfffc5 	stb	r6,-1(r3)
   4e770:	19fffb1e 	bne	r3,r7,4e760 <memmove+0x4c>
   4e774:	f800283a 	ret
   4e778:	1146b03a 	or	r3,r2,r5
   4e77c:	18c000cc 	andi	r3,r3,3
   4e780:	1800281e 	bne	r3,zero,4e824 <memmove+0x110>
   4e784:	313ffc04 	addi	r4,r6,-16
   4e788:	2008d13a 	srli	r4,r4,4
   4e78c:	2811883a 	mov	r8,r5
   4e790:	100f883a 	mov	r7,r2
   4e794:	21000044 	addi	r4,r4,1
   4e798:	2008913a 	slli	r4,r4,4
   4e79c:	1107883a 	add	r3,r2,r4
   4e7a0:	42400017 	ldw	r9,0(r8)
   4e7a4:	42000404 	addi	r8,r8,16
   4e7a8:	39c00404 	addi	r7,r7,16
   4e7ac:	3a7ffc15 	stw	r9,-16(r7)
   4e7b0:	427ffd17 	ldw	r9,-12(r8)
   4e7b4:	3a7ffd15 	stw	r9,-12(r7)
   4e7b8:	427ffe17 	ldw	r9,-8(r8)
   4e7bc:	3a7ffe15 	stw	r9,-8(r7)
   4e7c0:	427fff17 	ldw	r9,-4(r8)
   4e7c4:	3a7fff15 	stw	r9,-4(r7)
   4e7c8:	38fff51e 	bne	r7,r3,4e7a0 <memmove+0x8c>
   4e7cc:	31c0030c 	andi	r7,r6,12
   4e7d0:	290b883a 	add	r5,r5,r4
   4e7d4:	324003cc 	andi	r9,r6,15
   4e7d8:	38001626 	beq	r7,zero,4e834 <memmove+0x120>
   4e7dc:	2809883a 	mov	r4,r5
   4e7e0:	180f883a 	mov	r7,r3
   4e7e4:	1a57883a 	add	r11,r3,r9
   4e7e8:	22800017 	ldw	r10,0(r4)
   4e7ec:	39c00104 	addi	r7,r7,4
   4e7f0:	59d1c83a 	sub	r8,r11,r7
   4e7f4:	42000128 	cmpgeui	r8,r8,4
   4e7f8:	3abfff15 	stw	r10,-4(r7)
   4e7fc:	21000104 	addi	r4,r4,4
   4e800:	403ff91e 	bne	r8,zero,4e7e8 <memmove+0xd4>
   4e804:	493fff04 	addi	r4,r9,-4
   4e808:	2008d0ba 	srli	r4,r4,2
   4e80c:	318000cc 	andi	r6,r6,3
   4e810:	21000044 	addi	r4,r4,1
   4e814:	200890ba 	slli	r4,r4,2
   4e818:	1907883a 	add	r3,r3,r4
   4e81c:	290b883a 	add	r5,r5,r4
   4e820:	003fcb06 	br	4e750 <memmove+0x3c>
   4e824:	31ffffc4 	addi	r7,r6,-1
   4e828:	1007883a 	mov	r3,r2
   4e82c:	003fca06 	br	4e758 <memmove+0x44>
   4e830:	f800283a 	ret
   4e834:	480d883a 	mov	r6,r9
   4e838:	003fc506 	br	4e750 <memmove+0x3c>

0004e83c <_read_r>:
   4e83c:	2807883a 	mov	r3,r5
   4e840:	defffe04 	addi	sp,sp,-8
   4e844:	dc000015 	stw	r16,0(sp)
   4e848:	300b883a 	mov	r5,r6
   4e84c:	008001b4 	movhi	r2,6
   4e850:	380d883a 	mov	r6,r7
   4e854:	2021883a 	mov	r16,r4
   4e858:	1809883a 	mov	r4,r3
   4e85c:	dfc00115 	stw	ra,4(sp)
   4e860:	10243f15 	stw	zero,-28420(r2)
   4e864:	0052aa00 	call	52aa0 <read>
   4e868:	10ffffd8 	cmpnei	r3,r2,-1
   4e86c:	18000426 	beq	r3,zero,4e880 <_read_r+0x44>
   4e870:	dfc00117 	ldw	ra,4(sp)
   4e874:	dc000017 	ldw	r16,0(sp)
   4e878:	dec00204 	addi	sp,sp,8
   4e87c:	f800283a 	ret
   4e880:	00c001b4 	movhi	r3,6
   4e884:	18e43f17 	ldw	r3,-28420(r3)
   4e888:	183ff926 	beq	r3,zero,4e870 <_read_r+0x34>
   4e88c:	80c00015 	stw	r3,0(r16)
   4e890:	dfc00117 	ldw	ra,4(sp)
   4e894:	dc000017 	ldw	r16,0(sp)
   4e898:	dec00204 	addi	sp,sp,8
   4e89c:	f800283a 	ret

0004e8a0 <_realloc_r>:
   4e8a0:	defff504 	addi	sp,sp,-44
   4e8a4:	dd000515 	stw	r20,20(sp)
   4e8a8:	dfc00a15 	stw	ra,40(sp)
   4e8ac:	df000915 	stw	fp,36(sp)
   4e8b0:	ddc00815 	stw	r23,32(sp)
   4e8b4:	dd800715 	stw	r22,28(sp)
   4e8b8:	dd400615 	stw	r21,24(sp)
   4e8bc:	dcc00415 	stw	r19,16(sp)
   4e8c0:	dc800315 	stw	r18,12(sp)
   4e8c4:	dc400215 	stw	r17,8(sp)
   4e8c8:	dc000115 	stw	r16,4(sp)
   4e8cc:	3029883a 	mov	r20,r6
   4e8d0:	28008a26 	beq	r5,zero,4eafc <_realloc_r+0x25c>
   4e8d4:	2821883a 	mov	r16,r5
   4e8d8:	202b883a 	mov	r21,r4
   4e8dc:	00529e00 	call	529e0 <__malloc_lock>
   4e8e0:	84ffff17 	ldw	r19,-4(r16)
   4e8e4:	a44002c4 	addi	r17,r20,11
   4e8e8:	04bfff04 	movi	r18,-4
   4e8ec:	888005f0 	cmpltui	r2,r17,23
   4e8f0:	85bffe04 	addi	r22,r16,-8
   4e8f4:	9ca4703a 	and	r18,r19,r18
   4e8f8:	10005a1e 	bne	r2,zero,4ea64 <_realloc_r+0x1c4>
   4e8fc:	00bffe04 	movi	r2,-8
   4e900:	88a2703a 	and	r17,r17,r2
   4e904:	88005916 	blt	r17,zero,4ea6c <_realloc_r+0x1cc>
   4e908:	8d005836 	bltu	r17,r20,4ea6c <_realloc_r+0x1cc>
   4e90c:	94403b0e 	bge	r18,r17,4e9fc <_realloc_r+0x15c>
   4e910:	05c00174 	movhi	r23,5
   4e914:	bdd74104 	addi	r23,r23,23812
   4e918:	b9400217 	ldw	r5,8(r23)
   4e91c:	b489883a 	add	r4,r22,r18
   4e920:	20800117 	ldw	r2,4(r4)
   4e924:	29008e26 	beq	r5,r4,4eb60 <_realloc_r+0x2c0>
   4e928:	00ffff84 	movi	r3,-2
   4e92c:	10c6703a 	and	r3,r2,r3
   4e930:	20c7883a 	add	r3,r4,r3
   4e934:	18c00117 	ldw	r3,4(r3)
   4e938:	18c0004c 	andi	r3,r3,1
   4e93c:	18004f1e 	bne	r3,zero,4ea7c <_realloc_r+0x1dc>
   4e940:	00ffff04 	movi	r3,-4
   4e944:	10c4703a 	and	r2,r2,r3
   4e948:	9087883a 	add	r3,r18,r2
   4e94c:	1c40c30e 	bge	r3,r17,4ec5c <_realloc_r+0x3bc>
   4e950:	9cc0004c 	andi	r19,r19,1
   4e954:	98004b1e 	bne	r19,zero,4ea84 <_realloc_r+0x1e4>
   4e958:	873ffe17 	ldw	fp,-8(r16)
   4e95c:	00ffff04 	movi	r3,-4
   4e960:	b739c83a 	sub	fp,r22,fp
   4e964:	e4c00117 	ldw	r19,4(fp)
   4e968:	98c6703a 	and	r3,r19,r3
   4e96c:	20000426 	beq	r4,zero,4e980 <_realloc_r+0xe0>
   4e970:	90cf883a 	add	r7,r18,r3
   4e974:	388f883a 	add	r7,r7,r2
   4e978:	2900c226 	beq	r5,r4,4ec84 <_realloc_r+0x3e4>
   4e97c:	3c409e0e 	bge	r7,r17,4ebf8 <_realloc_r+0x358>
   4e980:	e0004026 	beq	fp,zero,4ea84 <_realloc_r+0x1e4>
   4e984:	90ef883a 	add	r23,r18,r3
   4e988:	bc403e16 	blt	r23,r17,4ea84 <_realloc_r+0x1e4>
   4e98c:	e0800317 	ldw	r2,12(fp)
   4e990:	e0c00217 	ldw	r3,8(fp)
   4e994:	91bfff04 	addi	r6,r18,-4
   4e998:	31400968 	cmpgeui	r5,r6,37
   4e99c:	18800315 	stw	r2,12(r3)
   4e9a0:	10c00215 	stw	r3,8(r2)
   4e9a4:	e1000204 	addi	r4,fp,8
   4e9a8:	2800e71e 	bne	r5,zero,4ed48 <_realloc_r+0x4a8>
   4e9ac:	30800530 	cmpltui	r2,r6,20
   4e9b0:	1000e31e 	bne	r2,zero,4ed40 <_realloc_r+0x4a0>
   4e9b4:	80c00017 	ldw	r3,0(r16)
   4e9b8:	30800728 	cmpgeui	r2,r6,28
   4e9bc:	e0c00215 	stw	r3,8(fp)
   4e9c0:	80c00117 	ldw	r3,4(r16)
   4e9c4:	e0c00315 	stw	r3,12(fp)
   4e9c8:	1000fa1e 	bne	r2,zero,4edb4 <_realloc_r+0x514>
   4e9cc:	84000204 	addi	r16,r16,8
   4e9d0:	e0800404 	addi	r2,fp,16
   4e9d4:	80c00017 	ldw	r3,0(r16)
   4e9d8:	b825883a 	mov	r18,r23
   4e9dc:	10c00015 	stw	r3,0(r2)
   4e9e0:	80c00117 	ldw	r3,4(r16)
   4e9e4:	e02d883a 	mov	r22,fp
   4e9e8:	10c00115 	stw	r3,4(r2)
   4e9ec:	80c00217 	ldw	r3,8(r16)
   4e9f0:	2021883a 	mov	r16,r4
   4e9f4:	10c00215 	stw	r3,8(r2)
   4e9f8:	e4c00117 	ldw	r19,4(fp)
   4e9fc:	9447c83a 	sub	r3,r18,r17
   4ea00:	19000430 	cmpltui	r4,r3,16
   4ea04:	9cc0004c 	andi	r19,r19,1
   4ea08:	b485883a 	add	r2,r22,r18
   4ea0c:	20004826 	beq	r4,zero,4eb30 <_realloc_r+0x290>
   4ea10:	94e6b03a 	or	r19,r18,r19
   4ea14:	b4c00115 	stw	r19,4(r22)
   4ea18:	10c00117 	ldw	r3,4(r2)
   4ea1c:	18c00054 	ori	r3,r3,1
   4ea20:	10c00115 	stw	r3,4(r2)
   4ea24:	a809883a 	mov	r4,r21
   4ea28:	0052a040 	call	52a04 <__malloc_unlock>
   4ea2c:	8029883a 	mov	r20,r16
   4ea30:	a005883a 	mov	r2,r20
   4ea34:	dfc00a17 	ldw	ra,40(sp)
   4ea38:	df000917 	ldw	fp,36(sp)
   4ea3c:	ddc00817 	ldw	r23,32(sp)
   4ea40:	dd800717 	ldw	r22,28(sp)
   4ea44:	dd400617 	ldw	r21,24(sp)
   4ea48:	dd000517 	ldw	r20,20(sp)
   4ea4c:	dcc00417 	ldw	r19,16(sp)
   4ea50:	dc800317 	ldw	r18,12(sp)
   4ea54:	dc400217 	ldw	r17,8(sp)
   4ea58:	dc000117 	ldw	r16,4(sp)
   4ea5c:	dec00b04 	addi	sp,sp,44
   4ea60:	f800283a 	ret
   4ea64:	04400404 	movi	r17,16
   4ea68:	8d3fa82e 	bgeu	r17,r20,4e90c <_realloc_r+0x6c>
   4ea6c:	00800304 	movi	r2,12
   4ea70:	a8800015 	stw	r2,0(r21)
   4ea74:	0029883a 	mov	r20,zero
   4ea78:	003fed06 	br	4ea30 <_realloc_r+0x190>
   4ea7c:	9cc0004c 	andi	r19,r19,1
   4ea80:	98004e26 	beq	r19,zero,4ebbc <_realloc_r+0x31c>
   4ea84:	a00b883a 	mov	r5,r20
   4ea88:	a809883a 	mov	r4,r21
   4ea8c:	00421240 	call	42124 <_malloc_r>
   4ea90:	1029883a 	mov	r20,r2
   4ea94:	1000bd26 	beq	r2,zero,4ed8c <_realloc_r+0x4ec>
   4ea98:	84ffff17 	ldw	r19,-4(r16)
   4ea9c:	10fffe04 	addi	r3,r2,-8
   4eaa0:	00bfff84 	movi	r2,-2
   4eaa4:	9884703a 	and	r2,r19,r2
   4eaa8:	b085883a 	add	r2,r22,r2
   4eaac:	10c03e26 	beq	r2,r3,4eba8 <_realloc_r+0x308>
   4eab0:	91bfff04 	addi	r6,r18,-4
   4eab4:	30800968 	cmpgeui	r2,r6,37
   4eab8:	10006e1e 	bne	r2,zero,4ec74 <_realloc_r+0x3d4>
   4eabc:	30800530 	cmpltui	r2,r6,20
   4eac0:	10004426 	beq	r2,zero,4ebd4 <_realloc_r+0x334>
   4eac4:	a005883a 	mov	r2,r20
   4eac8:	8007883a 	mov	r3,r16
   4eacc:	19000017 	ldw	r4,0(r3)
   4ead0:	11000015 	stw	r4,0(r2)
   4ead4:	19000117 	ldw	r4,4(r3)
   4ead8:	11000115 	stw	r4,4(r2)
   4eadc:	18c00217 	ldw	r3,8(r3)
   4eae0:	10c00215 	stw	r3,8(r2)
   4eae4:	a809883a 	mov	r4,r21
   4eae8:	800b883a 	mov	r5,r16
   4eaec:	00498800 	call	49880 <_free_r>
   4eaf0:	a809883a 	mov	r4,r21
   4eaf4:	0052a040 	call	52a04 <__malloc_unlock>
   4eaf8:	003fcd06 	br	4ea30 <_realloc_r+0x190>
   4eafc:	300b883a 	mov	r5,r6
   4eb00:	dfc00a17 	ldw	ra,40(sp)
   4eb04:	df000917 	ldw	fp,36(sp)
   4eb08:	ddc00817 	ldw	r23,32(sp)
   4eb0c:	dd800717 	ldw	r22,28(sp)
   4eb10:	dd400617 	ldw	r21,24(sp)
   4eb14:	dd000517 	ldw	r20,20(sp)
   4eb18:	dcc00417 	ldw	r19,16(sp)
   4eb1c:	dc800317 	ldw	r18,12(sp)
   4eb20:	dc400217 	ldw	r17,8(sp)
   4eb24:	dc000117 	ldw	r16,4(sp)
   4eb28:	dec00b04 	addi	sp,sp,44
   4eb2c:	00421241 	jmpi	42124 <_malloc_r>
   4eb30:	8ce6b03a 	or	r19,r17,r19
   4eb34:	b4c00115 	stw	r19,4(r22)
   4eb38:	b44b883a 	add	r5,r22,r17
   4eb3c:	18c00054 	ori	r3,r3,1
   4eb40:	28c00115 	stw	r3,4(r5)
   4eb44:	10c00117 	ldw	r3,4(r2)
   4eb48:	29400204 	addi	r5,r5,8
   4eb4c:	a809883a 	mov	r4,r21
   4eb50:	18c00054 	ori	r3,r3,1
   4eb54:	10c00115 	stw	r3,4(r2)
   4eb58:	00498800 	call	49880 <_free_r>
   4eb5c:	003fb106 	br	4ea24 <_realloc_r+0x184>
   4eb60:	00ffff04 	movi	r3,-4
   4eb64:	10c4703a 	and	r2,r2,r3
   4eb68:	1487883a 	add	r3,r2,r18
   4eb6c:	89800404 	addi	r6,r17,16
   4eb70:	19bf7716 	blt	r3,r6,4e950 <_realloc_r+0xb0>
   4eb74:	b46d883a 	add	r22,r22,r17
   4eb78:	1c45c83a 	sub	r2,r3,r17
   4eb7c:	bd800215 	stw	r22,8(r23)
   4eb80:	10800054 	ori	r2,r2,1
   4eb84:	b0800115 	stw	r2,4(r22)
   4eb88:	80bfff17 	ldw	r2,-4(r16)
   4eb8c:	a809883a 	mov	r4,r21
   4eb90:	8029883a 	mov	r20,r16
   4eb94:	1080004c 	andi	r2,r2,1
   4eb98:	1444b03a 	or	r2,r2,r17
   4eb9c:	80bfff15 	stw	r2,-4(r16)
   4eba0:	0052a040 	call	52a04 <__malloc_unlock>
   4eba4:	003fa206 	br	4ea30 <_realloc_r+0x190>
   4eba8:	a0bfff17 	ldw	r2,-4(r20)
   4ebac:	00ffff04 	movi	r3,-4
   4ebb0:	10c4703a 	and	r2,r2,r3
   4ebb4:	90a5883a 	add	r18,r18,r2
   4ebb8:	003f9006 	br	4e9fc <_realloc_r+0x15c>
   4ebbc:	873ffe17 	ldw	fp,-8(r16)
   4ebc0:	00bfff04 	movi	r2,-4
   4ebc4:	b739c83a 	sub	fp,r22,fp
   4ebc8:	e0c00117 	ldw	r3,4(fp)
   4ebcc:	1886703a 	and	r3,r3,r2
   4ebd0:	003f6b06 	br	4e980 <_realloc_r+0xe0>
   4ebd4:	80c00017 	ldw	r3,0(r16)
   4ebd8:	30800728 	cmpgeui	r2,r6,28
   4ebdc:	a0c00015 	stw	r3,0(r20)
   4ebe0:	80c00117 	ldw	r3,4(r16)
   4ebe4:	a0c00115 	stw	r3,4(r20)
   4ebe8:	10004c1e 	bne	r2,zero,4ed1c <_realloc_r+0x47c>
   4ebec:	80c00204 	addi	r3,r16,8
   4ebf0:	a0800204 	addi	r2,r20,8
   4ebf4:	003fb506 	br	4eacc <_realloc_r+0x22c>
   4ebf8:	20800317 	ldw	r2,12(r4)
   4ebfc:	20c00217 	ldw	r3,8(r4)
   4ec00:	91bfff04 	addi	r6,r18,-4
   4ec04:	31400968 	cmpgeui	r5,r6,37
   4ec08:	18800315 	stw	r2,12(r3)
   4ec0c:	10c00215 	stw	r3,8(r2)
   4ec10:	e0c00217 	ldw	r3,8(fp)
   4ec14:	e0800317 	ldw	r2,12(fp)
   4ec18:	e1000204 	addi	r4,fp,8
   4ec1c:	18800315 	stw	r2,12(r3)
   4ec20:	10c00215 	stw	r3,8(r2)
   4ec24:	2800511e 	bne	r5,zero,4ed6c <_realloc_r+0x4cc>
   4ec28:	30800530 	cmpltui	r2,r6,20
   4ec2c:	10004d1e 	bne	r2,zero,4ed64 <_realloc_r+0x4c4>
   4ec30:	80c00017 	ldw	r3,0(r16)
   4ec34:	30800728 	cmpgeui	r2,r6,28
   4ec38:	e0c00215 	stw	r3,8(fp)
   4ec3c:	80c00117 	ldw	r3,4(r16)
   4ec40:	e0c00315 	stw	r3,12(fp)
   4ec44:	1000641e 	bne	r2,zero,4edd8 <_realloc_r+0x538>
   4ec48:	84000204 	addi	r16,r16,8
   4ec4c:	e0800404 	addi	r2,fp,16
   4ec50:	80c00017 	ldw	r3,0(r16)
   4ec54:	3825883a 	mov	r18,r7
   4ec58:	003f6006 	br	4e9dc <_realloc_r+0x13c>
   4ec5c:	20800317 	ldw	r2,12(r4)
   4ec60:	21000217 	ldw	r4,8(r4)
   4ec64:	1825883a 	mov	r18,r3
   4ec68:	20800315 	stw	r2,12(r4)
   4ec6c:	11000215 	stw	r4,8(r2)
   4ec70:	003f6206 	br	4e9fc <_realloc_r+0x15c>
   4ec74:	800b883a 	mov	r5,r16
   4ec78:	a009883a 	mov	r4,r20
   4ec7c:	004e7140 	call	4e714 <memmove>
   4ec80:	003f9806 	br	4eae4 <_realloc_r+0x244>
   4ec84:	88800404 	addi	r2,r17,16
   4ec88:	38bf3d16 	blt	r7,r2,4e980 <_realloc_r+0xe0>
   4ec8c:	e0800317 	ldw	r2,12(fp)
   4ec90:	e0c00217 	ldw	r3,8(fp)
   4ec94:	91bfff04 	addi	r6,r18,-4
   4ec98:	31000968 	cmpgeui	r4,r6,37
   4ec9c:	18800315 	stw	r2,12(r3)
   4eca0:	10c00215 	stw	r3,8(r2)
   4eca4:	e5000204 	addi	r20,fp,8
   4eca8:	2000561e 	bne	r4,zero,4ee04 <_realloc_r+0x564>
   4ecac:	30800530 	cmpltui	r2,r6,20
   4ecb0:	1000521e 	bne	r2,zero,4edfc <_realloc_r+0x55c>
   4ecb4:	80c00017 	ldw	r3,0(r16)
   4ecb8:	30800728 	cmpgeui	r2,r6,28
   4ecbc:	e0c00215 	stw	r3,8(fp)
   4ecc0:	80c00117 	ldw	r3,4(r16)
   4ecc4:	e0c00315 	stw	r3,12(fp)
   4ecc8:	1000541e 	bne	r2,zero,4ee1c <_realloc_r+0x57c>
   4eccc:	84000204 	addi	r16,r16,8
   4ecd0:	e0800404 	addi	r2,fp,16
   4ecd4:	80c00017 	ldw	r3,0(r16)
   4ecd8:	10c00015 	stw	r3,0(r2)
   4ecdc:	80c00117 	ldw	r3,4(r16)
   4ece0:	10c00115 	stw	r3,4(r2)
   4ece4:	80c00217 	ldw	r3,8(r16)
   4ece8:	10c00215 	stw	r3,8(r2)
   4ecec:	e447883a 	add	r3,fp,r17
   4ecf0:	3c45c83a 	sub	r2,r7,r17
   4ecf4:	b8c00215 	stw	r3,8(r23)
   4ecf8:	10800054 	ori	r2,r2,1
   4ecfc:	18800115 	stw	r2,4(r3)
   4ed00:	e0800117 	ldw	r2,4(fp)
   4ed04:	a809883a 	mov	r4,r21
   4ed08:	1080004c 	andi	r2,r2,1
   4ed0c:	1444b03a 	or	r2,r2,r17
   4ed10:	e0800115 	stw	r2,4(fp)
   4ed14:	0052a040 	call	52a04 <__malloc_unlock>
   4ed18:	003f4506 	br	4ea30 <_realloc_r+0x190>
   4ed1c:	80800217 	ldw	r2,8(r16)
   4ed20:	31800920 	cmpeqi	r6,r6,36
   4ed24:	a0800215 	stw	r2,8(r20)
   4ed28:	80800317 	ldw	r2,12(r16)
   4ed2c:	a0800315 	stw	r2,12(r20)
   4ed30:	3000191e 	bne	r6,zero,4ed98 <_realloc_r+0x4f8>
   4ed34:	80c00404 	addi	r3,r16,16
   4ed38:	a0800404 	addi	r2,r20,16
   4ed3c:	003f6306 	br	4eacc <_realloc_r+0x22c>
   4ed40:	2005883a 	mov	r2,r4
   4ed44:	003f2306 	br	4e9d4 <_realloc_r+0x134>
   4ed48:	800b883a 	mov	r5,r16
   4ed4c:	004e7140 	call	4e714 <memmove>
   4ed50:	1021883a 	mov	r16,r2
   4ed54:	e4c00117 	ldw	r19,4(fp)
   4ed58:	b825883a 	mov	r18,r23
   4ed5c:	e02d883a 	mov	r22,fp
   4ed60:	003f2606 	br	4e9fc <_realloc_r+0x15c>
   4ed64:	2005883a 	mov	r2,r4
   4ed68:	003fb906 	br	4ec50 <_realloc_r+0x3b0>
   4ed6c:	800b883a 	mov	r5,r16
   4ed70:	d9c00015 	stw	r7,0(sp)
   4ed74:	004e7140 	call	4e714 <memmove>
   4ed78:	d9c00017 	ldw	r7,0(sp)
   4ed7c:	1021883a 	mov	r16,r2
   4ed80:	e02d883a 	mov	r22,fp
   4ed84:	3825883a 	mov	r18,r7
   4ed88:	003f1c06 	br	4e9fc <_realloc_r+0x15c>
   4ed8c:	a809883a 	mov	r4,r21
   4ed90:	0052a040 	call	52a04 <__malloc_unlock>
   4ed94:	003f3706 	br	4ea74 <_realloc_r+0x1d4>
   4ed98:	81000417 	ldw	r4,16(r16)
   4ed9c:	80c00604 	addi	r3,r16,24
   4eda0:	a0800604 	addi	r2,r20,24
   4eda4:	a1000415 	stw	r4,16(r20)
   4eda8:	81000517 	ldw	r4,20(r16)
   4edac:	a1000515 	stw	r4,20(r20)
   4edb0:	003f4606 	br	4eacc <_realloc_r+0x22c>
   4edb4:	80800217 	ldw	r2,8(r16)
   4edb8:	31800920 	cmpeqi	r6,r6,36
   4edbc:	e0800415 	stw	r2,16(fp)
   4edc0:	80800317 	ldw	r2,12(r16)
   4edc4:	e0800515 	stw	r2,20(fp)
   4edc8:	30001d1e 	bne	r6,zero,4ee40 <_realloc_r+0x5a0>
   4edcc:	84000404 	addi	r16,r16,16
   4edd0:	e0800604 	addi	r2,fp,24
   4edd4:	003eff06 	br	4e9d4 <_realloc_r+0x134>
   4edd8:	80800217 	ldw	r2,8(r16)
   4eddc:	31800920 	cmpeqi	r6,r6,36
   4ede0:	e0800415 	stw	r2,16(fp)
   4ede4:	80800317 	ldw	r2,12(r16)
   4ede8:	e0800515 	stw	r2,20(fp)
   4edec:	30001b1e 	bne	r6,zero,4ee5c <_realloc_r+0x5bc>
   4edf0:	84000404 	addi	r16,r16,16
   4edf4:	e0800604 	addi	r2,fp,24
   4edf8:	003f9506 	br	4ec50 <_realloc_r+0x3b0>
   4edfc:	a005883a 	mov	r2,r20
   4ee00:	003fb406 	br	4ecd4 <_realloc_r+0x434>
   4ee04:	800b883a 	mov	r5,r16
   4ee08:	a009883a 	mov	r4,r20
   4ee0c:	d9c00015 	stw	r7,0(sp)
   4ee10:	004e7140 	call	4e714 <memmove>
   4ee14:	d9c00017 	ldw	r7,0(sp)
   4ee18:	003fb406 	br	4ecec <_realloc_r+0x44c>
   4ee1c:	80800217 	ldw	r2,8(r16)
   4ee20:	31800920 	cmpeqi	r6,r6,36
   4ee24:	e0800415 	stw	r2,16(fp)
   4ee28:	80800317 	ldw	r2,12(r16)
   4ee2c:	e0800515 	stw	r2,20(fp)
   4ee30:	3000111e 	bne	r6,zero,4ee78 <_realloc_r+0x5d8>
   4ee34:	84000404 	addi	r16,r16,16
   4ee38:	e0800604 	addi	r2,fp,24
   4ee3c:	003fa506 	br	4ecd4 <_realloc_r+0x434>
   4ee40:	80c00417 	ldw	r3,16(r16)
   4ee44:	84000604 	addi	r16,r16,24
   4ee48:	e0800804 	addi	r2,fp,32
   4ee4c:	e0c00615 	stw	r3,24(fp)
   4ee50:	80ffff17 	ldw	r3,-4(r16)
   4ee54:	e0c00715 	stw	r3,28(fp)
   4ee58:	003ede06 	br	4e9d4 <_realloc_r+0x134>
   4ee5c:	80c00417 	ldw	r3,16(r16)
   4ee60:	84000604 	addi	r16,r16,24
   4ee64:	e0800804 	addi	r2,fp,32
   4ee68:	e0c00615 	stw	r3,24(fp)
   4ee6c:	80ffff17 	ldw	r3,-4(r16)
   4ee70:	e0c00715 	stw	r3,28(fp)
   4ee74:	003f7606 	br	4ec50 <_realloc_r+0x3b0>
   4ee78:	80c00417 	ldw	r3,16(r16)
   4ee7c:	84000604 	addi	r16,r16,24
   4ee80:	e0800804 	addi	r2,fp,32
   4ee84:	e0c00615 	stw	r3,24(fp)
   4ee88:	80ffff17 	ldw	r3,-4(r16)
   4ee8c:	e0c00715 	stw	r3,28(fp)
   4ee90:	003f9006 	br	4ecd4 <_realloc_r+0x434>

0004ee94 <strcmp>:
   4ee94:	2144b03a 	or	r2,r4,r5
   4ee98:	108000cc 	andi	r2,r2,3
   4ee9c:	1000141e 	bne	r2,zero,4eef0 <strcmp+0x5c>
   4eea0:	20800017 	ldw	r2,0(r4)
   4eea4:	28c00017 	ldw	r3,0(r5)
   4eea8:	10c0111e 	bne	r2,r3,4eef0 <strcmp+0x5c>
   4eeac:	01ffbff4 	movhi	r7,65279
   4eeb0:	01a02074 	movhi	r6,32897
   4eeb4:	39ffbfc4 	addi	r7,r7,-257
   4eeb8:	31a02004 	addi	r6,r6,-32640
   4eebc:	00000306 	br	4eecc <strcmp+0x38>
   4eec0:	20800017 	ldw	r2,0(r4)
   4eec4:	28c00017 	ldw	r3,0(r5)
   4eec8:	10c0091e 	bne	r2,r3,4eef0 <strcmp+0x5c>
   4eecc:	11c7883a 	add	r3,r2,r7
   4eed0:	0084303a 	nor	r2,zero,r2
   4eed4:	1884703a 	and	r2,r3,r2
   4eed8:	1184703a 	and	r2,r2,r6
   4eedc:	21000104 	addi	r4,r4,4
   4eee0:	29400104 	addi	r5,r5,4
   4eee4:	103ff626 	beq	r2,zero,4eec0 <strcmp+0x2c>
   4eee8:	0005883a 	mov	r2,zero
   4eeec:	f800283a 	ret
   4eef0:	20c00003 	ldbu	r3,0(r4)
   4eef4:	18803fcc 	andi	r2,r3,255
   4eef8:	1080201c 	xori	r2,r2,128
   4eefc:	10bfe004 	addi	r2,r2,-128
   4ef00:	1000071e 	bne	r2,zero,4ef20 <strcmp+0x8c>
   4ef04:	00000a06 	br	4ef30 <strcmp+0x9c>
   4ef08:	20c00003 	ldbu	r3,0(r4)
   4ef0c:	29400044 	addi	r5,r5,1
   4ef10:	18803fcc 	andi	r2,r3,255
   4ef14:	1080201c 	xori	r2,r2,128
   4ef18:	10bfe004 	addi	r2,r2,-128
   4ef1c:	10000726 	beq	r2,zero,4ef3c <strcmp+0xa8>
   4ef20:	29800007 	ldb	r6,0(r5)
   4ef24:	21000044 	addi	r4,r4,1
   4ef28:	30bff726 	beq	r6,r2,4ef08 <strcmp+0x74>
   4ef2c:	18803fcc 	andi	r2,r3,255
   4ef30:	28c00003 	ldbu	r3,0(r5)
   4ef34:	10c5c83a 	sub	r2,r2,r3
   4ef38:	f800283a 	ret
   4ef3c:	28c00003 	ldbu	r3,0(r5)
   4ef40:	0005883a 	mov	r2,zero
   4ef44:	10c5c83a 	sub	r2,r2,r3
   4ef48:	f800283a 	ret

0004ef4c <_vfiprintf_r>:
   4ef4c:	004c6a41 	jmpi	4c6a4 <___vfiprintf_internal_r>

0004ef50 <__swbuf_r>:
   4ef50:	defffb04 	addi	sp,sp,-20
   4ef54:	dcc00315 	stw	r19,12(sp)
   4ef58:	dc400115 	stw	r17,4(sp)
   4ef5c:	dc000015 	stw	r16,0(sp)
   4ef60:	dfc00415 	stw	ra,16(sp)
   4ef64:	dc800215 	stw	r18,8(sp)
   4ef68:	2027883a 	mov	r19,r4
   4ef6c:	2823883a 	mov	r17,r5
   4ef70:	3021883a 	mov	r16,r6
   4ef74:	20000226 	beq	r4,zero,4ef80 <__swbuf_r+0x30>
   4ef78:	20800e17 	ldw	r2,56(r4)
   4ef7c:	10003e26 	beq	r2,zero,4f078 <__swbuf_r+0x128>
   4ef80:	80800617 	ldw	r2,24(r16)
   4ef84:	80c0030b 	ldhu	r3,12(r16)
   4ef88:	80800215 	stw	r2,8(r16)
   4ef8c:	1880020c 	andi	r2,r3,8
   4ef90:	10001f26 	beq	r2,zero,4f010 <__swbuf_r+0xc0>
   4ef94:	80800417 	ldw	r2,16(r16)
   4ef98:	10001d26 	beq	r2,zero,4f010 <__swbuf_r+0xc0>
   4ef9c:	1948000c 	andi	r5,r3,8192
   4efa0:	8c803fcc 	andi	r18,r17,255
   4efa4:	28002326 	beq	r5,zero,4f034 <__swbuf_r+0xe4>
   4efa8:	80c00017 	ldw	r3,0(r16)
   4efac:	81000517 	ldw	r4,20(r16)
   4efb0:	1885c83a 	sub	r2,r3,r2
   4efb4:	1100290e 	bge	r2,r4,4f05c <__swbuf_r+0x10c>
   4efb8:	10800044 	addi	r2,r2,1
   4efbc:	81400217 	ldw	r5,8(r16)
   4efc0:	19000044 	addi	r4,r3,1
   4efc4:	81000015 	stw	r4,0(r16)
   4efc8:	297fffc4 	addi	r5,r5,-1
   4efcc:	81400215 	stw	r5,8(r16)
   4efd0:	1c400005 	stb	r17,0(r3)
   4efd4:	80c00517 	ldw	r3,20(r16)
   4efd8:	18802926 	beq	r3,r2,4f080 <__swbuf_r+0x130>
   4efdc:	8080030b 	ldhu	r2,12(r16)
   4efe0:	1080004c 	andi	r2,r2,1
   4efe4:	10000226 	beq	r2,zero,4eff0 <__swbuf_r+0xa0>
   4efe8:	90800298 	cmpnei	r2,r18,10
   4efec:	10002426 	beq	r2,zero,4f080 <__swbuf_r+0x130>
   4eff0:	9005883a 	mov	r2,r18
   4eff4:	dfc00417 	ldw	ra,16(sp)
   4eff8:	dcc00317 	ldw	r19,12(sp)
   4effc:	dc800217 	ldw	r18,8(sp)
   4f000:	dc400117 	ldw	r17,4(sp)
   4f004:	dc000017 	ldw	r16,0(sp)
   4f008:	dec00504 	addi	sp,sp,20
   4f00c:	f800283a 	ret
   4f010:	800b883a 	mov	r5,r16
   4f014:	9809883a 	mov	r4,r19
   4f018:	00475980 	call	47598 <__swsetup_r>
   4f01c:	10001c1e 	bne	r2,zero,4f090 <__swbuf_r+0x140>
   4f020:	80c0030b 	ldhu	r3,12(r16)
   4f024:	80800417 	ldw	r2,16(r16)
   4f028:	8c803fcc 	andi	r18,r17,255
   4f02c:	1948000c 	andi	r5,r3,8192
   4f030:	283fdd1e 	bne	r5,zero,4efa8 <__swbuf_r+0x58>
   4f034:	81001917 	ldw	r4,100(r16)
   4f038:	18c80014 	ori	r3,r3,8192
   4f03c:	0177ffc4 	movi	r5,-8193
   4f040:	2148703a 	and	r4,r4,r5
   4f044:	80c0030d 	sth	r3,12(r16)
   4f048:	80c00017 	ldw	r3,0(r16)
   4f04c:	81001915 	stw	r4,100(r16)
   4f050:	81000517 	ldw	r4,20(r16)
   4f054:	1885c83a 	sub	r2,r3,r2
   4f058:	113fd716 	blt	r2,r4,4efb8 <__swbuf_r+0x68>
   4f05c:	800b883a 	mov	r5,r16
   4f060:	9809883a 	mov	r4,r19
   4f064:	00492ec0 	call	492ec <_fflush_r>
   4f068:	1000091e 	bne	r2,zero,4f090 <__swbuf_r+0x140>
   4f06c:	80c00017 	ldw	r3,0(r16)
   4f070:	00800044 	movi	r2,1
   4f074:	003fd106 	br	4efbc <__swbuf_r+0x6c>
   4f078:	00497140 	call	49714 <__sinit>
   4f07c:	003fc006 	br	4ef80 <__swbuf_r+0x30>
   4f080:	800b883a 	mov	r5,r16
   4f084:	9809883a 	mov	r4,r19
   4f088:	00492ec0 	call	492ec <_fflush_r>
   4f08c:	103fd826 	beq	r2,zero,4eff0 <__swbuf_r+0xa0>
   4f090:	04bfffc4 	movi	r18,-1
   4f094:	003fd606 	br	4eff0 <__swbuf_r+0xa0>

0004f098 <__swbuf>:
   4f098:	00c00174 	movhi	r3,5
   4f09c:	2005883a 	mov	r2,r4
   4f0a0:	191d2c17 	ldw	r4,29872(r3)
   4f0a4:	280d883a 	mov	r6,r5
   4f0a8:	100b883a 	mov	r5,r2
   4f0ac:	004ef501 	jmpi	4ef50 <__swbuf_r>

0004f0b0 <_wcrtomb_r>:
   4f0b0:	defffa04 	addi	sp,sp,-24
   4f0b4:	dc400415 	stw	r17,16(sp)
   4f0b8:	dc000315 	stw	r16,12(sp)
   4f0bc:	00800174 	movhi	r2,5
   4f0c0:	dfc00515 	stw	ra,20(sp)
   4f0c4:	10987b17 	ldw	r2,25068(r2)
   4f0c8:	2023883a 	mov	r17,r4
   4f0cc:	3821883a 	mov	r16,r7
   4f0d0:	28000826 	beq	r5,zero,4f0f4 <_wcrtomb_r+0x44>
   4f0d4:	103ee83a 	callr	r2
   4f0d8:	10ffffd8 	cmpnei	r3,r2,-1
   4f0dc:	18000a26 	beq	r3,zero,4f108 <_wcrtomb_r+0x58>
   4f0e0:	dfc00517 	ldw	ra,20(sp)
   4f0e4:	dc400417 	ldw	r17,16(sp)
   4f0e8:	dc000317 	ldw	r16,12(sp)
   4f0ec:	dec00604 	addi	sp,sp,24
   4f0f0:	f800283a 	ret
   4f0f4:	000d883a 	mov	r6,zero
   4f0f8:	d9400084 	addi	r5,sp,2
   4f0fc:	103ee83a 	callr	r2
   4f100:	10ffffd8 	cmpnei	r3,r2,-1
   4f104:	183ff61e 	bne	r3,zero,4f0e0 <_wcrtomb_r+0x30>
   4f108:	00802284 	movi	r2,138
   4f10c:	80000015 	stw	zero,0(r16)
   4f110:	88800015 	stw	r2,0(r17)
   4f114:	00bfffc4 	movi	r2,-1
   4f118:	003ff106 	br	4f0e0 <_wcrtomb_r+0x30>

0004f11c <wcrtomb>:
   4f11c:	defffa04 	addi	sp,sp,-24
   4f120:	00c00174 	movhi	r3,5
   4f124:	dc400415 	stw	r17,16(sp)
   4f128:	dc000315 	stw	r16,12(sp)
   4f12c:	1c5d2c17 	ldw	r17,29872(r3)
   4f130:	dfc00515 	stw	ra,20(sp)
   4f134:	00c00174 	movhi	r3,5
   4f138:	18d87b17 	ldw	r3,25068(r3)
   4f13c:	3021883a 	mov	r16,r6
   4f140:	20000c26 	beq	r4,zero,4f174 <wcrtomb+0x58>
   4f144:	280d883a 	mov	r6,r5
   4f148:	800f883a 	mov	r7,r16
   4f14c:	200b883a 	mov	r5,r4
   4f150:	8809883a 	mov	r4,r17
   4f154:	183ee83a 	callr	r3
   4f158:	10ffffd8 	cmpnei	r3,r2,-1
   4f15c:	18000c26 	beq	r3,zero,4f190 <wcrtomb+0x74>
   4f160:	dfc00517 	ldw	ra,20(sp)
   4f164:	dc400417 	ldw	r17,16(sp)
   4f168:	dc000317 	ldw	r16,12(sp)
   4f16c:	dec00604 	addi	sp,sp,24
   4f170:	f800283a 	ret
   4f174:	300f883a 	mov	r7,r6
   4f178:	d9400084 	addi	r5,sp,2
   4f17c:	000d883a 	mov	r6,zero
   4f180:	8809883a 	mov	r4,r17
   4f184:	183ee83a 	callr	r3
   4f188:	10ffffd8 	cmpnei	r3,r2,-1
   4f18c:	183ff41e 	bne	r3,zero,4f160 <wcrtomb+0x44>
   4f190:	00802284 	movi	r2,138
   4f194:	80000015 	stw	zero,0(r16)
   4f198:	88800015 	stw	r2,0(r17)
   4f19c:	00bfffc4 	movi	r2,-1
   4f1a0:	003fef06 	br	4f160 <wcrtomb+0x44>

0004f1a4 <_wctomb_r>:
   4f1a4:	00800174 	movhi	r2,5
   4f1a8:	10987b17 	ldw	r2,25068(r2)
   4f1ac:	1000683a 	jmp	r2

0004f1b0 <__ascii_wctomb>:
   4f1b0:	28000926 	beq	r5,zero,4f1d8 <__ascii_wctomb+0x28>
   4f1b4:	30804030 	cmpltui	r2,r6,256
   4f1b8:	10000326 	beq	r2,zero,4f1c8 <__ascii_wctomb+0x18>
   4f1bc:	29800005 	stb	r6,0(r5)
   4f1c0:	00800044 	movi	r2,1
   4f1c4:	f800283a 	ret
   4f1c8:	00802284 	movi	r2,138
   4f1cc:	20800015 	stw	r2,0(r4)
   4f1d0:	00bfffc4 	movi	r2,-1
   4f1d4:	f800283a 	ret
   4f1d8:	0005883a 	mov	r2,zero
   4f1dc:	f800283a 	ret

0004f1e0 <abort>:
   4f1e0:	deffff04 	addi	sp,sp,-4
   4f1e4:	01000184 	movi	r4,6
   4f1e8:	dfc00015 	stw	ra,0(sp)
   4f1ec:	004f4500 	call	4f450 <raise>
   4f1f0:	01000044 	movi	r4,1
   4f1f4:	00522480 	call	52248 <_exit>

0004f1f8 <_init_signal_r>:
   4f1f8:	2080b717 	ldw	r2,732(r4)
   4f1fc:	10000226 	beq	r2,zero,4f208 <_init_signal_r+0x10>
   4f200:	0005883a 	mov	r2,zero
   4f204:	f800283a 	ret
   4f208:	defffe04 	addi	sp,sp,-8
   4f20c:	01402004 	movi	r5,128
   4f210:	dc000015 	stw	r16,0(sp)
   4f214:	dfc00115 	stw	ra,4(sp)
   4f218:	2021883a 	mov	r16,r4
   4f21c:	00421240 	call	42124 <_malloc_r>
   4f220:	8080b715 	stw	r2,732(r16)
   4f224:	1009883a 	mov	r4,r2
   4f228:	10000826 	beq	r2,zero,4f24c <_init_signal_r+0x54>
   4f22c:	01802004 	movi	r6,128
   4f230:	000b883a 	mov	r5,zero
   4f234:	00429d80 	call	429d8 <memset>
   4f238:	0005883a 	mov	r2,zero
   4f23c:	dfc00117 	ldw	ra,4(sp)
   4f240:	dc000017 	ldw	r16,0(sp)
   4f244:	dec00204 	addi	sp,sp,8
   4f248:	f800283a 	ret
   4f24c:	00bfffc4 	movi	r2,-1
   4f250:	003ffa06 	br	4f23c <_init_signal_r+0x44>

0004f254 <_signal_r>:
   4f254:	defffc04 	addi	sp,sp,-16
   4f258:	dc400115 	stw	r17,4(sp)
   4f25c:	dfc00315 	stw	ra,12(sp)
   4f260:	dc800215 	stw	r18,8(sp)
   4f264:	dc000015 	stw	r16,0(sp)
   4f268:	28800830 	cmpltui	r2,r5,32
   4f26c:	2023883a 	mov	r17,r4
   4f270:	10000e26 	beq	r2,zero,4f2ac <_signal_r+0x58>
   4f274:	20c0b717 	ldw	r3,732(r4)
   4f278:	2821883a 	mov	r16,r5
   4f27c:	3025883a 	mov	r18,r6
   4f280:	18000e26 	beq	r3,zero,4f2bc <_signal_r+0x68>
   4f284:	802090ba 	slli	r16,r16,2
   4f288:	1c07883a 	add	r3,r3,r16
   4f28c:	18800017 	ldw	r2,0(r3)
   4f290:	1c800015 	stw	r18,0(r3)
   4f294:	dfc00317 	ldw	ra,12(sp)
   4f298:	dc800217 	ldw	r18,8(sp)
   4f29c:	dc400117 	ldw	r17,4(sp)
   4f2a0:	dc000017 	ldw	r16,0(sp)
   4f2a4:	dec00404 	addi	sp,sp,16
   4f2a8:	f800283a 	ret
   4f2ac:	00800584 	movi	r2,22
   4f2b0:	20800015 	stw	r2,0(r4)
   4f2b4:	00bfffc4 	movi	r2,-1
   4f2b8:	003ff606 	br	4f294 <_signal_r+0x40>
   4f2bc:	01402004 	movi	r5,128
   4f2c0:	00421240 	call	42124 <_malloc_r>
   4f2c4:	8880b715 	stw	r2,732(r17)
   4f2c8:	103ffa26 	beq	r2,zero,4f2b4 <_signal_r+0x60>
   4f2cc:	01802004 	movi	r6,128
   4f2d0:	000b883a 	mov	r5,zero
   4f2d4:	1009883a 	mov	r4,r2
   4f2d8:	00429d80 	call	429d8 <memset>
   4f2dc:	1007883a 	mov	r3,r2
   4f2e0:	003fe806 	br	4f284 <_signal_r+0x30>

0004f2e4 <_raise_r>:
   4f2e4:	28800830 	cmpltui	r2,r5,32
   4f2e8:	10002626 	beq	r2,zero,4f384 <_raise_r+0xa0>
   4f2ec:	2080b717 	ldw	r2,732(r4)
   4f2f0:	defffd04 	addi	sp,sp,-12
   4f2f4:	dc000115 	stw	r16,4(sp)
   4f2f8:	dfc00215 	stw	ra,8(sp)
   4f2fc:	2821883a 	mov	r16,r5
   4f300:	10001026 	beq	r2,zero,4f344 <_raise_r+0x60>
   4f304:	280690ba 	slli	r3,r5,2
   4f308:	10c5883a 	add	r2,r2,r3
   4f30c:	10c00017 	ldw	r3,0(r2)
   4f310:	18000c26 	beq	r3,zero,4f344 <_raise_r+0x60>
   4f314:	19400060 	cmpeqi	r5,r3,1
   4f318:	2800051e 	bne	r5,zero,4f330 <_raise_r+0x4c>
   4f31c:	197fffd8 	cmpnei	r5,r3,-1
   4f320:	28001126 	beq	r5,zero,4f368 <_raise_r+0x84>
   4f324:	10000015 	stw	zero,0(r2)
   4f328:	8009883a 	mov	r4,r16
   4f32c:	183ee83a 	callr	r3
   4f330:	0005883a 	mov	r2,zero
   4f334:	dfc00217 	ldw	ra,8(sp)
   4f338:	dc000117 	ldw	r16,4(sp)
   4f33c:	dec00304 	addi	sp,sp,12
   4f340:	f800283a 	ret
   4f344:	d9000015 	stw	r4,0(sp)
   4f348:	004f7180 	call	4f718 <_getpid_r>
   4f34c:	d9000017 	ldw	r4,0(sp)
   4f350:	800d883a 	mov	r6,r16
   4f354:	100b883a 	mov	r5,r2
   4f358:	dfc00217 	ldw	ra,8(sp)
   4f35c:	dc000117 	ldw	r16,4(sp)
   4f360:	dec00304 	addi	sp,sp,12
   4f364:	004f6b81 	jmpi	4f6b8 <_kill_r>
   4f368:	00800584 	movi	r2,22
   4f36c:	20800015 	stw	r2,0(r4)
   4f370:	00800044 	movi	r2,1
   4f374:	dfc00217 	ldw	ra,8(sp)
   4f378:	dc000117 	ldw	r16,4(sp)
   4f37c:	dec00304 	addi	sp,sp,12
   4f380:	f800283a 	ret
   4f384:	00800584 	movi	r2,22
   4f388:	20800015 	stw	r2,0(r4)
   4f38c:	00bfffc4 	movi	r2,-1
   4f390:	f800283a 	ret

0004f394 <__sigtramp_r>:
   4f394:	28800830 	cmpltui	r2,r5,32
   4f398:	10002b26 	beq	r2,zero,4f448 <__sigtramp_r+0xb4>
   4f39c:	20c0b717 	ldw	r3,732(r4)
   4f3a0:	defffd04 	addi	sp,sp,-12
   4f3a4:	dc400115 	stw	r17,4(sp)
   4f3a8:	dc000015 	stw	r16,0(sp)
   4f3ac:	dfc00215 	stw	ra,8(sp)
   4f3b0:	2821883a 	mov	r16,r5
   4f3b4:	2023883a 	mov	r17,r4
   4f3b8:	18001726 	beq	r3,zero,4f418 <__sigtramp_r+0x84>
   4f3bc:	800490ba 	slli	r2,r16,2
   4f3c0:	1887883a 	add	r3,r3,r2
   4f3c4:	18800017 	ldw	r2,0(r3)
   4f3c8:	10000d26 	beq	r2,zero,4f400 <__sigtramp_r+0x6c>
   4f3cc:	113fffe0 	cmpeqi	r4,r2,-1
   4f3d0:	20000f1e 	bne	r4,zero,4f410 <__sigtramp_r+0x7c>
   4f3d4:	11000060 	cmpeqi	r4,r2,1
   4f3d8:	20000b1e 	bne	r4,zero,4f408 <__sigtramp_r+0x74>
   4f3dc:	18000015 	stw	zero,0(r3)
   4f3e0:	8009883a 	mov	r4,r16
   4f3e4:	103ee83a 	callr	r2
   4f3e8:	0005883a 	mov	r2,zero
   4f3ec:	dfc00217 	ldw	ra,8(sp)
   4f3f0:	dc400117 	ldw	r17,4(sp)
   4f3f4:	dc000017 	ldw	r16,0(sp)
   4f3f8:	dec00304 	addi	sp,sp,12
   4f3fc:	f800283a 	ret
   4f400:	00800044 	movi	r2,1
   4f404:	003ff906 	br	4f3ec <__sigtramp_r+0x58>
   4f408:	008000c4 	movi	r2,3
   4f40c:	003ff706 	br	4f3ec <__sigtramp_r+0x58>
   4f410:	00800084 	movi	r2,2
   4f414:	003ff506 	br	4f3ec <__sigtramp_r+0x58>
   4f418:	01402004 	movi	r5,128
   4f41c:	00421240 	call	42124 <_malloc_r>
   4f420:	8880b715 	stw	r2,732(r17)
   4f424:	10000626 	beq	r2,zero,4f440 <__sigtramp_r+0xac>
   4f428:	01802004 	movi	r6,128
   4f42c:	000b883a 	mov	r5,zero
   4f430:	1009883a 	mov	r4,r2
   4f434:	00429d80 	call	429d8 <memset>
   4f438:	1007883a 	mov	r3,r2
   4f43c:	003fdf06 	br	4f3bc <__sigtramp_r+0x28>
   4f440:	00bfffc4 	movi	r2,-1
   4f444:	003fe906 	br	4f3ec <__sigtramp_r+0x58>
   4f448:	00bfffc4 	movi	r2,-1
   4f44c:	f800283a 	ret

0004f450 <raise>:
   4f450:	defffd04 	addi	sp,sp,-12
   4f454:	dc400115 	stw	r17,4(sp)
   4f458:	00c00174 	movhi	r3,5
   4f45c:	dfc00215 	stw	ra,8(sp)
   4f460:	dc000015 	stw	r16,0(sp)
   4f464:	20800830 	cmpltui	r2,r4,32
   4f468:	1c5d2c17 	ldw	r17,29872(r3)
   4f46c:	10002126 	beq	r2,zero,4f4f4 <raise+0xa4>
   4f470:	8880b717 	ldw	r2,732(r17)
   4f474:	2021883a 	mov	r16,r4
   4f478:	10001026 	beq	r2,zero,4f4bc <raise+0x6c>
   4f47c:	200690ba 	slli	r3,r4,2
   4f480:	10c5883a 	add	r2,r2,r3
   4f484:	10c00017 	ldw	r3,0(r2)
   4f488:	18000c26 	beq	r3,zero,4f4bc <raise+0x6c>
   4f48c:	19400060 	cmpeqi	r5,r3,1
   4f490:	2800041e 	bne	r5,zero,4f4a4 <raise+0x54>
   4f494:	197fffd8 	cmpnei	r5,r3,-1
   4f498:	28001226 	beq	r5,zero,4f4e4 <raise+0x94>
   4f49c:	10000015 	stw	zero,0(r2)
   4f4a0:	183ee83a 	callr	r3
   4f4a4:	0005883a 	mov	r2,zero
   4f4a8:	dfc00217 	ldw	ra,8(sp)
   4f4ac:	dc400117 	ldw	r17,4(sp)
   4f4b0:	dc000017 	ldw	r16,0(sp)
   4f4b4:	dec00304 	addi	sp,sp,12
   4f4b8:	f800283a 	ret
   4f4bc:	8809883a 	mov	r4,r17
   4f4c0:	004f7180 	call	4f718 <_getpid_r>
   4f4c4:	800d883a 	mov	r6,r16
   4f4c8:	100b883a 	mov	r5,r2
   4f4cc:	8809883a 	mov	r4,r17
   4f4d0:	dfc00217 	ldw	ra,8(sp)
   4f4d4:	dc400117 	ldw	r17,4(sp)
   4f4d8:	dc000017 	ldw	r16,0(sp)
   4f4dc:	dec00304 	addi	sp,sp,12
   4f4e0:	004f6b81 	jmpi	4f6b8 <_kill_r>
   4f4e4:	00800584 	movi	r2,22
   4f4e8:	88800015 	stw	r2,0(r17)
   4f4ec:	00800044 	movi	r2,1
   4f4f0:	003fed06 	br	4f4a8 <raise+0x58>
   4f4f4:	00800584 	movi	r2,22
   4f4f8:	88800015 	stw	r2,0(r17)
   4f4fc:	00bfffc4 	movi	r2,-1
   4f500:	003fe906 	br	4f4a8 <raise+0x58>

0004f504 <signal>:
   4f504:	defffc04 	addi	sp,sp,-16
   4f508:	dc800215 	stw	r18,8(sp)
   4f50c:	00c00174 	movhi	r3,5
   4f510:	dfc00315 	stw	ra,12(sp)
   4f514:	dc400115 	stw	r17,4(sp)
   4f518:	dc000015 	stw	r16,0(sp)
   4f51c:	20800830 	cmpltui	r2,r4,32
   4f520:	1c9d2c17 	ldw	r18,29872(r3)
   4f524:	10000e26 	beq	r2,zero,4f560 <signal+0x5c>
   4f528:	2021883a 	mov	r16,r4
   4f52c:	9100b717 	ldw	r4,732(r18)
   4f530:	2823883a 	mov	r17,r5
   4f534:	20000e26 	beq	r4,zero,4f570 <signal+0x6c>
   4f538:	802090ba 	slli	r16,r16,2
   4f53c:	2409883a 	add	r4,r4,r16
   4f540:	20800017 	ldw	r2,0(r4)
   4f544:	24400015 	stw	r17,0(r4)
   4f548:	dfc00317 	ldw	ra,12(sp)
   4f54c:	dc800217 	ldw	r18,8(sp)
   4f550:	dc400117 	ldw	r17,4(sp)
   4f554:	dc000017 	ldw	r16,0(sp)
   4f558:	dec00404 	addi	sp,sp,16
   4f55c:	f800283a 	ret
   4f560:	00800584 	movi	r2,22
   4f564:	90800015 	stw	r2,0(r18)
   4f568:	00bfffc4 	movi	r2,-1
   4f56c:	003ff606 	br	4f548 <signal+0x44>
   4f570:	9009883a 	mov	r4,r18
   4f574:	01402004 	movi	r5,128
   4f578:	00421240 	call	42124 <_malloc_r>
   4f57c:	9080b715 	stw	r2,732(r18)
   4f580:	1009883a 	mov	r4,r2
   4f584:	103ff826 	beq	r2,zero,4f568 <signal+0x64>
   4f588:	01802004 	movi	r6,128
   4f58c:	000b883a 	mov	r5,zero
   4f590:	00429d80 	call	429d8 <memset>
   4f594:	1009883a 	mov	r4,r2
   4f598:	003fe706 	br	4f538 <signal+0x34>

0004f59c <_init_signal>:
   4f59c:	defffe04 	addi	sp,sp,-8
   4f5a0:	00800174 	movhi	r2,5
   4f5a4:	dc000015 	stw	r16,0(sp)
   4f5a8:	141d2c17 	ldw	r16,29872(r2)
   4f5ac:	dfc00115 	stw	ra,4(sp)
   4f5b0:	8080b717 	ldw	r2,732(r16)
   4f5b4:	10000526 	beq	r2,zero,4f5cc <_init_signal+0x30>
   4f5b8:	0005883a 	mov	r2,zero
   4f5bc:	dfc00117 	ldw	ra,4(sp)
   4f5c0:	dc000017 	ldw	r16,0(sp)
   4f5c4:	dec00204 	addi	sp,sp,8
   4f5c8:	f800283a 	ret
   4f5cc:	8009883a 	mov	r4,r16
   4f5d0:	01402004 	movi	r5,128
   4f5d4:	00421240 	call	42124 <_malloc_r>
   4f5d8:	8080b715 	stw	r2,732(r16)
   4f5dc:	1009883a 	mov	r4,r2
   4f5e0:	10000426 	beq	r2,zero,4f5f4 <_init_signal+0x58>
   4f5e4:	01802004 	movi	r6,128
   4f5e8:	000b883a 	mov	r5,zero
   4f5ec:	00429d80 	call	429d8 <memset>
   4f5f0:	003ff106 	br	4f5b8 <_init_signal+0x1c>
   4f5f4:	00bfffc4 	movi	r2,-1
   4f5f8:	003ff006 	br	4f5bc <_init_signal+0x20>

0004f5fc <__sigtramp>:
   4f5fc:	defffd04 	addi	sp,sp,-12
   4f600:	dc400115 	stw	r17,4(sp)
   4f604:	00c00174 	movhi	r3,5
   4f608:	dfc00215 	stw	ra,8(sp)
   4f60c:	dc000015 	stw	r16,0(sp)
   4f610:	20800830 	cmpltui	r2,r4,32
   4f614:	1c5d2c17 	ldw	r17,29872(r3)
   4f618:	10002526 	beq	r2,zero,4f6b0 <__sigtramp+0xb4>
   4f61c:	88c0b717 	ldw	r3,732(r17)
   4f620:	2021883a 	mov	r16,r4
   4f624:	18001726 	beq	r3,zero,4f684 <__sigtramp+0x88>
   4f628:	800490ba 	slli	r2,r16,2
   4f62c:	1887883a 	add	r3,r3,r2
   4f630:	18800017 	ldw	r2,0(r3)
   4f634:	10000d26 	beq	r2,zero,4f66c <__sigtramp+0x70>
   4f638:	113fffe0 	cmpeqi	r4,r2,-1
   4f63c:	20000f1e 	bne	r4,zero,4f67c <__sigtramp+0x80>
   4f640:	11000060 	cmpeqi	r4,r2,1
   4f644:	20000b1e 	bne	r4,zero,4f674 <__sigtramp+0x78>
   4f648:	18000015 	stw	zero,0(r3)
   4f64c:	8009883a 	mov	r4,r16
   4f650:	103ee83a 	callr	r2
   4f654:	0005883a 	mov	r2,zero
   4f658:	dfc00217 	ldw	ra,8(sp)
   4f65c:	dc400117 	ldw	r17,4(sp)
   4f660:	dc000017 	ldw	r16,0(sp)
   4f664:	dec00304 	addi	sp,sp,12
   4f668:	f800283a 	ret
   4f66c:	00800044 	movi	r2,1
   4f670:	003ff906 	br	4f658 <__sigtramp+0x5c>
   4f674:	008000c4 	movi	r2,3
   4f678:	003ff706 	br	4f658 <__sigtramp+0x5c>
   4f67c:	00800084 	movi	r2,2
   4f680:	003ff506 	br	4f658 <__sigtramp+0x5c>
   4f684:	01402004 	movi	r5,128
   4f688:	8809883a 	mov	r4,r17
   4f68c:	00421240 	call	42124 <_malloc_r>
   4f690:	8880b715 	stw	r2,732(r17)
   4f694:	10000626 	beq	r2,zero,4f6b0 <__sigtramp+0xb4>
   4f698:	01802004 	movi	r6,128
   4f69c:	000b883a 	mov	r5,zero
   4f6a0:	1009883a 	mov	r4,r2
   4f6a4:	00429d80 	call	429d8 <memset>
   4f6a8:	1007883a 	mov	r3,r2
   4f6ac:	003fde06 	br	4f628 <__sigtramp+0x2c>
   4f6b0:	00bfffc4 	movi	r2,-1
   4f6b4:	003fe806 	br	4f658 <__sigtramp+0x5c>

0004f6b8 <_kill_r>:
   4f6b8:	2807883a 	mov	r3,r5
   4f6bc:	defffe04 	addi	sp,sp,-8
   4f6c0:	dc000015 	stw	r16,0(sp)
   4f6c4:	008001b4 	movhi	r2,6
   4f6c8:	300b883a 	mov	r5,r6
   4f6cc:	2021883a 	mov	r16,r4
   4f6d0:	1809883a 	mov	r4,r3
   4f6d4:	dfc00115 	stw	ra,4(sp)
   4f6d8:	10243f15 	stw	zero,-28420(r2)
   4f6dc:	005266c0 	call	5266c <kill>
   4f6e0:	10ffffd8 	cmpnei	r3,r2,-1
   4f6e4:	18000426 	beq	r3,zero,4f6f8 <_kill_r+0x40>
   4f6e8:	dfc00117 	ldw	ra,4(sp)
   4f6ec:	dc000017 	ldw	r16,0(sp)
   4f6f0:	dec00204 	addi	sp,sp,8
   4f6f4:	f800283a 	ret
   4f6f8:	00c001b4 	movhi	r3,6
   4f6fc:	18e43f17 	ldw	r3,-28420(r3)
   4f700:	183ff926 	beq	r3,zero,4f6e8 <_kill_r+0x30>
   4f704:	80c00015 	stw	r3,0(r16)
   4f708:	dfc00117 	ldw	ra,4(sp)
   4f70c:	dc000017 	ldw	r16,0(sp)
   4f710:	dec00204 	addi	sp,sp,8
   4f714:	f800283a 	ret

0004f718 <_getpid_r>:
   4f718:	00523a41 	jmpi	523a4 <getpid>

0004f71c <__udivdi3>:
   4f71c:	defff504 	addi	sp,sp,-44
   4f720:	dc800315 	stw	r18,12(sp)
   4f724:	dc000115 	stw	r16,4(sp)
   4f728:	dfc00a15 	stw	ra,40(sp)
   4f72c:	df000915 	stw	fp,36(sp)
   4f730:	ddc00815 	stw	r23,32(sp)
   4f734:	dd800715 	stw	r22,28(sp)
   4f738:	dd400615 	stw	r21,24(sp)
   4f73c:	dd000515 	stw	r20,20(sp)
   4f740:	dcc00415 	stw	r19,16(sp)
   4f744:	dc400215 	stw	r17,8(sp)
   4f748:	2025883a 	mov	r18,r4
   4f74c:	2821883a 	mov	r16,r5
   4f750:	3800451e 	bne	r7,zero,4f868 <__udivdi3+0x14c>
   4f754:	3023883a 	mov	r17,r6
   4f758:	2027883a 	mov	r19,r4
   4f75c:	2980622e 	bgeu	r5,r6,4f8e8 <__udivdi3+0x1cc>
   4f760:	00bfffd4 	movui	r2,65535
   4f764:	282d883a 	mov	r22,r5
   4f768:	1180a22e 	bgeu	r2,r6,4f9f4 <__udivdi3+0x2d8>
   4f76c:	00804034 	movhi	r2,256
   4f770:	30814736 	bltu	r6,r2,4fc90 <__udivdi3+0x574>
   4f774:	00c00604 	movi	r3,24
   4f778:	30cad83a 	srl	r5,r6,r3
   4f77c:	00800174 	movhi	r2,5
   4f780:	01000804 	movi	r4,32
   4f784:	2885883a 	add	r2,r5,r2
   4f788:	10948f03 	ldbu	r2,21052(r2)
   4f78c:	10c5883a 	add	r2,r2,r3
   4f790:	2087c83a 	sub	r3,r4,r2
   4f794:	20800526 	beq	r4,r2,4f7ac <__udivdi3+0x90>
   4f798:	80ec983a 	sll	r22,r16,r3
   4f79c:	9084d83a 	srl	r2,r18,r2
   4f7a0:	30e2983a 	sll	r17,r6,r3
   4f7a4:	90e6983a 	sll	r19,r18,r3
   4f7a8:	15acb03a 	or	r22,r2,r22
   4f7ac:	8828d43a 	srli	r20,r17,16
   4f7b0:	b009883a 	mov	r4,r22
   4f7b4:	8d7fffcc 	andi	r21,r17,65535
   4f7b8:	a00b883a 	mov	r5,r20
   4f7bc:	0040b140 	call	40b14 <__umodsi3>
   4f7c0:	a00b883a 	mov	r5,r20
   4f7c4:	b009883a 	mov	r4,r22
   4f7c8:	1025883a 	mov	r18,r2
   4f7cc:	0040ab00 	call	40ab0 <__udivsi3>
   4f7d0:	a809883a 	mov	r4,r21
   4f7d4:	100b883a 	mov	r5,r2
   4f7d8:	1021883a 	mov	r16,r2
   4f7dc:	0040b700 	call	40b70 <__mulsi3>
   4f7e0:	9008943a 	slli	r4,r18,16
   4f7e4:	9806d43a 	srli	r3,r19,16
   4f7e8:	20c8b03a 	or	r4,r4,r3
   4f7ec:	2080052e 	bgeu	r4,r2,4f804 <__udivdi3+0xe8>
   4f7f0:	2449883a 	add	r4,r4,r17
   4f7f4:	80ffffc4 	addi	r3,r16,-1
   4f7f8:	24400136 	bltu	r4,r17,4f800 <__udivdi3+0xe4>
   4f7fc:	20813a36 	bltu	r4,r2,4fce8 <__udivdi3+0x5cc>
   4f800:	1821883a 	mov	r16,r3
   4f804:	20a5c83a 	sub	r18,r4,r2
   4f808:	a00b883a 	mov	r5,r20
   4f80c:	9009883a 	mov	r4,r18
   4f810:	0040b140 	call	40b14 <__umodsi3>
   4f814:	a00b883a 	mov	r5,r20
   4f818:	9009883a 	mov	r4,r18
   4f81c:	1025883a 	mov	r18,r2
   4f820:	0040ab00 	call	40ab0 <__udivsi3>
   4f824:	100b883a 	mov	r5,r2
   4f828:	a809883a 	mov	r4,r21
   4f82c:	1029883a 	mov	r20,r2
   4f830:	0040b700 	call	40b70 <__mulsi3>
   4f834:	9006943a 	slli	r3,r18,16
   4f838:	9cffffcc 	andi	r19,r19,65535
   4f83c:	1cc6b03a 	or	r3,r3,r19
   4f840:	1880052e 	bgeu	r3,r2,4f858 <__udivdi3+0x13c>
   4f844:	88c7883a 	add	r3,r17,r3
   4f848:	a13fffc4 	addi	r4,r20,-1
   4f84c:	1c400136 	bltu	r3,r17,4f854 <__udivdi3+0x138>
   4f850:	18811e36 	bltu	r3,r2,4fccc <__udivdi3+0x5b0>
   4f854:	2029883a 	mov	r20,r4
   4f858:	800c943a 	slli	r6,r16,16
   4f85c:	0007883a 	mov	r3,zero
   4f860:	3504b03a 	or	r2,r6,r20
   4f864:	00000306 	br	4f874 <__udivdi3+0x158>
   4f868:	29c00e2e 	bgeu	r5,r7,4f8a4 <__udivdi3+0x188>
   4f86c:	0007883a 	mov	r3,zero
   4f870:	0005883a 	mov	r2,zero
   4f874:	dfc00a17 	ldw	ra,40(sp)
   4f878:	df000917 	ldw	fp,36(sp)
   4f87c:	ddc00817 	ldw	r23,32(sp)
   4f880:	dd800717 	ldw	r22,28(sp)
   4f884:	dd400617 	ldw	r21,24(sp)
   4f888:	dd000517 	ldw	r20,20(sp)
   4f88c:	dcc00417 	ldw	r19,16(sp)
   4f890:	dc800317 	ldw	r18,12(sp)
   4f894:	dc400217 	ldw	r17,8(sp)
   4f898:	dc000117 	ldw	r16,4(sp)
   4f89c:	dec00b04 	addi	sp,sp,44
   4f8a0:	f800283a 	ret
   4f8a4:	00bfffd4 	movui	r2,65535
   4f8a8:	11c05b2e 	bgeu	r2,r7,4fa18 <__udivdi3+0x2fc>
   4f8ac:	00804034 	movhi	r2,256
   4f8b0:	3880f536 	bltu	r7,r2,4fc88 <__udivdi3+0x56c>
   4f8b4:	00c00604 	movi	r3,24
   4f8b8:	38cad83a 	srl	r5,r7,r3
   4f8bc:	00800174 	movhi	r2,5
   4f8c0:	01000804 	movi	r4,32
   4f8c4:	2885883a 	add	r2,r5,r2
   4f8c8:	10948f03 	ldbu	r2,21052(r2)
   4f8cc:	10c5883a 	add	r2,r2,r3
   4f8d0:	20a3c83a 	sub	r17,r4,r2
   4f8d4:	20808a1e 	bne	r4,r2,4fb00 <__udivdi3+0x3e4>
   4f8d8:	3c00ef36 	bltu	r7,r16,4fc98 <__udivdi3+0x57c>
   4f8dc:	9185403a 	cmpgeu	r2,r18,r6
   4f8e0:	0007883a 	mov	r3,zero
   4f8e4:	003fe306 	br	4f874 <__udivdi3+0x158>
   4f8e8:	3000451e 	bne	r6,zero,4fa00 <__udivdi3+0x2e4>
   4f8ec:	000b883a 	mov	r5,zero
   4f8f0:	01000044 	movi	r4,1
   4f8f4:	0040ab00 	call	40ab0 <__udivsi3>
   4f8f8:	1023883a 	mov	r17,r2
   4f8fc:	88804028 	cmpgeui	r2,r17,256
   4f900:	100490fa 	slli	r2,r2,3
   4f904:	888ad83a 	srl	r5,r17,r2
   4f908:	00c00174 	movhi	r3,5
   4f90c:	01000804 	movi	r4,32
   4f910:	28c7883a 	add	r3,r5,r3
   4f914:	1d948f03 	ldbu	r22,21052(r3)
   4f918:	b0ad883a 	add	r22,r22,r2
   4f91c:	2587c83a 	sub	r3,r4,r22
   4f920:	2580401e 	bne	r4,r22,4fa24 <__udivdi3+0x308>
   4f924:	8828d43a 	srli	r20,r17,16
   4f928:	8461c83a 	sub	r16,r16,r17
   4f92c:	8d7fffcc 	andi	r21,r17,65535
   4f930:	00c00044 	movi	r3,1
   4f934:	8009883a 	mov	r4,r16
   4f938:	a00b883a 	mov	r5,r20
   4f93c:	d8c00015 	stw	r3,0(sp)
   4f940:	0040b140 	call	40b14 <__umodsi3>
   4f944:	8009883a 	mov	r4,r16
   4f948:	a00b883a 	mov	r5,r20
   4f94c:	1025883a 	mov	r18,r2
   4f950:	0040ab00 	call	40ab0 <__udivsi3>
   4f954:	a80b883a 	mov	r5,r21
   4f958:	1009883a 	mov	r4,r2
   4f95c:	1021883a 	mov	r16,r2
   4f960:	0040b700 	call	40b70 <__mulsi3>
   4f964:	9008943a 	slli	r4,r18,16
   4f968:	980ad43a 	srli	r5,r19,16
   4f96c:	d8c00017 	ldw	r3,0(sp)
   4f970:	2148b03a 	or	r4,r4,r5
   4f974:	2080052e 	bgeu	r4,r2,4f98c <__udivdi3+0x270>
   4f978:	2449883a 	add	r4,r4,r17
   4f97c:	817fffc4 	addi	r5,r16,-1
   4f980:	24400136 	bltu	r4,r17,4f988 <__udivdi3+0x26c>
   4f984:	2080d336 	bltu	r4,r2,4fcd4 <__udivdi3+0x5b8>
   4f988:	2821883a 	mov	r16,r5
   4f98c:	20a5c83a 	sub	r18,r4,r2
   4f990:	a00b883a 	mov	r5,r20
   4f994:	9009883a 	mov	r4,r18
   4f998:	d8c00015 	stw	r3,0(sp)
   4f99c:	0040b140 	call	40b14 <__umodsi3>
   4f9a0:	a00b883a 	mov	r5,r20
   4f9a4:	9009883a 	mov	r4,r18
   4f9a8:	1025883a 	mov	r18,r2
   4f9ac:	0040ab00 	call	40ab0 <__udivsi3>
   4f9b0:	a80b883a 	mov	r5,r21
   4f9b4:	1009883a 	mov	r4,r2
   4f9b8:	1029883a 	mov	r20,r2
   4f9bc:	0040b700 	call	40b70 <__mulsi3>
   4f9c0:	900a943a 	slli	r5,r18,16
   4f9c4:	9cffffcc 	andi	r19,r19,65535
   4f9c8:	d8c00017 	ldw	r3,0(sp)
   4f9cc:	2ccab03a 	or	r5,r5,r19
   4f9d0:	2880052e 	bgeu	r5,r2,4f9e8 <__udivdi3+0x2cc>
   4f9d4:	894b883a 	add	r5,r17,r5
   4f9d8:	a13fffc4 	addi	r4,r20,-1
   4f9dc:	2c400136 	bltu	r5,r17,4f9e4 <__udivdi3+0x2c8>
   4f9e0:	2880b836 	bltu	r5,r2,4fcc4 <__udivdi3+0x5a8>
   4f9e4:	2029883a 	mov	r20,r4
   4f9e8:	800c943a 	slli	r6,r16,16
   4f9ec:	3504b03a 	or	r2,r6,r20
   4f9f0:	003fa006 	br	4f874 <__udivdi3+0x158>
   4f9f4:	30c04028 	cmpgeui	r3,r6,256
   4f9f8:	180690fa 	slli	r3,r3,3
   4f9fc:	003f5e06 	br	4f778 <__udivdi3+0x5c>
   4fa00:	00bfffd4 	movui	r2,65535
   4fa04:	11bfbd2e 	bgeu	r2,r6,4f8fc <__udivdi3+0x1e0>
   4fa08:	00804034 	movhi	r2,256
   4fa0c:	3080b42e 	bgeu	r6,r2,4fce0 <__udivdi3+0x5c4>
   4fa10:	00800404 	movi	r2,16
   4fa14:	003fbb06 	br	4f904 <__udivdi3+0x1e8>
   4fa18:	38c04028 	cmpgeui	r3,r7,256
   4fa1c:	180690fa 	slli	r3,r3,3
   4fa20:	003fa506 	br	4f8b8 <__udivdi3+0x19c>
   4fa24:	88e2983a 	sll	r17,r17,r3
   4fa28:	85aad83a 	srl	r21,r16,r22
   4fa2c:	80e0983a 	sll	r16,r16,r3
   4fa30:	8828d43a 	srli	r20,r17,16
   4fa34:	a809883a 	mov	r4,r21
   4fa38:	95acd83a 	srl	r22,r18,r22
   4fa3c:	a00b883a 	mov	r5,r20
   4fa40:	90e6983a 	sll	r19,r18,r3
   4fa44:	0040b140 	call	40b14 <__umodsi3>
   4fa48:	a809883a 	mov	r4,r21
   4fa4c:	a00b883a 	mov	r5,r20
   4fa50:	b42cb03a 	or	r22,r22,r16
   4fa54:	8d7fffcc 	andi	r21,r17,65535
   4fa58:	1021883a 	mov	r16,r2
   4fa5c:	0040ab00 	call	40ab0 <__udivsi3>
   4fa60:	a809883a 	mov	r4,r21
   4fa64:	100b883a 	mov	r5,r2
   4fa68:	1025883a 	mov	r18,r2
   4fa6c:	0040b700 	call	40b70 <__mulsi3>
   4fa70:	8008943a 	slli	r4,r16,16
   4fa74:	b006d43a 	srli	r3,r22,16
   4fa78:	20c8b03a 	or	r4,r4,r3
   4fa7c:	2080062e 	bgeu	r4,r2,4fa98 <__udivdi3+0x37c>
   4fa80:	2449883a 	add	r4,r4,r17
   4fa84:	90ffffc4 	addi	r3,r18,-1
   4fa88:	24408c36 	bltu	r4,r17,4fcbc <__udivdi3+0x5a0>
   4fa8c:	20808b2e 	bgeu	r4,r2,4fcbc <__udivdi3+0x5a0>
   4fa90:	94bfff84 	addi	r18,r18,-2
   4fa94:	2449883a 	add	r4,r4,r17
   4fa98:	20a1c83a 	sub	r16,r4,r2
   4fa9c:	8009883a 	mov	r4,r16
   4faa0:	a00b883a 	mov	r5,r20
   4faa4:	0040b140 	call	40b14 <__umodsi3>
   4faa8:	8009883a 	mov	r4,r16
   4faac:	1021883a 	mov	r16,r2
   4fab0:	a00b883a 	mov	r5,r20
   4fab4:	8020943a 	slli	r16,r16,16
   4fab8:	0040ab00 	call	40ab0 <__udivsi3>
   4fabc:	100b883a 	mov	r5,r2
   4fac0:	a809883a 	mov	r4,r21
   4fac4:	b5bfffcc 	andi	r22,r22,65535
   4fac8:	102f883a 	mov	r23,r2
   4facc:	85a0b03a 	or	r16,r16,r22
   4fad0:	0040b700 	call	40b70 <__mulsi3>
   4fad4:	8080062e 	bgeu	r16,r2,4faf0 <__udivdi3+0x3d4>
   4fad8:	8461883a 	add	r16,r16,r17
   4fadc:	b8ffffc4 	addi	r3,r23,-1
   4fae0:	84407236 	bltu	r16,r17,4fcac <__udivdi3+0x590>
   4fae4:	8080712e 	bgeu	r16,r2,4fcac <__udivdi3+0x590>
   4fae8:	bdffff84 	addi	r23,r23,-2
   4faec:	8461883a 	add	r16,r16,r17
   4faf0:	9006943a 	slli	r3,r18,16
   4faf4:	80a1c83a 	sub	r16,r16,r2
   4faf8:	1dc6b03a 	or	r3,r3,r23
   4fafc:	003f8d06 	br	4f934 <__udivdi3+0x218>
   4fb00:	30a8d83a 	srl	r20,r6,r2
   4fb04:	3c4e983a 	sll	r7,r7,r17
   4fb08:	80aed83a 	srl	r23,r16,r2
   4fb0c:	90a6d83a 	srl	r19,r18,r2
   4fb10:	a1e8b03a 	or	r20,r20,r7
   4fb14:	a02ad43a 	srli	r21,r20,16
   4fb18:	8444983a 	sll	r2,r16,r17
   4fb1c:	b809883a 	mov	r4,r23
   4fb20:	a80b883a 	mov	r5,r21
   4fb24:	346c983a 	sll	r22,r6,r17
   4fb28:	98a6b03a 	or	r19,r19,r2
   4fb2c:	0040b140 	call	40b14 <__umodsi3>
   4fb30:	b809883a 	mov	r4,r23
   4fb34:	a80b883a 	mov	r5,r21
   4fb38:	1039883a 	mov	fp,r2
   4fb3c:	a5ffffcc 	andi	r23,r20,65535
   4fb40:	0040ab00 	call	40ab0 <__udivsi3>
   4fb44:	b809883a 	mov	r4,r23
   4fb48:	100b883a 	mov	r5,r2
   4fb4c:	1021883a 	mov	r16,r2
   4fb50:	0040b700 	call	40b70 <__mulsi3>
   4fb54:	e008943a 	slli	r4,fp,16
   4fb58:	9806d43a 	srli	r3,r19,16
   4fb5c:	20c8b03a 	or	r4,r4,r3
   4fb60:	2080062e 	bgeu	r4,r2,4fb7c <__udivdi3+0x460>
   4fb64:	2509883a 	add	r4,r4,r20
   4fb68:	80ffffc4 	addi	r3,r16,-1
   4fb6c:	25005136 	bltu	r4,r20,4fcb4 <__udivdi3+0x598>
   4fb70:	2080502e 	bgeu	r4,r2,4fcb4 <__udivdi3+0x598>
   4fb74:	843fff84 	addi	r16,r16,-2
   4fb78:	2509883a 	add	r4,r4,r20
   4fb7c:	20b9c83a 	sub	fp,r4,r2
   4fb80:	a80b883a 	mov	r5,r21
   4fb84:	e009883a 	mov	r4,fp
   4fb88:	0040b140 	call	40b14 <__umodsi3>
   4fb8c:	a80b883a 	mov	r5,r21
   4fb90:	e009883a 	mov	r4,fp
   4fb94:	102b883a 	mov	r21,r2
   4fb98:	0040ab00 	call	40ab0 <__udivsi3>
   4fb9c:	100b883a 	mov	r5,r2
   4fba0:	b809883a 	mov	r4,r23
   4fba4:	1039883a 	mov	fp,r2
   4fba8:	0040b700 	call	40b70 <__mulsi3>
   4fbac:	a806943a 	slli	r3,r21,16
   4fbb0:	9cffffcc 	andi	r19,r19,65535
   4fbb4:	1cc6b03a 	or	r3,r3,r19
   4fbb8:	1880062e 	bgeu	r3,r2,4fbd4 <__udivdi3+0x4b8>
   4fbbc:	1d07883a 	add	r3,r3,r20
   4fbc0:	e13fffc4 	addi	r4,fp,-1
   4fbc4:	1d003736 	bltu	r3,r20,4fca4 <__udivdi3+0x588>
   4fbc8:	1880362e 	bgeu	r3,r2,4fca4 <__udivdi3+0x588>
   4fbcc:	e73fff84 	addi	fp,fp,-2
   4fbd0:	1d07883a 	add	r3,r3,r20
   4fbd4:	8020943a 	slli	r16,r16,16
   4fbd8:	e1bfffcc 	andi	r6,fp,65535
   4fbdc:	b53fffcc 	andi	r20,r22,65535
   4fbe0:	8720b03a 	or	r16,r16,fp
   4fbe4:	802ad43a 	srli	r21,r16,16
   4fbe8:	3009883a 	mov	r4,r6
   4fbec:	a00b883a 	mov	r5,r20
   4fbf0:	18a7c83a 	sub	r19,r3,r2
   4fbf4:	d9800015 	stw	r6,0(sp)
   4fbf8:	b02cd43a 	srli	r22,r22,16
   4fbfc:	0040b700 	call	40b70 <__mulsi3>
   4fc00:	a00b883a 	mov	r5,r20
   4fc04:	a809883a 	mov	r4,r21
   4fc08:	102f883a 	mov	r23,r2
   4fc0c:	0040b700 	call	40b70 <__mulsi3>
   4fc10:	a809883a 	mov	r4,r21
   4fc14:	b00b883a 	mov	r5,r22
   4fc18:	1029883a 	mov	r20,r2
   4fc1c:	0040b700 	call	40b70 <__mulsi3>
   4fc20:	d9800017 	ldw	r6,0(sp)
   4fc24:	b00b883a 	mov	r5,r22
   4fc28:	102b883a 	mov	r21,r2
   4fc2c:	3009883a 	mov	r4,r6
   4fc30:	0040b700 	call	40b70 <__mulsi3>
   4fc34:	b806d43a 	srli	r3,r23,16
   4fc38:	1505883a 	add	r2,r2,r20
   4fc3c:	1887883a 	add	r3,r3,r2
   4fc40:	1d00022e 	bgeu	r3,r20,4fc4c <__udivdi3+0x530>
   4fc44:	00800074 	movhi	r2,1
   4fc48:	a8ab883a 	add	r21,r21,r2
   4fc4c:	1804d43a 	srli	r2,r3,16
   4fc50:	1545883a 	add	r2,r2,r21
   4fc54:	98800936 	bltu	r19,r2,4fc7c <__udivdi3+0x560>
   4fc58:	98800326 	beq	r19,r2,4fc68 <__udivdi3+0x54c>
   4fc5c:	8005883a 	mov	r2,r16
   4fc60:	0007883a 	mov	r3,zero
   4fc64:	003f0306 	br	4f874 <__udivdi3+0x158>
   4fc68:	1806943a 	slli	r3,r3,16
   4fc6c:	9448983a 	sll	r4,r18,r17
   4fc70:	bdffffcc 	andi	r23,r23,65535
   4fc74:	1dc5883a 	add	r2,r3,r23
   4fc78:	20bff82e 	bgeu	r4,r2,4fc5c <__udivdi3+0x540>
   4fc7c:	80bfffc4 	addi	r2,r16,-1
   4fc80:	0007883a 	mov	r3,zero
   4fc84:	003efb06 	br	4f874 <__udivdi3+0x158>
   4fc88:	00c00404 	movi	r3,16
   4fc8c:	003f0a06 	br	4f8b8 <__udivdi3+0x19c>
   4fc90:	00c00404 	movi	r3,16
   4fc94:	003eb806 	br	4f778 <__udivdi3+0x5c>
   4fc98:	0007883a 	mov	r3,zero
   4fc9c:	00800044 	movi	r2,1
   4fca0:	003ef406 	br	4f874 <__udivdi3+0x158>
   4fca4:	2039883a 	mov	fp,r4
   4fca8:	003fca06 	br	4fbd4 <__udivdi3+0x4b8>
   4fcac:	182f883a 	mov	r23,r3
   4fcb0:	003f8f06 	br	4faf0 <__udivdi3+0x3d4>
   4fcb4:	1821883a 	mov	r16,r3
   4fcb8:	003fb006 	br	4fb7c <__udivdi3+0x460>
   4fcbc:	1825883a 	mov	r18,r3
   4fcc0:	003f7506 	br	4fa98 <__udivdi3+0x37c>
   4fcc4:	a53fff84 	addi	r20,r20,-2
   4fcc8:	003f4706 	br	4f9e8 <__udivdi3+0x2cc>
   4fccc:	a53fff84 	addi	r20,r20,-2
   4fcd0:	003ee106 	br	4f858 <__udivdi3+0x13c>
   4fcd4:	843fff84 	addi	r16,r16,-2
   4fcd8:	2449883a 	add	r4,r4,r17
   4fcdc:	003f2b06 	br	4f98c <__udivdi3+0x270>
   4fce0:	00800604 	movi	r2,24
   4fce4:	003f0706 	br	4f904 <__udivdi3+0x1e8>
   4fce8:	843fff84 	addi	r16,r16,-2
   4fcec:	2449883a 	add	r4,r4,r17
   4fcf0:	003ec406 	br	4f804 <__udivdi3+0xe8>

0004fcf4 <__umoddi3>:
   4fcf4:	defff504 	addi	sp,sp,-44
   4fcf8:	dcc00415 	stw	r19,16(sp)
   4fcfc:	dc000115 	stw	r16,4(sp)
   4fd00:	dfc00a15 	stw	ra,40(sp)
   4fd04:	df000915 	stw	fp,36(sp)
   4fd08:	ddc00815 	stw	r23,32(sp)
   4fd0c:	dd800715 	stw	r22,28(sp)
   4fd10:	dd400615 	stw	r21,24(sp)
   4fd14:	dd000515 	stw	r20,20(sp)
   4fd18:	dc800315 	stw	r18,12(sp)
   4fd1c:	dc400215 	stw	r17,8(sp)
   4fd20:	2827883a 	mov	r19,r5
   4fd24:	2021883a 	mov	r16,r4
   4fd28:	3800401e 	bne	r7,zero,4fe2c <__umoddi3+0x138>
   4fd2c:	3029883a 	mov	r20,r6
   4fd30:	2025883a 	mov	r18,r4
   4fd34:	2980622e 	bgeu	r5,r6,4fec0 <__umoddi3+0x1cc>
   4fd38:	00bfffd4 	movui	r2,65535
   4fd3c:	282d883a 	mov	r22,r5
   4fd40:	11808e2e 	bgeu	r2,r6,4ff7c <__umoddi3+0x288>
   4fd44:	00804034 	movhi	r2,256
   4fd48:	30813536 	bltu	r6,r2,50220 <__umoddi3+0x52c>
   4fd4c:	00c00604 	movi	r3,24
   4fd50:	30cad83a 	srl	r5,r6,r3
   4fd54:	00800174 	movhi	r2,5
   4fd58:	01000804 	movi	r4,32
   4fd5c:	2885883a 	add	r2,r5,r2
   4fd60:	10948f03 	ldbu	r2,21052(r2)
   4fd64:	10c5883a 	add	r2,r2,r3
   4fd68:	20a3c83a 	sub	r17,r4,r2
   4fd6c:	20800526 	beq	r4,r2,4fd84 <__umoddi3+0x90>
   4fd70:	9c6c983a 	sll	r22,r19,r17
   4fd74:	8084d83a 	srl	r2,r16,r2
   4fd78:	3468983a 	sll	r20,r6,r17
   4fd7c:	8464983a 	sll	r18,r16,r17
   4fd80:	15acb03a 	or	r22,r2,r22
   4fd84:	a02ad43a 	srli	r21,r20,16
   4fd88:	b009883a 	mov	r4,r22
   4fd8c:	a4ffffcc 	andi	r19,r20,65535
   4fd90:	a80b883a 	mov	r5,r21
   4fd94:	0040b140 	call	40b14 <__umodsi3>
   4fd98:	a80b883a 	mov	r5,r21
   4fd9c:	b009883a 	mov	r4,r22
   4fda0:	1021883a 	mov	r16,r2
   4fda4:	0040ab00 	call	40ab0 <__udivsi3>
   4fda8:	9809883a 	mov	r4,r19
   4fdac:	100b883a 	mov	r5,r2
   4fdb0:	0040b700 	call	40b70 <__mulsi3>
   4fdb4:	8008943a 	slli	r4,r16,16
   4fdb8:	9006d43a 	srli	r3,r18,16
   4fdbc:	20c8b03a 	or	r4,r4,r3
   4fdc0:	2080032e 	bgeu	r4,r2,4fdd0 <__umoddi3+0xdc>
   4fdc4:	2509883a 	add	r4,r4,r20
   4fdc8:	25000136 	bltu	r4,r20,4fdd0 <__umoddi3+0xdc>
   4fdcc:	20811e36 	bltu	r4,r2,50248 <__umoddi3+0x554>
   4fdd0:	20a1c83a 	sub	r16,r4,r2
   4fdd4:	8009883a 	mov	r4,r16
   4fdd8:	a80b883a 	mov	r5,r21
   4fddc:	0040b140 	call	40b14 <__umodsi3>
   4fde0:	8009883a 	mov	r4,r16
   4fde4:	a80b883a 	mov	r5,r21
   4fde8:	1021883a 	mov	r16,r2
   4fdec:	0040ab00 	call	40ab0 <__udivsi3>
   4fdf0:	100b883a 	mov	r5,r2
   4fdf4:	9809883a 	mov	r4,r19
   4fdf8:	8020943a 	slli	r16,r16,16
   4fdfc:	94bfffcc 	andi	r18,r18,65535
   4fe00:	0040b700 	call	40b70 <__mulsi3>
   4fe04:	84a0b03a 	or	r16,r16,r18
   4fe08:	8080042e 	bgeu	r16,r2,4fe1c <__umoddi3+0x128>
   4fe0c:	8521883a 	add	r16,r16,r20
   4fe10:	85000236 	bltu	r16,r20,4fe1c <__umoddi3+0x128>
   4fe14:	8080012e 	bgeu	r16,r2,4fe1c <__umoddi3+0x128>
   4fe18:	8521883a 	add	r16,r16,r20
   4fe1c:	80a1c83a 	sub	r16,r16,r2
   4fe20:	8444d83a 	srl	r2,r16,r17
   4fe24:	0007883a 	mov	r3,zero
   4fe28:	00000406 	br	4fe3c <__umoddi3+0x148>
   4fe2c:	2807883a 	mov	r3,r5
   4fe30:	200b883a 	mov	r5,r4
   4fe34:	99c00d2e 	bgeu	r19,r7,4fe6c <__umoddi3+0x178>
   4fe38:	2005883a 	mov	r2,r4
   4fe3c:	dfc00a17 	ldw	ra,40(sp)
   4fe40:	df000917 	ldw	fp,36(sp)
   4fe44:	ddc00817 	ldw	r23,32(sp)
   4fe48:	dd800717 	ldw	r22,28(sp)
   4fe4c:	dd400617 	ldw	r21,24(sp)
   4fe50:	dd000517 	ldw	r20,20(sp)
   4fe54:	dcc00417 	ldw	r19,16(sp)
   4fe58:	dc800317 	ldw	r18,12(sp)
   4fe5c:	dc400217 	ldw	r17,8(sp)
   4fe60:	dc000117 	ldw	r16,4(sp)
   4fe64:	dec00b04 	addi	sp,sp,44
   4fe68:	f800283a 	ret
   4fe6c:	00bfffd4 	movui	r2,65535
   4fe70:	11c04b2e 	bgeu	r2,r7,4ffa0 <__umoddi3+0x2ac>
   4fe74:	00804034 	movhi	r2,256
   4fe78:	3880eb36 	bltu	r7,r2,50228 <__umoddi3+0x534>
   4fe7c:	01000604 	movi	r4,24
   4fe80:	3912d83a 	srl	r9,r7,r4
   4fe84:	00800174 	movhi	r2,5
   4fe88:	02000804 	movi	r8,32
   4fe8c:	4885883a 	add	r2,r9,r2
   4fe90:	17148f03 	ldbu	fp,21052(r2)
   4fe94:	e139883a 	add	fp,fp,r4
   4fe98:	4729c83a 	sub	r20,r8,fp
   4fe9c:	4700721e 	bne	r8,fp,50068 <__umoddi3+0x374>
   4fea0:	3cc00136 	bltu	r7,r19,4fea8 <__umoddi3+0x1b4>
   4fea4:	81800436 	bltu	r16,r6,4feb8 <__umoddi3+0x1c4>
   4fea8:	818bc83a 	sub	r5,r16,r6
   4feac:	99cfc83a 	sub	r7,r19,r7
   4feb0:	8147803a 	cmpltu	r3,r16,r5
   4feb4:	38c7c83a 	sub	r3,r7,r3
   4feb8:	2805883a 	mov	r2,r5
   4febc:	003fdf06 	br	4fe3c <__umoddi3+0x148>
   4fec0:	3000311e 	bne	r6,zero,4ff88 <__umoddi3+0x294>
   4fec4:	000b883a 	mov	r5,zero
   4fec8:	01000044 	movi	r4,1
   4fecc:	0040ab00 	call	40ab0 <__udivsi3>
   4fed0:	1029883a 	mov	r20,r2
   4fed4:	a0804028 	cmpgeui	r2,r20,256
   4fed8:	100490fa 	slli	r2,r2,3
   4fedc:	a08ad83a 	srl	r5,r20,r2
   4fee0:	00c00174 	movhi	r3,5
   4fee4:	01000804 	movi	r4,32
   4fee8:	28c7883a 	add	r3,r5,r3
   4feec:	1dd48f03 	ldbu	r23,21052(r3)
   4fef0:	b8af883a 	add	r23,r23,r2
   4fef4:	25e3c83a 	sub	r17,r4,r23
   4fef8:	25c02c1e 	bne	r4,r23,4ffac <__umoddi3+0x2b8>
   4fefc:	a02ad43a 	srli	r21,r20,16
   4ff00:	9d27c83a 	sub	r19,r19,r20
   4ff04:	a5bfffcc 	andi	r22,r20,65535
   4ff08:	a80b883a 	mov	r5,r21
   4ff0c:	9809883a 	mov	r4,r19
   4ff10:	0040b140 	call	40b14 <__umodsi3>
   4ff14:	a80b883a 	mov	r5,r21
   4ff18:	9809883a 	mov	r4,r19
   4ff1c:	1021883a 	mov	r16,r2
   4ff20:	0040ab00 	call	40ab0 <__udivsi3>
   4ff24:	1009883a 	mov	r4,r2
   4ff28:	b00b883a 	mov	r5,r22
   4ff2c:	0040b700 	call	40b70 <__mulsi3>
   4ff30:	8008943a 	slli	r4,r16,16
   4ff34:	9006d43a 	srli	r3,r18,16
   4ff38:	20c8b03a 	or	r4,r4,r3
   4ff3c:	2080042e 	bgeu	r4,r2,4ff50 <__umoddi3+0x25c>
   4ff40:	2509883a 	add	r4,r4,r20
   4ff44:	25000236 	bltu	r4,r20,4ff50 <__umoddi3+0x25c>
   4ff48:	2080012e 	bgeu	r4,r2,4ff50 <__umoddi3+0x25c>
   4ff4c:	2509883a 	add	r4,r4,r20
   4ff50:	20a1c83a 	sub	r16,r4,r2
   4ff54:	8009883a 	mov	r4,r16
   4ff58:	a80b883a 	mov	r5,r21
   4ff5c:	0040b140 	call	40b14 <__umodsi3>
   4ff60:	8009883a 	mov	r4,r16
   4ff64:	a80b883a 	mov	r5,r21
   4ff68:	1021883a 	mov	r16,r2
   4ff6c:	0040ab00 	call	40ab0 <__udivsi3>
   4ff70:	b00b883a 	mov	r5,r22
   4ff74:	1009883a 	mov	r4,r2
   4ff78:	003f9f06 	br	4fdf8 <__umoddi3+0x104>
   4ff7c:	30c04028 	cmpgeui	r3,r6,256
   4ff80:	180690fa 	slli	r3,r3,3
   4ff84:	003f7206 	br	4fd50 <__umoddi3+0x5c>
   4ff88:	00bfffd4 	movui	r2,65535
   4ff8c:	11bfd12e 	bgeu	r2,r6,4fed4 <__umoddi3+0x1e0>
   4ff90:	00804034 	movhi	r2,256
   4ff94:	3080aa2e 	bgeu	r6,r2,50240 <__umoddi3+0x54c>
   4ff98:	00800404 	movi	r2,16
   4ff9c:	003fcf06 	br	4fedc <__umoddi3+0x1e8>
   4ffa0:	39004028 	cmpgeui	r4,r7,256
   4ffa4:	200890fa 	slli	r4,r4,3
   4ffa8:	003fb506 	br	4fe80 <__umoddi3+0x18c>
   4ffac:	a468983a 	sll	r20,r20,r17
   4ffb0:	9de4d83a 	srl	r18,r19,r23
   4ffb4:	85eed83a 	srl	r23,r16,r23
   4ffb8:	a02ad43a 	srli	r21,r20,16
   4ffbc:	9009883a 	mov	r4,r18
   4ffc0:	9c66983a 	sll	r19,r19,r17
   4ffc4:	a80b883a 	mov	r5,r21
   4ffc8:	0040b140 	call	40b14 <__umodsi3>
   4ffcc:	9009883a 	mov	r4,r18
   4ffd0:	a80b883a 	mov	r5,r21
   4ffd4:	1025883a 	mov	r18,r2
   4ffd8:	a5bfffcc 	andi	r22,r20,65535
   4ffdc:	0040ab00 	call	40ab0 <__udivsi3>
   4ffe0:	b009883a 	mov	r4,r22
   4ffe4:	100b883a 	mov	r5,r2
   4ffe8:	0040b700 	call	40b70 <__mulsi3>
   4ffec:	bceeb03a 	or	r23,r23,r19
   4fff0:	9008943a 	slli	r4,r18,16
   4fff4:	b806d43a 	srli	r3,r23,16
   4fff8:	8464983a 	sll	r18,r16,r17
   4fffc:	20c8b03a 	or	r4,r4,r3
   50000:	2080042e 	bgeu	r4,r2,50014 <__umoddi3+0x320>
   50004:	2509883a 	add	r4,r4,r20
   50008:	25000236 	bltu	r4,r20,50014 <__umoddi3+0x320>
   5000c:	2080012e 	bgeu	r4,r2,50014 <__umoddi3+0x320>
   50010:	2509883a 	add	r4,r4,r20
   50014:	20a1c83a 	sub	r16,r4,r2
   50018:	a80b883a 	mov	r5,r21
   5001c:	8009883a 	mov	r4,r16
   50020:	0040b140 	call	40b14 <__umodsi3>
   50024:	1027883a 	mov	r19,r2
   50028:	a80b883a 	mov	r5,r21
   5002c:	8009883a 	mov	r4,r16
   50030:	9826943a 	slli	r19,r19,16
   50034:	0040ab00 	call	40ab0 <__udivsi3>
   50038:	100b883a 	mov	r5,r2
   5003c:	b009883a 	mov	r4,r22
   50040:	bdffffcc 	andi	r23,r23,65535
   50044:	0040b700 	call	40b70 <__mulsi3>
   50048:	9de6b03a 	or	r19,r19,r23
   5004c:	9880042e 	bgeu	r19,r2,50060 <__umoddi3+0x36c>
   50050:	9d27883a 	add	r19,r19,r20
   50054:	9d000236 	bltu	r19,r20,50060 <__umoddi3+0x36c>
   50058:	9880012e 	bgeu	r19,r2,50060 <__umoddi3+0x36c>
   5005c:	9d27883a 	add	r19,r19,r20
   50060:	98a7c83a 	sub	r19,r19,r2
   50064:	003fa806 	br	4ff08 <__umoddi3+0x214>
   50068:	3d0e983a 	sll	r7,r7,r20
   5006c:	3722d83a 	srl	r17,r6,fp
   50070:	9f2ed83a 	srl	r23,r19,fp
   50074:	3524983a 	sll	r18,r6,r20
   50078:	89e2b03a 	or	r17,r17,r7
   5007c:	882cd43a 	srli	r22,r17,16
   50080:	b809883a 	mov	r4,r23
   50084:	9d26983a 	sll	r19,r19,r20
   50088:	b00b883a 	mov	r5,r22
   5008c:	0040b140 	call	40b14 <__umodsi3>
   50090:	b809883a 	mov	r4,r23
   50094:	872ad83a 	srl	r21,r16,fp
   50098:	b00b883a 	mov	r5,r22
   5009c:	d8800015 	stw	r2,0(sp)
   500a0:	8dffffcc 	andi	r23,r17,65535
   500a4:	0040ab00 	call	40ab0 <__udivsi3>
   500a8:	b809883a 	mov	r4,r23
   500ac:	100b883a 	mov	r5,r2
   500b0:	aceab03a 	or	r21,r21,r19
   500b4:	1027883a 	mov	r19,r2
   500b8:	0040b700 	call	40b70 <__mulsi3>
   500bc:	d8c00017 	ldw	r3,0(sp)
   500c0:	8520983a 	sll	r16,r16,r20
   500c4:	1808943a 	slli	r4,r3,16
   500c8:	a806d43a 	srli	r3,r21,16
   500cc:	20c8b03a 	or	r4,r4,r3
   500d0:	2080062e 	bgeu	r4,r2,500ec <__umoddi3+0x3f8>
   500d4:	2449883a 	add	r4,r4,r17
   500d8:	98ffffc4 	addi	r3,r19,-1
   500dc:	24405636 	bltu	r4,r17,50238 <__umoddi3+0x544>
   500e0:	2080552e 	bgeu	r4,r2,50238 <__umoddi3+0x544>
   500e4:	9cffff84 	addi	r19,r19,-2
   500e8:	2449883a 	add	r4,r4,r17
   500ec:	2089c83a 	sub	r4,r4,r2
   500f0:	b00b883a 	mov	r5,r22
   500f4:	d9000015 	stw	r4,0(sp)
   500f8:	0040b140 	call	40b14 <__umodsi3>
   500fc:	d9000017 	ldw	r4,0(sp)
   50100:	b00b883a 	mov	r5,r22
   50104:	102d883a 	mov	r22,r2
   50108:	0040ab00 	call	40ab0 <__udivsi3>
   5010c:	100b883a 	mov	r5,r2
   50110:	b809883a 	mov	r4,r23
   50114:	d8800015 	stw	r2,0(sp)
   50118:	0040b700 	call	40b70 <__mulsi3>
   5011c:	b006943a 	slli	r3,r22,16
   50120:	ad7fffcc 	andi	r21,r21,65535
   50124:	d9400017 	ldw	r5,0(sp)
   50128:	1d46b03a 	or	r3,r3,r21
   5012c:	1880062e 	bgeu	r3,r2,50148 <__umoddi3+0x454>
   50130:	1c47883a 	add	r3,r3,r17
   50134:	293fffc4 	addi	r4,r5,-1
   50138:	1c403d36 	bltu	r3,r17,50230 <__umoddi3+0x53c>
   5013c:	18803c2e 	bgeu	r3,r2,50230 <__umoddi3+0x53c>
   50140:	297fff84 	addi	r5,r5,-2
   50144:	1c47883a 	add	r3,r3,r17
   50148:	9826943a 	slli	r19,r19,16
   5014c:	29bfffcc 	andi	r6,r5,65535
   50150:	913fffcc 	andi	r4,r18,65535
   50154:	9966b03a 	or	r19,r19,r5
   50158:	982ad43a 	srli	r21,r19,16
   5015c:	202d883a 	mov	r22,r4
   50160:	200b883a 	mov	r5,r4
   50164:	3009883a 	mov	r4,r6
   50168:	d9800015 	stw	r6,0(sp)
   5016c:	18a7c83a 	sub	r19,r3,r2
   50170:	902ed43a 	srli	r23,r18,16
   50174:	0040b700 	call	40b70 <__mulsi3>
   50178:	b00b883a 	mov	r5,r22
   5017c:	a809883a 	mov	r4,r21
   50180:	102d883a 	mov	r22,r2
   50184:	0040b700 	call	40b70 <__mulsi3>
   50188:	b80b883a 	mov	r5,r23
   5018c:	a809883a 	mov	r4,r21
   50190:	102b883a 	mov	r21,r2
   50194:	0040b700 	call	40b70 <__mulsi3>
   50198:	d9800017 	ldw	r6,0(sp)
   5019c:	b80b883a 	mov	r5,r23
   501a0:	102f883a 	mov	r23,r2
   501a4:	3009883a 	mov	r4,r6
   501a8:	0040b700 	call	40b70 <__mulsi3>
   501ac:	b008d43a 	srli	r4,r22,16
   501b0:	1545883a 	add	r2,r2,r21
   501b4:	2089883a 	add	r4,r4,r2
   501b8:	2540022e 	bgeu	r4,r21,501c4 <__umoddi3+0x4d0>
   501bc:	00800074 	movhi	r2,1
   501c0:	b8af883a 	add	r23,r23,r2
   501c4:	2006d43a 	srli	r3,r4,16
   501c8:	2008943a 	slli	r4,r4,16
   501cc:	b5bfffcc 	andi	r22,r22,65535
   501d0:	1dc5883a 	add	r2,r3,r23
   501d4:	2589883a 	add	r4,r4,r22
   501d8:	98800b36 	bltu	r19,r2,50208 <__umoddi3+0x514>
   501dc:	98800926 	beq	r19,r2,50204 <__umoddi3+0x510>
   501e0:	8109c83a 	sub	r4,r16,r4
   501e4:	9887c83a 	sub	r3,r19,r2
   501e8:	8121803a 	cmpltu	r16,r16,r4
   501ec:	1c07c83a 	sub	r3,r3,r16
   501f0:	1f38983a 	sll	fp,r3,fp
   501f4:	2508d83a 	srl	r4,r4,r20
   501f8:	1d06d83a 	srl	r3,r3,r20
   501fc:	e104b03a 	or	r2,fp,r4
   50200:	003f0e06 	br	4fe3c <__umoddi3+0x148>
   50204:	813ff62e 	bgeu	r16,r4,501e0 <__umoddi3+0x4ec>
   50208:	24a5c83a 	sub	r18,r4,r18
   5020c:	2489803a 	cmpltu	r4,r4,r18
   50210:	2449883a 	add	r4,r4,r17
   50214:	1105c83a 	sub	r2,r2,r4
   50218:	9009883a 	mov	r4,r18
   5021c:	003ff006 	br	501e0 <__umoddi3+0x4ec>
   50220:	00c00404 	movi	r3,16
   50224:	003eca06 	br	4fd50 <__umoddi3+0x5c>
   50228:	01000404 	movi	r4,16
   5022c:	003f1406 	br	4fe80 <__umoddi3+0x18c>
   50230:	200b883a 	mov	r5,r4
   50234:	003fc406 	br	50148 <__umoddi3+0x454>
   50238:	1827883a 	mov	r19,r3
   5023c:	003fab06 	br	500ec <__umoddi3+0x3f8>
   50240:	00800604 	movi	r2,24
   50244:	003f2506 	br	4fedc <__umoddi3+0x1e8>
   50248:	2509883a 	add	r4,r4,r20
   5024c:	003ee006 	br	4fdd0 <__umoddi3+0xdc>

00050250 <__divdf3>:
   50250:	2806d53a 	srli	r3,r5,20
   50254:	defff004 	addi	sp,sp,-64
   50258:	00800434 	movhi	r2,16
   5025c:	dd800c15 	stw	r22,48(sp)
   50260:	dd400b15 	stw	r21,44(sp)
   50264:	dd000a15 	stw	r20,40(sp)
   50268:	dc800815 	stw	r18,32(sp)
   5026c:	dc000615 	stw	r16,24(sp)
   50270:	10bfffc4 	addi	r2,r2,-1
   50274:	dfc00f15 	stw	ra,60(sp)
   50278:	df000e15 	stw	fp,56(sp)
   5027c:	ddc00d15 	stw	r23,52(sp)
   50280:	dcc00915 	stw	r19,36(sp)
   50284:	dc400715 	stw	r17,28(sp)
   50288:	18c1ffcc 	andi	r3,r3,2047
   5028c:	282cd7fa 	srli	r22,r5,31
   50290:	302b883a 	mov	r21,r6
   50294:	3821883a 	mov	r16,r7
   50298:	2029883a 	mov	r20,r4
   5029c:	28a4703a 	and	r18,r5,r2
   502a0:	18013426 	beq	r3,zero,50774 <__divdf3+0x524>
   502a4:	1881ffe0 	cmpeqi	r2,r3,2047
   502a8:	1001451e 	bne	r2,zero,507c0 <__divdf3+0x570>
   502ac:	900a90fa 	slli	r5,r18,3
   502b0:	2022d77a 	srli	r17,r4,29
   502b4:	202890fa 	slli	r20,r4,3
   502b8:	1f3f0044 	addi	fp,r3,-1023
   502bc:	8962b03a 	or	r17,r17,r5
   502c0:	8c402034 	orhi	r17,r17,128
   502c4:	0027883a 	mov	r19,zero
   502c8:	0025883a 	mov	r18,zero
   502cc:	8004d53a 	srli	r2,r16,20
   502d0:	01000434 	movhi	r4,16
   502d4:	213fffc4 	addi	r4,r4,-1
   502d8:	1081ffcc 	andi	r2,r2,2047
   502dc:	802ed7fa 	srli	r23,r16,31
   502e0:	8120703a 	and	r16,r16,r4
   502e4:	10011226 	beq	r2,zero,50730 <__divdf3+0x4e0>
   502e8:	1101ffe0 	cmpeqi	r4,r2,2047
   502ec:	20013b1e 	bne	r4,zero,507dc <__divdf3+0x58c>
   502f0:	a808d77a 	srli	r4,r21,29
   502f4:	802090fa 	slli	r16,r16,3
   502f8:	a80e90fa 	slli	r7,r21,3
   502fc:	10bf0044 	addi	r2,r2,-1023
   50300:	2420b03a 	or	r16,r4,r16
   50304:	84002034 	orhi	r16,r16,128
   50308:	e0b9c83a 	sub	fp,fp,r2
   5030c:	0009883a 	mov	r4,zero
   50310:	98800428 	cmpgeui	r2,r19,16
   50314:	b5eaf03a 	xor	r21,r22,r23
   50318:	1000391e 	bne	r2,zero,50400 <__divdf3+0x1b0>
   5031c:	982690ba 	slli	r19,r19,2
   50320:	00800174 	movhi	r2,5
   50324:	9885883a 	add	r2,r19,r2
   50328:	1080cc17 	ldw	r2,816(r2)
   5032c:	1000683a 	jmp	r2
   50330:	00050400 	call	5040 <__reset-0x3afc0>
   50334:	000503e8 	cmpgeui	zero,zero,5135
   50338:	00050398 	cmpnei	zero,zero,5134
   5033c:	000503f8 	rdprs	zero,zero,5135
   50340:	00050398 	cmpnei	zero,zero,5134
   50344:	00050840 	call	5084 <__reset-0x3af7c>
   50348:	00050398 	cmpnei	zero,zero,5134
   5034c:	000503f8 	rdprs	zero,zero,5135
   50350:	000503e8 	cmpgeui	zero,zero,5135
   50354:	000503e8 	cmpgeui	zero,zero,5135
   50358:	00050840 	call	5084 <__reset-0x3af7c>
   5035c:	000503f8 	rdprs	zero,zero,5135
   50360:	00050370 	cmpltui	zero,zero,5133
   50364:	00050370 	cmpltui	zero,zero,5133
   50368:	00050370 	cmpltui	zero,zero,5133
   5036c:	000508d0 	cmplti	zero,zero,5155
   50370:	b02b883a 	mov	r21,r22
   50374:	8821883a 	mov	r16,r17
   50378:	a00f883a 	mov	r7,r20
   5037c:	9009883a 	mov	r4,r18
   50380:	208000a0 	cmpeqi	r2,r4,2
   50384:	1000181e 	bne	r2,zero,503e8 <__divdf3+0x198>
   50388:	208000e0 	cmpeqi	r2,r4,3
   5038c:	1001df1e 	bne	r2,zero,50b0c <__divdf3+0x8bc>
   50390:	21000060 	cmpeqi	r4,r4,1
   50394:	2000d326 	beq	r4,zero,506e4 <__divdf3+0x494>
   50398:	0009883a 	mov	r4,zero
   5039c:	0023883a 	mov	r17,zero
   503a0:	0029883a 	mov	r20,zero
   503a4:	2006953a 	slli	r3,r4,20
   503a8:	a80c97fa 	slli	r6,r21,31
   503ac:	a005883a 	mov	r2,r20
   503b0:	1c46b03a 	or	r3,r3,r17
   503b4:	1986b03a 	or	r3,r3,r6
   503b8:	dfc00f17 	ldw	ra,60(sp)
   503bc:	df000e17 	ldw	fp,56(sp)
   503c0:	ddc00d17 	ldw	r23,52(sp)
   503c4:	dd800c17 	ldw	r22,48(sp)
   503c8:	dd400b17 	ldw	r21,44(sp)
   503cc:	dd000a17 	ldw	r20,40(sp)
   503d0:	dcc00917 	ldw	r19,36(sp)
   503d4:	dc800817 	ldw	r18,32(sp)
   503d8:	dc400717 	ldw	r17,28(sp)
   503dc:	dc000617 	ldw	r16,24(sp)
   503e0:	dec01004 	addi	sp,sp,64
   503e4:	f800283a 	ret
   503e8:	0101ffc4 	movi	r4,2047
   503ec:	0023883a 	mov	r17,zero
   503f0:	0029883a 	mov	r20,zero
   503f4:	003feb06 	br	503a4 <__divdf3+0x154>
   503f8:	b82b883a 	mov	r21,r23
   503fc:	003fe006 	br	50380 <__divdf3+0x130>
   50400:	84414d36 	bltu	r16,r17,50938 <__divdf3+0x6e8>
   50404:	84414b26 	beq	r16,r17,50934 <__divdf3+0x6e4>
   50408:	a025883a 	mov	r18,r20
   5040c:	e73fffc4 	addi	fp,fp,-1
   50410:	0029883a 	mov	r20,zero
   50414:	8020923a 	slli	r16,r16,8
   50418:	3826d63a 	srli	r19,r7,24
   5041c:	8809883a 	mov	r4,r17
   50420:	802ed43a 	srli	r23,r16,16
   50424:	9c26b03a 	or	r19,r19,r16
   50428:	9dbfffcc 	andi	r22,r19,65535
   5042c:	b80b883a 	mov	r5,r23
   50430:	d9c00115 	stw	r7,4(sp)
   50434:	dd800015 	stw	r22,0(sp)
   50438:	0040ab00 	call	40ab0 <__udivsi3>
   5043c:	b009883a 	mov	r4,r22
   50440:	100b883a 	mov	r5,r2
   50444:	1021883a 	mov	r16,r2
   50448:	0040b700 	call	40b70 <__mulsi3>
   5044c:	8809883a 	mov	r4,r17
   50450:	b80b883a 	mov	r5,r23
   50454:	102d883a 	mov	r22,r2
   50458:	0040b140 	call	40b14 <__umodsi3>
   5045c:	1004943a 	slli	r2,r2,16
   50460:	9008d43a 	srli	r4,r18,16
   50464:	d9c00117 	ldw	r7,4(sp)
   50468:	2088b03a 	or	r4,r4,r2
   5046c:	3822923a 	slli	r17,r7,8
   50470:	2580042e 	bgeu	r4,r22,50484 <__divdf3+0x234>
   50474:	24c9883a 	add	r4,r4,r19
   50478:	80bfffc4 	addi	r2,r16,-1
   5047c:	24c1602e 	bgeu	r4,r19,50a00 <__divdf3+0x7b0>
   50480:	1021883a 	mov	r16,r2
   50484:	25adc83a 	sub	r22,r4,r22
   50488:	b80b883a 	mov	r5,r23
   5048c:	b009883a 	mov	r4,r22
   50490:	0040ab00 	call	40ab0 <__udivsi3>
   50494:	d9000017 	ldw	r4,0(sp)
   50498:	100b883a 	mov	r5,r2
   5049c:	d8800215 	stw	r2,8(sp)
   504a0:	0040b700 	call	40b70 <__mulsi3>
   504a4:	b80b883a 	mov	r5,r23
   504a8:	b009883a 	mov	r4,r22
   504ac:	d8800115 	stw	r2,4(sp)
   504b0:	0040b140 	call	40b14 <__umodsi3>
   504b4:	1004943a 	slli	r2,r2,16
   504b8:	da400117 	ldw	r9,4(sp)
   504bc:	94bfffcc 	andi	r18,r18,65535
   504c0:	908eb03a 	or	r7,r18,r2
   504c4:	da000217 	ldw	r8,8(sp)
   504c8:	3a40042e 	bgeu	r7,r9,504dc <__divdf3+0x28c>
   504cc:	3ccf883a 	add	r7,r7,r19
   504d0:	40bfffc4 	addi	r2,r8,-1
   504d4:	3cc1462e 	bgeu	r7,r19,509f0 <__divdf3+0x7a0>
   504d8:	1011883a 	mov	r8,r2
   504dc:	8020943a 	slli	r16,r16,16
   504e0:	88bfffcc 	andi	r2,r17,65535
   504e4:	100b883a 	mov	r5,r2
   504e8:	8220b03a 	or	r16,r16,r8
   504ec:	82bfffcc 	andi	r10,r16,65535
   504f0:	3a51c83a 	sub	r8,r7,r9
   504f4:	5009883a 	mov	r4,r10
   504f8:	da000415 	stw	r8,16(sp)
   504fc:	da800515 	stw	r10,20(sp)
   50500:	8024d43a 	srli	r18,r16,16
   50504:	d8800115 	stw	r2,4(sp)
   50508:	0040b700 	call	40b70 <__mulsi3>
   5050c:	d9400117 	ldw	r5,4(sp)
   50510:	882cd43a 	srli	r22,r17,16
   50514:	9009883a 	mov	r4,r18
   50518:	d8800315 	stw	r2,12(sp)
   5051c:	0040b700 	call	40b70 <__mulsi3>
   50520:	9009883a 	mov	r4,r18
   50524:	b00b883a 	mov	r5,r22
   50528:	d8800215 	stw	r2,8(sp)
   5052c:	0040b700 	call	40b70 <__mulsi3>
   50530:	da800517 	ldw	r10,20(sp)
   50534:	b009883a 	mov	r4,r22
   50538:	1025883a 	mov	r18,r2
   5053c:	500b883a 	mov	r5,r10
   50540:	0040b700 	call	40b70 <__mulsi3>
   50544:	da400317 	ldw	r9,12(sp)
   50548:	d9c00217 	ldw	r7,8(sp)
   5054c:	da000417 	ldw	r8,16(sp)
   50550:	4808d43a 	srli	r4,r9,16
   50554:	11c5883a 	add	r2,r2,r7
   50558:	2089883a 	add	r4,r4,r2
   5055c:	21c0022e 	bgeu	r4,r7,50568 <__divdf3+0x318>
   50560:	00800074 	movhi	r2,1
   50564:	90a5883a 	add	r18,r18,r2
   50568:	200ad43a 	srli	r5,r4,16
   5056c:	200e943a 	slli	r7,r4,16
   50570:	4a7fffcc 	andi	r9,r9,65535
   50574:	2c85883a 	add	r2,r5,r18
   50578:	3a4f883a 	add	r7,r7,r9
   5057c:	40800236 	bltu	r8,r2,50588 <__divdf3+0x338>
   50580:	40800a1e 	bne	r8,r2,505ac <__divdf3+0x35c>
   50584:	a1c0092e 	bgeu	r20,r7,505ac <__divdf3+0x35c>
   50588:	a469883a 	add	r20,r20,r17
   5058c:	a449803a 	cmpltu	r4,r20,r17
   50590:	24c9883a 	add	r4,r4,r19
   50594:	4111883a 	add	r8,r8,r4
   50598:	813fffc4 	addi	r4,r16,-1
   5059c:	9a01112e 	bgeu	r19,r8,509e4 <__divdf3+0x794>
   505a0:	40814236 	bltu	r8,r2,50aac <__divdf3+0x85c>
   505a4:	12014026 	beq	r2,r8,50aa8 <__divdf3+0x858>
   505a8:	2021883a 	mov	r16,r4
   505ac:	a1e5c83a 	sub	r18,r20,r7
   505b0:	4085c83a 	sub	r2,r8,r2
   505b4:	a4a9803a 	cmpltu	r20,r20,r18
   505b8:	1529c83a 	sub	r20,r2,r20
   505bc:	9d012926 	beq	r19,r20,50a64 <__divdf3+0x814>
   505c0:	a009883a 	mov	r4,r20
   505c4:	b80b883a 	mov	r5,r23
   505c8:	0040ab00 	call	40ab0 <__udivsi3>
   505cc:	d9000017 	ldw	r4,0(sp)
   505d0:	100b883a 	mov	r5,r2
   505d4:	d8800215 	stw	r2,8(sp)
   505d8:	0040b700 	call	40b70 <__mulsi3>
   505dc:	a009883a 	mov	r4,r20
   505e0:	b80b883a 	mov	r5,r23
   505e4:	1029883a 	mov	r20,r2
   505e8:	0040b140 	call	40b14 <__umodsi3>
   505ec:	1004943a 	slli	r2,r2,16
   505f0:	9008d43a 	srli	r4,r18,16
   505f4:	2088b03a 	or	r4,r4,r2
   505f8:	2500f136 	bltu	r4,r20,509c0 <__divdf3+0x770>
   505fc:	2529c83a 	sub	r20,r4,r20
   50600:	a009883a 	mov	r4,r20
   50604:	b80b883a 	mov	r5,r23
   50608:	0040ab00 	call	40ab0 <__udivsi3>
   5060c:	d9000017 	ldw	r4,0(sp)
   50610:	100b883a 	mov	r5,r2
   50614:	d8800315 	stw	r2,12(sp)
   50618:	0040b700 	call	40b70 <__mulsi3>
   5061c:	a009883a 	mov	r4,r20
   50620:	b80b883a 	mov	r5,r23
   50624:	1029883a 	mov	r20,r2
   50628:	0040b140 	call	40b14 <__umodsi3>
   5062c:	1004943a 	slli	r2,r2,16
   50630:	91ffffcc 	andi	r7,r18,65535
   50634:	da400317 	ldw	r9,12(sp)
   50638:	3890b03a 	or	r8,r7,r2
   5063c:	4500d936 	bltu	r8,r20,509a4 <__divdf3+0x754>
   50640:	d8800217 	ldw	r2,8(sp)
   50644:	ddc00117 	ldw	r23,4(sp)
   50648:	4529c83a 	sub	r20,r8,r20
   5064c:	1024943a 	slli	r18,r2,16
   50650:	b809883a 	mov	r4,r23
   50654:	924eb03a 	or	r7,r18,r9
   50658:	3824d43a 	srli	r18,r7,16
   5065c:	3a7fffcc 	andi	r9,r7,65535
   50660:	480b883a 	mov	r5,r9
   50664:	d9c00215 	stw	r7,8(sp)
   50668:	da400115 	stw	r9,4(sp)
   5066c:	0040b700 	call	40b70 <__mulsi3>
   50670:	b80b883a 	mov	r5,r23
   50674:	9009883a 	mov	r4,r18
   50678:	102f883a 	mov	r23,r2
   5067c:	0040b700 	call	40b70 <__mulsi3>
   50680:	900b883a 	mov	r5,r18
   50684:	b009883a 	mov	r4,r22
   50688:	d8800015 	stw	r2,0(sp)
   5068c:	0040b700 	call	40b70 <__mulsi3>
   50690:	da400117 	ldw	r9,4(sp)
   50694:	b009883a 	mov	r4,r22
   50698:	1025883a 	mov	r18,r2
   5069c:	480b883a 	mov	r5,r9
   506a0:	0040b700 	call	40b70 <__mulsi3>
   506a4:	d8c00017 	ldw	r3,0(sp)
   506a8:	b808d43a 	srli	r4,r23,16
   506ac:	d9c00217 	ldw	r7,8(sp)
   506b0:	10cb883a 	add	r5,r2,r3
   506b4:	2149883a 	add	r4,r4,r5
   506b8:	20c0022e 	bgeu	r4,r3,506c4 <__divdf3+0x474>
   506bc:	00800074 	movhi	r2,1
   506c0:	90a5883a 	add	r18,r18,r2
   506c4:	200ad43a 	srli	r5,r4,16
   506c8:	2008943a 	slli	r4,r4,16
   506cc:	ba3fffcc 	andi	r8,r23,65535
   506d0:	2c8b883a 	add	r5,r5,r18
   506d4:	2209883a 	add	r4,r4,r8
   506d8:	a1408f36 	bltu	r20,r5,50918 <__divdf3+0x6c8>
   506dc:	a1408d26 	beq	r20,r5,50914 <__divdf3+0x6c4>
   506e0:	39c00054 	ori	r7,r7,1
   506e4:	e100ffc4 	addi	r4,fp,1023
   506e8:	01005c0e 	bge	zero,r4,5085c <__divdf3+0x60c>
   506ec:	388001cc 	andi	r2,r7,7
   506f0:	1000e41e 	bne	r2,zero,50a84 <__divdf3+0x834>
   506f4:	8080402c 	andhi	r2,r16,256
   506f8:	10000426 	beq	r2,zero,5070c <__divdf3+0x4bc>
   506fc:	00bfc034 	movhi	r2,65280
   50700:	10bfffc4 	addi	r2,r2,-1
   50704:	80a0703a 	and	r16,r16,r2
   50708:	e1010004 	addi	r4,fp,1024
   5070c:	2081ffc8 	cmpgei	r2,r4,2047
   50710:	103f351e 	bne	r2,zero,503e8 <__divdf3+0x198>
   50714:	380ed0fa 	srli	r7,r7,3
   50718:	8024977a 	slli	r18,r16,29
   5071c:	8022927a 	slli	r17,r16,9
   50720:	2101ffcc 	andi	r4,r4,2047
   50724:	91e8b03a 	or	r20,r18,r7
   50728:	8822d33a 	srli	r17,r17,12
   5072c:	003f1d06 	br	503a4 <__divdf3+0x154>
   50730:	854eb03a 	or	r7,r16,r21
   50734:	38003e26 	beq	r7,zero,50830 <__divdf3+0x5e0>
   50738:	80008f26 	beq	r16,zero,50978 <__divdf3+0x728>
   5073c:	8009883a 	mov	r4,r16
   50740:	0041fe40 	call	41fe4 <__clzsi2>
   50744:	117ffd44 	addi	r5,r2,-11
   50748:	01000744 	movi	r4,29
   5074c:	11fffe04 	addi	r7,r2,-8
   50750:	2149c83a 	sub	r4,r4,r5
   50754:	81e0983a 	sll	r16,r16,r7
   50758:	a908d83a 	srl	r4,r21,r4
   5075c:	a9ce983a 	sll	r7,r21,r7
   50760:	2420b03a 	or	r16,r4,r16
   50764:	1705883a 	add	r2,r2,fp
   50768:	1700fcc4 	addi	fp,r2,1011
   5076c:	0009883a 	mov	r4,zero
   50770:	003ee706 	br	50310 <__divdf3+0xc0>
   50774:	24a2b03a 	or	r17,r4,r18
   50778:	2027883a 	mov	r19,r4
   5077c:	88002726 	beq	r17,zero,5081c <__divdf3+0x5cc>
   50780:	90007326 	beq	r18,zero,50950 <__divdf3+0x700>
   50784:	9009883a 	mov	r4,r18
   50788:	0041fe40 	call	41fe4 <__clzsi2>
   5078c:	10fffd44 	addi	r3,r2,-11
   50790:	04400744 	movi	r17,29
   50794:	153ffe04 	addi	r20,r2,-8
   50798:	88e3c83a 	sub	r17,r17,r3
   5079c:	950a983a 	sll	r5,r18,r20
   507a0:	9c62d83a 	srl	r17,r19,r17
   507a4:	9d28983a 	sll	r20,r19,r20
   507a8:	8962b03a 	or	r17,r17,r5
   507ac:	00ff0344 	movi	r3,-1011
   507b0:	18b9c83a 	sub	fp,r3,r2
   507b4:	0027883a 	mov	r19,zero
   507b8:	0025883a 	mov	r18,zero
   507bc:	003ec306 	br	502cc <__divdf3+0x7c>
   507c0:	24a2b03a 	or	r17,r4,r18
   507c4:	8800101e 	bne	r17,zero,50808 <__divdf3+0x5b8>
   507c8:	0029883a 	mov	r20,zero
   507cc:	04c00204 	movi	r19,8
   507d0:	0701ffc4 	movi	fp,2047
   507d4:	04800084 	movi	r18,2
   507d8:	003ebc06 	br	502cc <__divdf3+0x7c>
   507dc:	854eb03a 	or	r7,r16,r21
   507e0:	e73e0044 	addi	fp,fp,-2047
   507e4:	3800041e 	bne	r7,zero,507f8 <__divdf3+0x5a8>
   507e8:	9cc00094 	ori	r19,r19,2
   507ec:	0021883a 	mov	r16,zero
   507f0:	01000084 	movi	r4,2
   507f4:	003ec606 	br	50310 <__divdf3+0xc0>
   507f8:	9cc000d4 	ori	r19,r19,3
   507fc:	a80f883a 	mov	r7,r21
   50800:	010000c4 	movi	r4,3
   50804:	003ec206 	br	50310 <__divdf3+0xc0>
   50808:	9023883a 	mov	r17,r18
   5080c:	04c00304 	movi	r19,12
   50810:	0701ffc4 	movi	fp,2047
   50814:	048000c4 	movi	r18,3
   50818:	003eac06 	br	502cc <__divdf3+0x7c>
   5081c:	0029883a 	mov	r20,zero
   50820:	04c00104 	movi	r19,4
   50824:	0039883a 	mov	fp,zero
   50828:	04800044 	movi	r18,1
   5082c:	003ea706 	br	502cc <__divdf3+0x7c>
   50830:	9cc00054 	ori	r19,r19,1
   50834:	0021883a 	mov	r16,zero
   50838:	01000044 	movi	r4,1
   5083c:	003eb406 	br	50310 <__divdf3+0xc0>
   50840:	04400434 	movhi	r17,16
   50844:	002b883a 	mov	r21,zero
   50848:	8c7fffc4 	addi	r17,r17,-1
   5084c:	053fffc4 	movi	r20,-1
   50850:	0101ffc4 	movi	r4,2047
   50854:	003ed306 	br	503a4 <__divdf3+0x154>
   50858:	01ffffc4 	movi	r7,-1
   5085c:	00800044 	movi	r2,1
   50860:	1105c83a 	sub	r2,r2,r4
   50864:	11400e48 	cmpgei	r5,r2,57
   50868:	283ecb1e 	bne	r5,zero,50398 <__divdf3+0x148>
   5086c:	11400808 	cmpgei	r5,r2,32
   50870:	2800671e 	bne	r5,zero,50a10 <__divdf3+0x7c0>
   50874:	e0c10784 	addi	r3,fp,1054
   50878:	80e4983a 	sll	r18,r16,r3
   5087c:	3888d83a 	srl	r4,r7,r2
   50880:	38c6983a 	sll	r3,r7,r3
   50884:	80a0d83a 	srl	r16,r16,r2
   50888:	9124b03a 	or	r18,r18,r4
   5088c:	1806c03a 	cmpne	r3,r3,zero
   50890:	90e4b03a 	or	r18,r18,r3
   50894:	908001cc 	andi	r2,r18,7
   50898:	10000726 	beq	r2,zero,508b8 <__divdf3+0x668>
   5089c:	908003cc 	andi	r2,r18,15
   508a0:	10800120 	cmpeqi	r2,r2,4
   508a4:	1000041e 	bne	r2,zero,508b8 <__divdf3+0x668>
   508a8:	90800104 	addi	r2,r18,4
   508ac:	14a5803a 	cmpltu	r18,r2,r18
   508b0:	84a1883a 	add	r16,r16,r18
   508b4:	1025883a 	mov	r18,r2
   508b8:	8080202c 	andhi	r2,r16,128
   508bc:	10008f26 	beq	r2,zero,50afc <__divdf3+0x8ac>
   508c0:	01000044 	movi	r4,1
   508c4:	0023883a 	mov	r17,zero
   508c8:	0029883a 	mov	r20,zero
   508cc:	003eb506 	br	503a4 <__divdf3+0x154>
   508d0:	8880022c 	andhi	r2,r17,8
   508d4:	10000926 	beq	r2,zero,508fc <__divdf3+0x6ac>
   508d8:	8080022c 	andhi	r2,r16,8
   508dc:	1000071e 	bne	r2,zero,508fc <__divdf3+0x6ac>
   508e0:	00800434 	movhi	r2,16
   508e4:	84400234 	orhi	r17,r16,8
   508e8:	10bfffc4 	addi	r2,r2,-1
   508ec:	88a2703a 	and	r17,r17,r2
   508f0:	b82b883a 	mov	r21,r23
   508f4:	3829883a 	mov	r20,r7
   508f8:	003fd506 	br	50850 <__divdf3+0x600>
   508fc:	00800434 	movhi	r2,16
   50900:	8c400234 	orhi	r17,r17,8
   50904:	10bfffc4 	addi	r2,r2,-1
   50908:	88a2703a 	and	r17,r17,r2
   5090c:	b02b883a 	mov	r21,r22
   50910:	003fcf06 	br	50850 <__divdf3+0x600>
   50914:	203f7326 	beq	r4,zero,506e4 <__divdf3+0x494>
   50918:	9d11883a 	add	r8,r19,r20
   5091c:	38bfffc4 	addi	r2,r7,-1
   50920:	44c04c36 	bltu	r8,r19,50a54 <__divdf3+0x804>
   50924:	41406736 	bltu	r8,r5,50ac4 <__divdf3+0x874>
   50928:	41407e26 	beq	r8,r5,50b24 <__divdf3+0x8d4>
   5092c:	100f883a 	mov	r7,r2
   50930:	003f6b06 	br	506e0 <__divdf3+0x490>
   50934:	a1feb436 	bltu	r20,r7,50408 <__divdf3+0x1b8>
   50938:	880897fa 	slli	r4,r17,31
   5093c:	a004d07a 	srli	r2,r20,1
   50940:	8822d07a 	srli	r17,r17,1
   50944:	a02897fa 	slli	r20,r20,31
   50948:	20a4b03a 	or	r18,r4,r2
   5094c:	003eb106 	br	50414 <__divdf3+0x1c4>
   50950:	0041fe40 	call	41fe4 <__clzsi2>
   50954:	10c00544 	addi	r3,r2,21
   50958:	19000748 	cmpgei	r4,r3,29
   5095c:	1023883a 	mov	r17,r2
   50960:	10800804 	addi	r2,r2,32
   50964:	203f8a26 	beq	r4,zero,50790 <__divdf3+0x540>
   50968:	8c7ffe04 	addi	r17,r17,-8
   5096c:	a462983a 	sll	r17,r20,r17
   50970:	0029883a 	mov	r20,zero
   50974:	003f8d06 	br	507ac <__divdf3+0x55c>
   50978:	a809883a 	mov	r4,r21
   5097c:	0041fe40 	call	41fe4 <__clzsi2>
   50980:	11400544 	addi	r5,r2,21
   50984:	29800748 	cmpgei	r6,r5,29
   50988:	1009883a 	mov	r4,r2
   5098c:	10800804 	addi	r2,r2,32
   50990:	303f6d26 	beq	r6,zero,50748 <__divdf3+0x4f8>
   50994:	213ffe04 	addi	r4,r4,-8
   50998:	a920983a 	sll	r16,r21,r4
   5099c:	000f883a 	mov	r7,zero
   509a0:	003f7006 	br	50764 <__divdf3+0x514>
   509a4:	44d1883a 	add	r8,r8,r19
   509a8:	48bfffc4 	addi	r2,r9,-1
   509ac:	44c03c36 	bltu	r8,r19,50aa0 <__divdf3+0x850>
   509b0:	45003b2e 	bgeu	r8,r20,50aa0 <__divdf3+0x850>
   509b4:	4a7fff84 	addi	r9,r9,-2
   509b8:	44d1883a 	add	r8,r8,r19
   509bc:	003f2006 	br	50640 <__divdf3+0x3f0>
   509c0:	d8c00217 	ldw	r3,8(sp)
   509c4:	24c9883a 	add	r4,r4,r19
   509c8:	18bfffc4 	addi	r2,r3,-1
   509cc:	24c03236 	bltu	r4,r19,50a98 <__divdf3+0x848>
   509d0:	2500312e 	bgeu	r4,r20,50a98 <__divdf3+0x848>
   509d4:	18bfff84 	addi	r2,r3,-2
   509d8:	d8800215 	stw	r2,8(sp)
   509dc:	24c9883a 	add	r4,r4,r19
   509e0:	003f0606 	br	505fc <__divdf3+0x3ac>
   509e4:	9a3ef01e 	bne	r19,r8,505a8 <__divdf3+0x358>
   509e8:	a47eef36 	bltu	r20,r17,505a8 <__divdf3+0x358>
   509ec:	003eec06 	br	505a0 <__divdf3+0x350>
   509f0:	3a7eb92e 	bgeu	r7,r9,504d8 <__divdf3+0x288>
   509f4:	423fff84 	addi	r8,r8,-2
   509f8:	3ccf883a 	add	r7,r7,r19
   509fc:	003eb706 	br	504dc <__divdf3+0x28c>
   50a00:	25be9f2e 	bgeu	r4,r22,50480 <__divdf3+0x230>
   50a04:	843fff84 	addi	r16,r16,-2
   50a08:	24c9883a 	add	r4,r4,r19
   50a0c:	003e9d06 	br	50484 <__divdf3+0x234>
   50a10:	017ff844 	movi	r5,-31
   50a14:	2909c83a 	sub	r4,r5,r4
   50a18:	10800820 	cmpeqi	r2,r2,32
   50a1c:	8108d83a 	srl	r4,r16,r4
   50a20:	1000031e 	bne	r2,zero,50a30 <__divdf3+0x7e0>
   50a24:	e0c10f84 	addi	r3,fp,1086
   50a28:	80c6983a 	sll	r3,r16,r3
   50a2c:	38ceb03a 	or	r7,r7,r3
   50a30:	3824c03a 	cmpne	r18,r7,zero
   50a34:	9124b03a 	or	r18,r18,r4
   50a38:	940001cc 	andi	r16,r18,7
   50a3c:	8000291e 	bne	r16,zero,50ae4 <__divdf3+0x894>
   50a40:	0023883a 	mov	r17,zero
   50a44:	9024d0fa 	srli	r18,r18,3
   50a48:	0009883a 	mov	r4,zero
   50a4c:	9428b03a 	or	r20,r18,r16
   50a50:	003e5406 	br	503a4 <__divdf3+0x154>
   50a54:	100f883a 	mov	r7,r2
   50a58:	417f211e 	bne	r8,r5,506e0 <__divdf3+0x490>
   50a5c:	247f201e 	bne	r4,r17,506e0 <__divdf3+0x490>
   50a60:	003f2006 	br	506e4 <__divdf3+0x494>
   50a64:	e0bf0088 	cmpgei	r2,fp,-1022
   50a68:	e100ffc4 	addi	r4,fp,1023
   50a6c:	103f7a26 	beq	r2,zero,50858 <__divdf3+0x608>
   50a70:	00bfffc4 	movi	r2,-1
   50a74:	11c00104 	addi	r7,r2,4
   50a78:	3885803a 	cmpltu	r2,r7,r2
   50a7c:	80a1883a 	add	r16,r16,r2
   50a80:	003f1c06 	br	506f4 <__divdf3+0x4a4>
   50a84:	388003cc 	andi	r2,r7,15
   50a88:	10800120 	cmpeqi	r2,r2,4
   50a8c:	103f191e 	bne	r2,zero,506f4 <__divdf3+0x4a4>
   50a90:	3805883a 	mov	r2,r7
   50a94:	003ff706 	br	50a74 <__divdf3+0x824>
   50a98:	d8800215 	stw	r2,8(sp)
   50a9c:	003ed706 	br	505fc <__divdf3+0x3ac>
   50aa0:	1013883a 	mov	r9,r2
   50aa4:	003ee606 	br	50640 <__divdf3+0x3f0>
   50aa8:	a1febf2e 	bgeu	r20,r7,505a8 <__divdf3+0x358>
   50aac:	a469883a 	add	r20,r20,r17
   50ab0:	a449803a 	cmpltu	r4,r20,r17
   50ab4:	24c9883a 	add	r4,r4,r19
   50ab8:	843fff84 	addi	r16,r16,-2
   50abc:	4111883a 	add	r8,r8,r4
   50ac0:	003eba06 	br	505ac <__divdf3+0x35c>
   50ac4:	8c45883a 	add	r2,r17,r17
   50ac8:	1463803a 	cmpltu	r17,r2,r17
   50acc:	8ce3883a 	add	r17,r17,r19
   50ad0:	4451883a 	add	r8,r8,r17
   50ad4:	39ffff84 	addi	r7,r7,-2
   50ad8:	1023883a 	mov	r17,r2
   50adc:	417fdf26 	beq	r8,r5,50a5c <__divdf3+0x80c>
   50ae0:	003eff06 	br	506e0 <__divdf3+0x490>
   50ae4:	908003cc 	andi	r2,r18,15
   50ae8:	10800120 	cmpeqi	r2,r2,4
   50aec:	1000111e 	bne	r2,zero,50b34 <__divdf3+0x8e4>
   50af0:	90800104 	addi	r2,r18,4
   50af4:	14a1803a 	cmpltu	r16,r2,r18
   50af8:	1025883a 	mov	r18,r2
   50afc:	8022927a 	slli	r17,r16,9
   50b00:	8020977a 	slli	r16,r16,29
   50b04:	8822d33a 	srli	r17,r17,12
   50b08:	003fce06 	br	50a44 <__divdf3+0x7f4>
   50b0c:	00800434 	movhi	r2,16
   50b10:	84400234 	orhi	r17,r16,8
   50b14:	10bfffc4 	addi	r2,r2,-1
   50b18:	88a2703a 	and	r17,r17,r2
   50b1c:	3829883a 	mov	r20,r7
   50b20:	003f4b06 	br	50850 <__divdf3+0x600>
   50b24:	893fe736 	bltu	r17,r4,50ac4 <__divdf3+0x874>
   50b28:	100f883a 	mov	r7,r2
   50b2c:	247eec1e 	bne	r4,r17,506e0 <__divdf3+0x490>
   50b30:	003eec06 	br	506e4 <__divdf3+0x494>
   50b34:	0021883a 	mov	r16,zero
   50b38:	003ff006 	br	50afc <__divdf3+0x8ac>

00050b3c <__eqdf2>:
   50b3c:	2810d53a 	srli	r8,r5,20
   50b40:	3804d53a 	srli	r2,r7,20
   50b44:	00c00434 	movhi	r3,16
   50b48:	4201ffcc 	andi	r8,r8,2047
   50b4c:	18ffffc4 	addi	r3,r3,-1
   50b50:	4241ffe0 	cmpeqi	r9,r8,2047
   50b54:	2816d7fa 	srli	r11,r5,31
   50b58:	3814d7fa 	srli	r10,r7,31
   50b5c:	28ca703a 	and	r5,r5,r3
   50b60:	38ce703a 	and	r7,r7,r3
   50b64:	1081ffcc 	andi	r2,r2,2047
   50b68:	4800061e 	bne	r9,zero,50b84 <__eqdf2+0x48>
   50b6c:	10c1ffe0 	cmpeqi	r3,r2,2047
   50b70:	1800061e 	bne	r3,zero,50b8c <__eqdf2+0x50>
   50b74:	4080051e 	bne	r8,r2,50b8c <__eqdf2+0x50>
   50b78:	00800044 	movi	r2,1
   50b7c:	29c00b26 	beq	r5,r7,50bac <__eqdf2+0x70>
   50b80:	f800283a 	ret
   50b84:	1081ffd8 	cmpnei	r2,r2,2047
   50b88:	10000226 	beq	r2,zero,50b94 <__eqdf2+0x58>
   50b8c:	00800044 	movi	r2,1
   50b90:	f800283a 	ret
   50b94:	29cab03a 	or	r5,r5,r7
   50b98:	2984b03a 	or	r2,r5,r6
   50b9c:	1104b03a 	or	r2,r2,r4
   50ba0:	103ffa1e 	bne	r2,zero,50b8c <__eqdf2+0x50>
   50ba4:	5a84c03a 	cmpne	r2,r11,r10
   50ba8:	f800283a 	ret
   50bac:	21800126 	beq	r4,r6,50bb4 <__eqdf2+0x78>
   50bb0:	f800283a 	ret
   50bb4:	5a800426 	beq	r11,r10,50bc8 <__eqdf2+0x8c>
   50bb8:	403ffd1e 	bne	r8,zero,50bb0 <__eqdf2+0x74>
   50bbc:	290ab03a 	or	r5,r5,r4
   50bc0:	2804c03a 	cmpne	r2,r5,zero
   50bc4:	f800283a 	ret
   50bc8:	0005883a 	mov	r2,zero
   50bcc:	003ff806 	br	50bb0 <__eqdf2+0x74>

00050bd0 <__gedf2>:
   50bd0:	2810d53a 	srli	r8,r5,20
   50bd4:	3812d53a 	srli	r9,r7,20
   50bd8:	00c00434 	movhi	r3,16
   50bdc:	4201ffcc 	andi	r8,r8,2047
   50be0:	18ffffc4 	addi	r3,r3,-1
   50be4:	4281ffd8 	cmpnei	r10,r8,2047
   50be8:	2816d7fa 	srli	r11,r5,31
   50bec:	3804d7fa 	srli	r2,r7,31
   50bf0:	28ca703a 	and	r5,r5,r3
   50bf4:	38ce703a 	and	r7,r7,r3
   50bf8:	48c1ffcc 	andi	r3,r9,2047
   50bfc:	50001426 	beq	r10,zero,50c50 <__gedf2+0x80>
   50c00:	1a41ffd8 	cmpnei	r9,r3,2047
   50c04:	48000926 	beq	r9,zero,50c2c <__gedf2+0x5c>
   50c08:	40001b1e 	bne	r8,zero,50c78 <__gedf2+0xa8>
   50c0c:	2910b03a 	or	r8,r5,r4
   50c10:	1800161e 	bne	r3,zero,50c6c <__gedf2+0x9c>
   50c14:	3986b03a 	or	r3,r7,r6
   50c18:	18002126 	beq	r3,zero,50ca0 <__gedf2+0xd0>
   50c1c:	4000291e 	bne	r8,zero,50cc4 <__gedf2+0xf4>
   50c20:	1000111e 	bne	r2,zero,50c68 <__gedf2+0x98>
   50c24:	00bfffc4 	movi	r2,-1
   50c28:	f800283a 	ret
   50c2c:	398eb03a 	or	r7,r7,r6
   50c30:	3800221e 	bne	r7,zero,50cbc <__gedf2+0xec>
   50c34:	4000021e 	bne	r8,zero,50c40 <__gedf2+0x70>
   50c38:	2908b03a 	or	r4,r5,r4
   50c3c:	203ff826 	beq	r4,zero,50c20 <__gedf2+0x50>
   50c40:	5880071e 	bne	r11,r2,50c60 <__gedf2+0x90>
   50c44:	583ff726 	beq	r11,zero,50c24 <__gedf2+0x54>
   50c48:	5805883a 	mov	r2,r11
   50c4c:	f800283a 	ret
   50c50:	290ab03a 	or	r5,r5,r4
   50c54:	2800191e 	bne	r5,zero,50cbc <__gedf2+0xec>
   50c58:	1901ffe0 	cmpeqi	r4,r3,2047
   50c5c:	2000131e 	bne	r4,zero,50cac <__gedf2+0xdc>
   50c60:	00800044 	movi	r2,1
   50c64:	583fef1e 	bne	r11,zero,50c24 <__gedf2+0x54>
   50c68:	f800283a 	ret
   50c6c:	403ff41e 	bne	r8,zero,50c40 <__gedf2+0x70>
   50c70:	103ffd1e 	bne	r2,zero,50c68 <__gedf2+0x98>
   50c74:	003feb06 	br	50c24 <__gedf2+0x54>
   50c78:	183ff926 	beq	r3,zero,50c60 <__gedf2+0x90>
   50c7c:	58bff81e 	bne	r11,r2,50c60 <__gedf2+0x90>
   50c80:	1a3ff716 	blt	r3,r8,50c60 <__gedf2+0x90>
   50c84:	40ffef16 	blt	r8,r3,50c44 <__gedf2+0x74>
   50c88:	397ff536 	bltu	r7,r5,50c60 <__gedf2+0x90>
   50c8c:	29ffed1e 	bne	r5,r7,50c44 <__gedf2+0x74>
   50c90:	313ff336 	bltu	r6,r4,50c60 <__gedf2+0x90>
   50c94:	21bfeb36 	bltu	r4,r6,50c44 <__gedf2+0x74>
   50c98:	0005883a 	mov	r2,zero
   50c9c:	f800283a 	ret
   50ca0:	0005883a 	mov	r2,zero
   50ca4:	403fee1e 	bne	r8,zero,50c60 <__gedf2+0x90>
   50ca8:	f800283a 	ret
   50cac:	398eb03a 	or	r7,r7,r6
   50cb0:	3800021e 	bne	r7,zero,50cbc <__gedf2+0xec>
   50cb4:	58bff826 	beq	r11,r2,50c98 <__gedf2+0xc8>
   50cb8:	003fe906 	br	50c60 <__gedf2+0x90>
   50cbc:	00bfff84 	movi	r2,-2
   50cc0:	f800283a 	ret
   50cc4:	58bff026 	beq	r11,r2,50c88 <__gedf2+0xb8>
   50cc8:	003fe506 	br	50c60 <__gedf2+0x90>

00050ccc <__ledf2>:
   50ccc:	2810d53a 	srli	r8,r5,20
   50cd0:	3812d53a 	srli	r9,r7,20
   50cd4:	00c00434 	movhi	r3,16
   50cd8:	4201ffcc 	andi	r8,r8,2047
   50cdc:	18ffffc4 	addi	r3,r3,-1
   50ce0:	4281ffd8 	cmpnei	r10,r8,2047
   50ce4:	2816d7fa 	srli	r11,r5,31
   50ce8:	3804d7fa 	srli	r2,r7,31
   50cec:	28ca703a 	and	r5,r5,r3
   50cf0:	38ce703a 	and	r7,r7,r3
   50cf4:	48c1ffcc 	andi	r3,r9,2047
   50cf8:	50001426 	beq	r10,zero,50d4c <__ledf2+0x80>
   50cfc:	1a41ffd8 	cmpnei	r9,r3,2047
   50d00:	48000926 	beq	r9,zero,50d28 <__ledf2+0x5c>
   50d04:	4000191e 	bne	r8,zero,50d6c <__ledf2+0xa0>
   50d08:	2910b03a 	or	r8,r5,r4
   50d0c:	1800221e 	bne	r3,zero,50d98 <__ledf2+0xcc>
   50d10:	3986b03a 	or	r3,r7,r6
   50d14:	18002326 	beq	r3,zero,50da4 <__ledf2+0xd8>
   50d18:	4000281e 	bne	r8,zero,50dbc <__ledf2+0xf0>
   50d1c:	10000a1e 	bne	r2,zero,50d48 <__ledf2+0x7c>
   50d20:	00bfffc4 	movi	r2,-1
   50d24:	f800283a 	ret
   50d28:	398eb03a 	or	r7,r7,r6
   50d2c:	38000d1e 	bne	r7,zero,50d64 <__ledf2+0x98>
   50d30:	4000021e 	bne	r8,zero,50d3c <__ledf2+0x70>
   50d34:	290ab03a 	or	r5,r5,r4
   50d38:	283ff826 	beq	r5,zero,50d1c <__ledf2+0x50>
   50d3c:	58801326 	beq	r11,r2,50d8c <__ledf2+0xc0>
   50d40:	00800044 	movi	r2,1
   50d44:	583ff61e 	bne	r11,zero,50d20 <__ledf2+0x54>
   50d48:	f800283a 	ret
   50d4c:	290ab03a 	or	r5,r5,r4
   50d50:	2800041e 	bne	r5,zero,50d64 <__ledf2+0x98>
   50d54:	1901ffe0 	cmpeqi	r4,r3,2047
   50d58:	203ff926 	beq	r4,zero,50d40 <__ledf2+0x74>
   50d5c:	398eb03a 	or	r7,r7,r6
   50d60:	38001326 	beq	r7,zero,50db0 <__ledf2+0xe4>
   50d64:	00800084 	movi	r2,2
   50d68:	f800283a 	ret
   50d6c:	183ff426 	beq	r3,zero,50d40 <__ledf2+0x74>
   50d70:	58bff31e 	bne	r11,r2,50d40 <__ledf2+0x74>
   50d74:	1a3ff216 	blt	r3,r8,50d40 <__ledf2+0x74>
   50d78:	40c00416 	blt	r8,r3,50d8c <__ledf2+0xc0>
   50d7c:	397ff036 	bltu	r7,r5,50d40 <__ledf2+0x74>
   50d80:	29c0021e 	bne	r5,r7,50d8c <__ledf2+0xc0>
   50d84:	313fee36 	bltu	r6,r4,50d40 <__ledf2+0x74>
   50d88:	21800a2e 	bgeu	r4,r6,50db4 <__ledf2+0xe8>
   50d8c:	583fe426 	beq	r11,zero,50d20 <__ledf2+0x54>
   50d90:	5805883a 	mov	r2,r11
   50d94:	f800283a 	ret
   50d98:	403fe81e 	bne	r8,zero,50d3c <__ledf2+0x70>
   50d9c:	103fea1e 	bne	r2,zero,50d48 <__ledf2+0x7c>
   50da0:	003fdf06 	br	50d20 <__ledf2+0x54>
   50da4:	0005883a 	mov	r2,zero
   50da8:	403fe726 	beq	r8,zero,50d48 <__ledf2+0x7c>
   50dac:	003fe406 	br	50d40 <__ledf2+0x74>
   50db0:	58bfe31e 	bne	r11,r2,50d40 <__ledf2+0x74>
   50db4:	0005883a 	mov	r2,zero
   50db8:	f800283a 	ret
   50dbc:	58bfef26 	beq	r11,r2,50d7c <__ledf2+0xb0>
   50dc0:	003fdf06 	br	50d40 <__ledf2+0x74>

00050dc4 <__muldf3>:
   50dc4:	deffef04 	addi	sp,sp,-68
   50dc8:	2804d53a 	srli	r2,r5,20
   50dcc:	ddc00e15 	stw	r23,56(sp)
   50dd0:	282ed7fa 	srli	r23,r5,31
   50dd4:	00c00434 	movhi	r3,16
   50dd8:	df000f15 	stw	fp,60(sp)
   50ddc:	dc400815 	stw	r17,32(sp)
   50de0:	dc000715 	stw	r16,28(sp)
   50de4:	18ffffc4 	addi	r3,r3,-1
   50de8:	dfc01015 	stw	ra,64(sp)
   50dec:	dd800d15 	stw	r22,52(sp)
   50df0:	dd400c15 	stw	r21,48(sp)
   50df4:	dd000b15 	stw	r20,44(sp)
   50df8:	dcc00a15 	stw	r19,40(sp)
   50dfc:	dc800915 	stw	r18,36(sp)
   50e00:	1081ffcc 	andi	r2,r2,2047
   50e04:	2021883a 	mov	r16,r4
   50e08:	3039883a 	mov	fp,r6
   50e0c:	28e2703a 	and	r17,r5,r3
   50e10:	b811883a 	mov	r8,r23
   50e14:	10009226 	beq	r2,zero,51060 <__muldf3+0x29c>
   50e18:	10c1ffe0 	cmpeqi	r3,r2,2047
   50e1c:	1800a71e 	bne	r3,zero,510bc <__muldf3+0x2f8>
   50e20:	882290fa 	slli	r17,r17,3
   50e24:	2006d77a 	srli	r3,r4,29
   50e28:	202690fa 	slli	r19,r4,3
   50e2c:	157f0044 	addi	r21,r2,-1023
   50e30:	1c62b03a 	or	r17,r3,r17
   50e34:	8c402034 	orhi	r17,r17,128
   50e38:	0029883a 	mov	r20,zero
   50e3c:	000d883a 	mov	r6,zero
   50e40:	3804d53a 	srli	r2,r7,20
   50e44:	04000434 	movhi	r16,16
   50e48:	843fffc4 	addi	r16,r16,-1
   50e4c:	1081ffcc 	andi	r2,r2,2047
   50e50:	380ad7fa 	srli	r5,r7,31
   50e54:	e025883a 	mov	r18,fp
   50e58:	3c20703a 	and	r16,r7,r16
   50e5c:	10006526 	beq	r2,zero,50ff4 <__muldf3+0x230>
   50e60:	10c1ffe0 	cmpeqi	r3,r2,2047
   50e64:	1800291e 	bne	r3,zero,50f0c <__muldf3+0x148>
   50e68:	e006d77a 	srli	r3,fp,29
   50e6c:	802090fa 	slli	r16,r16,3
   50e70:	10bf0044 	addi	r2,r2,-1023
   50e74:	e02490fa 	slli	r18,fp,3
   50e78:	1c20b03a 	or	r16,r3,r16
   50e7c:	1547883a 	add	r3,r2,r21
   50e80:	a08002c8 	cmpgei	r2,r20,11
   50e84:	84002034 	orhi	r16,r16,128
   50e88:	0009883a 	mov	r4,zero
   50e8c:	1d400044 	addi	r21,r3,1
   50e90:	10002c1e 	bne	r2,zero,50f44 <__muldf3+0x180>
   50e94:	2dd0f03a 	xor	r8,r5,r23
   50e98:	a08000c8 	cmpgei	r2,r20,3
   50e9c:	1000251e 	bne	r2,zero,50f34 <__muldf3+0x170>
   50ea0:	a53fffc4 	addi	r20,r20,-1
   50ea4:	a50000a8 	cmpgeui	r20,r20,2
   50ea8:	a000ce1e 	bne	r20,zero,511e4 <__muldf3+0x420>
   50eac:	208000a0 	cmpeqi	r2,r4,2
   50eb0:	1000891e 	bne	r2,zero,510d8 <__muldf3+0x314>
   50eb4:	21000060 	cmpeqi	r4,r4,1
   50eb8:	20002b26 	beq	r4,zero,50f68 <__muldf3+0x1a4>
   50ebc:	0009883a 	mov	r4,zero
   50ec0:	0021883a 	mov	r16,zero
   50ec4:	0027883a 	mov	r19,zero
   50ec8:	2006953a 	slli	r3,r4,20
   50ecc:	401097fa 	slli	r8,r8,31
   50ed0:	9805883a 	mov	r2,r19
   50ed4:	1c06b03a 	or	r3,r3,r16
   50ed8:	1a06b03a 	or	r3,r3,r8
   50edc:	dfc01017 	ldw	ra,64(sp)
   50ee0:	df000f17 	ldw	fp,60(sp)
   50ee4:	ddc00e17 	ldw	r23,56(sp)
   50ee8:	dd800d17 	ldw	r22,52(sp)
   50eec:	dd400c17 	ldw	r21,48(sp)
   50ef0:	dd000b17 	ldw	r20,44(sp)
   50ef4:	dcc00a17 	ldw	r19,40(sp)
   50ef8:	dc800917 	ldw	r18,36(sp)
   50efc:	dc400817 	ldw	r17,32(sp)
   50f00:	dc000717 	ldw	r16,28(sp)
   50f04:	dec01104 	addi	sp,sp,68
   50f08:	f800283a 	ret
   50f0c:	8704b03a 	or	r2,r16,fp
   50f10:	a8c1ffc4 	addi	r3,r21,2047
   50f14:	10007a26 	beq	r2,zero,51100 <__muldf3+0x33c>
   50f18:	a50000d4 	ori	r20,r20,3
   50f1c:	a08002c8 	cmpgei	r2,r20,11
   50f20:	2deef03a 	xor	r23,r5,r23
   50f24:	ad420004 	addi	r21,r21,2048
   50f28:	10019c1e 	bne	r2,zero,5159c <__muldf3+0x7d8>
   50f2c:	b811883a 	mov	r8,r23
   50f30:	010000c4 	movi	r4,3
   50f34:	00800044 	movi	r2,1
   50f38:	1504983a 	sll	r2,r2,r20
   50f3c:	11c14c0c 	andi	r7,r2,1328
   50f40:	38002326 	beq	r7,zero,50fd0 <__muldf3+0x20c>
   50f44:	308000a0 	cmpeqi	r2,r6,2
   50f48:	1000631e 	bne	r2,zero,510d8 <__muldf3+0x314>
   50f4c:	308000e0 	cmpeqi	r2,r6,3
   50f50:	1001571e 	bne	r2,zero,514b0 <__muldf3+0x6ec>
   50f54:	3009883a 	mov	r4,r6
   50f58:	21000060 	cmpeqi	r4,r4,1
   50f5c:	8821883a 	mov	r16,r17
   50f60:	9825883a 	mov	r18,r19
   50f64:	203fd51e 	bne	r4,zero,50ebc <__muldf3+0xf8>
   50f68:	a900ffc4 	addi	r4,r21,1023
   50f6c:	0100800e 	bge	zero,r4,51170 <__muldf3+0x3ac>
   50f70:	908001cc 	andi	r2,r18,7
   50f74:	10000726 	beq	r2,zero,50f94 <__muldf3+0x1d0>
   50f78:	908003cc 	andi	r2,r18,15
   50f7c:	10800120 	cmpeqi	r2,r2,4
   50f80:	1000041e 	bne	r2,zero,50f94 <__muldf3+0x1d0>
   50f84:	90800104 	addi	r2,r18,4
   50f88:	14a5803a 	cmpltu	r18,r2,r18
   50f8c:	84a1883a 	add	r16,r16,r18
   50f90:	1025883a 	mov	r18,r2
   50f94:	8080402c 	andhi	r2,r16,256
   50f98:	10000426 	beq	r2,zero,50fac <__muldf3+0x1e8>
   50f9c:	00bfc034 	movhi	r2,65280
   50fa0:	10bfffc4 	addi	r2,r2,-1
   50fa4:	80a0703a 	and	r16,r16,r2
   50fa8:	a9010004 	addi	r4,r21,1024
   50fac:	2081ffc8 	cmpgei	r2,r4,2047
   50fb0:	1000491e 	bne	r2,zero,510d8 <__muldf3+0x314>
   50fb4:	8026977a 	slli	r19,r16,29
   50fb8:	9024d0fa 	srli	r18,r18,3
   50fbc:	8020927a 	slli	r16,r16,9
   50fc0:	2101ffcc 	andi	r4,r4,2047
   50fc4:	9ca6b03a 	or	r19,r19,r18
   50fc8:	8020d33a 	srli	r16,r16,12
   50fcc:	003fbe06 	br	50ec8 <__muldf3+0x104>
   50fd0:	1180900c 	andi	r6,r2,576
   50fd4:	3000441e 	bne	r6,zero,510e8 <__muldf3+0x324>
   50fd8:	1080220c 	andi	r2,r2,136
   50fdc:	10008126 	beq	r2,zero,511e4 <__muldf3+0x420>
   50fe0:	2811883a 	mov	r8,r5
   50fe4:	8023883a 	mov	r17,r16
   50fe8:	9027883a 	mov	r19,r18
   50fec:	200d883a 	mov	r6,r4
   50ff0:	003fd406 	br	50f44 <__muldf3+0x180>
   50ff4:	8704b03a 	or	r2,r16,fp
   50ff8:	10005426 	beq	r2,zero,5114c <__muldf3+0x388>
   50ffc:	d9400215 	stw	r5,8(sp)
   51000:	da000115 	stw	r8,4(sp)
   51004:	d9800015 	stw	r6,0(sp)
   51008:	80013926 	beq	r16,zero,514f0 <__muldf3+0x72c>
   5100c:	8009883a 	mov	r4,r16
   51010:	0041fe40 	call	41fe4 <__clzsi2>
   51014:	d9800017 	ldw	r6,0(sp)
   51018:	da000117 	ldw	r8,4(sp)
   5101c:	d9400217 	ldw	r5,8(sp)
   51020:	1007883a 	mov	r3,r2
   51024:	113ffd44 	addi	r4,r2,-11
   51028:	00800744 	movi	r2,29
   5102c:	1cbffe04 	addi	r18,r3,-8
   51030:	1105c83a 	sub	r2,r2,r4
   51034:	84a0983a 	sll	r16,r16,r18
   51038:	e084d83a 	srl	r2,fp,r2
   5103c:	e4a4983a 	sll	r18,fp,r18
   51040:	1420b03a 	or	r16,r2,r16
   51044:	a8c7c83a 	sub	r3,r21,r3
   51048:	18ff0344 	addi	r3,r3,-1011
   5104c:	a08002c8 	cmpgei	r2,r20,11
   51050:	0009883a 	mov	r4,zero
   51054:	1d400044 	addi	r21,r3,1
   51058:	103f8e26 	beq	r2,zero,50e94 <__muldf3+0xd0>
   5105c:	003fb906 	br	50f44 <__muldf3+0x180>
   51060:	2466b03a 	or	r19,r4,r17
   51064:	98003426 	beq	r19,zero,51138 <__muldf3+0x374>
   51068:	d9c00115 	stw	r7,4(sp)
   5106c:	da000015 	stw	r8,0(sp)
   51070:	88011426 	beq	r17,zero,514c4 <__muldf3+0x700>
   51074:	8809883a 	mov	r4,r17
   51078:	0041fe40 	call	41fe4 <__clzsi2>
   5107c:	da000017 	ldw	r8,0(sp)
   51080:	d9c00117 	ldw	r7,4(sp)
   51084:	1009883a 	mov	r4,r2
   51088:	117ffd44 	addi	r5,r2,-11
   5108c:	00c00744 	movi	r3,29
   51090:	24fffe04 	addi	r19,r4,-8
   51094:	1947c83a 	sub	r3,r3,r5
   51098:	8ce2983a 	sll	r17,r17,r19
   5109c:	80c6d83a 	srl	r3,r16,r3
   510a0:	84e6983a 	sll	r19,r16,r19
   510a4:	1c62b03a 	or	r17,r3,r17
   510a8:	00bf0344 	movi	r2,-1011
   510ac:	112bc83a 	sub	r21,r2,r4
   510b0:	0029883a 	mov	r20,zero
   510b4:	000d883a 	mov	r6,zero
   510b8:	003f6106 	br	50e40 <__muldf3+0x7c>
   510bc:	2466b03a 	or	r19,r4,r17
   510c0:	9800181e 	bne	r19,zero,51124 <__muldf3+0x360>
   510c4:	0023883a 	mov	r17,zero
   510c8:	05000204 	movi	r20,8
   510cc:	0541ffc4 	movi	r21,2047
   510d0:	01800084 	movi	r6,2
   510d4:	003f5a06 	br	50e40 <__muldf3+0x7c>
   510d8:	0101ffc4 	movi	r4,2047
   510dc:	0021883a 	mov	r16,zero
   510e0:	0027883a 	mov	r19,zero
   510e4:	003f7806 	br	50ec8 <__muldf3+0x104>
   510e8:	04000434 	movhi	r16,16
   510ec:	0011883a 	mov	r8,zero
   510f0:	843fffc4 	addi	r16,r16,-1
   510f4:	04ffffc4 	movi	r19,-1
   510f8:	0101ffc4 	movi	r4,2047
   510fc:	003f7206 	br	50ec8 <__muldf3+0x104>
   51100:	a5000094 	ori	r20,r20,2
   51104:	a08002c8 	cmpgei	r2,r20,11
   51108:	ad420004 	addi	r21,r21,2048
   5110c:	103f8d1e 	bne	r2,zero,50f44 <__muldf3+0x180>
   51110:	2dd0f03a 	xor	r8,r5,r23
   51114:	0025883a 	mov	r18,zero
   51118:	0021883a 	mov	r16,zero
   5111c:	01000084 	movi	r4,2
   51120:	003f5d06 	br	50e98 <__muldf3+0xd4>
   51124:	2027883a 	mov	r19,r4
   51128:	05000304 	movi	r20,12
   5112c:	0541ffc4 	movi	r21,2047
   51130:	018000c4 	movi	r6,3
   51134:	003f4206 	br	50e40 <__muldf3+0x7c>
   51138:	0023883a 	mov	r17,zero
   5113c:	05000104 	movi	r20,4
   51140:	002b883a 	mov	r21,zero
   51144:	01800044 	movi	r6,1
   51148:	003f3d06 	br	50e40 <__muldf3+0x7c>
   5114c:	a5000054 	ori	r20,r20,1
   51150:	a807883a 	mov	r3,r21
   51154:	a08002c8 	cmpgei	r2,r20,11
   51158:	0021883a 	mov	r16,zero
   5115c:	0025883a 	mov	r18,zero
   51160:	01000044 	movi	r4,1
   51164:	1d400044 	addi	r21,r3,1
   51168:	103f4a26 	beq	r2,zero,50e94 <__muldf3+0xd0>
   5116c:	003f7506 	br	50f44 <__muldf3+0x180>
   51170:	00c00044 	movi	r3,1
   51174:	1907c83a 	sub	r3,r3,r4
   51178:	18800e48 	cmpgei	r2,r3,57
   5117c:	103f4f1e 	bne	r2,zero,50ebc <__muldf3+0xf8>
   51180:	18800808 	cmpgei	r2,r3,32
   51184:	1000ea1e 	bne	r2,zero,51530 <__muldf3+0x76c>
   51188:	ad410784 	addi	r21,r21,1054
   5118c:	90c4d83a 	srl	r2,r18,r3
   51190:	8566983a 	sll	r19,r16,r21
   51194:	9552983a 	sll	r9,r18,r21
   51198:	80c6d83a 	srl	r3,r16,r3
   5119c:	98a6b03a 	or	r19,r19,r2
   511a0:	4812c03a 	cmpne	r9,r9,zero
   511a4:	9a66b03a 	or	r19,r19,r9
   511a8:	988001cc 	andi	r2,r19,7
   511ac:	10000726 	beq	r2,zero,511cc <__muldf3+0x408>
   511b0:	988003cc 	andi	r2,r19,15
   511b4:	10800120 	cmpeqi	r2,r2,4
   511b8:	1000041e 	bne	r2,zero,511cc <__muldf3+0x408>
   511bc:	98800104 	addi	r2,r19,4
   511c0:	14e7803a 	cmpltu	r19,r2,r19
   511c4:	1cc7883a 	add	r3,r3,r19
   511c8:	1027883a 	mov	r19,r2
   511cc:	1880202c 	andhi	r2,r3,128
   511d0:	1000ee26 	beq	r2,zero,5158c <__muldf3+0x7c8>
   511d4:	01000044 	movi	r4,1
   511d8:	0021883a 	mov	r16,zero
   511dc:	0027883a 	mov	r19,zero
   511e0:	003f3906 	br	50ec8 <__muldf3+0x104>
   511e4:	9828d43a 	srli	r20,r19,16
   511e8:	973fffcc 	andi	fp,r18,65535
   511ec:	9cffffcc 	andi	r19,r19,65535
   511f0:	980b883a 	mov	r5,r19
   511f4:	e009883a 	mov	r4,fp
   511f8:	d8c00215 	stw	r3,8(sp)
   511fc:	da000115 	stw	r8,4(sp)
   51200:	9024d43a 	srli	r18,r18,16
   51204:	0040b700 	call	40b70 <__mulsi3>
   51208:	e00b883a 	mov	r5,fp
   5120c:	a009883a 	mov	r4,r20
   51210:	102d883a 	mov	r22,r2
   51214:	0040b700 	call	40b70 <__mulsi3>
   51218:	900b883a 	mov	r5,r18
   5121c:	a009883a 	mov	r4,r20
   51220:	102f883a 	mov	r23,r2
   51224:	0040b700 	call	40b70 <__mulsi3>
   51228:	980b883a 	mov	r5,r19
   5122c:	9009883a 	mov	r4,r18
   51230:	d8800015 	stw	r2,0(sp)
   51234:	0040b700 	call	40b70 <__mulsi3>
   51238:	b00cd43a 	srli	r6,r22,16
   5123c:	15c5883a 	add	r2,r2,r23
   51240:	da000117 	ldw	r8,4(sp)
   51244:	308d883a 	add	r6,r6,r2
   51248:	d8c00217 	ldw	r3,8(sp)
   5124c:	35c0042e 	bgeu	r6,r23,51260 <__muldf3+0x49c>
   51250:	d9000017 	ldw	r4,0(sp)
   51254:	00800074 	movhi	r2,1
   51258:	2085883a 	add	r2,r4,r2
   5125c:	d8800015 	stw	r2,0(sp)
   51260:	3004943a 	slli	r2,r6,16
   51264:	d8c00615 	stw	r3,24(sp)
   51268:	3006d43a 	srli	r3,r6,16
   5126c:	85ffffcc 	andi	r23,r16,65535
   51270:	b5bfffcc 	andi	r22,r22,65535
   51274:	980b883a 	mov	r5,r19
   51278:	b809883a 	mov	r4,r23
   5127c:	1585883a 	add	r2,r2,r22
   51280:	da000515 	stw	r8,20(sp)
   51284:	d8c00115 	stw	r3,4(sp)
   51288:	8020d43a 	srli	r16,r16,16
   5128c:	d8800215 	stw	r2,8(sp)
   51290:	0040b700 	call	40b70 <__mulsi3>
   51294:	a009883a 	mov	r4,r20
   51298:	b80b883a 	mov	r5,r23
   5129c:	d8800415 	stw	r2,16(sp)
   512a0:	0040b700 	call	40b70 <__mulsi3>
   512a4:	a009883a 	mov	r4,r20
   512a8:	800b883a 	mov	r5,r16
   512ac:	1029883a 	mov	r20,r2
   512b0:	0040b700 	call	40b70 <__mulsi3>
   512b4:	980b883a 	mov	r5,r19
   512b8:	8009883a 	mov	r4,r16
   512bc:	d8800315 	stw	r2,12(sp)
   512c0:	0040b700 	call	40b70 <__mulsi3>
   512c4:	d9800417 	ldw	r6,16(sp)
   512c8:	1505883a 	add	r2,r2,r20
   512cc:	d9c00317 	ldw	r7,12(sp)
   512d0:	3026d43a 	srli	r19,r6,16
   512d4:	da000517 	ldw	r8,20(sp)
   512d8:	d8c00617 	ldw	r3,24(sp)
   512dc:	98a7883a 	add	r19,r19,r2
   512e0:	9d00022e 	bgeu	r19,r20,512ec <__muldf3+0x528>
   512e4:	00800074 	movhi	r2,1
   512e8:	388f883a 	add	r7,r7,r2
   512ec:	9828d43a 	srli	r20,r19,16
   512f0:	9826943a 	slli	r19,r19,16
   512f4:	882cd43a 	srli	r22,r17,16
   512f8:	8c7fffcc 	andi	r17,r17,65535
   512fc:	31bfffcc 	andi	r6,r6,65535
   51300:	e009883a 	mov	r4,fp
   51304:	880b883a 	mov	r5,r17
   51308:	99a7883a 	add	r19,r19,r6
   5130c:	d8c00615 	stw	r3,24(sp)
   51310:	da000515 	stw	r8,20(sp)
   51314:	a1e9883a 	add	r20,r20,r7
   51318:	0040b700 	call	40b70 <__mulsi3>
   5131c:	e00b883a 	mov	r5,fp
   51320:	b009883a 	mov	r4,r22
   51324:	d8800415 	stw	r2,16(sp)
   51328:	0040b700 	call	40b70 <__mulsi3>
   5132c:	b00b883a 	mov	r5,r22
   51330:	9009883a 	mov	r4,r18
   51334:	d8800315 	stw	r2,12(sp)
   51338:	0040b700 	call	40b70 <__mulsi3>
   5133c:	9009883a 	mov	r4,r18
   51340:	880b883a 	mov	r5,r17
   51344:	1039883a 	mov	fp,r2
   51348:	0040b700 	call	40b70 <__mulsi3>
   5134c:	d9c00417 	ldw	r7,16(sp)
   51350:	dac00317 	ldw	r11,12(sp)
   51354:	da000517 	ldw	r8,20(sp)
   51358:	380cd43a 	srli	r6,r7,16
   5135c:	12c9883a 	add	r4,r2,r11
   51360:	d8800117 	ldw	r2,4(sp)
   51364:	310d883a 	add	r6,r6,r4
   51368:	d8c00617 	ldw	r3,24(sp)
   5136c:	14d5883a 	add	r10,r2,r19
   51370:	32c0022e 	bgeu	r6,r11,5137c <__muldf3+0x5b8>
   51374:	00800074 	movhi	r2,1
   51378:	e0b9883a 	add	fp,fp,r2
   5137c:	3024d43a 	srli	r18,r6,16
   51380:	300c943a 	slli	r6,r6,16
   51384:	39ffffcc 	andi	r7,r7,65535
   51388:	880b883a 	mov	r5,r17
   5138c:	b809883a 	mov	r4,r23
   51390:	d8c00415 	stw	r3,16(sp)
   51394:	da000315 	stw	r8,12(sp)
   51398:	da800115 	stw	r10,4(sp)
   5139c:	9725883a 	add	r18,r18,fp
   513a0:	31f9883a 	add	fp,r6,r7
   513a4:	0040b700 	call	40b70 <__mulsi3>
   513a8:	b80b883a 	mov	r5,r23
   513ac:	b009883a 	mov	r4,r22
   513b0:	102f883a 	mov	r23,r2
   513b4:	0040b700 	call	40b70 <__mulsi3>
   513b8:	b00b883a 	mov	r5,r22
   513bc:	8009883a 	mov	r4,r16
   513c0:	102d883a 	mov	r22,r2
   513c4:	0040b700 	call	40b70 <__mulsi3>
   513c8:	880b883a 	mov	r5,r17
   513cc:	8009883a 	mov	r4,r16
   513d0:	1023883a 	mov	r17,r2
   513d4:	0040b700 	call	40b70 <__mulsi3>
   513d8:	b80ed43a 	srli	r7,r23,16
   513dc:	1585883a 	add	r2,r2,r22
   513e0:	da800117 	ldw	r10,4(sp)
   513e4:	388f883a 	add	r7,r7,r2
   513e8:	da000317 	ldw	r8,12(sp)
   513ec:	d8c00417 	ldw	r3,16(sp)
   513f0:	3d80022e 	bgeu	r7,r22,513fc <__muldf3+0x638>
   513f4:	00800074 	movhi	r2,1
   513f8:	88a3883a 	add	r17,r17,r2
   513fc:	3808943a 	slli	r4,r7,16
   51400:	d8800017 	ldw	r2,0(sp)
   51404:	bdffffcc 	andi	r23,r23,65535
   51408:	25c9883a 	add	r4,r4,r23
   5140c:	508b883a 	add	r5,r10,r2
   51410:	2ce7803a 	cmpltu	r19,r5,r19
   51414:	2509883a 	add	r4,r4,r20
   51418:	2f0b883a 	add	r5,r5,fp
   5141c:	24d7883a 	add	r11,r4,r19
   51420:	5c85883a 	add	r2,r11,r18
   51424:	2f0d803a 	cmpltu	r6,r5,fp
   51428:	380ed43a 	srli	r7,r7,16
   5142c:	1195883a 	add	r10,r2,r6
   51430:	2521803a 	cmpltu	r16,r4,r20
   51434:	5cd7803a 	cmpltu	r11,r11,r19
   51438:	1485803a 	cmpltu	r2,r2,r18
   5143c:	518d803a 	cmpltu	r6,r10,r6
   51440:	82e0b03a 	or	r16,r16,r11
   51444:	1184b03a 	or	r2,r2,r6
   51448:	81e1883a 	add	r16,r16,r7
   5144c:	2824927a 	slli	r18,r5,9
   51450:	d9000217 	ldw	r4,8(sp)
   51454:	80a1883a 	add	r16,r16,r2
   51458:	8461883a 	add	r16,r16,r17
   5145c:	8020927a 	slli	r16,r16,9
   51460:	280ad5fa 	srli	r5,r5,23
   51464:	9124b03a 	or	r18,r18,r4
   51468:	500cd5fa 	srli	r6,r10,23
   5146c:	5004927a 	slli	r2,r10,9
   51470:	9024c03a 	cmpne	r18,r18,zero
   51474:	9164b03a 	or	r18,r18,r5
   51478:	8100402c 	andhi	r4,r16,256
   5147c:	90a4b03a 	or	r18,r18,r2
   51480:	81a0b03a 	or	r16,r16,r6
   51484:	20002826 	beq	r4,zero,51528 <__muldf3+0x764>
   51488:	9006d07a 	srli	r3,r18,1
   5148c:	800497fa 	slli	r2,r16,31
   51490:	9480004c 	andi	r18,r18,1
   51494:	1c86b03a 	or	r3,r3,r18
   51498:	8020d07a 	srli	r16,r16,1
   5149c:	18a4b03a 	or	r18,r3,r2
   514a0:	003eb106 	br	50f68 <__muldf3+0x1a4>
   514a4:	2811883a 	mov	r8,r5
   514a8:	8023883a 	mov	r17,r16
   514ac:	e027883a 	mov	r19,fp
   514b0:	00800434 	movhi	r2,16
   514b4:	8c000234 	orhi	r16,r17,8
   514b8:	10bfffc4 	addi	r2,r2,-1
   514bc:	80a0703a 	and	r16,r16,r2
   514c0:	003f0d06 	br	510f8 <__muldf3+0x334>
   514c4:	0041fe40 	call	41fe4 <__clzsi2>
   514c8:	11400544 	addi	r5,r2,21
   514cc:	28c00748 	cmpgei	r3,r5,29
   514d0:	da000017 	ldw	r8,0(sp)
   514d4:	d9c00117 	ldw	r7,4(sp)
   514d8:	11000804 	addi	r4,r2,32
   514dc:	183eeb26 	beq	r3,zero,5108c <__muldf3+0x2c8>
   514e0:	10bffe04 	addi	r2,r2,-8
   514e4:	80a2983a 	sll	r17,r16,r2
   514e8:	0027883a 	mov	r19,zero
   514ec:	003eee06 	br	510a8 <__muldf3+0x2e4>
   514f0:	e009883a 	mov	r4,fp
   514f4:	0041fe40 	call	41fe4 <__clzsi2>
   514f8:	11000544 	addi	r4,r2,21
   514fc:	21c00748 	cmpgei	r7,r4,29
   51500:	d9800017 	ldw	r6,0(sp)
   51504:	da000117 	ldw	r8,4(sp)
   51508:	d9400217 	ldw	r5,8(sp)
   5150c:	10c00804 	addi	r3,r2,32
   51510:	383ec526 	beq	r7,zero,51028 <__muldf3+0x264>
   51514:	10bffe04 	addi	r2,r2,-8
   51518:	e084983a 	sll	r2,fp,r2
   5151c:	0025883a 	mov	r18,zero
   51520:	1021883a 	mov	r16,r2
   51524:	003ec706 	br	51044 <__muldf3+0x280>
   51528:	182b883a 	mov	r21,r3
   5152c:	003e8e06 	br	50f68 <__muldf3+0x1a4>
   51530:	00bff844 	movi	r2,-31
   51534:	1109c83a 	sub	r4,r2,r4
   51538:	18c00820 	cmpeqi	r3,r3,32
   5153c:	8108d83a 	srl	r4,r16,r4
   51540:	1800031e 	bne	r3,zero,51550 <__muldf3+0x78c>
   51544:	aa410f84 	addi	r9,r21,1086
   51548:	8252983a 	sll	r9,r16,r9
   5154c:	9264b03a 	or	r18,r18,r9
   51550:	9026c03a 	cmpne	r19,r18,zero
   51554:	9926b03a 	or	r19,r19,r4
   51558:	98c001cc 	andi	r3,r19,7
   5155c:	1800051e 	bne	r3,zero,51574 <__muldf3+0x7b0>
   51560:	0021883a 	mov	r16,zero
   51564:	9826d0fa 	srli	r19,r19,3
   51568:	0009883a 	mov	r4,zero
   5156c:	98e6b03a 	or	r19,r19,r3
   51570:	003e5506 	br	50ec8 <__muldf3+0x104>
   51574:	988003cc 	andi	r2,r19,15
   51578:	10800120 	cmpeqi	r2,r2,4
   5157c:	1000111e 	bne	r2,zero,515c4 <__muldf3+0x800>
   51580:	98800104 	addi	r2,r19,4
   51584:	14c7803a 	cmpltu	r3,r2,r19
   51588:	1027883a 	mov	r19,r2
   5158c:	1820927a 	slli	r16,r3,9
   51590:	1806977a 	slli	r3,r3,29
   51594:	8020d33a 	srli	r16,r16,12
   51598:	003ff206 	br	51564 <__muldf3+0x7a0>
   5159c:	a50003e0 	cmpeqi	r20,r20,15
   515a0:	a03fc026 	beq	r20,zero,514a4 <__muldf3+0x6e0>
   515a4:	8880022c 	andhi	r2,r17,8
   515a8:	103fc126 	beq	r2,zero,514b0 <__muldf3+0x6ec>
   515ac:	39c0022c 	andhi	r7,r7,8
   515b0:	383fbf1e 	bne	r7,zero,514b0 <__muldf3+0x6ec>
   515b4:	84000234 	orhi	r16,r16,8
   515b8:	2811883a 	mov	r8,r5
   515bc:	e027883a 	mov	r19,fp
   515c0:	003ecd06 	br	510f8 <__muldf3+0x334>
   515c4:	0007883a 	mov	r3,zero
   515c8:	003ff006 	br	5158c <__muldf3+0x7c8>

000515cc <__subdf3>:
   515cc:	00800434 	movhi	r2,16
   515d0:	3806d53a 	srli	r3,r7,20
   515d4:	10bfffc4 	addi	r2,r2,-1
   515d8:	defffa04 	addi	sp,sp,-24
   515dc:	2890703a 	and	r8,r5,r2
   515e0:	3884703a 	and	r2,r7,r2
   515e4:	2812d7fa 	srli	r9,r5,31
   515e8:	401090fa 	slli	r8,r8,3
   515ec:	280ad53a 	srli	r5,r5,20
   515f0:	100490fa 	slli	r2,r2,3
   515f4:	3016d77a 	srli	r11,r6,29
   515f8:	dc400115 	stw	r17,4(sp)
   515fc:	2022d77a 	srli	r17,r4,29
   51600:	18c1ffcc 	andi	r3,r3,2047
   51604:	dd000415 	stw	r20,16(sp)
   51608:	dcc00315 	stw	r19,12(sp)
   5160c:	dc000015 	stw	r16,0(sp)
   51610:	dfc00515 	stw	ra,20(sp)
   51614:	dc800215 	stw	r18,8(sp)
   51618:	1a81ffd8 	cmpnei	r10,r3,2047
   5161c:	2c01ffcc 	andi	r16,r5,2047
   51620:	380ed7fa 	srli	r7,r7,31
   51624:	201890fa 	slli	r12,r4,3
   51628:	301a90fa 	slli	r13,r6,3
   5162c:	4829883a 	mov	r20,r9
   51630:	4cc03fcc 	andi	r19,r9,255
   51634:	8a22b03a 	or	r17,r17,r8
   51638:	588ab03a 	or	r5,r11,r2
   5163c:	50007126 	beq	r10,zero,51804 <__subdf3+0x238>
   51640:	39c0005c 	xori	r7,r7,1
   51644:	3813883a 	mov	r9,r7
   51648:	3a803fcc 	andi	r10,r7,255
   5164c:	80d1c83a 	sub	r8,r16,r3
   51650:	99c05526 	beq	r19,r7,517a8 <__subdf3+0x1dc>
   51654:	0202320e 	bge	zero,r8,51f20 <__subdf3+0x954>
   51658:	18008426 	beq	r3,zero,5186c <__subdf3+0x2a0>
   5165c:	8081ffe0 	cmpeqi	r2,r16,2047
   51660:	10011b1e 	bne	r2,zero,51ad0 <__subdf3+0x504>
   51664:	40800e48 	cmpgei	r2,r8,57
   51668:	1000881e 	bne	r2,zero,5188c <__subdf3+0x2c0>
   5166c:	29402034 	orhi	r5,r5,128
   51670:	40800808 	cmpgei	r2,r8,32
   51674:	1001451e 	bne	r2,zero,51b8c <__subdf3+0x5c0>
   51678:	00800804 	movi	r2,32
   5167c:	1205c83a 	sub	r2,r2,r8
   51680:	28a4983a 	sll	r18,r5,r2
   51684:	6a06d83a 	srl	r3,r13,r8
   51688:	6884983a 	sll	r2,r13,r2
   5168c:	2a10d83a 	srl	r8,r5,r8
   51690:	90e4b03a 	or	r18,r18,r3
   51694:	1004c03a 	cmpne	r2,r2,zero
   51698:	90a4b03a 	or	r18,r18,r2
   5169c:	8a23c83a 	sub	r17,r17,r8
   516a0:	64a5c83a 	sub	r18,r12,r18
   516a4:	6485803a 	cmpltu	r2,r12,r18
   516a8:	88a3c83a 	sub	r17,r17,r2
   516ac:	8880202c 	andhi	r2,r17,128
   516b0:	1000ae26 	beq	r2,zero,5196c <__subdf3+0x3a0>
   516b4:	00802034 	movhi	r2,128
   516b8:	10bfffc4 	addi	r2,r2,-1
   516bc:	88a2703a 	and	r17,r17,r2
   516c0:	8800de26 	beq	r17,zero,51a3c <__subdf3+0x470>
   516c4:	8809883a 	mov	r4,r17
   516c8:	0041fe40 	call	41fe4 <__clzsi2>
   516cc:	10fffe04 	addi	r3,r2,-8
   516d0:	01000804 	movi	r4,32
   516d4:	20c5c83a 	sub	r2,r4,r3
   516d8:	9084d83a 	srl	r2,r18,r2
   516dc:	88e2983a 	sll	r17,r17,r3
   516e0:	90e4983a 	sll	r18,r18,r3
   516e4:	1444b03a 	or	r2,r2,r17
   516e8:	1c010516 	blt	r3,r16,51b00 <__subdf3+0x534>
   516ec:	1c07c83a 	sub	r3,r3,r16
   516f0:	18c00044 	addi	r3,r3,1
   516f4:	20c9c83a 	sub	r4,r4,r3
   516f8:	910a983a 	sll	r5,r18,r4
   516fc:	90e2d83a 	srl	r17,r18,r3
   51700:	280ac03a 	cmpne	r5,r5,zero
   51704:	1108983a 	sll	r4,r2,r4
   51708:	894ab03a 	or	r5,r17,r5
   5170c:	10e2d83a 	srl	r17,r2,r3
   51710:	0021883a 	mov	r16,zero
   51714:	2164b03a 	or	r18,r4,r5
   51718:	908001cc 	andi	r2,r18,7
   5171c:	10000726 	beq	r2,zero,5173c <__subdf3+0x170>
   51720:	908003cc 	andi	r2,r18,15
   51724:	10800120 	cmpeqi	r2,r2,4
   51728:	1000041e 	bne	r2,zero,5173c <__subdf3+0x170>
   5172c:	90800104 	addi	r2,r18,4
   51730:	14a5803a 	cmpltu	r18,r2,r18
   51734:	8ca3883a 	add	r17,r17,r18
   51738:	1025883a 	mov	r18,r2
   5173c:	8880202c 	andhi	r2,r17,128
   51740:	1000d726 	beq	r2,zero,51aa0 <__subdf3+0x4d4>
   51744:	8081ffa0 	cmpeqi	r2,r16,2046
   51748:	84000044 	addi	r16,r16,1
   5174c:	10007c1e 	bne	r2,zero,51940 <__subdf3+0x374>
   51750:	013fe034 	movhi	r4,65408
   51754:	213fffc4 	addi	r4,r4,-1
   51758:	8908703a 	and	r4,r17,r4
   5175c:	2004977a 	slli	r2,r4,29
   51760:	2008927a 	slli	r4,r4,9
   51764:	9024d0fa 	srli	r18,r18,3
   51768:	80c1ffcc 	andi	r3,r16,2047
   5176c:	2008d33a 	srli	r4,r4,12
   51770:	1484b03a 	or	r2,r2,r18
   51774:	9d00004c 	andi	r20,r19,1
   51778:	1806953a 	slli	r3,r3,20
   5177c:	a02897fa 	slli	r20,r20,31
   51780:	1906b03a 	or	r3,r3,r4
   51784:	1d06b03a 	or	r3,r3,r20
   51788:	dfc00517 	ldw	ra,20(sp)
   5178c:	dd000417 	ldw	r20,16(sp)
   51790:	dcc00317 	ldw	r19,12(sp)
   51794:	dc800217 	ldw	r18,8(sp)
   51798:	dc400117 	ldw	r17,4(sp)
   5179c:	dc000017 	ldw	r16,0(sp)
   517a0:	dec00604 	addi	sp,sp,24
   517a4:	f800283a 	ret
   517a8:	0201e60e 	bge	zero,r8,51f44 <__subdf3+0x978>
   517ac:	18004d1e 	bne	r3,zero,518e4 <__subdf3+0x318>
   517b0:	2b44b03a 	or	r2,r5,r13
   517b4:	1000d026 	beq	r2,zero,51af8 <__subdf3+0x52c>
   517b8:	823fffc4 	addi	r8,r16,-1
   517bc:	40006426 	beq	r8,zero,51950 <__subdf3+0x384>
   517c0:	8081ffe0 	cmpeqi	r2,r16,2047
   517c4:	10018e1e 	bne	r2,zero,51e00 <__subdf3+0x834>
   517c8:	40800e48 	cmpgei	r2,r8,57
   517cc:	1000491e 	bne	r2,zero,518f4 <__subdf3+0x328>
   517d0:	40800808 	cmpgei	r2,r8,32
   517d4:	1001431e 	bne	r2,zero,51ce4 <__subdf3+0x718>
   517d8:	00800804 	movi	r2,32
   517dc:	1205c83a 	sub	r2,r2,r8
   517e0:	28a4983a 	sll	r18,r5,r2
   517e4:	6a06d83a 	srl	r3,r13,r8
   517e8:	6884983a 	sll	r2,r13,r2
   517ec:	2a10d83a 	srl	r8,r5,r8
   517f0:	90e4b03a 	or	r18,r18,r3
   517f4:	1004c03a 	cmpne	r2,r2,zero
   517f8:	90a4b03a 	or	r18,r18,r2
   517fc:	8a23883a 	add	r17,r17,r8
   51800:	00003d06 	br	518f8 <__subdf3+0x32c>
   51804:	2b44b03a 	or	r2,r5,r13
   51808:	823e0044 	addi	r8,r16,-2047
   5180c:	1000211e 	bne	r2,zero,51894 <__subdf3+0x2c8>
   51810:	39c0005c 	xori	r7,r7,1
   51814:	3813883a 	mov	r9,r7
   51818:	3a803fcc 	andi	r10,r7,255
   5181c:	99c06b26 	beq	r19,r7,519cc <__subdf3+0x400>
   51820:	40005526 	beq	r8,zero,51978 <__subdf3+0x3ac>
   51824:	8000201e 	bne	r16,zero,518a8 <__subdf3+0x2dc>
   51828:	0401ffc4 	movi	r16,2047
   5182c:	8b04b03a 	or	r2,r17,r12
   51830:	1000ae26 	beq	r2,zero,51aec <__subdf3+0x520>
   51834:	80bfffc4 	addi	r2,r16,-1
   51838:	10015e26 	beq	r2,zero,51db4 <__subdf3+0x7e8>
   5183c:	8401ffe0 	cmpeqi	r16,r16,2047
   51840:	8001801e 	bne	r16,zero,51e44 <__subdf3+0x878>
   51844:	11000e48 	cmpgei	r4,r2,57
   51848:	5027883a 	mov	r19,r10
   5184c:	4829883a 	mov	r20,r9
   51850:	20011326 	beq	r4,zero,51ca0 <__subdf3+0x6d4>
   51854:	04800044 	movi	r18,1
   51858:	6ca5c83a 	sub	r18,r13,r18
   5185c:	6c9b803a 	cmpltu	r13,r13,r18
   51860:	2b63c83a 	sub	r17,r5,r13
   51864:	1821883a 	mov	r16,r3
   51868:	003f9006 	br	516ac <__subdf3+0xe0>
   5186c:	2b44b03a 	or	r2,r5,r13
   51870:	1000a126 	beq	r2,zero,51af8 <__subdf3+0x52c>
   51874:	823fffc4 	addi	r8,r16,-1
   51878:	4000fe26 	beq	r8,zero,51c74 <__subdf3+0x6a8>
   5187c:	8081ffe0 	cmpeqi	r2,r16,2047
   51880:	1000931e 	bne	r2,zero,51ad0 <__subdf3+0x504>
   51884:	40800e48 	cmpgei	r2,r8,57
   51888:	103f7926 	beq	r2,zero,51670 <__subdf3+0xa4>
   5188c:	04800044 	movi	r18,1
   51890:	003f8306 	br	516a0 <__subdf3+0xd4>
   51894:	3a803fcc 	andi	r10,r7,255
   51898:	99c04c26 	beq	r19,r7,519cc <__subdf3+0x400>
   5189c:	40003626 	beq	r8,zero,51978 <__subdf3+0x3ac>
   518a0:	3813883a 	mov	r9,r7
   518a4:	803fe026 	beq	r16,zero,51828 <__subdf3+0x25c>
   518a8:	2804977a 	slli	r2,r5,29
   518ac:	00c80034 	movhi	r3,8192
   518b0:	18ffffc4 	addi	r3,r3,-1
   518b4:	280ad0fa 	srli	r5,r5,3
   518b8:	30c6703a 	and	r3,r6,r3
   518bc:	10c4b03a 	or	r2,r2,r3
   518c0:	4829883a 	mov	r20,r9
   518c4:	1146b03a 	or	r3,r2,r5
   518c8:	18019126 	beq	r3,zero,51f10 <__subdf3+0x944>
   518cc:	00c00434 	movhi	r3,16
   518d0:	18ffffc4 	addi	r3,r3,-1
   518d4:	29000234 	orhi	r4,r5,8
   518d8:	20c8703a 	and	r4,r4,r3
   518dc:	00c1ffc4 	movi	r3,2047
   518e0:	003fa506 	br	51778 <__subdf3+0x1ac>
   518e4:	8081ffe0 	cmpeqi	r2,r16,2047
   518e8:	1000791e 	bne	r2,zero,51ad0 <__subdf3+0x504>
   518ec:	40800e48 	cmpgei	r2,r8,57
   518f0:	1000b126 	beq	r2,zero,51bb8 <__subdf3+0x5ec>
   518f4:	04800044 	movi	r18,1
   518f8:	9325883a 	add	r18,r18,r12
   518fc:	9305803a 	cmpltu	r2,r18,r12
   51900:	88a3883a 	add	r17,r17,r2
   51904:	8880202c 	andhi	r2,r17,128
   51908:	10001826 	beq	r2,zero,5196c <__subdf3+0x3a0>
   5190c:	84000044 	addi	r16,r16,1
   51910:	8081ffe0 	cmpeqi	r2,r16,2047
   51914:	10000a1e 	bne	r2,zero,51940 <__subdf3+0x374>
   51918:	00bfe034 	movhi	r2,65408
   5191c:	10bfffc4 	addi	r2,r2,-1
   51920:	9006d07a 	srli	r3,r18,1
   51924:	8884703a 	and	r2,r17,r2
   51928:	100897fa 	slli	r4,r2,31
   5192c:	9480004c 	andi	r18,r18,1
   51930:	1c86b03a 	or	r3,r3,r18
   51934:	1022d07a 	srli	r17,r2,1
   51938:	20e4b03a 	or	r18,r4,r3
   5193c:	003f7606 	br	51718 <__subdf3+0x14c>
   51940:	00c1ffc4 	movi	r3,2047
   51944:	0009883a 	mov	r4,zero
   51948:	0005883a 	mov	r2,zero
   5194c:	003f8a06 	br	51778 <__subdf3+0x1ac>
   51950:	6365883a 	add	r18,r12,r13
   51954:	894b883a 	add	r5,r17,r5
   51958:	9305803a 	cmpltu	r2,r18,r12
   5195c:	28a3883a 	add	r17,r5,r2
   51960:	8880202c 	andhi	r2,r17,128
   51964:	1001241e 	bne	r2,zero,51df8 <__subdf3+0x82c>
   51968:	04000044 	movi	r16,1
   5196c:	908001cc 	andi	r2,r18,7
   51970:	103f6b1e 	bne	r2,zero,51720 <__subdf3+0x154>
   51974:	00007906 	br	51b5c <__subdf3+0x590>
   51978:	80800044 	addi	r2,r16,1
   5197c:	1081ff8c 	andi	r2,r2,2046
   51980:	1000781e 	bne	r2,zero,51b64 <__subdf3+0x598>
   51984:	2b44b03a 	or	r2,r5,r13
   51988:	8b06b03a 	or	r3,r17,r12
   5198c:	8000af1e 	bne	r16,zero,51c4c <__subdf3+0x680>
   51990:	18011026 	beq	r3,zero,51dd4 <__subdf3+0x808>
   51994:	1000de26 	beq	r2,zero,51d10 <__subdf3+0x744>
   51998:	6365c83a 	sub	r18,r12,r13
   5199c:	6485803a 	cmpltu	r2,r12,r18
   519a0:	8947c83a 	sub	r3,r17,r5
   519a4:	1887c83a 	sub	r3,r3,r2
   519a8:	1880202c 	andhi	r2,r3,128
   519ac:	10014426 	beq	r2,zero,51ec0 <__subdf3+0x8f4>
   519b0:	6b25c83a 	sub	r18,r13,r12
   519b4:	2c4bc83a 	sub	r5,r5,r17
   519b8:	6c9b803a 	cmpltu	r13,r13,r18
   519bc:	2b63c83a 	sub	r17,r5,r13
   519c0:	5029883a 	mov	r20,r10
   519c4:	5027883a 	mov	r19,r10
   519c8:	003f5306 	br	51718 <__subdf3+0x14c>
   519cc:	40005126 	beq	r8,zero,51b14 <__subdf3+0x548>
   519d0:	80007b1e 	bne	r16,zero,51bc0 <__subdf3+0x5f4>
   519d4:	0401ffc4 	movi	r16,2047
   519d8:	8b04b03a 	or	r2,r17,r12
   519dc:	10010f26 	beq	r2,zero,51e1c <__subdf3+0x850>
   519e0:	80bfffc4 	addi	r2,r16,-1
   519e4:	10012a26 	beq	r2,zero,51e90 <__subdf3+0x8c4>
   519e8:	8401ffe0 	cmpeqi	r16,r16,2047
   519ec:	80013d1e 	bne	r16,zero,51ee4 <__subdf3+0x918>
   519f0:	11000e48 	cmpgei	r4,r2,57
   519f4:	2000cd1e 	bne	r4,zero,51d2c <__subdf3+0x760>
   519f8:	11000808 	cmpgei	r4,r2,32
   519fc:	2001191e 	bne	r4,zero,51e64 <__subdf3+0x898>
   51a00:	01000804 	movi	r4,32
   51a04:	2089c83a 	sub	r4,r4,r2
   51a08:	8924983a 	sll	r18,r17,r4
   51a0c:	608cd83a 	srl	r6,r12,r2
   51a10:	6108983a 	sll	r4,r12,r4
   51a14:	8884d83a 	srl	r2,r17,r2
   51a18:	91a4b03a 	or	r18,r18,r6
   51a1c:	2008c03a 	cmpne	r4,r4,zero
   51a20:	9124b03a 	or	r18,r18,r4
   51a24:	288b883a 	add	r5,r5,r2
   51a28:	9365883a 	add	r18,r18,r13
   51a2c:	935b803a 	cmpltu	r13,r18,r13
   51a30:	6963883a 	add	r17,r13,r5
   51a34:	1821883a 	mov	r16,r3
   51a38:	003fb206 	br	51904 <__subdf3+0x338>
   51a3c:	9009883a 	mov	r4,r18
   51a40:	0041fe40 	call	41fe4 <__clzsi2>
   51a44:	10c00604 	addi	r3,r2,24
   51a48:	19000808 	cmpgei	r4,r3,32
   51a4c:	203f2026 	beq	r4,zero,516d0 <__subdf3+0x104>
   51a50:	10bffe04 	addi	r2,r2,-8
   51a54:	9084983a 	sll	r2,r18,r2
   51a58:	1c006016 	blt	r3,r16,51bdc <__subdf3+0x610>
   51a5c:	1c25c83a 	sub	r18,r3,r16
   51a60:	90c00044 	addi	r3,r18,1
   51a64:	19000808 	cmpgei	r4,r3,32
   51a68:	20012526 	beq	r4,zero,51f00 <__subdf3+0x934>
   51a6c:	94bff844 	addi	r18,r18,-31
   51a70:	19000820 	cmpeqi	r4,r3,32
   51a74:	14a4d83a 	srl	r18,r2,r18
   51a78:	2000051e 	bne	r4,zero,51a90 <__subdf3+0x4c4>
   51a7c:	01001004 	movi	r4,64
   51a80:	20c7c83a 	sub	r3,r4,r3
   51a84:	10c4983a 	sll	r2,r2,r3
   51a88:	1004c03a 	cmpne	r2,r2,zero
   51a8c:	90a4b03a 	or	r18,r18,r2
   51a90:	908001cc 	andi	r2,r18,7
   51a94:	0021883a 	mov	r16,zero
   51a98:	103f211e 	bne	r2,zero,51720 <__subdf3+0x154>
   51a9c:	00002f06 	br	51b5c <__subdf3+0x590>
   51aa0:	9004d0fa 	srli	r2,r18,3
   51aa4:	8808977a 	slli	r4,r17,29
   51aa8:	80c1ffe0 	cmpeqi	r3,r16,2047
   51aac:	880ad0fa 	srli	r5,r17,3
   51ab0:	2084b03a 	or	r2,r4,r2
   51ab4:	183f831e 	bne	r3,zero,518c4 <__subdf3+0x2f8>
   51ab8:	01000434 	movhi	r4,16
   51abc:	213fffc4 	addi	r4,r4,-1
   51ac0:	2908703a 	and	r4,r5,r4
   51ac4:	80c1ffcc 	andi	r3,r16,2047
   51ac8:	003f2b06 	br	51778 <__subdf3+0x1ac>
   51acc:	1000a71e 	bne	r2,zero,51d6c <__subdf3+0x7a0>
   51ad0:	8806977a 	slli	r3,r17,29
   51ad4:	00880034 	movhi	r2,8192
   51ad8:	10bfffc4 	addi	r2,r2,-1
   51adc:	2084703a 	and	r2,r4,r2
   51ae0:	880ad0fa 	srli	r5,r17,3
   51ae4:	10c4b03a 	or	r2,r2,r3
   51ae8:	003f7606 	br	518c4 <__subdf3+0x2f8>
   51aec:	6819883a 	mov	r12,r13
   51af0:	2823883a 	mov	r17,r5
   51af4:	4829883a 	mov	r20,r9
   51af8:	6004d0fa 	srli	r2,r12,3
   51afc:	003fe906 	br	51aa4 <__subdf3+0x4d8>
   51b00:	047fe034 	movhi	r17,65408
   51b04:	8c7fffc4 	addi	r17,r17,-1
   51b08:	80e1c83a 	sub	r16,r16,r3
   51b0c:	1462703a 	and	r17,r2,r17
   51b10:	003f0106 	br	51718 <__subdf3+0x14c>
   51b14:	80c00044 	addi	r3,r16,1
   51b18:	1881ff8c 	andi	r2,r3,2046
   51b1c:	1000361e 	bne	r2,zero,51bf8 <__subdf3+0x62c>
   51b20:	8b04b03a 	or	r2,r17,r12
   51b24:	80008e1e 	bne	r16,zero,51d60 <__subdf3+0x794>
   51b28:	1000bf26 	beq	r2,zero,51e28 <__subdf3+0x85c>
   51b2c:	2b44b03a 	or	r2,r5,r13
   51b30:	10007726 	beq	r2,zero,51d10 <__subdf3+0x744>
   51b34:	6365883a 	add	r18,r12,r13
   51b38:	9305803a 	cmpltu	r2,r18,r12
   51b3c:	894b883a 	add	r5,r17,r5
   51b40:	28a3883a 	add	r17,r5,r2
   51b44:	8880202c 	andhi	r2,r17,128
   51b48:	10000426 	beq	r2,zero,51b5c <__subdf3+0x590>
   51b4c:	00bfe034 	movhi	r2,65408
   51b50:	10bfffc4 	addi	r2,r2,-1
   51b54:	88a2703a 	and	r17,r17,r2
   51b58:	04000044 	movi	r16,1
   51b5c:	9019883a 	mov	r12,r18
   51b60:	003fe506 	br	51af8 <__subdf3+0x52c>
   51b64:	6365c83a 	sub	r18,r12,r13
   51b68:	6485803a 	cmpltu	r2,r12,r18
   51b6c:	8947c83a 	sub	r3,r17,r5
   51b70:	1887c83a 	sub	r3,r3,r2
   51b74:	1880202c 	andhi	r2,r3,128
   51b78:	10002d1e 	bne	r2,zero,51c30 <__subdf3+0x664>
   51b7c:	90c4b03a 	or	r2,r18,r3
   51b80:	10005426 	beq	r2,zero,51cd4 <__subdf3+0x708>
   51b84:	1823883a 	mov	r17,r3
   51b88:	003ecd06 	br	516c0 <__subdf3+0xf4>
   51b8c:	40bff804 	addi	r2,r8,-32
   51b90:	40c00820 	cmpeqi	r3,r8,32
   51b94:	2884d83a 	srl	r2,r5,r2
   51b98:	1800041e 	bne	r3,zero,51bac <__subdf3+0x5e0>
   51b9c:	00c01004 	movi	r3,64
   51ba0:	1a07c83a 	sub	r3,r3,r8
   51ba4:	28c6983a 	sll	r3,r5,r3
   51ba8:	68dab03a 	or	r13,r13,r3
   51bac:	6824c03a 	cmpne	r18,r13,zero
   51bb0:	90a4b03a 	or	r18,r18,r2
   51bb4:	003eba06 	br	516a0 <__subdf3+0xd4>
   51bb8:	29402034 	orhi	r5,r5,128
   51bbc:	003f0406 	br	517d0 <__subdf3+0x204>
   51bc0:	2804977a 	slli	r2,r5,29
   51bc4:	00c80034 	movhi	r3,8192
   51bc8:	18ffffc4 	addi	r3,r3,-1
   51bcc:	30c6703a 	and	r3,r6,r3
   51bd0:	280ad0fa 	srli	r5,r5,3
   51bd4:	10c4b03a 	or	r2,r2,r3
   51bd8:	003f3a06 	br	518c4 <__subdf3+0x2f8>
   51bdc:	017fe034 	movhi	r5,65408
   51be0:	297fffc4 	addi	r5,r5,-1
   51be4:	114a703a 	and	r5,r2,r5
   51be8:	2804977a 	slli	r2,r5,29
   51bec:	80e1c83a 	sub	r16,r16,r3
   51bf0:	280ad0fa 	srli	r5,r5,3
   51bf4:	003fb006 	br	51ab8 <__subdf3+0x4ec>
   51bf8:	1881ffe0 	cmpeqi	r2,r3,2047
   51bfc:	103f501e 	bne	r2,zero,51940 <__subdf3+0x374>
   51c00:	6349883a 	add	r4,r12,r13
   51c04:	894b883a 	add	r5,r17,r5
   51c08:	2305803a 	cmpltu	r2,r4,r12
   51c0c:	2885883a 	add	r2,r5,r2
   51c10:	2008d07a 	srli	r4,r4,1
   51c14:	102497fa 	slli	r18,r2,31
   51c18:	1022d07a 	srli	r17,r2,1
   51c1c:	208001cc 	andi	r2,r4,7
   51c20:	9124b03a 	or	r18,r18,r4
   51c24:	1821883a 	mov	r16,r3
   51c28:	103ebd1e 	bne	r2,zero,51720 <__subdf3+0x154>
   51c2c:	003fcb06 	br	51b5c <__subdf3+0x590>
   51c30:	6b25c83a 	sub	r18,r13,r12
   51c34:	2c4bc83a 	sub	r5,r5,r17
   51c38:	6c9b803a 	cmpltu	r13,r13,r18
   51c3c:	2b63c83a 	sub	r17,r5,r13
   51c40:	5029883a 	mov	r20,r10
   51c44:	5027883a 	mov	r19,r10
   51c48:	003e9d06 	br	516c0 <__subdf3+0xf4>
   51c4c:	183f9f1e 	bne	r3,zero,51acc <__subdf3+0x500>
   51c50:	10009f26 	beq	r2,zero,51ed0 <__subdf3+0x904>
   51c54:	2804977a 	slli	r2,r5,29
   51c58:	00c80034 	movhi	r3,8192
   51c5c:	18ffffc4 	addi	r3,r3,-1
   51c60:	30c6703a 	and	r3,r6,r3
   51c64:	280ad0fa 	srli	r5,r5,3
   51c68:	5029883a 	mov	r20,r10
   51c6c:	10c4b03a 	or	r2,r2,r3
   51c70:	003f1406 	br	518c4 <__subdf3+0x2f8>
   51c74:	6365c83a 	sub	r18,r12,r13
   51c78:	894bc83a 	sub	r5,r17,r5
   51c7c:	6485803a 	cmpltu	r2,r12,r18
   51c80:	28a3c83a 	sub	r17,r5,r2
   51c84:	04000044 	movi	r16,1
   51c88:	003e8806 	br	516ac <__subdf3+0xe0>
   51c8c:	11000e48 	cmpgei	r4,r2,57
   51c90:	2000a81e 	bne	r4,zero,51f34 <__subdf3+0x968>
   51c94:	8c402034 	orhi	r17,r17,128
   51c98:	5027883a 	mov	r19,r10
   51c9c:	3829883a 	mov	r20,r7
   51ca0:	11000808 	cmpgei	r4,r2,32
   51ca4:	2000231e 	bne	r4,zero,51d34 <__subdf3+0x768>
   51ca8:	01000804 	movi	r4,32
   51cac:	2089c83a 	sub	r4,r4,r2
   51cb0:	8924983a 	sll	r18,r17,r4
   51cb4:	608cd83a 	srl	r6,r12,r2
   51cb8:	6108983a 	sll	r4,r12,r4
   51cbc:	8884d83a 	srl	r2,r17,r2
   51cc0:	91a4b03a 	or	r18,r18,r6
   51cc4:	2008c03a 	cmpne	r4,r4,zero
   51cc8:	9124b03a 	or	r18,r18,r4
   51ccc:	288bc83a 	sub	r5,r5,r2
   51cd0:	003ee106 	br	51858 <__subdf3+0x28c>
   51cd4:	0029883a 	mov	r20,zero
   51cd8:	0007883a 	mov	r3,zero
   51cdc:	0009883a 	mov	r4,zero
   51ce0:	003ea506 	br	51778 <__subdf3+0x1ac>
   51ce4:	40bff804 	addi	r2,r8,-32
   51ce8:	40c00820 	cmpeqi	r3,r8,32
   51cec:	2884d83a 	srl	r2,r5,r2
   51cf0:	1800041e 	bne	r3,zero,51d04 <__subdf3+0x738>
   51cf4:	00c01004 	movi	r3,64
   51cf8:	1a07c83a 	sub	r3,r3,r8
   51cfc:	28c6983a 	sll	r3,r5,r3
   51d00:	68dab03a 	or	r13,r13,r3
   51d04:	6824c03a 	cmpne	r18,r13,zero
   51d08:	90a4b03a 	or	r18,r18,r2
   51d0c:	003efa06 	br	518f8 <__subdf3+0x32c>
   51d10:	8806977a 	slli	r3,r17,29
   51d14:	00880034 	movhi	r2,8192
   51d18:	10bfffc4 	addi	r2,r2,-1
   51d1c:	2084703a 	and	r2,r4,r2
   51d20:	880ad0fa 	srli	r5,r17,3
   51d24:	10c4b03a 	or	r2,r2,r3
   51d28:	003f6306 	br	51ab8 <__subdf3+0x4ec>
   51d2c:	04800044 	movi	r18,1
   51d30:	003f3d06 	br	51a28 <__subdf3+0x45c>
   51d34:	113ff804 	addi	r4,r2,-32
   51d38:	11800820 	cmpeqi	r6,r2,32
   51d3c:	8908d83a 	srl	r4,r17,r4
   51d40:	3000041e 	bne	r6,zero,51d54 <__subdf3+0x788>
   51d44:	01801004 	movi	r6,64
   51d48:	3085c83a 	sub	r2,r6,r2
   51d4c:	8884983a 	sll	r2,r17,r2
   51d50:	6098b03a 	or	r12,r12,r2
   51d54:	6024c03a 	cmpne	r18,r12,zero
   51d58:	9124b03a 	or	r18,r18,r4
   51d5c:	003ebe06 	br	51858 <__subdf3+0x28c>
   51d60:	10005026 	beq	r2,zero,51ea4 <__subdf3+0x8d8>
   51d64:	2b5ab03a 	or	r13,r5,r13
   51d68:	683f5926 	beq	r13,zero,51ad0 <__subdf3+0x504>
   51d6c:	880ed0fa 	srli	r7,r17,3
   51d70:	00c80034 	movhi	r3,8192
   51d74:	8822977a 	slli	r17,r17,29
   51d78:	18ffffc4 	addi	r3,r3,-1
   51d7c:	20c4703a 	and	r2,r4,r3
   51d80:	3900022c 	andhi	r4,r7,8
   51d84:	1444b03a 	or	r2,r2,r17
   51d88:	20000826 	beq	r4,zero,51dac <__subdf3+0x7e0>
   51d8c:	2808d0fa 	srli	r4,r5,3
   51d90:	2200022c 	andhi	r8,r4,8
   51d94:	4000051e 	bne	r8,zero,51dac <__subdf3+0x7e0>
   51d98:	2804977a 	slli	r2,r5,29
   51d9c:	30c6703a 	and	r3,r6,r3
   51da0:	5029883a 	mov	r20,r10
   51da4:	1884b03a 	or	r2,r3,r2
   51da8:	200f883a 	mov	r7,r4
   51dac:	380b883a 	mov	r5,r7
   51db0:	003ec406 	br	518c4 <__subdf3+0x2f8>
   51db4:	6b25c83a 	sub	r18,r13,r12
   51db8:	2c4bc83a 	sub	r5,r5,r17
   51dbc:	6c9b803a 	cmpltu	r13,r13,r18
   51dc0:	2b63c83a 	sub	r17,r5,r13
   51dc4:	4829883a 	mov	r20,r9
   51dc8:	5027883a 	mov	r19,r10
   51dcc:	04000044 	movi	r16,1
   51dd0:	003e3606 	br	516ac <__subdf3+0xe0>
   51dd4:	103fbf26 	beq	r2,zero,51cd4 <__subdf3+0x708>
   51dd8:	2806977a 	slli	r3,r5,29
   51ddc:	00880034 	movhi	r2,8192
   51de0:	10bfffc4 	addi	r2,r2,-1
   51de4:	3084703a 	and	r2,r6,r2
   51de8:	280ad0fa 	srli	r5,r5,3
   51dec:	5029883a 	mov	r20,r10
   51df0:	10c4b03a 	or	r2,r2,r3
   51df4:	003f3006 	br	51ab8 <__subdf3+0x4ec>
   51df8:	04000084 	movi	r16,2
   51dfc:	003ec606 	br	51918 <__subdf3+0x34c>
   51e00:	8804977a 	slli	r2,r17,29
   51e04:	00c80034 	movhi	r3,8192
   51e08:	18ffffc4 	addi	r3,r3,-1
   51e0c:	20c8703a 	and	r4,r4,r3
   51e10:	880ad0fa 	srli	r5,r17,3
   51e14:	1104b03a 	or	r2,r2,r4
   51e18:	003eaa06 	br	518c4 <__subdf3+0x2f8>
   51e1c:	6819883a 	mov	r12,r13
   51e20:	2823883a 	mov	r17,r5
   51e24:	003f3406 	br	51af8 <__subdf3+0x52c>
   51e28:	2806977a 	slli	r3,r5,29
   51e2c:	00880034 	movhi	r2,8192
   51e30:	10bfffc4 	addi	r2,r2,-1
   51e34:	3084703a 	and	r2,r6,r2
   51e38:	280ad0fa 	srli	r5,r5,3
   51e3c:	10c4b03a 	or	r2,r2,r3
   51e40:	003f1d06 	br	51ab8 <__subdf3+0x4ec>
   51e44:	2806977a 	slli	r3,r5,29
   51e48:	00880034 	movhi	r2,8192
   51e4c:	10bfffc4 	addi	r2,r2,-1
   51e50:	3084703a 	and	r2,r6,r2
   51e54:	280ad0fa 	srli	r5,r5,3
   51e58:	10c4b03a 	or	r2,r2,r3
   51e5c:	4829883a 	mov	r20,r9
   51e60:	003e9806 	br	518c4 <__subdf3+0x2f8>
   51e64:	113ff804 	addi	r4,r2,-32
   51e68:	11800820 	cmpeqi	r6,r2,32
   51e6c:	8908d83a 	srl	r4,r17,r4
   51e70:	3000041e 	bne	r6,zero,51e84 <__subdf3+0x8b8>
   51e74:	01801004 	movi	r6,64
   51e78:	3085c83a 	sub	r2,r6,r2
   51e7c:	8884983a 	sll	r2,r17,r2
   51e80:	6098b03a 	or	r12,r12,r2
   51e84:	6024c03a 	cmpne	r18,r12,zero
   51e88:	9124b03a 	or	r18,r18,r4
   51e8c:	003ee606 	br	51a28 <__subdf3+0x45c>
   51e90:	6365883a 	add	r18,r12,r13
   51e94:	894b883a 	add	r5,r17,r5
   51e98:	935b803a 	cmpltu	r13,r18,r13
   51e9c:	2b63883a 	add	r17,r5,r13
   51ea0:	003eaf06 	br	51960 <__subdf3+0x394>
   51ea4:	2804977a 	slli	r2,r5,29
   51ea8:	00c80034 	movhi	r3,8192
   51eac:	18ffffc4 	addi	r3,r3,-1
   51eb0:	30cc703a 	and	r6,r6,r3
   51eb4:	280ad0fa 	srli	r5,r5,3
   51eb8:	3084b03a 	or	r2,r6,r2
   51ebc:	003e8106 	br	518c4 <__subdf3+0x2f8>
   51ec0:	90c4b03a 	or	r2,r18,r3
   51ec4:	103f8326 	beq	r2,zero,51cd4 <__subdf3+0x708>
   51ec8:	1823883a 	mov	r17,r3
   51ecc:	003f2306 	br	51b5c <__subdf3+0x590>
   51ed0:	01400434 	movhi	r5,16
   51ed4:	297fffc4 	addi	r5,r5,-1
   51ed8:	00bfffc4 	movi	r2,-1
   51edc:	0029883a 	mov	r20,zero
   51ee0:	003e7a06 	br	518cc <__subdf3+0x300>
   51ee4:	2806977a 	slli	r3,r5,29
   51ee8:	00880034 	movhi	r2,8192
   51eec:	10bfffc4 	addi	r2,r2,-1
   51ef0:	3084703a 	and	r2,r6,r2
   51ef4:	280ad0fa 	srli	r5,r5,3
   51ef8:	10c4b03a 	or	r2,r2,r3
   51efc:	003e7106 	br	518c4 <__subdf3+0x2f8>
   51f00:	01000804 	movi	r4,32
   51f04:	20c9c83a 	sub	r4,r4,r3
   51f08:	000b883a 	mov	r5,zero
   51f0c:	003dfd06 	br	51704 <__subdf3+0x138>
   51f10:	0005883a 	mov	r2,zero
   51f14:	00c1ffc4 	movi	r3,2047
   51f18:	0009883a 	mov	r4,zero
   51f1c:	003e1606 	br	51778 <__subdf3+0x1ac>
   51f20:	403e9526 	beq	r8,zero,51978 <__subdf3+0x3ac>
   51f24:	1c05c83a 	sub	r2,r3,r16
   51f28:	803f581e 	bne	r16,zero,51c8c <__subdf3+0x6c0>
   51f2c:	1021883a 	mov	r16,r2
   51f30:	003e3e06 	br	5182c <__subdf3+0x260>
   51f34:	5027883a 	mov	r19,r10
   51f38:	3829883a 	mov	r20,r7
   51f3c:	04800044 	movi	r18,1
   51f40:	003e4506 	br	51858 <__subdf3+0x28c>
   51f44:	403ef326 	beq	r8,zero,51b14 <__subdf3+0x548>
   51f48:	1c05c83a 	sub	r2,r3,r16
   51f4c:	8000021e 	bne	r16,zero,51f58 <__subdf3+0x98c>
   51f50:	1021883a 	mov	r16,r2
   51f54:	003ea006 	br	519d8 <__subdf3+0x40c>
   51f58:	11000e48 	cmpgei	r4,r2,57
   51f5c:	203f731e 	bne	r4,zero,51d2c <__subdf3+0x760>
   51f60:	8c402034 	orhi	r17,r17,128
   51f64:	003ea406 	br	519f8 <__subdf3+0x42c>

00051f68 <__unorddf2>:
   51f68:	2804d53a 	srli	r2,r5,20
   51f6c:	3806d53a 	srli	r3,r7,20
   51f70:	02000434 	movhi	r8,16
   51f74:	1081ffcc 	andi	r2,r2,2047
   51f78:	423fffc4 	addi	r8,r8,-1
   51f7c:	1081ffd8 	cmpnei	r2,r2,2047
   51f80:	2a0a703a 	and	r5,r5,r8
   51f84:	3a0e703a 	and	r7,r7,r8
   51f88:	18c1ffcc 	andi	r3,r3,2047
   51f8c:	10000426 	beq	r2,zero,51fa0 <__unorddf2+0x38>
   51f90:	18c1ffd8 	cmpnei	r3,r3,2047
   51f94:	18000626 	beq	r3,zero,51fb0 <__unorddf2+0x48>
   51f98:	0005883a 	mov	r2,zero
   51f9c:	f800283a 	ret
   51fa0:	290ab03a 	or	r5,r5,r4
   51fa4:	283ffa26 	beq	r5,zero,51f90 <__unorddf2+0x28>
   51fa8:	00800044 	movi	r2,1
   51fac:	f800283a 	ret
   51fb0:	398eb03a 	or	r7,r7,r6
   51fb4:	3804c03a 	cmpne	r2,r7,zero
   51fb8:	f800283a 	ret

00051fbc <__floatsidf>:
   51fbc:	defffd04 	addi	sp,sp,-12
   51fc0:	dfc00215 	stw	ra,8(sp)
   51fc4:	dc400115 	stw	r17,4(sp)
   51fc8:	dc000015 	stw	r16,0(sp)
   51fcc:	20001326 	beq	r4,zero,5201c <__floatsidf+0x60>
   51fd0:	2022d7fa 	srli	r17,r4,31
   51fd4:	2021883a 	mov	r16,r4
   51fd8:	20002416 	blt	r4,zero,5206c <__floatsidf+0xb0>
   51fdc:	8009883a 	mov	r4,r16
   51fe0:	0041fe40 	call	41fe4 <__clzsi2>
   51fe4:	01010784 	movi	r4,1054
   51fe8:	2089c83a 	sub	r4,r4,r2
   51fec:	10c002c8 	cmpgei	r3,r2,11
   51ff0:	2101ffcc 	andi	r4,r4,2047
   51ff4:	1800161e 	bne	r3,zero,52050 <__floatsidf+0x94>
   51ff8:	014002c4 	movi	r5,11
   51ffc:	288bc83a 	sub	r5,r5,r2
   52000:	814ad83a 	srl	r5,r16,r5
   52004:	00c00434 	movhi	r3,16
   52008:	10800544 	addi	r2,r2,21
   5200c:	18ffffc4 	addi	r3,r3,-1
   52010:	8084983a 	sll	r2,r16,r2
   52014:	28ca703a 	and	r5,r5,r3
   52018:	00000406 	br	5202c <__floatsidf+0x70>
   5201c:	0023883a 	mov	r17,zero
   52020:	0009883a 	mov	r4,zero
   52024:	000b883a 	mov	r5,zero
   52028:	0005883a 	mov	r2,zero
   5202c:	2008953a 	slli	r4,r4,20
   52030:	880697fa 	slli	r3,r17,31
   52034:	2148b03a 	or	r4,r4,r5
   52038:	20c6b03a 	or	r3,r4,r3
   5203c:	dfc00217 	ldw	ra,8(sp)
   52040:	dc400117 	ldw	r17,4(sp)
   52044:	dc000017 	ldw	r16,0(sp)
   52048:	dec00304 	addi	sp,sp,12
   5204c:	f800283a 	ret
   52050:	10bffd44 	addi	r2,r2,-11
   52054:	808a983a 	sll	r5,r16,r2
   52058:	00800434 	movhi	r2,16
   5205c:	10bfffc4 	addi	r2,r2,-1
   52060:	288a703a 	and	r5,r5,r2
   52064:	0005883a 	mov	r2,zero
   52068:	003ff006 	br	5202c <__floatsidf+0x70>
   5206c:	0121c83a 	sub	r16,zero,r4
   52070:	003fda06 	br	51fdc <__floatsidf+0x20>

00052074 <__floatunsidf>:
   52074:	defffe04 	addi	sp,sp,-8
   52078:	dc000015 	stw	r16,0(sp)
   5207c:	dfc00115 	stw	ra,4(sp)
   52080:	2021883a 	mov	r16,r4
   52084:	20000f26 	beq	r4,zero,520c4 <__floatunsidf+0x50>
   52088:	0041fe40 	call	41fe4 <__clzsi2>
   5208c:	00c10784 	movi	r3,1054
   52090:	1887c83a 	sub	r3,r3,r2
   52094:	110002c8 	cmpgei	r4,r2,11
   52098:	18c1ffcc 	andi	r3,r3,2047
   5209c:	2000121e 	bne	r4,zero,520e8 <__floatunsidf+0x74>
   520a0:	010002c4 	movi	r4,11
   520a4:	2089c83a 	sub	r4,r4,r2
   520a8:	8108d83a 	srl	r4,r16,r4
   520ac:	01400434 	movhi	r5,16
   520b0:	10800544 	addi	r2,r2,21
   520b4:	297fffc4 	addi	r5,r5,-1
   520b8:	80a0983a 	sll	r16,r16,r2
   520bc:	214a703a 	and	r5,r4,r5
   520c0:	00000206 	br	520cc <__floatunsidf+0x58>
   520c4:	0007883a 	mov	r3,zero
   520c8:	000b883a 	mov	r5,zero
   520cc:	1806953a 	slli	r3,r3,20
   520d0:	8005883a 	mov	r2,r16
   520d4:	1946b03a 	or	r3,r3,r5
   520d8:	dfc00117 	ldw	ra,4(sp)
   520dc:	dc000017 	ldw	r16,0(sp)
   520e0:	dec00204 	addi	sp,sp,8
   520e4:	f800283a 	ret
   520e8:	117ffd44 	addi	r5,r2,-11
   520ec:	814a983a 	sll	r5,r16,r5
   520f0:	00800434 	movhi	r2,16
   520f4:	10bfffc4 	addi	r2,r2,-1
   520f8:	288a703a 	and	r5,r5,r2
   520fc:	0021883a 	mov	r16,zero
   52100:	003ff206 	br	520cc <__floatunsidf+0x58>

00052104 <alt_get_errno>:
#undef errno

extern int errno;

static ALT_INLINE int* alt_get_errno(void)
{
   52104:	defffe04 	addi	sp,sp,-8
   52108:	dfc00115 	stw	ra,4(sp)
   5210c:	df000015 	stw	fp,0(sp)
   52110:	d839883a 	mov	fp,sp
  return ((alt_errno) ? alt_errno() : &errno);
   52114:	d0a00917 	ldw	r2,-32732(gp)
   52118:	10000326 	beq	r2,zero,52128 <alt_get_errno+0x24>
   5211c:	d0a00917 	ldw	r2,-32732(gp)
   52120:	103ee83a 	callr	r2
   52124:	00000106 	br	5212c <alt_get_errno+0x28>
   52128:	d0a71404 	addi	r2,gp,-25520
}
   5212c:	e037883a 	mov	sp,fp
   52130:	dfc00117 	ldw	ra,4(sp)
   52134:	df000017 	ldw	fp,0(sp)
   52138:	dec00204 	addi	sp,sp,8
   5213c:	f800283a 	ret

00052140 <close>:
 *
 * ALT_CLOSE is mapped onto the close() system call in alt_syscall.h
 */
 
int ALT_CLOSE (int fildes)
{
   52140:	defffb04 	addi	sp,sp,-20
   52144:	dfc00415 	stw	ra,16(sp)
   52148:	df000315 	stw	fp,12(sp)
   5214c:	df000304 	addi	fp,sp,12
   52150:	e13ffd15 	stw	r4,-12(fp)
   * A common error case is that when the file descriptor was created, the call
   * to open() failed resulting in a negative file descriptor. This is trapped
   * below so that we don't try and process an invalid file descriptor.
   */

  fd = (fildes < 0) ? NULL : &alt_fd_list[fildes];
   52154:	e0bffd17 	ldw	r2,-12(fp)
   52158:	10000916 	blt	r2,zero,52180 <close+0x40>
   5215c:	e0fffd17 	ldw	r3,-12(fp)
   52160:	1805883a 	mov	r2,r3
   52164:	1085883a 	add	r2,r2,r2
   52168:	10c5883a 	add	r2,r2,r3
   5216c:	100490ba 	slli	r2,r2,2
   52170:	00c00174 	movhi	r3,5
   52174:	18d8a804 	addi	r3,r3,25248
   52178:	10c5883a 	add	r2,r2,r3
   5217c:	00000106 	br	52184 <close+0x44>
   52180:	0005883a 	mov	r2,zero
   52184:	e0bfff15 	stw	r2,-4(fp)

  if (fd)
   52188:	e0bfff17 	ldw	r2,-4(fp)
   5218c:	10001926 	beq	r2,zero,521f4 <close+0xb4>
    /*
     * If the associated file system/device has a close function, call it so 
     * that any necessary cleanup code can run.
     */

    rval = (fd->dev->close) ? fd->dev->close(fd) : 0;
   52190:	e0bfff17 	ldw	r2,-4(fp)
   52194:	10800017 	ldw	r2,0(r2)
   52198:	10800417 	ldw	r2,16(r2)
   5219c:	10000626 	beq	r2,zero,521b8 <close+0x78>
   521a0:	e0bfff17 	ldw	r2,-4(fp)
   521a4:	10800017 	ldw	r2,0(r2)
   521a8:	10800417 	ldw	r2,16(r2)
   521ac:	e13fff17 	ldw	r4,-4(fp)
   521b0:	103ee83a 	callr	r2
   521b4:	00000106 	br	521bc <close+0x7c>
   521b8:	0005883a 	mov	r2,zero
   521bc:	e0bffe15 	stw	r2,-8(fp)

    /* Free the file descriptor structure and return. */

    alt_release_fd (fildes);
   521c0:	e13ffd17 	ldw	r4,-12(fp)
   521c4:	0052ba80 	call	52ba8 <alt_release_fd>
    if (rval < 0)
   521c8:	e0bffe17 	ldw	r2,-8(fp)
   521cc:	1000070e 	bge	r2,zero,521ec <close+0xac>
    {
      ALT_ERRNO = -rval;
   521d0:	00521040 	call	52104 <alt_get_errno>
   521d4:	1007883a 	mov	r3,r2
   521d8:	e0bffe17 	ldw	r2,-8(fp)
   521dc:	0085c83a 	sub	r2,zero,r2
   521e0:	18800015 	stw	r2,0(r3)
      return -1;
   521e4:	00bfffc4 	movi	r2,-1
   521e8:	00000706 	br	52208 <close+0xc8>
    }
    return 0;
   521ec:	0005883a 	mov	r2,zero
   521f0:	00000506 	br	52208 <close+0xc8>
  }
  else
  {
    ALT_ERRNO = EBADFD;
   521f4:	00521040 	call	52104 <alt_get_errno>
   521f8:	1007883a 	mov	r3,r2
   521fc:	00801444 	movi	r2,81
   52200:	18800015 	stw	r2,0(r3)
    return -1;
   52204:	00bfffc4 	movi	r2,-1
  }
}
   52208:	e037883a 	mov	sp,fp
   5220c:	dfc00117 	ldw	ra,4(sp)
   52210:	df000017 	ldw	fp,0(sp)
   52214:	dec00204 	addi	sp,sp,8
   52218:	f800283a 	ret

0005221c <alt_dev_null_write>:
 * by the alt_dev_null device. It simple discards all data passed to it, and
 * indicates that the data has been successfully transmitted.
 */

static int alt_dev_null_write (alt_fd* fd, const char* ptr, int len)
{
   5221c:	defffc04 	addi	sp,sp,-16
   52220:	df000315 	stw	fp,12(sp)
   52224:	df000304 	addi	fp,sp,12
   52228:	e13fff15 	stw	r4,-4(fp)
   5222c:	e17ffe15 	stw	r5,-8(fp)
   52230:	e1bffd15 	stw	r6,-12(fp)
  return len;
   52234:	e0bffd17 	ldw	r2,-12(fp)
}
   52238:	e037883a 	mov	sp,fp
   5223c:	df000017 	ldw	fp,0(sp)
   52240:	dec00104 	addi	sp,sp,4
   52244:	f800283a 	ret

00052248 <_exit>:
 *
 * ALT_EXIT is mapped onto the _exit() system call in alt_syscall.h
 */

void ALT_EXIT (int exit_code)
{
   52248:	defffd04 	addi	sp,sp,-12
   5224c:	df000215 	stw	fp,8(sp)
   52250:	df000204 	addi	fp,sp,8
   52254:	e13ffe15 	stw	r4,-8(fp)
  ALT_LOG_PRINT_BOOT("[alt_exit.c] Entering _exit() function.\r\n");
  ALT_LOG_PRINT_BOOT("[alt_exit.c] Exit code from main was %d.\r\n",exit_code);
  /* Stop all other threads */

  ALT_LOG_PRINT_BOOT("[alt_exit.c] Calling ALT_OS_STOP().\r\n");
  ALT_OS_STOP();
   52258:	0001883a 	nop
   5225c:	e0bffe17 	ldw	r2,-8(fp)
   52260:	e0bfff15 	stw	r2,-4(fp)
/*
 * Routine called on exit.
 */
static ALT_INLINE ALT_ALWAYS_INLINE void alt_sim_halt(int exit_code)
{
  register int r2 asm ("r2") = exit_code;
   52264:	e0bfff17 	ldw	r2,-4(fp)
  __asm__ volatile ("\n0:\n\taddi %0,%0, -1\n\tbgt %0,zero,0b" : : "r" (ALT_CPU_FREQ/100) ); /* Delay for >30ms */

  __asm__ volatile ("break 2" : : "r"(r2), "r"(r3) ALT_GMON_DATA );

#else /* !DEBUG_STUB */
  if (r2) {
   52268:	10000226 	beq	r2,zero,52274 <_exit+0x2c>
    ALT_SIM_FAIL();
   5226c:	002af070 	cmpltui	zero,zero,43969
  } else {
    ALT_SIM_PASS();
  }
#endif /* DEBUG_STUB */
}
   52270:	00000106 	br	52278 <_exit+0x30>
    ALT_SIM_PASS();
   52274:	002af0b0 	cmpltui	zero,zero,43970
}
   52278:	0001883a 	nop
  ALT_SIM_HALT(exit_code);

  /* spin forever, since there's no where to go back to */

  ALT_LOG_PRINT_BOOT("[alt_exit.c] Spinning forever.\r\n");
  while (1);
   5227c:	0001883a 	nop
   52280:	003ffe06 	br	5227c <_exit+0x34>

00052284 <alt_get_errno>:
{
   52284:	defffe04 	addi	sp,sp,-8
   52288:	dfc00115 	stw	ra,4(sp)
   5228c:	df000015 	stw	fp,0(sp)
   52290:	d839883a 	mov	fp,sp
  return ((alt_errno) ? alt_errno() : &errno);
   52294:	d0a00917 	ldw	r2,-32732(gp)
   52298:	10000326 	beq	r2,zero,522a8 <alt_get_errno+0x24>
   5229c:	d0a00917 	ldw	r2,-32732(gp)
   522a0:	103ee83a 	callr	r2
   522a4:	00000106 	br	522ac <alt_get_errno+0x28>
   522a8:	d0a71404 	addi	r2,gp,-25520
}
   522ac:	e037883a 	mov	sp,fp
   522b0:	dfc00117 	ldw	ra,4(sp)
   522b4:	df000017 	ldw	fp,0(sp)
   522b8:	dec00204 	addi	sp,sp,8
   522bc:	f800283a 	ret

000522c0 <fstat>:
}

#else /* !ALT_USE_DIRECT_DRIVERS */

int ALT_FSTAT (int file, struct stat *st)
{
   522c0:	defffb04 	addi	sp,sp,-20
   522c4:	dfc00415 	stw	ra,16(sp)
   522c8:	df000315 	stw	fp,12(sp)
   522cc:	df000304 	addi	fp,sp,12
   522d0:	e13ffe15 	stw	r4,-8(fp)
   522d4:	e17ffd15 	stw	r5,-12(fp)
   * A common error case is that when the file descriptor was created, the call
   * to open() failed resulting in a negative file descriptor. This is trapped
   * below so that we don't try and process an invalid file descriptor.
   */

  fd = (file < 0) ? NULL : &alt_fd_list[file];
   522d8:	e0bffe17 	ldw	r2,-8(fp)
   522dc:	10000916 	blt	r2,zero,52304 <fstat+0x44>
   522e0:	e0fffe17 	ldw	r3,-8(fp)
   522e4:	1805883a 	mov	r2,r3
   522e8:	1085883a 	add	r2,r2,r2
   522ec:	10c5883a 	add	r2,r2,r3
   522f0:	100490ba 	slli	r2,r2,2
   522f4:	00c00174 	movhi	r3,5
   522f8:	18d8a804 	addi	r3,r3,25248
   522fc:	10c5883a 	add	r2,r2,r3
   52300:	00000106 	br	52308 <fstat+0x48>
   52304:	0005883a 	mov	r2,zero
   52308:	e0bfff15 	stw	r2,-4(fp)
  
  if (fd)
   5230c:	e0bfff17 	ldw	r2,-4(fp)
   52310:	10001026 	beq	r2,zero,52354 <fstat+0x94>
  {
    /* Call the drivers fstat() function to fill out the "st" structure. */

    if (fd->dev->fstat)
   52314:	e0bfff17 	ldw	r2,-4(fp)
   52318:	10800017 	ldw	r2,0(r2)
   5231c:	10800817 	ldw	r2,32(r2)
   52320:	10000726 	beq	r2,zero,52340 <fstat+0x80>
    {
      return fd->dev->fstat(fd, st);
   52324:	e0bfff17 	ldw	r2,-4(fp)
   52328:	10800017 	ldw	r2,0(r2)
   5232c:	10800817 	ldw	r2,32(r2)
   52330:	e17ffd17 	ldw	r5,-12(fp)
   52334:	e13fff17 	ldw	r4,-4(fp)
   52338:	103ee83a 	callr	r2
   5233c:	00000a06 	br	52368 <fstat+0xa8>
     * device.
     */
 
    else
    {
      st->st_mode = _IFCHR;
   52340:	e0bffd17 	ldw	r2,-12(fp)
   52344:	00c80004 	movi	r3,8192
   52348:	10c00115 	stw	r3,4(r2)
      return 0;
   5234c:	0005883a 	mov	r2,zero
   52350:	00000506 	br	52368 <fstat+0xa8>
    }
  }
  else
  {
    ALT_ERRNO = EBADFD;
   52354:	00522840 	call	52284 <alt_get_errno>
   52358:	1007883a 	mov	r3,r2
   5235c:	00801444 	movi	r2,81
   52360:	18800015 	stw	r2,0(r3)
    return -1;
   52364:	00bfffc4 	movi	r2,-1
  }
}
   52368:	e037883a 	mov	sp,fp
   5236c:	dfc00117 	ldw	ra,4(sp)
   52370:	df000017 	ldw	fp,0(sp)
   52374:	dec00204 	addi	sp,sp,8
   52378:	f800283a 	ret

0005237c <alt_getchar>:
 * Uses the ALT_DRIVER_READ() macro to call directly to driver if available.
 * Otherwise, uses newlib provided getchar() routine.
 */
int 
alt_getchar(void)
{
   5237c:	defffe04 	addi	sp,sp,-8
   52380:	dfc00115 	stw	ra,4(sp)
   52384:	df000015 	stw	fp,0(sp)
   52388:	d839883a 	mov	fp,sp
    if (ALT_DRIVER_READ(ALT_STDIN_DEV, &c, 1, alt_fd_list[STDIN_FILENO].fd_flags) <= 0) {
        return -1;
    }
    return c;
#else
    return getchar();
   5238c:	0054b000 	call	54b00 <getchar>
#endif
#endif
}
   52390:	e037883a 	mov	sp,fp
   52394:	dfc00117 	ldw	ra,4(sp)
   52398:	df000017 	ldw	fp,0(sp)
   5239c:	dec00204 	addi	sp,sp,8
   523a0:	f800283a 	ret

000523a4 <getpid>:
 *
 * ALT_GETPID is mapped onto the getpid() system call in alt_syscall.h
 */
 
int ALT_GETPID (void)
{
   523a4:	deffff04 	addi	sp,sp,-4
   523a8:	df000015 	stw	fp,0(sp)
   523ac:	d839883a 	mov	fp,sp
  return 0;
   523b0:	0005883a 	mov	r2,zero
}
   523b4:	e037883a 	mov	sp,fp
   523b8:	df000017 	ldw	fp,0(sp)
   523bc:	dec00104 	addi	sp,sp,4
   523c0:	f800283a 	ret

000523c4 <alt_irq_register>:
 */
 
int alt_irq_register (alt_u32 id, 
                      void* context, 
                      alt_isr_func handler)
{
   523c4:	defff004 	addi	sp,sp,-64
   523c8:	df000f15 	stw	fp,60(sp)
   523cc:	df000f04 	addi	fp,sp,60
   523d0:	e13ff315 	stw	r4,-52(fp)
   523d4:	e17ff215 	stw	r5,-56(fp)
   523d8:	e1bff115 	stw	r6,-60(fp)
  int rc = -EINVAL;  
   523dc:	00bffa84 	movi	r2,-22
   523e0:	e0bfff15 	stw	r2,-4(fp)
  alt_irq_context status;

  if (id < ALT_NIRQ)
   523e4:	e0bff317 	ldw	r2,-52(fp)
   523e8:	10800828 	cmpgeui	r2,r2,32
   523ec:	1000501e 	bne	r2,zero,52530 <alt_irq_register+0x16c>
  NIOS2_READ_STATUS (context);
   523f0:	0005303a 	rdctl	r2,status
   523f4:	e0bffd15 	stw	r2,-12(fp)
  NIOS2_WRITE_STATUS (context & ~NIOS2_STATUS_PIE_MSK);
   523f8:	e0fffd17 	ldw	r3,-12(fp)
   523fc:	00bfff84 	movi	r2,-2
   52400:	1884703a 	and	r2,r3,r2
   52404:	1001703a 	wrctl	status,r2
  return context;
   52408:	e0bffd17 	ldw	r2,-12(fp)
     * interrupts are disabled while the handler tables are updated to ensure
     * that an interrupt doesn't occur while the tables are in an inconsistant
     * state.
     */

    status = alt_irq_disable_all ();
   5240c:	e0bffe15 	stw	r2,-8(fp)

    alt_irq[id].handler = handler;
   52410:	e0bff317 	ldw	r2,-52(fp)
   52414:	100890fa 	slli	r4,r2,3
   52418:	e0fff117 	ldw	r3,-60(fp)
   5241c:	008001b4 	movhi	r2,6
   52420:	2085883a 	add	r2,r4,r2
   52424:	10e45315 	stw	r3,-28340(r2)
    alt_irq[id].context = context;
   52428:	e0bff317 	ldw	r2,-52(fp)
   5242c:	100890fa 	slli	r4,r2,3
   52430:	e0fff217 	ldw	r3,-56(fp)
   52434:	008001b4 	movhi	r2,6
   52438:	2085883a 	add	r2,r4,r2
   5243c:	10e45415 	stw	r3,-28336(r2)

    rc = (handler) ? alt_irq_enable (id): alt_irq_disable (id);
   52440:	e0bff117 	ldw	r2,-60(fp)
   52444:	10001a26 	beq	r2,zero,524b0 <alt_irq_register+0xec>
   52448:	e0bff317 	ldw	r2,-52(fp)
   5244c:	e0bffc15 	stw	r2,-16(fp)
  NIOS2_READ_STATUS (context);
   52450:	0005303a 	rdctl	r2,status
   52454:	e0bffb15 	stw	r2,-20(fp)
  NIOS2_WRITE_STATUS (context & ~NIOS2_STATUS_PIE_MSK);
   52458:	e0fffb17 	ldw	r3,-20(fp)
   5245c:	00bfff84 	movi	r2,-2
   52460:	1884703a 	and	r2,r3,r2
   52464:	1001703a 	wrctl	status,r2
  return context;
   52468:	e0bffb17 	ldw	r2,-20(fp)
static ALT_INLINE int ALT_ALWAYS_INLINE alt_irq_enable (alt_u32 id)
{
  alt_irq_context  status;
  extern volatile alt_u32 alt_irq_active;

  status = alt_irq_disable_all ();
   5246c:	e0bffa15 	stw	r2,-24(fp)

  alt_irq_active |= (1 << id);
   52470:	00c00044 	movi	r3,1
   52474:	e0bffc17 	ldw	r2,-16(fp)
   52478:	1884983a 	sll	r2,r3,r2
   5247c:	1007883a 	mov	r3,r2
   52480:	d0a71617 	ldw	r2,-25512(gp)
   52484:	1884b03a 	or	r2,r3,r2
   52488:	d0a71615 	stw	r2,-25512(gp)
  NIOS2_WRITE_IENABLE (alt_irq_active);
   5248c:	d0a71617 	ldw	r2,-25512(gp)
   52490:	100170fa 	wrctl	ienable,r2
   52494:	e0bffa17 	ldw	r2,-24(fp)
   52498:	e0bff915 	stw	r2,-28(fp)
  NIOS2_WRITE_STATUS (context);
   5249c:	e0bff917 	ldw	r2,-28(fp)
   524a0:	1001703a 	wrctl	status,r2
}
   524a4:	0001883a 	nop

  alt_irq_enable_all(status);

  return 0;
   524a8:	0005883a 	mov	r2,zero
   524ac:	00001a06 	br	52518 <alt_irq_register+0x154>
   524b0:	e0bff317 	ldw	r2,-52(fp)
   524b4:	e0bff815 	stw	r2,-32(fp)
  NIOS2_READ_STATUS (context);
   524b8:	0005303a 	rdctl	r2,status
   524bc:	e0bff715 	stw	r2,-36(fp)
  NIOS2_WRITE_STATUS (context & ~NIOS2_STATUS_PIE_MSK);
   524c0:	e0fff717 	ldw	r3,-36(fp)
   524c4:	00bfff84 	movi	r2,-2
   524c8:	1884703a 	and	r2,r3,r2
   524cc:	1001703a 	wrctl	status,r2
  return context;
   524d0:	e0bff717 	ldw	r2,-36(fp)
  status = alt_irq_disable_all ();
   524d4:	e0bff615 	stw	r2,-40(fp)
  alt_irq_active &= ~(1 << id);
   524d8:	00c00044 	movi	r3,1
   524dc:	e0bff817 	ldw	r2,-32(fp)
   524e0:	1884983a 	sll	r2,r3,r2
   524e4:	0084303a 	nor	r2,zero,r2
   524e8:	1007883a 	mov	r3,r2
   524ec:	d0a71617 	ldw	r2,-25512(gp)
   524f0:	1884703a 	and	r2,r3,r2
   524f4:	d0a71615 	stw	r2,-25512(gp)
  NIOS2_WRITE_IENABLE (alt_irq_active);
   524f8:	d0a71617 	ldw	r2,-25512(gp)
   524fc:	100170fa 	wrctl	ienable,r2
   52500:	e0bff617 	ldw	r2,-40(fp)
   52504:	e0bff515 	stw	r2,-44(fp)
  NIOS2_WRITE_STATUS (context);
   52508:	e0bff517 	ldw	r2,-44(fp)
   5250c:	1001703a 	wrctl	status,r2
}
   52510:	0001883a 	nop
  return 0;
   52514:	0005883a 	mov	r2,zero
   52518:	e0bfff15 	stw	r2,-4(fp)
   5251c:	e0bffe17 	ldw	r2,-8(fp)
   52520:	e0bff415 	stw	r2,-48(fp)
  NIOS2_WRITE_STATUS (context);
   52524:	e0bff417 	ldw	r2,-48(fp)
   52528:	1001703a 	wrctl	status,r2
}
   5252c:	0001883a 	nop

    alt_irq_enable_all(status);
  }
  return rc; 
   52530:	e0bfff17 	ldw	r2,-4(fp)
}
   52534:	e037883a 	mov	sp,fp
   52538:	df000017 	ldw	fp,0(sp)
   5253c:	dec00104 	addi	sp,sp,4
   52540:	f800283a 	ret

00052544 <alt_get_errno>:
{
   52544:	defffe04 	addi	sp,sp,-8
   52548:	dfc00115 	stw	ra,4(sp)
   5254c:	df000015 	stw	fp,0(sp)
   52550:	d839883a 	mov	fp,sp
  return ((alt_errno) ? alt_errno() : &errno);
   52554:	d0a00917 	ldw	r2,-32732(gp)
   52558:	10000326 	beq	r2,zero,52568 <alt_get_errno+0x24>
   5255c:	d0a00917 	ldw	r2,-32732(gp)
   52560:	103ee83a 	callr	r2
   52564:	00000106 	br	5256c <alt_get_errno+0x28>
   52568:	d0a71404 	addi	r2,gp,-25520
}
   5256c:	e037883a 	mov	sp,fp
   52570:	dfc00117 	ldw	ra,4(sp)
   52574:	df000017 	ldw	fp,0(sp)
   52578:	dec00204 	addi	sp,sp,8
   5257c:	f800283a 	ret

00052580 <isatty>:
 *
 * ALT_ISATTY is mapped onto the isatty() system call in alt_syscall.h
 */
 
int ALT_ISATTY (int file)
{
   52580:	deffea04 	addi	sp,sp,-88
   52584:	dfc01515 	stw	ra,84(sp)
   52588:	df001415 	stw	fp,80(sp)
   5258c:	df001404 	addi	fp,sp,80
   52590:	e13fec15 	stw	r4,-80(fp)
   * A common error case is that when the file descriptor was created, the call
   * to open() failed resulting in a negative file descriptor. This is trapped
   * below so that we don't try and process an invalid file descriptor.
   */

  fd = (file < 0) ? NULL : &alt_fd_list[file];
   52594:	e0bfec17 	ldw	r2,-80(fp)
   52598:	10000916 	blt	r2,zero,525c0 <isatty+0x40>
   5259c:	e0ffec17 	ldw	r3,-80(fp)
   525a0:	1805883a 	mov	r2,r3
   525a4:	1085883a 	add	r2,r2,r2
   525a8:	10c5883a 	add	r2,r2,r3
   525ac:	100490ba 	slli	r2,r2,2
   525b0:	00c00174 	movhi	r3,5
   525b4:	18d8a804 	addi	r3,r3,25248
   525b8:	10c5883a 	add	r2,r2,r3
   525bc:	00000106 	br	525c4 <isatty+0x44>
   525c0:	0005883a 	mov	r2,zero
   525c4:	e0bfff15 	stw	r2,-4(fp)
  
  if (fd)
   525c8:	e0bfff17 	ldw	r2,-4(fp)
   525cc:	10000e26 	beq	r2,zero,52608 <isatty+0x88>
    /*
     * If a device driver does not provide an fstat() function, then it is 
     * treated as a terminal device by default.
     */

    if (!fd->dev->fstat)
   525d0:	e0bfff17 	ldw	r2,-4(fp)
   525d4:	10800017 	ldw	r2,0(r2)
   525d8:	10800817 	ldw	r2,32(r2)
   525dc:	1000021e 	bne	r2,zero,525e8 <isatty+0x68>
    {
      return 1;
   525e0:	00800044 	movi	r2,1
   525e4:	00000d06 	br	5261c <isatty+0x9c>
     * this is called so that the device can identify itself.
     */ 

    else
    {
      fstat (file, &stat);
   525e8:	e0bfed04 	addi	r2,fp,-76
   525ec:	100b883a 	mov	r5,r2
   525f0:	e13fec17 	ldw	r4,-80(fp)
   525f4:	00522c00 	call	522c0 <fstat>
      return (stat.st_mode == _IFCHR) ? 1 : 0;
   525f8:	e0bfee17 	ldw	r2,-72(fp)
   525fc:	10880020 	cmpeqi	r2,r2,8192
   52600:	10803fcc 	andi	r2,r2,255
   52604:	00000506 	br	5261c <isatty+0x9c>
    }
  }
  else
  {
    ALT_ERRNO = EBADFD;
   52608:	00525440 	call	52544 <alt_get_errno>
   5260c:	1007883a 	mov	r3,r2
   52610:	00801444 	movi	r2,81
   52614:	18800015 	stw	r2,0(r3)
    return 0;
   52618:	0005883a 	mov	r2,zero
  }
}
   5261c:	e037883a 	mov	sp,fp
   52620:	dfc00117 	ldw	ra,4(sp)
   52624:	df000017 	ldw	fp,0(sp)
   52628:	dec00204 	addi	sp,sp,8
   5262c:	f800283a 	ret

00052630 <alt_get_errno>:
{
   52630:	defffe04 	addi	sp,sp,-8
   52634:	dfc00115 	stw	ra,4(sp)
   52638:	df000015 	stw	fp,0(sp)
   5263c:	d839883a 	mov	fp,sp
  return ((alt_errno) ? alt_errno() : &errno);
   52640:	d0a00917 	ldw	r2,-32732(gp)
   52644:	10000326 	beq	r2,zero,52654 <alt_get_errno+0x24>
   52648:	d0a00917 	ldw	r2,-32732(gp)
   5264c:	103ee83a 	callr	r2
   52650:	00000106 	br	52658 <alt_get_errno+0x28>
   52654:	d0a71404 	addi	r2,gp,-25520
}
   52658:	e037883a 	mov	sp,fp
   5265c:	dfc00117 	ldw	ra,4(sp)
   52660:	df000017 	ldw	fp,0(sp)
   52664:	dec00204 	addi	sp,sp,8
   52668:	f800283a 	ret

0005266c <kill>:
 *
 * ALT_KILL is mapped onto the kill() system call in alt_syscall.h
 */

int ALT_KILL (int pid, int sig)
{
   5266c:	defffb04 	addi	sp,sp,-20
   52670:	dfc00415 	stw	ra,16(sp)
   52674:	df000315 	stw	fp,12(sp)
   52678:	df000304 	addi	fp,sp,12
   5267c:	e13ffe15 	stw	r4,-8(fp)
   52680:	e17ffd15 	stw	r5,-12(fp)
  int status = 0;
   52684:	e03fff15 	stw	zero,-4(fp)

  if (pid <= 0)
   52688:	e0bffe17 	ldw	r2,-8(fp)
   5268c:	00801d16 	blt	zero,r2,52704 <kill+0x98>
  {
    switch (sig)
   52690:	e0bffd17 	ldw	r2,-12(fp)
   52694:	10002026 	beq	r2,zero,52718 <kill+0xac>
   52698:	e0bffd17 	ldw	r2,-12(fp)
   5269c:	10001616 	blt	r2,zero,526f8 <kill+0x8c>
   526a0:	e0bffd17 	ldw	r2,-12(fp)
   526a4:	10800808 	cmpgei	r2,r2,32
   526a8:	1000131e 	bne	r2,zero,526f8 <kill+0x8c>
   526ac:	e0bffd17 	ldw	r2,-12(fp)
   526b0:	108000d0 	cmplti	r2,r2,3
   526b4:	1000101e 	bne	r2,zero,526f8 <kill+0x8c>
   526b8:	e0bffd17 	ldw	r2,-12(fp)
   526bc:	00c00044 	movi	r3,1
   526c0:	1886983a 	sll	r3,r3,r2
   526c4:	00b3e074 	movhi	r2,53121
   526c8:	10bfde04 	addi	r2,r2,-136
   526cc:	1884703a 	and	r2,r3,r2
   526d0:	1004c03a 	cmpne	r2,r2,zero
   526d4:	10803fcc 	andi	r2,r2,255
   526d8:	1000051e 	bne	r2,zero,526f0 <kill+0x84>
   526dc:	1880046c 	andhi	r2,r3,17
   526e0:	1004c03a 	cmpne	r2,r2,zero
   526e4:	10803fcc 	andi	r2,r2,255
   526e8:	10000d1e 	bne	r2,zero,52720 <kill+0xb4>
   526ec:	00000206 	br	526f8 <kill+0x8c>
       * The Posix standard defines the default behaviour for all these signals 
       * as being eqivalent to a call to _exit(). No mechanism is provided to 
       * change this behaviour.
       */

      _exit(0);
   526f0:	0009883a 	mov	r4,zero
   526f4:	00522480 	call	52248 <_exit>
      break;
    default:

      /* Tried to send an unsupported signal */

      status = EINVAL;
   526f8:	00800584 	movi	r2,22
   526fc:	e0bfff15 	stw	r2,-4(fp)
   52700:	00000806 	br	52724 <kill+0xb8>
    }
  }

  else if (pid > 0)
   52704:	e0bffe17 	ldw	r2,-8(fp)
   52708:	0080060e 	bge	zero,r2,52724 <kill+0xb8>
  {
    /* Attempted to signal a non-existant process */

    status = ESRCH;
   5270c:	008000c4 	movi	r2,3
   52710:	e0bfff15 	stw	r2,-4(fp)
   52714:	00000306 	br	52724 <kill+0xb8>
      break;
   52718:	0001883a 	nop
   5271c:	00000106 	br	52724 <kill+0xb8>
      break;
   52720:	0001883a 	nop
  }

  if (status)
   52724:	e0bfff17 	ldw	r2,-4(fp)
   52728:	10000626 	beq	r2,zero,52744 <kill+0xd8>
  {
    ALT_ERRNO = status;
   5272c:	00526300 	call	52630 <alt_get_errno>
   52730:	1007883a 	mov	r3,r2
   52734:	e0bfff17 	ldw	r2,-4(fp)
   52738:	18800015 	stw	r2,0(r3)
    return -1;
   5273c:	00bfffc4 	movi	r2,-1
   52740:	00000106 	br	52748 <kill+0xdc>
  }

  return 0;
   52744:	0005883a 	mov	r2,zero
}
   52748:	e037883a 	mov	sp,fp
   5274c:	dfc00117 	ldw	ra,4(sp)
   52750:	df000017 	ldw	fp,0(sp)
   52754:	dec00204 	addi	sp,sp,8
   52758:	f800283a 	ret

0005275c <alt_load_section>:
 */

static void ALT_INLINE alt_load_section (alt_u32* from, 
                                         alt_u32* to, 
                                         alt_u32* end)
{
   5275c:	defffc04 	addi	sp,sp,-16
   52760:	df000315 	stw	fp,12(sp)
   52764:	df000304 	addi	fp,sp,12
   52768:	e13fff15 	stw	r4,-4(fp)
   5276c:	e17ffe15 	stw	r5,-8(fp)
   52770:	e1bffd15 	stw	r6,-12(fp)
  if (to != from)
   52774:	e0fffe17 	ldw	r3,-8(fp)
   52778:	e0bfff17 	ldw	r2,-4(fp)
   5277c:	18800c26 	beq	r3,r2,527b0 <alt_load_section+0x54>
  {
    while( to != end )
   52780:	00000806 	br	527a4 <alt_load_section+0x48>
    {
      *to++ = *from++;
   52784:	e0ffff17 	ldw	r3,-4(fp)
   52788:	18800104 	addi	r2,r3,4
   5278c:	e0bfff15 	stw	r2,-4(fp)
   52790:	e0bffe17 	ldw	r2,-8(fp)
   52794:	11000104 	addi	r4,r2,4
   52798:	e13ffe15 	stw	r4,-8(fp)
   5279c:	18c00017 	ldw	r3,0(r3)
   527a0:	10c00015 	stw	r3,0(r2)
    while( to != end )
   527a4:	e0fffe17 	ldw	r3,-8(fp)
   527a8:	e0bffd17 	ldw	r2,-12(fp)
   527ac:	18bff51e 	bne	r3,r2,52784 <alt_load_section+0x28>
    }
  }
}
   527b0:	0001883a 	nop
   527b4:	e037883a 	mov	sp,fp
   527b8:	df000017 	ldw	fp,0(sp)
   527bc:	dec00104 	addi	sp,sp,4
   527c0:	f800283a 	ret

000527c4 <alt_load>:
 * there is no bootloader, so this application is responsible for loading to
 * RAM any sections that are required.
 */  

void alt_load (void)
{
   527c4:	defffe04 	addi	sp,sp,-8
   527c8:	dfc00115 	stw	ra,4(sp)
   527cc:	df000015 	stw	fp,0(sp)
   527d0:	d839883a 	mov	fp,sp
  /* 
   * Copy the .rwdata section. 
   */

  alt_load_section (&__flash_rwdata_start, 
   527d4:	01800174 	movhi	r6,5
   527d8:	319d3904 	addi	r6,r6,29924
   527dc:	01400174 	movhi	r5,5
   527e0:	29563804 	addi	r5,r5,22752
   527e4:	01000174 	movhi	r4,5
   527e8:	211d3904 	addi	r4,r4,29924
   527ec:	005275c0 	call	5275c <alt_load_section>

  /*
   * Copy the exception handler.
   */

  alt_load_section (&__flash_exceptions_start, 
   527f0:	01800134 	movhi	r6,4
   527f4:	31808a04 	addi	r6,r6,552
   527f8:	01400134 	movhi	r5,4
   527fc:	29400804 	addi	r5,r5,32
   52800:	01000134 	movhi	r4,4
   52804:	21000804 	addi	r4,r4,32
   52808:	005275c0 	call	5275c <alt_load_section>

  /*
   * Copy the .rodata section.
   */

  alt_load_section (&__flash_rodata_start, 
   5280c:	01800174 	movhi	r6,5
   52810:	31963804 	addi	r6,r6,22752
   52814:	01400174 	movhi	r5,5
   52818:	29544204 	addi	r5,r5,20744
   5281c:	01000174 	movhi	r4,5
   52820:	21144204 	addi	r4,r4,20744
   52824:	005275c0 	call	5275c <alt_load_section>
  
  /*
   * Now ensure that the caches are in synch.
   */
  
  alt_dcache_flush_all();
   52828:	0053f940 	call	53f94 <alt_dcache_flush_all>
  alt_icache_flush_all();
   5282c:	00541f00 	call	541f0 <alt_icache_flush_all>
}
   52830:	0001883a 	nop
   52834:	e037883a 	mov	sp,fp
   52838:	dfc00117 	ldw	ra,4(sp)
   5283c:	df000017 	ldw	fp,0(sp)
   52840:	dec00204 	addi	sp,sp,8
   52844:	f800283a 	ret

00052848 <alt_get_errno>:
{
   52848:	defffe04 	addi	sp,sp,-8
   5284c:	dfc00115 	stw	ra,4(sp)
   52850:	df000015 	stw	fp,0(sp)
   52854:	d839883a 	mov	fp,sp
  return ((alt_errno) ? alt_errno() : &errno);
   52858:	d0a00917 	ldw	r2,-32732(gp)
   5285c:	10000326 	beq	r2,zero,5286c <alt_get_errno+0x24>
   52860:	d0a00917 	ldw	r2,-32732(gp)
   52864:	103ee83a 	callr	r2
   52868:	00000106 	br	52870 <alt_get_errno+0x28>
   5286c:	d0a71404 	addi	r2,gp,-25520
}
   52870:	e037883a 	mov	sp,fp
   52874:	dfc00117 	ldw	ra,4(sp)
   52878:	df000017 	ldw	fp,0(sp)
   5287c:	dec00204 	addi	sp,sp,8
   52880:	f800283a 	ret

00052884 <lseek>:
 * ALT_LSEEK is mapped onto the lseek() system call in alt_syscall.h
 *
 */

off_t ALT_LSEEK (int file, off_t ptr, int dir)
{
   52884:	defff904 	addi	sp,sp,-28
   52888:	dfc00615 	stw	ra,24(sp)
   5288c:	df000515 	stw	fp,20(sp)
   52890:	df000504 	addi	fp,sp,20
   52894:	e13ffd15 	stw	r4,-12(fp)
   52898:	e17ffc15 	stw	r5,-16(fp)
   5289c:	e1bffb15 	stw	r6,-20(fp)
  alt_fd* fd;
  off_t   rc = 0; 
   528a0:	e03fff15 	stw	zero,-4(fp)
   * A common error case is that when the file descriptor was created, the call
   * to open() failed resulting in a negative file descriptor. This is trapped
   * below so that we don't try and process an invalid file descriptor.
   */

  fd = (file < 0) ? NULL : &alt_fd_list[file];
   528a4:	e0bffd17 	ldw	r2,-12(fp)
   528a8:	10000916 	blt	r2,zero,528d0 <lseek+0x4c>
   528ac:	e0fffd17 	ldw	r3,-12(fp)
   528b0:	1805883a 	mov	r2,r3
   528b4:	1085883a 	add	r2,r2,r2
   528b8:	10c5883a 	add	r2,r2,r3
   528bc:	100490ba 	slli	r2,r2,2
   528c0:	00c00174 	movhi	r3,5
   528c4:	18d8a804 	addi	r3,r3,25248
   528c8:	10c5883a 	add	r2,r2,r3
   528cc:	00000106 	br	528d4 <lseek+0x50>
   528d0:	0005883a 	mov	r2,zero
   528d4:	e0bffe15 	stw	r2,-8(fp)
  
  if (fd) 
   528d8:	e0bffe17 	ldw	r2,-8(fp)
   528dc:	10001026 	beq	r2,zero,52920 <lseek+0x9c>
    /*
     * If the device driver provides an implementation of the lseek() function,
     * then call that to process the request.
     */
 
    if (fd->dev->lseek)
   528e0:	e0bffe17 	ldw	r2,-8(fp)
   528e4:	10800017 	ldw	r2,0(r2)
   528e8:	10800717 	ldw	r2,28(r2)
   528ec:	10000926 	beq	r2,zero,52914 <lseek+0x90>
    {
      rc = fd->dev->lseek(fd, ptr, dir);
   528f0:	e0bffe17 	ldw	r2,-8(fp)
   528f4:	10800017 	ldw	r2,0(r2)
   528f8:	10800717 	ldw	r2,28(r2)
   528fc:	e1bffb17 	ldw	r6,-20(fp)
   52900:	e17ffc17 	ldw	r5,-16(fp)
   52904:	e13ffe17 	ldw	r4,-8(fp)
   52908:	103ee83a 	callr	r2
   5290c:	e0bfff15 	stw	r2,-4(fp)
   52910:	00000506 	br	52928 <lseek+0xa4>
     * Otherwise return an error.
     */

    else
    {
      rc = -ENOTSUP;
   52914:	00bfde84 	movi	r2,-134
   52918:	e0bfff15 	stw	r2,-4(fp)
   5291c:	00000206 	br	52928 <lseek+0xa4>
    }
  }
  else  
  {
    rc = -EBADFD;
   52920:	00bfebc4 	movi	r2,-81
   52924:	e0bfff15 	stw	r2,-4(fp)
  }

  if (rc < 0)
   52928:	e0bfff17 	ldw	r2,-4(fp)
   5292c:	1000070e 	bge	r2,zero,5294c <lseek+0xc8>
  {
    ALT_ERRNO = -rc;
   52930:	00528480 	call	52848 <alt_get_errno>
   52934:	1007883a 	mov	r3,r2
   52938:	e0bfff17 	ldw	r2,-4(fp)
   5293c:	0085c83a 	sub	r2,zero,r2
   52940:	18800015 	stw	r2,0(r3)
    rc = -1;
   52944:	00bfffc4 	movi	r2,-1
   52948:	e0bfff15 	stw	r2,-4(fp)
  }

  return rc;
   5294c:	e0bfff17 	ldw	r2,-4(fp)
}
   52950:	e037883a 	mov	sp,fp
   52954:	dfc00117 	ldw	ra,4(sp)
   52958:	df000017 	ldw	fp,0(sp)
   5295c:	dec00204 	addi	sp,sp,8
   52960:	f800283a 	ret

00052964 <alt_main>:
 * devices/filesystems/components in the system; and call the entry point for
 * the users application, i.e. main().
 */

void alt_main (void)
{
   52964:	defffd04 	addi	sp,sp,-12
   52968:	dfc00215 	stw	ra,8(sp)
   5296c:	df000115 	stw	fp,4(sp)
   52970:	df000104 	addi	fp,sp,4
#endif

  /* ALT LOG - please see HAL/sys/alt_log_printf.h for details */
  ALT_LOG_PRINT_BOOT("[alt_main.c] Entering alt_main, calling alt_irq_init.\r\n");
  /* Initialize the interrupt controller. */
  alt_irq_init (NULL);
   52974:	0009883a 	mov	r4,zero
   52978:	0052e440 	call	52e44 <alt_irq_init>

  /* Initialize the operating system */
  ALT_LOG_PRINT_BOOT("[alt_main.c] Done alt_irq_init, calling alt_os_init.\r\n");
  ALT_OS_INIT();
   5297c:	0001883a 	nop
  ALT_LOG_PRINT_BOOT("[alt_main.c] Done OS Init, calling alt_sem_create.\r\n");
  ALT_SEM_CREATE (&alt_fd_list_lock, 1);

  /* Initialize the device drivers/software components. */
  ALT_LOG_PRINT_BOOT("[alt_main.c] Calling alt_sys_init.\r\n");
  alt_sys_init();
   52980:	0052e800 	call	52e80 <alt_sys_init>
   * devices be present (not equal to /dev/null) and if direct drivers
   * aren't being used.
   */

    ALT_LOG_PRINT_BOOT("[alt_main.c] Redirecting IO.\r\n");
    alt_io_redirect(ALT_STDOUT, ALT_STDIN, ALT_STDERR);
   52984:	01800174 	movhi	r6,5
   52988:	31962a04 	addi	r6,r6,22696
   5298c:	01400174 	movhi	r5,5
   52990:	29562a04 	addi	r5,r5,22696
   52994:	01000174 	movhi	r4,5
   52998:	21162a04 	addi	r4,r4,22696
   5299c:	00542e40 	call	542e4 <alt_io_redirect>
  /* 
   * Call the C++ constructors 
   */

  ALT_LOG_PRINT_BOOT("[alt_main.c] Calling C++ constructors.\r\n");
  _do_ctors ();
   529a0:	00540980 	call	54098 <_do_ctors>
   * redefined as _exit()). This is in the interest of reducing code footprint,
   * in that the atexit() overhead is removed when it's not needed.
   */

  ALT_LOG_PRINT_BOOT("[alt_main.c] Calling atexit.\r\n");
  atexit (_do_dtors);
   529a4:	01000174 	movhi	r4,5
   529a8:	21103f04 	addi	r4,r4,16636
   529ac:	0054a000 	call	54a00 <atexit>
  ALT_LOG_PRINT_BOOT("[alt_main.c] Calling main.\r\n");

#ifdef ALT_NO_EXIT
  main (alt_argc, alt_argv, alt_envp);
#else
  result = main (alt_argc, alt_argv, alt_envp);
   529b0:	d0a71717 	ldw	r2,-25508(gp)
   529b4:	d0e71817 	ldw	r3,-25504(gp)
   529b8:	d1271917 	ldw	r4,-25500(gp)
   529bc:	200d883a 	mov	r6,r4
   529c0:	180b883a 	mov	r5,r3
   529c4:	1009883a 	mov	r4,r2
   529c8:	004079c0 	call	4079c <main>
   529cc:	e0bfff15 	stw	r2,-4(fp)
  close(STDOUT_FILENO);
   529d0:	01000044 	movi	r4,1
   529d4:	00521400 	call	52140 <close>
  exit (result);
   529d8:	e13fff17 	ldw	r4,-4(fp)
   529dc:	0054a140 	call	54a14 <exit>

000529e0 <__malloc_lock>:
 * configuration is single threaded, so there is nothing to do here. Note that 
 * this requires that malloc is never called by an interrupt service routine.
 */

void __malloc_lock ( struct _reent *_r )
{
   529e0:	defffe04 	addi	sp,sp,-8
   529e4:	df000115 	stw	fp,4(sp)
   529e8:	df000104 	addi	fp,sp,4
   529ec:	e13fff15 	stw	r4,-4(fp)
}
   529f0:	0001883a 	nop
   529f4:	e037883a 	mov	sp,fp
   529f8:	df000017 	ldw	fp,0(sp)
   529fc:	dec00104 	addi	sp,sp,4
   52a00:	f800283a 	ret

00052a04 <__malloc_unlock>:
/*
 *
 */

void __malloc_unlock ( struct _reent *_r )
{
   52a04:	defffe04 	addi	sp,sp,-8
   52a08:	df000115 	stw	fp,4(sp)
   52a0c:	df000104 	addi	fp,sp,4
   52a10:	e13fff15 	stw	r4,-4(fp)
}
   52a14:	0001883a 	nop
   52a18:	e037883a 	mov	sp,fp
   52a1c:	df000017 	ldw	fp,0(sp)
   52a20:	dec00104 	addi	sp,sp,4
   52a24:	f800283a 	ret

00052a28 <alt_putstr>:
 * Uses the ALT_DRIVER_WRITE() macro to call directly to driver if available.
 * Otherwise, uses newlib provided fputs() routine.
 */
int 
alt_putstr(const char* str)
{
   52a28:	defffd04 	addi	sp,sp,-12
   52a2c:	dfc00215 	stw	ra,8(sp)
   52a30:	df000115 	stw	fp,4(sp)
   52a34:	df000104 	addi	fp,sp,4
   52a38:	e13fff15 	stw	r4,-4(fp)
#else
#ifdef ALT_USE_DIRECT_DRIVERS
    ALT_DRIVER_WRITE_EXTERNS(ALT_STDOUT_DEV);
    return ALT_DRIVER_WRITE(ALT_STDOUT_DEV, str, strlen(str), 0);
#else
    return fputs(str, stdout);
   52a3c:	d0a00117 	ldw	r2,-32764(gp)
   52a40:	10800217 	ldw	r2,8(r2)
   52a44:	100b883a 	mov	r5,r2
   52a48:	e13fff17 	ldw	r4,-4(fp)
   52a4c:	0054ae00 	call	54ae0 <fputs>
#endif
#endif
}
   52a50:	e037883a 	mov	sp,fp
   52a54:	dfc00117 	ldw	ra,4(sp)
   52a58:	df000017 	ldw	fp,0(sp)
   52a5c:	dec00204 	addi	sp,sp,8
   52a60:	f800283a 	ret

00052a64 <alt_get_errno>:
{
   52a64:	defffe04 	addi	sp,sp,-8
   52a68:	dfc00115 	stw	ra,4(sp)
   52a6c:	df000015 	stw	fp,0(sp)
   52a70:	d839883a 	mov	fp,sp
  return ((alt_errno) ? alt_errno() : &errno);
   52a74:	d0a00917 	ldw	r2,-32732(gp)
   52a78:	10000326 	beq	r2,zero,52a88 <alt_get_errno+0x24>
   52a7c:	d0a00917 	ldw	r2,-32732(gp)
   52a80:	103ee83a 	callr	r2
   52a84:	00000106 	br	52a8c <alt_get_errno+0x28>
   52a88:	d0a71404 	addi	r2,gp,-25520
}
   52a8c:	e037883a 	mov	sp,fp
   52a90:	dfc00117 	ldw	ra,4(sp)
   52a94:	df000017 	ldw	fp,0(sp)
   52a98:	dec00204 	addi	sp,sp,8
   52a9c:	f800283a 	ret

00052aa0 <read>:
}

#else /* !ALT_USE_DIRECT_DRIVERS */

int ALT_READ (int file, void *ptr, size_t len)
{
   52aa0:	defff904 	addi	sp,sp,-28
   52aa4:	dfc00615 	stw	ra,24(sp)
   52aa8:	df000515 	stw	fp,20(sp)
   52aac:	df000504 	addi	fp,sp,20
   52ab0:	e13ffd15 	stw	r4,-12(fp)
   52ab4:	e17ffc15 	stw	r5,-16(fp)
   52ab8:	e1bffb15 	stw	r6,-20(fp)
   * A common error case is that when the file descriptor was created, the call
   * to open() failed resulting in a negative file descriptor. This is trapped
   * below so that we don't try and process an invalid file descriptor.
   */

  fd = (file < 0) ? NULL : &alt_fd_list[file];
   52abc:	e0bffd17 	ldw	r2,-12(fp)
   52ac0:	10000916 	blt	r2,zero,52ae8 <read+0x48>
   52ac4:	e0fffd17 	ldw	r3,-12(fp)
   52ac8:	1805883a 	mov	r2,r3
   52acc:	1085883a 	add	r2,r2,r2
   52ad0:	10c5883a 	add	r2,r2,r3
   52ad4:	100490ba 	slli	r2,r2,2
   52ad8:	00c00174 	movhi	r3,5
   52adc:	18d8a804 	addi	r3,r3,25248
   52ae0:	10c5883a 	add	r2,r2,r3
   52ae4:	00000106 	br	52aec <read+0x4c>
   52ae8:	0005883a 	mov	r2,zero
   52aec:	e0bfff15 	stw	r2,-4(fp)
  
  if (fd)
   52af0:	e0bfff17 	ldw	r2,-4(fp)
   52af4:	10002226 	beq	r2,zero,52b80 <read+0xe0>
     * If the file has not been opened with read access, or if the driver does
     * not provide an implementation of read(), generate an error. Otherwise
     * call the drivers read() function to process the request.
     */

    if (((fd->fd_flags & O_ACCMODE) != O_WRONLY) && 
   52af8:	e0bfff17 	ldw	r2,-4(fp)
   52afc:	10800217 	ldw	r2,8(r2)
   52b00:	108000cc 	andi	r2,r2,3
   52b04:	10800060 	cmpeqi	r2,r2,1
   52b08:	1000181e 	bne	r2,zero,52b6c <read+0xcc>
        (fd->dev->read))
   52b0c:	e0bfff17 	ldw	r2,-4(fp)
   52b10:	10800017 	ldw	r2,0(r2)
   52b14:	10800517 	ldw	r2,20(r2)
    if (((fd->fd_flags & O_ACCMODE) != O_WRONLY) && 
   52b18:	10001426 	beq	r2,zero,52b6c <read+0xcc>
      {
        if ((rval = fd->dev->read(fd, ptr, len)) < 0)
   52b1c:	e0bfff17 	ldw	r2,-4(fp)
   52b20:	10800017 	ldw	r2,0(r2)
   52b24:	10800517 	ldw	r2,20(r2)
   52b28:	e0fffb17 	ldw	r3,-20(fp)
   52b2c:	180d883a 	mov	r6,r3
   52b30:	e17ffc17 	ldw	r5,-16(fp)
   52b34:	e13fff17 	ldw	r4,-4(fp)
   52b38:	103ee83a 	callr	r2
   52b3c:	e0bffe15 	stw	r2,-8(fp)
   52b40:	e0bffe17 	ldw	r2,-8(fp)
   52b44:	1000070e 	bge	r2,zero,52b64 <read+0xc4>
        {
          ALT_ERRNO = -rval;
   52b48:	0052a640 	call	52a64 <alt_get_errno>
   52b4c:	1007883a 	mov	r3,r2
   52b50:	e0bffe17 	ldw	r2,-8(fp)
   52b54:	0085c83a 	sub	r2,zero,r2
   52b58:	18800015 	stw	r2,0(r3)
          return -1;
   52b5c:	00bfffc4 	movi	r2,-1
   52b60:	00000c06 	br	52b94 <read+0xf4>
        }
        return rval;
   52b64:	e0bffe17 	ldw	r2,-8(fp)
   52b68:	00000a06 	br	52b94 <read+0xf4>
      }
      else
      {
        ALT_ERRNO = EACCES;
   52b6c:	0052a640 	call	52a64 <alt_get_errno>
   52b70:	1007883a 	mov	r3,r2
   52b74:	00800344 	movi	r2,13
   52b78:	18800015 	stw	r2,0(r3)
   52b7c:	00000406 	br	52b90 <read+0xf0>
      }
    }
  else
  {
    ALT_ERRNO = EBADFD;
   52b80:	0052a640 	call	52a64 <alt_get_errno>
   52b84:	1007883a 	mov	r3,r2
   52b88:	00801444 	movi	r2,81
   52b8c:	18800015 	stw	r2,0(r3)
  }
  return -1;
   52b90:	00bfffc4 	movi	r2,-1
}
   52b94:	e037883a 	mov	sp,fp
   52b98:	dfc00117 	ldw	ra,4(sp)
   52b9c:	df000017 	ldw	fp,0(sp)
   52ba0:	dec00204 	addi	sp,sp,8
   52ba4:	f800283a 	ret

00052ba8 <alt_release_fd>:
 * File descriptors correcponding to standard in, standard out and standard 
 * error cannont be released backed to the pool. They are always reserved.
 */

void alt_release_fd (int fd)
{
   52ba8:	defffe04 	addi	sp,sp,-8
   52bac:	df000115 	stw	fp,4(sp)
   52bb0:	df000104 	addi	fp,sp,4
   52bb4:	e13fff15 	stw	r4,-4(fp)
  if (fd > 2)
   52bb8:	e0bfff17 	ldw	r2,-4(fp)
   52bbc:	108000d0 	cmplti	r2,r2,3
   52bc0:	1000101e 	bne	r2,zero,52c04 <alt_release_fd+0x5c>
  {
    alt_fd_list[fd].fd_flags = 0;
   52bc4:	e0ffff17 	ldw	r3,-4(fp)
   52bc8:	1805883a 	mov	r2,r3
   52bcc:	1085883a 	add	r2,r2,r2
   52bd0:	10c5883a 	add	r2,r2,r3
   52bd4:	100490ba 	slli	r2,r2,2
   52bd8:	00c00174 	movhi	r3,5
   52bdc:	10c7883a 	add	r3,r2,r3
   52be0:	1818aa15 	stw	zero,25256(r3)
    alt_fd_list[fd].dev      = 0;
   52be4:	e0ffff17 	ldw	r3,-4(fp)
   52be8:	1805883a 	mov	r2,r3
   52bec:	1085883a 	add	r2,r2,r2
   52bf0:	10c5883a 	add	r2,r2,r3
   52bf4:	100490ba 	slli	r2,r2,2
   52bf8:	00c00174 	movhi	r3,5
   52bfc:	10c7883a 	add	r3,r2,r3
   52c00:	1818a815 	stw	zero,25248(r3)
  }
}
   52c04:	0001883a 	nop
   52c08:	e037883a 	mov	sp,fp
   52c0c:	df000017 	ldw	fp,0(sp)
   52c10:	dec00104 	addi	sp,sp,4
   52c14:	f800283a 	ret

00052c18 <sbrk>:
#endif
 
caddr_t ALT_SBRK (int incr) __attribute__ ((no_instrument_function ));

caddr_t ALT_SBRK (int incr)
{ 
   52c18:	defff904 	addi	sp,sp,-28
   52c1c:	df000615 	stw	fp,24(sp)
   52c20:	df000604 	addi	fp,sp,24
   52c24:	e13ffa15 	stw	r4,-24(fp)
  NIOS2_READ_STATUS (context);
   52c28:	0005303a 	rdctl	r2,status
   52c2c:	e0bffd15 	stw	r2,-12(fp)
  NIOS2_WRITE_STATUS (context & ~NIOS2_STATUS_PIE_MSK);
   52c30:	e0fffd17 	ldw	r3,-12(fp)
   52c34:	00bfff84 	movi	r2,-2
   52c38:	1884703a 	and	r2,r3,r2
   52c3c:	1001703a 	wrctl	status,r2
  return context;
   52c40:	e0bffd17 	ldw	r2,-12(fp)
  alt_irq_context context;
  char *prev_heap_end; 

  context = alt_irq_disable_all();
   52c44:	e0bfff15 	stw	r2,-4(fp)

  /* Always return data aligned on a word boundary */
  heap_end = (char *)(((unsigned int)heap_end + 3) & ~3);
   52c48:	d0a00b17 	ldw	r2,-32724(gp)
   52c4c:	10c000c4 	addi	r3,r2,3
   52c50:	00bfff04 	movi	r2,-4
   52c54:	1884703a 	and	r2,r3,r2
   52c58:	d0a00b15 	stw	r2,-32724(gp)
  if (((heap_end + incr) - __alt_heap_start) > ALT_MAX_HEAP_BYTES) {
    alt_irq_enable_all(context);
    return (caddr_t)-1;
  }
#else
  if ((heap_end + incr) > __alt_heap_limit) {
   52c5c:	d0e00b17 	ldw	r3,-32724(gp)
   52c60:	e0bffa17 	ldw	r2,-24(fp)
   52c64:	1887883a 	add	r3,r3,r2
   52c68:	008001b4 	movhi	r2,6
   52c6c:	10927c04 	addi	r2,r2,18928
   52c70:	10c0072e 	bgeu	r2,r3,52c90 <sbrk+0x78>
   52c74:	e0bfff17 	ldw	r2,-4(fp)
   52c78:	e0bffc15 	stw	r2,-16(fp)
  NIOS2_WRITE_STATUS (context);
   52c7c:	e0bffc17 	ldw	r2,-16(fp)
   52c80:	1001703a 	wrctl	status,r2
}
   52c84:	0001883a 	nop
    alt_irq_enable_all(context);
    return (caddr_t)-1;
   52c88:	00bfffc4 	movi	r2,-1
   52c8c:	00000c06 	br	52cc0 <sbrk+0xa8>
  }
#endif

  prev_heap_end = heap_end; 
   52c90:	d0a00b17 	ldw	r2,-32724(gp)
   52c94:	e0bffe15 	stw	r2,-8(fp)
  heap_end += incr; 
   52c98:	d0e00b17 	ldw	r3,-32724(gp)
   52c9c:	e0bffa17 	ldw	r2,-24(fp)
   52ca0:	1885883a 	add	r2,r3,r2
   52ca4:	d0a00b15 	stw	r2,-32724(gp)
   52ca8:	e0bfff17 	ldw	r2,-4(fp)
   52cac:	e0bffb15 	stw	r2,-20(fp)
  NIOS2_WRITE_STATUS (context);
   52cb0:	e0bffb17 	ldw	r2,-20(fp)
   52cb4:	1001703a 	wrctl	status,r2
}
   52cb8:	0001883a 	nop

#endif

  alt_irq_enable_all(context);

  return (caddr_t) prev_heap_end; 
   52cbc:	e0bffe17 	ldw	r2,-8(fp)
} 
   52cc0:	e037883a 	mov	sp,fp
   52cc4:	df000017 	ldw	fp,0(sp)
   52cc8:	dec00104 	addi	sp,sp,4
   52ccc:	f800283a 	ret

00052cd0 <alt_get_errno>:
{
   52cd0:	defffe04 	addi	sp,sp,-8
   52cd4:	dfc00115 	stw	ra,4(sp)
   52cd8:	df000015 	stw	fp,0(sp)
   52cdc:	d839883a 	mov	fp,sp
  return ((alt_errno) ? alt_errno() : &errno);
   52ce0:	d0a00917 	ldw	r2,-32732(gp)
   52ce4:	10000326 	beq	r2,zero,52cf4 <alt_get_errno+0x24>
   52ce8:	d0a00917 	ldw	r2,-32732(gp)
   52cec:	103ee83a 	callr	r2
   52cf0:	00000106 	br	52cf8 <alt_get_errno+0x28>
   52cf4:	d0a71404 	addi	r2,gp,-25520
}
   52cf8:	e037883a 	mov	sp,fp
   52cfc:	dfc00117 	ldw	ra,4(sp)
   52d00:	df000017 	ldw	fp,0(sp)
   52d04:	dec00204 	addi	sp,sp,8
   52d08:	f800283a 	ret

00052d0c <write>:
}

#else /* !ALT_USE_DIRECT_DRIVERS */

int ALT_WRITE (int file, const void *ptr, size_t len)
{
   52d0c:	defff904 	addi	sp,sp,-28
   52d10:	dfc00615 	stw	ra,24(sp)
   52d14:	df000515 	stw	fp,20(sp)
   52d18:	df000504 	addi	fp,sp,20
   52d1c:	e13ffd15 	stw	r4,-12(fp)
   52d20:	e17ffc15 	stw	r5,-16(fp)
   52d24:	e1bffb15 	stw	r6,-20(fp)
   * A common error case is that when the file descriptor was created, the call
   * to open() failed resulting in a negative file descriptor. This is trapped
   * below so that we don't try and process an invalid file descriptor.
   */

  fd = (file < 0) ? NULL : &alt_fd_list[file];
   52d28:	e0bffd17 	ldw	r2,-12(fp)
   52d2c:	10000916 	blt	r2,zero,52d54 <write+0x48>
   52d30:	e0fffd17 	ldw	r3,-12(fp)
   52d34:	1805883a 	mov	r2,r3
   52d38:	1085883a 	add	r2,r2,r2
   52d3c:	10c5883a 	add	r2,r2,r3
   52d40:	100490ba 	slli	r2,r2,2
   52d44:	00c00174 	movhi	r3,5
   52d48:	18d8a804 	addi	r3,r3,25248
   52d4c:	10c5883a 	add	r2,r2,r3
   52d50:	00000106 	br	52d58 <write+0x4c>
   52d54:	0005883a 	mov	r2,zero
   52d58:	e0bfff15 	stw	r2,-4(fp)
  
  if (fd)
   52d5c:	e0bfff17 	ldw	r2,-4(fp)
   52d60:	10002126 	beq	r2,zero,52de8 <write+0xdc>
     * If the file has not been opened with write access, or if the driver does
     * not provide an implementation of write(), generate an error. Otherwise
     * call the drivers write() function to process the request.
     */

    if (((fd->fd_flags & O_ACCMODE) != O_RDONLY) && fd->dev->write)
   52d64:	e0bfff17 	ldw	r2,-4(fp)
   52d68:	10800217 	ldw	r2,8(r2)
   52d6c:	108000cc 	andi	r2,r2,3
   52d70:	10001826 	beq	r2,zero,52dd4 <write+0xc8>
   52d74:	e0bfff17 	ldw	r2,-4(fp)
   52d78:	10800017 	ldw	r2,0(r2)
   52d7c:	10800617 	ldw	r2,24(r2)
   52d80:	10001426 	beq	r2,zero,52dd4 <write+0xc8>
    {
      
      /* ALT_LOG - see altera_hal/HAL/inc/sys/alt_log_printf.h */
      ALT_LOG_WRITE_FUNCTION(ptr,len);

      if ((rval = fd->dev->write(fd, ptr, len)) < 0)
   52d84:	e0bfff17 	ldw	r2,-4(fp)
   52d88:	10800017 	ldw	r2,0(r2)
   52d8c:	10800617 	ldw	r2,24(r2)
   52d90:	e0fffb17 	ldw	r3,-20(fp)
   52d94:	180d883a 	mov	r6,r3
   52d98:	e17ffc17 	ldw	r5,-16(fp)
   52d9c:	e13fff17 	ldw	r4,-4(fp)
   52da0:	103ee83a 	callr	r2
   52da4:	e0bffe15 	stw	r2,-8(fp)
   52da8:	e0bffe17 	ldw	r2,-8(fp)
   52dac:	1000070e 	bge	r2,zero,52dcc <write+0xc0>
      {
        ALT_ERRNO = -rval;
   52db0:	0052cd00 	call	52cd0 <alt_get_errno>
   52db4:	1007883a 	mov	r3,r2
   52db8:	e0bffe17 	ldw	r2,-8(fp)
   52dbc:	0085c83a 	sub	r2,zero,r2
   52dc0:	18800015 	stw	r2,0(r3)
        return -1;
   52dc4:	00bfffc4 	movi	r2,-1
   52dc8:	00000c06 	br	52dfc <write+0xf0>
      }
      return rval;
   52dcc:	e0bffe17 	ldw	r2,-8(fp)
   52dd0:	00000a06 	br	52dfc <write+0xf0>
    }
    else
    {
      ALT_ERRNO = EACCES;
   52dd4:	0052cd00 	call	52cd0 <alt_get_errno>
   52dd8:	1007883a 	mov	r3,r2
   52ddc:	00800344 	movi	r2,13
   52de0:	18800015 	stw	r2,0(r3)
   52de4:	00000406 	br	52df8 <write+0xec>
    }
  }
  else  
  {
    ALT_ERRNO = EBADFD;
   52de8:	0052cd00 	call	52cd0 <alt_get_errno>
   52dec:	1007883a 	mov	r3,r2
   52df0:	00801444 	movi	r2,81
   52df4:	18800015 	stw	r2,0(r3)
  }
  return -1;
   52df8:	00bfffc4 	movi	r2,-1
}
   52dfc:	e037883a 	mov	sp,fp
   52e00:	dfc00117 	ldw	ra,4(sp)
   52e04:	df000017 	ldw	fp,0(sp)
   52e08:	dec00204 	addi	sp,sp,8
   52e0c:	f800283a 	ret

00052e10 <alt_dev_reg>:
 */

extern int alt_fs_reg  (alt_dev* dev); 

static ALT_INLINE int alt_dev_reg (alt_dev* dev)
{
   52e10:	defffd04 	addi	sp,sp,-12
   52e14:	dfc00215 	stw	ra,8(sp)
   52e18:	df000115 	stw	fp,4(sp)
   52e1c:	df000104 	addi	fp,sp,4
   52e20:	e13fff15 	stw	r4,-4(fp)
  extern alt_llist alt_dev_list;

  return alt_dev_llist_insert ((alt_dev_llist*) dev, &alt_dev_list);
   52e24:	d1600604 	addi	r5,gp,-32744
   52e28:	e13fff17 	ldw	r4,-4(fp)
   52e2c:	0053ff00 	call	53ff0 <alt_dev_llist_insert>
}
   52e30:	e037883a 	mov	sp,fp
   52e34:	dfc00117 	ldw	ra,4(sp)
   52e38:	df000017 	ldw	fp,0(sp)
   52e3c:	dec00204 	addi	sp,sp,8
   52e40:	f800283a 	ret

00052e44 <alt_irq_init>:
 * The "base" parameter is ignored and only
 * present for backwards-compatibility.
 */

void alt_irq_init ( const void* base )
{
   52e44:	defffd04 	addi	sp,sp,-12
   52e48:	dfc00215 	stw	ra,8(sp)
   52e4c:	df000115 	stw	fp,4(sp)
   52e50:	df000104 	addi	fp,sp,4
   52e54:	e13fff15 	stw	r4,-4(fp)
    ALTERA_NIOS2_GEN2_IRQ_INIT ( CPU, cpu);
   52e58:	00547a80 	call	547a8 <altera_nios2_gen2_irq_init>
    NIOS2_WRITE_STATUS(NIOS2_STATUS_PIE_MSK
   52e5c:	00800044 	movi	r2,1
   52e60:	1001703a 	wrctl	status,r2
}
   52e64:	0001883a 	nop
    alt_irq_cpu_enable_interrupts();
}
   52e68:	0001883a 	nop
   52e6c:	e037883a 	mov	sp,fp
   52e70:	dfc00117 	ldw	ra,4(sp)
   52e74:	df000017 	ldw	fp,0(sp)
   52e78:	dec00204 	addi	sp,sp,8
   52e7c:	f800283a 	ret

00052e80 <alt_sys_init>:
 * Initialize the non-interrupt controller devices.
 * Called after alt_irq_init().
 */

void alt_sys_init( void )
{
   52e80:	defffe04 	addi	sp,sp,-8
   52e84:	dfc00115 	stw	ra,4(sp)
   52e88:	df000015 	stw	fp,0(sp)
   52e8c:	d839883a 	mov	fp,sp
    ALTERA_AVALON_TIMER_INIT ( TIMER, timer);
   52e90:	01c0fa04 	movi	r7,1000
   52e94:	000d883a 	mov	r6,zero
   52e98:	000b883a 	mov	r5,zero
   52e9c:	01000234 	movhi	r4,8
   52ea0:	21040004 	addi	r4,r4,4096
   52ea4:	00539ec0 	call	539ec <alt_avalon_timer_sc_init>
    ALTERA_AVALON_JTAG_UART_INIT ( JTAG_UART, jtag_uart);
   52ea8:	01800044 	movi	r6,1
   52eac:	000b883a 	mov	r5,zero
   52eb0:	01000174 	movhi	r4,5
   52eb4:	21191204 	addi	r4,r4,25672
   52eb8:	00530540 	call	53054 <altera_avalon_jtag_uart_init>
   52ebc:	01000174 	movhi	r4,5
   52ec0:	21190804 	addi	r4,r4,25632
   52ec4:	0052e100 	call	52e10 <alt_dev_reg>
    ALTERA_AVALON_SYSID_QSYS_INIT ( SYSID_QSYS_0, sysid_qsys_0);
   52ec8:	0001883a 	nop
    ALTERA_UP_AVALON_ACCELEROMETER_SPI_INIT ( ACCELEROMETER_SPI, accelerometer_spi);
   52ecc:	01000174 	movhi	r4,5
   52ed0:	211d2004 	addi	r4,r4,29824
   52ed4:	0052e100 	call	52e10 <alt_dev_reg>
}
   52ed8:	0001883a 	nop
   52edc:	e037883a 	mov	sp,fp
   52ee0:	dfc00117 	ldw	ra,4(sp)
   52ee4:	df000017 	ldw	fp,0(sp)
   52ee8:	dec00204 	addi	sp,sp,8
   52eec:	f800283a 	ret

00052ef0 <altera_avalon_jtag_uart_read_fd>:
 *
 */

int 
altera_avalon_jtag_uart_read_fd(alt_fd* fd, char* buffer, int space)
{
   52ef0:	defffa04 	addi	sp,sp,-24
   52ef4:	dfc00515 	stw	ra,20(sp)
   52ef8:	df000415 	stw	fp,16(sp)
   52efc:	df000404 	addi	fp,sp,16
   52f00:	e13ffe15 	stw	r4,-8(fp)
   52f04:	e17ffd15 	stw	r5,-12(fp)
   52f08:	e1bffc15 	stw	r6,-16(fp)
    altera_avalon_jtag_uart_dev* dev = (altera_avalon_jtag_uart_dev*) fd->dev; 
   52f0c:	e0bffe17 	ldw	r2,-8(fp)
   52f10:	10800017 	ldw	r2,0(r2)
   52f14:	e0bfff15 	stw	r2,-4(fp)

    return altera_avalon_jtag_uart_read(&dev->state, buffer, space,
   52f18:	e0bfff17 	ldw	r2,-4(fp)
   52f1c:	10c00a04 	addi	r3,r2,40
   52f20:	e0bffe17 	ldw	r2,-8(fp)
   52f24:	10800217 	ldw	r2,8(r2)
   52f28:	100f883a 	mov	r7,r2
   52f2c:	e1bffc17 	ldw	r6,-16(fp)
   52f30:	e17ffd17 	ldw	r5,-12(fp)
   52f34:	1809883a 	mov	r4,r3
   52f38:	00535240 	call	53524 <altera_avalon_jtag_uart_read>
      fd->fd_flags);
}
   52f3c:	e037883a 	mov	sp,fp
   52f40:	dfc00117 	ldw	ra,4(sp)
   52f44:	df000017 	ldw	fp,0(sp)
   52f48:	dec00204 	addi	sp,sp,8
   52f4c:	f800283a 	ret

00052f50 <altera_avalon_jtag_uart_write_fd>:

int 
altera_avalon_jtag_uart_write_fd(alt_fd* fd, const char* buffer, int space)
{
   52f50:	defffa04 	addi	sp,sp,-24
   52f54:	dfc00515 	stw	ra,20(sp)
   52f58:	df000415 	stw	fp,16(sp)
   52f5c:	df000404 	addi	fp,sp,16
   52f60:	e13ffe15 	stw	r4,-8(fp)
   52f64:	e17ffd15 	stw	r5,-12(fp)
   52f68:	e1bffc15 	stw	r6,-16(fp)
    altera_avalon_jtag_uart_dev* dev = (altera_avalon_jtag_uart_dev*) fd->dev; 
   52f6c:	e0bffe17 	ldw	r2,-8(fp)
   52f70:	10800017 	ldw	r2,0(r2)
   52f74:	e0bfff15 	stw	r2,-4(fp)

    return altera_avalon_jtag_uart_write(&dev->state, buffer, space,
   52f78:	e0bfff17 	ldw	r2,-4(fp)
   52f7c:	10c00a04 	addi	r3,r2,40
   52f80:	e0bffe17 	ldw	r2,-8(fp)
   52f84:	10800217 	ldw	r2,8(r2)
   52f88:	100f883a 	mov	r7,r2
   52f8c:	e1bffc17 	ldw	r6,-16(fp)
   52f90:	e17ffd17 	ldw	r5,-12(fp)
   52f94:	1809883a 	mov	r4,r3
   52f98:	00537440 	call	53744 <altera_avalon_jtag_uart_write>
      fd->fd_flags);
}
   52f9c:	e037883a 	mov	sp,fp
   52fa0:	dfc00117 	ldw	ra,4(sp)
   52fa4:	df000017 	ldw	fp,0(sp)
   52fa8:	dec00204 	addi	sp,sp,8
   52fac:	f800283a 	ret

00052fb0 <altera_avalon_jtag_uart_close_fd>:

#ifndef ALTERA_AVALON_JTAG_UART_SMALL

int 
altera_avalon_jtag_uart_close_fd(alt_fd* fd)
{
   52fb0:	defffc04 	addi	sp,sp,-16
   52fb4:	dfc00315 	stw	ra,12(sp)
   52fb8:	df000215 	stw	fp,8(sp)
   52fbc:	df000204 	addi	fp,sp,8
   52fc0:	e13ffe15 	stw	r4,-8(fp)
    altera_avalon_jtag_uart_dev* dev = (altera_avalon_jtag_uart_dev*) fd->dev; 
   52fc4:	e0bffe17 	ldw	r2,-8(fp)
   52fc8:	10800017 	ldw	r2,0(r2)
   52fcc:	e0bfff15 	stw	r2,-4(fp)

    return altera_avalon_jtag_uart_close(&dev->state, fd->fd_flags);
   52fd0:	e0bfff17 	ldw	r2,-4(fp)
   52fd4:	10c00a04 	addi	r3,r2,40
   52fd8:	e0bffe17 	ldw	r2,-8(fp)
   52fdc:	10800217 	ldw	r2,8(r2)
   52fe0:	100b883a 	mov	r5,r2
   52fe4:	1809883a 	mov	r4,r3
   52fe8:	00533c80 	call	533c8 <altera_avalon_jtag_uart_close>
}
   52fec:	e037883a 	mov	sp,fp
   52ff0:	dfc00117 	ldw	ra,4(sp)
   52ff4:	df000017 	ldw	fp,0(sp)
   52ff8:	dec00204 	addi	sp,sp,8
   52ffc:	f800283a 	ret

00053000 <altera_avalon_jtag_uart_ioctl_fd>:

int 
altera_avalon_jtag_uart_ioctl_fd(alt_fd* fd, int req, void* arg)
{
   53000:	defffa04 	addi	sp,sp,-24
   53004:	dfc00515 	stw	ra,20(sp)
   53008:	df000415 	stw	fp,16(sp)
   5300c:	df000404 	addi	fp,sp,16
   53010:	e13ffe15 	stw	r4,-8(fp)
   53014:	e17ffd15 	stw	r5,-12(fp)
   53018:	e1bffc15 	stw	r6,-16(fp)
    altera_avalon_jtag_uart_dev* dev = (altera_avalon_jtag_uart_dev*) fd->dev;
   5301c:	e0bffe17 	ldw	r2,-8(fp)
   53020:	10800017 	ldw	r2,0(r2)
   53024:	e0bfff15 	stw	r2,-4(fp)

    return altera_avalon_jtag_uart_ioctl(&dev->state, req, arg);
   53028:	e0bfff17 	ldw	r2,-4(fp)
   5302c:	10800a04 	addi	r2,r2,40
   53030:	e1bffc17 	ldw	r6,-16(fp)
   53034:	e17ffd17 	ldw	r5,-12(fp)
   53038:	1009883a 	mov	r4,r2
   5303c:	00534300 	call	53430 <altera_avalon_jtag_uart_ioctl>
}
   53040:	e037883a 	mov	sp,fp
   53044:	dfc00117 	ldw	ra,4(sp)
   53048:	df000017 	ldw	fp,0(sp)
   5304c:	dec00204 	addi	sp,sp,8
   53050:	f800283a 	ret

00053054 <altera_avalon_jtag_uart_init>:
 * Return 1 on sucessful IRQ register and 0 on failure.
 */

void altera_avalon_jtag_uart_init(altera_avalon_jtag_uart_state* sp, 
                                  int irq_controller_id, int irq)
{
   53054:	defffb04 	addi	sp,sp,-20
   53058:	dfc00415 	stw	ra,16(sp)
   5305c:	df000315 	stw	fp,12(sp)
   53060:	df000304 	addi	fp,sp,12
   53064:	e13fff15 	stw	r4,-4(fp)
   53068:	e17ffe15 	stw	r5,-8(fp)
   5306c:	e1bffd15 	stw	r6,-12(fp)
  ALT_FLAG_CREATE(&sp->events, 0);
  ALT_SEM_CREATE(&sp->read_lock, 1);
  ALT_SEM_CREATE(&sp->write_lock, 1);

  /* enable read interrupts at the device */
  sp->irq_enable = ALTERA_AVALON_JTAG_UART_CONTROL_RE_MSK;
   53070:	e0bfff17 	ldw	r2,-4(fp)
   53074:	00c00044 	movi	r3,1
   53078:	10c00815 	stw	r3,32(r2)

  IOWR_ALTERA_AVALON_JTAG_UART_CONTROL(sp->base, sp->irq_enable); 
   5307c:	e0bfff17 	ldw	r2,-4(fp)
   53080:	10800017 	ldw	r2,0(r2)
   53084:	10800104 	addi	r2,r2,4
   53088:	1007883a 	mov	r3,r2
   5308c:	e0bfff17 	ldw	r2,-4(fp)
   53090:	10800817 	ldw	r2,32(r2)
   53094:	18800035 	stwio	r2,0(r3)
  /* register the interrupt handler */
#ifdef ALT_ENHANCED_INTERRUPT_API_PRESENT
  alt_ic_isr_register(irq_controller_id, irq, altera_avalon_jtag_uart_irq, 
                      sp, NULL);
#else
  alt_irq_register(irq, sp, altera_avalon_jtag_uart_irq);
   53098:	e0bffd17 	ldw	r2,-12(fp)
   5309c:	01800174 	movhi	r6,5
   530a0:	318c4204 	addi	r6,r6,12552
   530a4:	e17fff17 	ldw	r5,-4(fp)
   530a8:	1009883a 	mov	r4,r2
   530ac:	00523c40 	call	523c4 <alt_irq_register>
#endif  

  /* Register an alarm to go off every second to check for presence of host */
  sp->host_inactive = 0;
   530b0:	e0bfff17 	ldw	r2,-4(fp)
   530b4:	10000915 	stw	zero,36(r2)

  if (alt_alarm_start(&sp->alarm, alt_ticks_per_second(), 
   530b8:	e0bfff17 	ldw	r2,-4(fp)
   530bc:	10800204 	addi	r2,r2,8
 * Obtain the system clock rate in ticks/s. 
 */

static ALT_INLINE alt_u32 ALT_ALWAYS_INLINE alt_ticks_per_second (void)
{
  return _alt_tick_rate;
   530c0:	d0e71a17 	ldw	r3,-25496(gp)
   530c4:	e1ffff17 	ldw	r7,-4(fp)
   530c8:	01800174 	movhi	r6,5
   530cc:	318cc804 	addi	r6,r6,13088
   530d0:	180b883a 	mov	r5,r3
   530d4:	1009883a 	mov	r4,r2
   530d8:	0053e340 	call	53e34 <alt_alarm_start>
   530dc:	1000040e 	bge	r2,zero,530f0 <altera_avalon_jtag_uart_init+0x9c>
    &altera_avalon_jtag_uart_timeout, sp) < 0)
  {
    /* If we can't set the alarm then record "don't know if host present" 
     * and behave as though the host is present.
     */
    sp->timeout = INT_MAX;
   530e0:	e0ffff17 	ldw	r3,-4(fp)
   530e4:	00a00034 	movhi	r2,32768
   530e8:	10bfffc4 	addi	r2,r2,-1
   530ec:	18800115 	stw	r2,4(r3)
  }

  /* ALT_LOG - see altera_hal/HAL/inc/sys/alt_log_printf.h */ 
  ALT_LOG_JTAG_UART_ALARM_REGISTER(sp, sp->base);
}
   530f0:	0001883a 	nop
   530f4:	e037883a 	mov	sp,fp
   530f8:	dfc00117 	ldw	ra,4(sp)
   530fc:	df000017 	ldw	fp,0(sp)
   53100:	dec00204 	addi	sp,sp,8
   53104:	f800283a 	ret

00053108 <altera_avalon_jtag_uart_irq>:
#ifdef ALT_ENHANCED_INTERRUPT_API_PRESENT
static void altera_avalon_jtag_uart_irq(void* context)
#else
static void altera_avalon_jtag_uart_irq(void* context, alt_u32 id)
#endif
{
   53108:	defff604 	addi	sp,sp,-40
   5310c:	df000915 	stw	fp,36(sp)
   53110:	df000904 	addi	fp,sp,36
   53114:	e13ff815 	stw	r4,-32(fp)
   53118:	e17ff715 	stw	r5,-36(fp)
  altera_avalon_jtag_uart_state* sp = (altera_avalon_jtag_uart_state*) context;
   5311c:	e0bff817 	ldw	r2,-32(fp)
   53120:	e0bffc15 	stw	r2,-16(fp)
  unsigned int base = sp->base;
   53124:	e0bffc17 	ldw	r2,-16(fp)
   53128:	10800017 	ldw	r2,0(r2)
   5312c:	e0bffb15 	stw	r2,-20(fp)
  unsigned int postflag=0;
   53130:	e03fff15 	stw	zero,-4(fp)
  /* ALT_LOG - see altera_hal/HAL/inc/sys/alt_log_printf.h */ 
  ALT_LOG_JTAG_UART_ISR_FUNCTION(base, sp);

  for ( ; ; )
  {
    unsigned int control = IORD_ALTERA_AVALON_JTAG_UART_CONTROL(base);
   53134:	e0bffb17 	ldw	r2,-20(fp)
   53138:	10800104 	addi	r2,r2,4
   5313c:	10800037 	ldwio	r2,0(r2)
   53140:	e0bffa15 	stw	r2,-24(fp)

    /* Return once nothing more to do */
    if ((control & (ALTERA_AVALON_JTAG_UART_CONTROL_RI_MSK | ALTERA_AVALON_JTAG_UART_CONTROL_WI_MSK)) == 0)
   53144:	e0bffa17 	ldw	r2,-24(fp)
   53148:	1080c00c 	andi	r2,r2,768
   5314c:	10006e26 	beq	r2,zero,53308 <altera_avalon_jtag_uart_irq+0x200>
      break;

    if (control & ALTERA_AVALON_JTAG_UART_CONTROL_RI_MSK)
   53150:	e0bffa17 	ldw	r2,-24(fp)
   53154:	1080400c 	andi	r2,r2,256
   53158:	10003526 	beq	r2,zero,53230 <altera_avalon_jtag_uart_irq+0x128>
    {
      /* process a read irq.  Start by assuming that there is data in the
       * receive FIFO (otherwise why would we have been interrupted?)
       */
      unsigned int data = 1 << ALTERA_AVALON_JTAG_UART_DATA_RAVAIL_OFST;
   5315c:	00800074 	movhi	r2,1
   53160:	e0bffe15 	stw	r2,-8(fp)
      for ( ; ; )
      {
        /* Check whether there is space in the buffer.  If not then we must not
         * read any characters from the buffer as they will be lost.
         */
        unsigned int next = (sp->rx_in + 1) % ALTERA_AVALON_JTAG_UART_BUF_LEN;
   53164:	e0bffc17 	ldw	r2,-16(fp)
   53168:	10800a17 	ldw	r2,40(r2)
   5316c:	10800044 	addi	r2,r2,1
   53170:	1081ffcc 	andi	r2,r2,2047
   53174:	e0bff915 	stw	r2,-28(fp)
        if (next == sp->rx_out)
   53178:	e0bffc17 	ldw	r2,-16(fp)
   5317c:	10800b17 	ldw	r2,44(r2)
   53180:	e0fff917 	ldw	r3,-28(fp)
   53184:	18801526 	beq	r3,r2,531dc <altera_avalon_jtag_uart_irq+0xd4>
          break;

        /* Try to remove a character from the FIFO and find out whether there
         * are any more characters remaining.
         */
        data = IORD_ALTERA_AVALON_JTAG_UART_DATA(base);
   53188:	e0bffb17 	ldw	r2,-20(fp)
   5318c:	10800037 	ldwio	r2,0(r2)
   53190:	e0bffe15 	stw	r2,-8(fp)
        
        if ((data & ALTERA_AVALON_JTAG_UART_DATA_RVALID_MSK) == 0)
   53194:	e0bffe17 	ldw	r2,-8(fp)
   53198:	10a0000c 	andi	r2,r2,32768
   5319c:	10001126 	beq	r2,zero,531e4 <altera_avalon_jtag_uart_irq+0xdc>
          break;

        sp->rx_buf[sp->rx_in] = (data & ALTERA_AVALON_JTAG_UART_DATA_DATA_MSK) >> ALTERA_AVALON_JTAG_UART_DATA_DATA_OFST;
   531a0:	e0bffc17 	ldw	r2,-16(fp)
   531a4:	10800a17 	ldw	r2,40(r2)
   531a8:	e0fffe17 	ldw	r3,-8(fp)
   531ac:	1809883a 	mov	r4,r3
   531b0:	e0fffc17 	ldw	r3,-16(fp)
   531b4:	1885883a 	add	r2,r3,r2
   531b8:	11000e05 	stb	r4,56(r2)
        sp->rx_in = (sp->rx_in + 1) % ALTERA_AVALON_JTAG_UART_BUF_LEN;
   531bc:	e0bffc17 	ldw	r2,-16(fp)
   531c0:	10800a17 	ldw	r2,40(r2)
   531c4:	10800044 	addi	r2,r2,1
   531c8:	10c1ffcc 	andi	r3,r2,2047
   531cc:	e0bffc17 	ldw	r2,-16(fp)
   531d0:	10c00a15 	stw	r3,40(r2)
 * HAL.
 */

static ALT_INLINE int ALT_ALWAYS_INLINE alt_no_error (void)
{
  return 0;
   531d4:	0001883a 	nop
      {
   531d8:	003fe206 	br	53164 <altera_avalon_jtag_uart_irq+0x5c>
          break;
   531dc:	0001883a 	nop
   531e0:	00000106 	br	531e8 <altera_avalon_jtag_uart_irq+0xe0>
          break;
   531e4:	0001883a 	nop

        /* Post an event to notify jtag_uart_read that a character has been read */
        ALT_FLAG_POST (sp->events, ALT_JTAG_UART_READ_RDY, ALT_FLAG_SET);
      }

      if (data & ALTERA_AVALON_JTAG_UART_DATA_RAVAIL_MSK)
   531e8:	e0bffe17 	ldw	r2,-8(fp)
   531ec:	00ffffd4 	movui	r3,65535
   531f0:	18800f2e 	bgeu	r3,r2,53230 <altera_avalon_jtag_uart_irq+0x128>
      {
        /* If there is still data available here then the buffer is full 
         * so turn off receive interrupts until some space becomes available.
         */
        sp->irq_enable &= ~ALTERA_AVALON_JTAG_UART_CONTROL_RE_MSK;
   531f4:	e0bffc17 	ldw	r2,-16(fp)
   531f8:	10c00817 	ldw	r3,32(r2)
   531fc:	00bfff84 	movi	r2,-2
   53200:	1886703a 	and	r3,r3,r2
   53204:	e0bffc17 	ldw	r2,-16(fp)
   53208:	10c00815 	stw	r3,32(r2)
        IOWR_ALTERA_AVALON_JTAG_UART_CONTROL(base, sp->irq_enable);
   5320c:	e0bffb17 	ldw	r2,-20(fp)
   53210:	10800104 	addi	r2,r2,4
   53214:	1007883a 	mov	r3,r2
   53218:	e0bffc17 	ldw	r2,-16(fp)
   5321c:	10800817 	ldw	r2,32(r2)
   53220:	18800035 	stwio	r2,0(r3)
        
        /* Dummy read to ensure IRQ is cleared prior to ISR completion */
        IORD_ALTERA_AVALON_JTAG_UART_CONTROL(base);
   53224:	e0bffb17 	ldw	r2,-20(fp)
   53228:	10800104 	addi	r2,r2,4
   5322c:	10800037 	ldwio	r2,0(r2)
      }
    }

    if (control & ALTERA_AVALON_JTAG_UART_CONTROL_WI_MSK)
   53230:	e0bffa17 	ldw	r2,-24(fp)
   53234:	1080800c 	andi	r2,r2,512
   53238:	103fbe26 	beq	r2,zero,53134 <altera_avalon_jtag_uart_irq+0x2c>
    {
      /* process a write irq */
      unsigned int space = (control & ALTERA_AVALON_JTAG_UART_CONTROL_WSPACE_MSK) >> ALTERA_AVALON_JTAG_UART_CONTROL_WSPACE_OFST;
   5323c:	e0bffa17 	ldw	r2,-24(fp)
   53240:	1004d43a 	srli	r2,r2,16
   53244:	e0bffd15 	stw	r2,-12(fp)

      while (space > 0 && sp->tx_out != sp->tx_in)
   53248:	00001506 	br	532a0 <altera_avalon_jtag_uart_irq+0x198>
      {
        IOWR_ALTERA_AVALON_JTAG_UART_DATA(base, sp->tx_buf[sp->tx_out]);
   5324c:	e0bffb17 	ldw	r2,-20(fp)
   53250:	e0fffc17 	ldw	r3,-16(fp)
   53254:	18c00d17 	ldw	r3,52(r3)
   53258:	e13ffc17 	ldw	r4,-16(fp)
   5325c:	20c7883a 	add	r3,r4,r3
   53260:	18c20e03 	ldbu	r3,2104(r3)
   53264:	18c03fcc 	andi	r3,r3,255
   53268:	18c0201c 	xori	r3,r3,128
   5326c:	18ffe004 	addi	r3,r3,-128
   53270:	10c00035 	stwio	r3,0(r2)

        sp->tx_out = (sp->tx_out + 1) % ALTERA_AVALON_JTAG_UART_BUF_LEN;
   53274:	e0bffc17 	ldw	r2,-16(fp)
   53278:	10800d17 	ldw	r2,52(r2)
   5327c:	10800044 	addi	r2,r2,1
   53280:	10c1ffcc 	andi	r3,r2,2047
   53284:	e0bffc17 	ldw	r2,-16(fp)
   53288:	10c00d15 	stw	r3,52(r2)
        
        /* indicate that the ALT_FLAG_POST routine must be called */
        postflag=1;
   5328c:	00800044 	movi	r2,1
   53290:	e0bfff15 	stw	r2,-4(fp)

        space--;
   53294:	e0bffd17 	ldw	r2,-12(fp)
   53298:	10bfffc4 	addi	r2,r2,-1
   5329c:	e0bffd15 	stw	r2,-12(fp)
      while (space > 0 && sp->tx_out != sp->tx_in)
   532a0:	e0bffd17 	ldw	r2,-12(fp)
   532a4:	10000526 	beq	r2,zero,532bc <altera_avalon_jtag_uart_irq+0x1b4>
   532a8:	e0bffc17 	ldw	r2,-16(fp)
   532ac:	10c00d17 	ldw	r3,52(r2)
   532b0:	e0bffc17 	ldw	r2,-16(fp)
   532b4:	10800c17 	ldw	r2,48(r2)
   532b8:	18bfe41e 	bne	r3,r2,5324c <altera_avalon_jtag_uart_irq+0x144>
      {
        /* Post an event to notify jtag_uart_write that a character has been written */
        ALT_FLAG_POST (sp->events, ALT_JTAG_UART_WRITE_RDY, ALT_FLAG_SET);
      }

      if (space > 0)
   532bc:	e0bffd17 	ldw	r2,-12(fp)
   532c0:	103f9c26 	beq	r2,zero,53134 <altera_avalon_jtag_uart_irq+0x2c>
      {
        /* If we don't have any more data available then turn off the TX interrupt */
        sp->irq_enable &= ~ALTERA_AVALON_JTAG_UART_CONTROL_WE_MSK;
   532c4:	e0bffc17 	ldw	r2,-16(fp)
   532c8:	10c00817 	ldw	r3,32(r2)
   532cc:	00bfff44 	movi	r2,-3
   532d0:	1886703a 	and	r3,r3,r2
   532d4:	e0bffc17 	ldw	r2,-16(fp)
   532d8:	10c00815 	stw	r3,32(r2)
        IOWR_ALTERA_AVALON_JTAG_UART_CONTROL(sp->base, sp->irq_enable);
   532dc:	e0bffc17 	ldw	r2,-16(fp)
   532e0:	10800017 	ldw	r2,0(r2)
   532e4:	10800104 	addi	r2,r2,4
   532e8:	1007883a 	mov	r3,r2
   532ec:	e0bffc17 	ldw	r2,-16(fp)
   532f0:	10800817 	ldw	r2,32(r2)
   532f4:	18800035 	stwio	r2,0(r3)
        
        /* Dummy read to ensure IRQ is cleared prior to ISR completion */
        IORD_ALTERA_AVALON_JTAG_UART_CONTROL(base);
   532f8:	e0bffb17 	ldw	r2,-20(fp)
   532fc:	10800104 	addi	r2,r2,4
   53300:	10800037 	ldwio	r2,0(r2)
  {
   53304:	003f8b06 	br	53134 <altera_avalon_jtag_uart_irq+0x2c>
      break;
   53308:	0001883a 	nop
      }
    }
  }
}
   5330c:	0001883a 	nop
   53310:	e037883a 	mov	sp,fp
   53314:	df000017 	ldw	fp,0(sp)
   53318:	dec00104 	addi	sp,sp,4
   5331c:	f800283a 	ret

00053320 <altera_avalon_jtag_uart_timeout>:
 * Timeout routine is called every second
 */

static alt_u32 
altera_avalon_jtag_uart_timeout(void* context) 
{
   53320:	defffc04 	addi	sp,sp,-16
   53324:	df000315 	stw	fp,12(sp)
   53328:	df000304 	addi	fp,sp,12
   5332c:	e13ffd15 	stw	r4,-12(fp)
  altera_avalon_jtag_uart_state* sp = (altera_avalon_jtag_uart_state *) context;
   53330:	e0bffd17 	ldw	r2,-12(fp)
   53334:	e0bfff15 	stw	r2,-4(fp)

  unsigned int control = IORD_ALTERA_AVALON_JTAG_UART_CONTROL(sp->base);
   53338:	e0bfff17 	ldw	r2,-4(fp)
   5333c:	10800017 	ldw	r2,0(r2)
   53340:	10800104 	addi	r2,r2,4
   53344:	10800037 	ldwio	r2,0(r2)
   53348:	e0bffe15 	stw	r2,-8(fp)

  if (control & ALTERA_AVALON_JTAG_UART_CONTROL_AC_MSK)
   5334c:	e0bffe17 	ldw	r2,-8(fp)
   53350:	1081000c 	andi	r2,r2,1024
   53354:	10000b26 	beq	r2,zero,53384 <altera_avalon_jtag_uart_timeout+0x64>
  {
    IOWR_ALTERA_AVALON_JTAG_UART_CONTROL(sp->base, sp->irq_enable | ALTERA_AVALON_JTAG_UART_CONTROL_AC_MSK);
   53358:	e0bfff17 	ldw	r2,-4(fp)
   5335c:	10800017 	ldw	r2,0(r2)
   53360:	10800104 	addi	r2,r2,4
   53364:	1007883a 	mov	r3,r2
   53368:	e0bfff17 	ldw	r2,-4(fp)
   5336c:	10800817 	ldw	r2,32(r2)
   53370:	10810014 	ori	r2,r2,1024
   53374:	18800035 	stwio	r2,0(r3)
    sp->host_inactive = 0;
   53378:	e0bfff17 	ldw	r2,-4(fp)
   5337c:	10000915 	stw	zero,36(r2)
   53380:	00000c06 	br	533b4 <altera_avalon_jtag_uart_timeout+0x94>
  }
  else if (sp->host_inactive < INT_MAX - 2) {
   53384:	e0bfff17 	ldw	r2,-4(fp)
   53388:	10c00917 	ldw	r3,36(r2)
   5338c:	00a00034 	movhi	r2,32768
   53390:	10bfff04 	addi	r2,r2,-4
   53394:	10c00736 	bltu	r2,r3,533b4 <altera_avalon_jtag_uart_timeout+0x94>
    sp->host_inactive++;
   53398:	e0bfff17 	ldw	r2,-4(fp)
   5339c:	10800917 	ldw	r2,36(r2)
   533a0:	10c00044 	addi	r3,r2,1
   533a4:	e0bfff17 	ldw	r2,-4(fp)
   533a8:	10c00915 	stw	r3,36(r2)
    
    if (sp->host_inactive >= sp->timeout) {
   533ac:	e0bfff17 	ldw	r2,-4(fp)
   533b0:	10800917 	ldw	r2,36(r2)
   533b4:	d0a71a17 	ldw	r2,-25496(gp)
      ALT_FLAG_POST (sp->events, ALT_JTAG_UART_TIMEOUT, ALT_FLAG_SET);
    }
  }

  return alt_ticks_per_second();
}
   533b8:	e037883a 	mov	sp,fp
   533bc:	df000017 	ldw	fp,0(sp)
   533c0:	dec00104 	addi	sp,sp,4
   533c4:	f800283a 	ret

000533c8 <altera_avalon_jtag_uart_close>:
 * The close routine is not implemented for the small driver; instead it will
 * map to null. This is because the small driver simply waits while characters
 * are transmitted; there is no interrupt-serviced buffer to empty 
 */
int altera_avalon_jtag_uart_close(altera_avalon_jtag_uart_state* sp, int flags)
{
   533c8:	defffd04 	addi	sp,sp,-12
   533cc:	df000215 	stw	fp,8(sp)
   533d0:	df000204 	addi	fp,sp,8
   533d4:	e13fff15 	stw	r4,-4(fp)
   533d8:	e17ffe15 	stw	r5,-8(fp)
  /* 
   * Wait for all transmit data to be emptied by the JTAG UART ISR, or
   * for a host-inactivity timeout, in which case transmit data will be lost
   */
  while ( (sp->tx_out != sp->tx_in) && (sp->host_inactive < sp->timeout) ) {
   533dc:	00000506 	br	533f4 <altera_avalon_jtag_uart_close+0x2c>
    if (flags & O_NONBLOCK) {
   533e0:	e0bffe17 	ldw	r2,-8(fp)
   533e4:	1090000c 	andi	r2,r2,16384
   533e8:	10000226 	beq	r2,zero,533f4 <altera_avalon_jtag_uart_close+0x2c>
      return -EWOULDBLOCK; 
   533ec:	00bffd44 	movi	r2,-11
   533f0:	00000b06 	br	53420 <altera_avalon_jtag_uart_close+0x58>
  while ( (sp->tx_out != sp->tx_in) && (sp->host_inactive < sp->timeout) ) {
   533f4:	e0bfff17 	ldw	r2,-4(fp)
   533f8:	10c00d17 	ldw	r3,52(r2)
   533fc:	e0bfff17 	ldw	r2,-4(fp)
   53400:	10800c17 	ldw	r2,48(r2)
   53404:	18800526 	beq	r3,r2,5341c <altera_avalon_jtag_uart_close+0x54>
   53408:	e0bfff17 	ldw	r2,-4(fp)
   5340c:	10c00917 	ldw	r3,36(r2)
   53410:	e0bfff17 	ldw	r2,-4(fp)
   53414:	10800117 	ldw	r2,4(r2)
   53418:	18bff136 	bltu	r3,r2,533e0 <altera_avalon_jtag_uart_close+0x18>
    }
  }

  return 0;
   5341c:	0005883a 	mov	r2,zero
}
   53420:	e037883a 	mov	sp,fp
   53424:	df000017 	ldw	fp,0(sp)
   53428:	dec00104 	addi	sp,sp,4
   5342c:	f800283a 	ret

00053430 <altera_avalon_jtag_uart_ioctl>:
/* ----------------------------------------------------------- */

int 
altera_avalon_jtag_uart_ioctl(altera_avalon_jtag_uart_state* sp, int req,
  void* arg)
{
   53430:	defffa04 	addi	sp,sp,-24
   53434:	df000515 	stw	fp,20(sp)
   53438:	df000504 	addi	fp,sp,20
   5343c:	e13ffd15 	stw	r4,-12(fp)
   53440:	e17ffc15 	stw	r5,-16(fp)
   53444:	e1bffb15 	stw	r6,-20(fp)
  int rc = -ENOTTY;
   53448:	00bff9c4 	movi	r2,-25
   5344c:	e0bfff15 	stw	r2,-4(fp)

  switch (req)
   53450:	e0bffc17 	ldw	r2,-16(fp)
   53454:	109a8060 	cmpeqi	r2,r2,27137
   53458:	1000041e 	bne	r2,zero,5346c <altera_avalon_jtag_uart_ioctl+0x3c>
   5345c:	e0bffc17 	ldw	r2,-16(fp)
   53460:	109a80a0 	cmpeqi	r2,r2,27138
   53464:	1000181e 	bne	r2,zero,534c8 <altera_avalon_jtag_uart_ioctl+0x98>
      rc = 0;
    }
    break;

  default:
    break;
   53468:	00002906 	br	53510 <altera_avalon_jtag_uart_ioctl+0xe0>
    if (sp->timeout != INT_MAX)
   5346c:	e0bffd17 	ldw	r2,-12(fp)
   53470:	10c00117 	ldw	r3,4(r2)
   53474:	00a00034 	movhi	r2,32768
   53478:	10bfffc4 	addi	r2,r2,-1
   5347c:	18802126 	beq	r3,r2,53504 <altera_avalon_jtag_uart_ioctl+0xd4>
      int timeout = *((int *)arg);
   53480:	e0bffb17 	ldw	r2,-20(fp)
   53484:	10800017 	ldw	r2,0(r2)
   53488:	e0bffe15 	stw	r2,-8(fp)
      sp->timeout = (timeout >= 2 && timeout < INT_MAX) ? timeout : INT_MAX - 1;
   5348c:	e0bffe17 	ldw	r2,-8(fp)
   53490:	10800090 	cmplti	r2,r2,2
   53494:	1000061e 	bne	r2,zero,534b0 <altera_avalon_jtag_uart_ioctl+0x80>
   53498:	e0fffe17 	ldw	r3,-8(fp)
   5349c:	00a00034 	movhi	r2,32768
   534a0:	10bfffc4 	addi	r2,r2,-1
   534a4:	18800226 	beq	r3,r2,534b0 <altera_avalon_jtag_uart_ioctl+0x80>
   534a8:	e0bffe17 	ldw	r2,-8(fp)
   534ac:	00000206 	br	534b8 <altera_avalon_jtag_uart_ioctl+0x88>
   534b0:	00a00034 	movhi	r2,32768
   534b4:	10bfff84 	addi	r2,r2,-2
   534b8:	e0fffd17 	ldw	r3,-12(fp)
   534bc:	18800115 	stw	r2,4(r3)
      rc = 0;
   534c0:	e03fff15 	stw	zero,-4(fp)
    break;
   534c4:	00000f06 	br	53504 <altera_avalon_jtag_uart_ioctl+0xd4>
    if (sp->timeout != INT_MAX)
   534c8:	e0bffd17 	ldw	r2,-12(fp)
   534cc:	10c00117 	ldw	r3,4(r2)
   534d0:	00a00034 	movhi	r2,32768
   534d4:	10bfffc4 	addi	r2,r2,-1
   534d8:	18800c26 	beq	r3,r2,5350c <altera_avalon_jtag_uart_ioctl+0xdc>
      *((int *)arg) = (sp->host_inactive < sp->timeout) ? 1 : 0;
   534dc:	e0bffd17 	ldw	r2,-12(fp)
   534e0:	10c00917 	ldw	r3,36(r2)
   534e4:	e0bffd17 	ldw	r2,-12(fp)
   534e8:	10800117 	ldw	r2,4(r2)
   534ec:	1885803a 	cmpltu	r2,r3,r2
   534f0:	10c03fcc 	andi	r3,r2,255
   534f4:	e0bffb17 	ldw	r2,-20(fp)
   534f8:	10c00015 	stw	r3,0(r2)
      rc = 0;
   534fc:	e03fff15 	stw	zero,-4(fp)
    break;
   53500:	00000206 	br	5350c <altera_avalon_jtag_uart_ioctl+0xdc>
    break;
   53504:	0001883a 	nop
   53508:	00000106 	br	53510 <altera_avalon_jtag_uart_ioctl+0xe0>
    break;
   5350c:	0001883a 	nop
  }

  return rc;
   53510:	e0bfff17 	ldw	r2,-4(fp)
}
   53514:	e037883a 	mov	sp,fp
   53518:	df000017 	ldw	fp,0(sp)
   5351c:	dec00104 	addi	sp,sp,4
   53520:	f800283a 	ret

00053524 <altera_avalon_jtag_uart_read>:
/* ----------------------------------------------------------- */

int 
altera_avalon_jtag_uart_read(altera_avalon_jtag_uart_state* sp, 
  char * buffer, int space, int flags)
{
   53524:	defff304 	addi	sp,sp,-52
   53528:	dfc00c15 	stw	ra,48(sp)
   5352c:	df000b15 	stw	fp,44(sp)
   53530:	df000b04 	addi	fp,sp,44
   53534:	e13ff815 	stw	r4,-32(fp)
   53538:	e17ff715 	stw	r5,-36(fp)
   5353c:	e1bff615 	stw	r6,-40(fp)
   53540:	e1fff515 	stw	r7,-44(fp)
  char * ptr = buffer;
   53544:	e0bff717 	ldw	r2,-36(fp)
   53548:	e0bfff15 	stw	r2,-4(fp)
   * When running in a multi threaded environment, obtain the "read_lock"
   * semaphore. This ensures that reading from the device is thread-safe.
   */
  ALT_SEM_PEND (sp->read_lock, 0);

  while (space > 0)
   5354c:	00004706 	br	5366c <altera_avalon_jtag_uart_read+0x148>
    unsigned int in, out;

    /* Read as much data as possible */
    do
    {
      in  = sp->rx_in;
   53550:	e0bff817 	ldw	r2,-32(fp)
   53554:	10800a17 	ldw	r2,40(r2)
   53558:	e0bffd15 	stw	r2,-12(fp)
      out = sp->rx_out;
   5355c:	e0bff817 	ldw	r2,-32(fp)
   53560:	10800b17 	ldw	r2,44(r2)
   53564:	e0bffc15 	stw	r2,-16(fp)

      if (in >= out)
   53568:	e0fffd17 	ldw	r3,-12(fp)
   5356c:	e0bffc17 	ldw	r2,-16(fp)
   53570:	18800536 	bltu	r3,r2,53588 <altera_avalon_jtag_uart_read+0x64>
        n = in - out;
   53574:	e0fffd17 	ldw	r3,-12(fp)
   53578:	e0bffc17 	ldw	r2,-16(fp)
   5357c:	1885c83a 	sub	r2,r3,r2
   53580:	e0bffe15 	stw	r2,-8(fp)
   53584:	00000406 	br	53598 <altera_avalon_jtag_uart_read+0x74>
      else
        n = ALTERA_AVALON_JTAG_UART_BUF_LEN - out;
   53588:	00c20004 	movi	r3,2048
   5358c:	e0bffc17 	ldw	r2,-16(fp)
   53590:	1885c83a 	sub	r2,r3,r2
   53594:	e0bffe15 	stw	r2,-8(fp)

      if (n == 0)
   53598:	e0bffe17 	ldw	r2,-8(fp)
   5359c:	10001e26 	beq	r2,zero,53618 <altera_avalon_jtag_uart_read+0xf4>
        break; /* No more data available */

      if (n > space)
   535a0:	e0fff617 	ldw	r3,-40(fp)
   535a4:	e0bffe17 	ldw	r2,-8(fp)
   535a8:	1880022e 	bgeu	r3,r2,535b4 <altera_avalon_jtag_uart_read+0x90>
        n = space;
   535ac:	e0bff617 	ldw	r2,-40(fp)
   535b0:	e0bffe15 	stw	r2,-8(fp)

      memcpy(ptr, sp->rx_buf + out, n);
   535b4:	e0bff817 	ldw	r2,-32(fp)
   535b8:	10c00e04 	addi	r3,r2,56
   535bc:	e0bffc17 	ldw	r2,-16(fp)
   535c0:	1885883a 	add	r2,r3,r2
   535c4:	e1bffe17 	ldw	r6,-8(fp)
   535c8:	100b883a 	mov	r5,r2
   535cc:	e13fff17 	ldw	r4,-4(fp)
   535d0:	00428d80 	call	428d8 <memcpy>
      ptr   += n;
   535d4:	e0ffff17 	ldw	r3,-4(fp)
   535d8:	e0bffe17 	ldw	r2,-8(fp)
   535dc:	1885883a 	add	r2,r3,r2
   535e0:	e0bfff15 	stw	r2,-4(fp)
      space -= n;
   535e4:	e0fff617 	ldw	r3,-40(fp)
   535e8:	e0bffe17 	ldw	r2,-8(fp)
   535ec:	1885c83a 	sub	r2,r3,r2
   535f0:	e0bff615 	stw	r2,-40(fp)

      sp->rx_out = (out + n) % ALTERA_AVALON_JTAG_UART_BUF_LEN;
   535f4:	e0fffc17 	ldw	r3,-16(fp)
   535f8:	e0bffe17 	ldw	r2,-8(fp)
   535fc:	1885883a 	add	r2,r3,r2
   53600:	10c1ffcc 	andi	r3,r2,2047
   53604:	e0bff817 	ldw	r2,-32(fp)
   53608:	10c00b15 	stw	r3,44(r2)
    }
    while (space > 0);
   5360c:	e0bff617 	ldw	r2,-40(fp)
   53610:	00bfcf16 	blt	zero,r2,53550 <altera_avalon_jtag_uart_read+0x2c>
   53614:	00000106 	br	5361c <altera_avalon_jtag_uart_read+0xf8>
        break; /* No more data available */
   53618:	0001883a 	nop

    /* If we read any data then return it */
    if (ptr != buffer)
   5361c:	e0ffff17 	ldw	r3,-4(fp)
   53620:	e0bff717 	ldw	r2,-36(fp)
   53624:	1880141e 	bne	r3,r2,53678 <altera_avalon_jtag_uart_read+0x154>
      break;

    /* If in non-blocking mode then return error */
    if (flags & O_NONBLOCK)
   53628:	e0bff517 	ldw	r2,-44(fp)
   5362c:	1090000c 	andi	r2,r2,16384
   53630:	1000131e 	bne	r2,zero,53680 <altera_avalon_jtag_uart_read+0x15c>
      while (in == sp->rx_in && sp->host_inactive < sp->timeout)
        ;
    }
#else
    /* No OS: Always spin */
    while (in == sp->rx_in && sp->host_inactive < sp->timeout)
   53634:	0001883a 	nop
   53638:	e0bff817 	ldw	r2,-32(fp)
   5363c:	10800a17 	ldw	r2,40(r2)
   53640:	e0fffd17 	ldw	r3,-12(fp)
   53644:	1880051e 	bne	r3,r2,5365c <altera_avalon_jtag_uart_read+0x138>
   53648:	e0bff817 	ldw	r2,-32(fp)
   5364c:	10c00917 	ldw	r3,36(r2)
   53650:	e0bff817 	ldw	r2,-32(fp)
   53654:	10800117 	ldw	r2,4(r2)
   53658:	18bff736 	bltu	r3,r2,53638 <altera_avalon_jtag_uart_read+0x114>
      ;
#endif /* __ucosii__ */

    if (in == sp->rx_in)
   5365c:	e0bff817 	ldw	r2,-32(fp)
   53660:	10800a17 	ldw	r2,40(r2)
   53664:	e0fffd17 	ldw	r3,-12(fp)
   53668:	18800726 	beq	r3,r2,53688 <altera_avalon_jtag_uart_read+0x164>
  while (space > 0)
   5366c:	e0bff617 	ldw	r2,-40(fp)
   53670:	00bfb716 	blt	zero,r2,53550 <altera_avalon_jtag_uart_read+0x2c>
   53674:	00000506 	br	5368c <altera_avalon_jtag_uart_read+0x168>
      break;
   53678:	0001883a 	nop
   5367c:	00000306 	br	5368c <altera_avalon_jtag_uart_read+0x168>
      break;
   53680:	0001883a 	nop
   53684:	00000106 	br	5368c <altera_avalon_jtag_uart_read+0x168>
      break;
   53688:	0001883a 	nop
   * semaphore so that other threads can access the buffer.
   */

  ALT_SEM_POST (sp->read_lock);

  if (ptr != buffer)
   5368c:	e0ffff17 	ldw	r3,-4(fp)
   53690:	e0bff717 	ldw	r2,-36(fp)
   53694:	18801926 	beq	r3,r2,536fc <altera_avalon_jtag_uart_read+0x1d8>
  NIOS2_READ_STATUS (context);
   53698:	0005303a 	rdctl	r2,status
   5369c:	e0bff915 	stw	r2,-28(fp)
  NIOS2_WRITE_STATUS (context & ~NIOS2_STATUS_PIE_MSK);
   536a0:	e0fff917 	ldw	r3,-28(fp)
   536a4:	00bfff84 	movi	r2,-2
   536a8:	1884703a 	and	r2,r3,r2
   536ac:	1001703a 	wrctl	status,r2
  return context;
   536b0:	e0bff917 	ldw	r2,-28(fp)
  {
    /* If we read any data then there is space in the buffer so enable interrupts */
    context = alt_irq_disable_all();
   536b4:	e0bffb15 	stw	r2,-20(fp)
    sp->irq_enable |= ALTERA_AVALON_JTAG_UART_CONTROL_RE_MSK;
   536b8:	e0bff817 	ldw	r2,-32(fp)
   536bc:	10800817 	ldw	r2,32(r2)
   536c0:	10c00054 	ori	r3,r2,1
   536c4:	e0bff817 	ldw	r2,-32(fp)
   536c8:	10c00815 	stw	r3,32(r2)
    IOWR_ALTERA_AVALON_JTAG_UART_CONTROL(sp->base, sp->irq_enable);
   536cc:	e0bff817 	ldw	r2,-32(fp)
   536d0:	10800017 	ldw	r2,0(r2)
   536d4:	10800104 	addi	r2,r2,4
   536d8:	1007883a 	mov	r3,r2
   536dc:	e0bff817 	ldw	r2,-32(fp)
   536e0:	10800817 	ldw	r2,32(r2)
   536e4:	18800035 	stwio	r2,0(r3)
   536e8:	e0bffb17 	ldw	r2,-20(fp)
   536ec:	e0bffa15 	stw	r2,-24(fp)
  NIOS2_WRITE_STATUS (context);
   536f0:	e0bffa17 	ldw	r2,-24(fp)
   536f4:	1001703a 	wrctl	status,r2
}
   536f8:	0001883a 	nop
    alt_irq_enable_all(context);
  }

  if (ptr != buffer)
   536fc:	e0ffff17 	ldw	r3,-4(fp)
   53700:	e0bff717 	ldw	r2,-36(fp)
   53704:	18800426 	beq	r3,r2,53718 <altera_avalon_jtag_uart_read+0x1f4>
    return ptr - buffer;
   53708:	e0ffff17 	ldw	r3,-4(fp)
   5370c:	e0bff717 	ldw	r2,-36(fp)
   53710:	1885c83a 	sub	r2,r3,r2
   53714:	00000606 	br	53730 <altera_avalon_jtag_uart_read+0x20c>
  else if (flags & O_NONBLOCK)
   53718:	e0bff517 	ldw	r2,-44(fp)
   5371c:	1090000c 	andi	r2,r2,16384
   53720:	10000226 	beq	r2,zero,5372c <altera_avalon_jtag_uart_read+0x208>
    return -EWOULDBLOCK;
   53724:	00bffd44 	movi	r2,-11
   53728:	00000106 	br	53730 <altera_avalon_jtag_uart_read+0x20c>
  else
    return -EIO;
   5372c:	00bffec4 	movi	r2,-5
}
   53730:	e037883a 	mov	sp,fp
   53734:	dfc00117 	ldw	ra,4(sp)
   53738:	df000017 	ldw	fp,0(sp)
   5373c:	dec00204 	addi	sp,sp,8
   53740:	f800283a 	ret

00053744 <altera_avalon_jtag_uart_write>:
/* ----------------------------------------------------------- */

int 
altera_avalon_jtag_uart_write(altera_avalon_jtag_uart_state* sp, 
  const char * ptr, int count, int flags)
{
   53744:	defff304 	addi	sp,sp,-52
   53748:	dfc00c15 	stw	ra,48(sp)
   5374c:	df000b15 	stw	fp,44(sp)
   53750:	df000b04 	addi	fp,sp,44
   53754:	e13ff815 	stw	r4,-32(fp)
   53758:	e17ff715 	stw	r5,-36(fp)
   5375c:	e1bff615 	stw	r6,-40(fp)
   53760:	e1fff515 	stw	r7,-44(fp)
  /* Remove warning at optimisation level 03 by seting out to 0 */
  unsigned int in, out=0;
   53764:	e03fff15 	stw	zero,-4(fp)
  unsigned int n;
  alt_irq_context context;

  const char * start = ptr;
   53768:	e0bff717 	ldw	r2,-36(fp)
   5376c:	e0bffd15 	stw	r2,-12(fp)
  ALT_SEM_PEND (sp->write_lock, 0);

  do
  {
    /* Copy as much as we can into the transmit buffer */
    while (count > 0)
   53770:	00003706 	br	53850 <altera_avalon_jtag_uart_write+0x10c>
    {
      /* We need a stable value of the out pointer to calculate the space available */
      in  = sp->tx_in;
   53774:	e0bff817 	ldw	r2,-32(fp)
   53778:	10800c17 	ldw	r2,48(r2)
   5377c:	e0bffc15 	stw	r2,-16(fp)
      out = sp->tx_out;
   53780:	e0bff817 	ldw	r2,-32(fp)
   53784:	10800d17 	ldw	r2,52(r2)
   53788:	e0bfff15 	stw	r2,-4(fp)

      if (in < out)
   5378c:	e0fffc17 	ldw	r3,-16(fp)
   53790:	e0bfff17 	ldw	r2,-4(fp)
   53794:	1880062e 	bgeu	r3,r2,537b0 <altera_avalon_jtag_uart_write+0x6c>
        n = out - 1 - in;
   53798:	e0ffff17 	ldw	r3,-4(fp)
   5379c:	e0bffc17 	ldw	r2,-16(fp)
   537a0:	1885c83a 	sub	r2,r3,r2
   537a4:	10bfffc4 	addi	r2,r2,-1
   537a8:	e0bffe15 	stw	r2,-8(fp)
   537ac:	00000b06 	br	537dc <altera_avalon_jtag_uart_write+0x98>
      else if (out > 0)
   537b0:	e0bfff17 	ldw	r2,-4(fp)
   537b4:	10000526 	beq	r2,zero,537cc <altera_avalon_jtag_uart_write+0x88>
        n = ALTERA_AVALON_JTAG_UART_BUF_LEN - in;
   537b8:	00c20004 	movi	r3,2048
   537bc:	e0bffc17 	ldw	r2,-16(fp)
   537c0:	1885c83a 	sub	r2,r3,r2
   537c4:	e0bffe15 	stw	r2,-8(fp)
   537c8:	00000406 	br	537dc <altera_avalon_jtag_uart_write+0x98>
      else
        n = ALTERA_AVALON_JTAG_UART_BUF_LEN - 1 - in;
   537cc:	00c1ffc4 	movi	r3,2047
   537d0:	e0bffc17 	ldw	r2,-16(fp)
   537d4:	1885c83a 	sub	r2,r3,r2
   537d8:	e0bffe15 	stw	r2,-8(fp)

      if (n == 0)
   537dc:	e0bffe17 	ldw	r2,-8(fp)
   537e0:	10001e26 	beq	r2,zero,5385c <altera_avalon_jtag_uart_write+0x118>
        break;

      if (n > count)
   537e4:	e0fff617 	ldw	r3,-40(fp)
   537e8:	e0bffe17 	ldw	r2,-8(fp)
   537ec:	1880022e 	bgeu	r3,r2,537f8 <altera_avalon_jtag_uart_write+0xb4>
        n = count;
   537f0:	e0bff617 	ldw	r2,-40(fp)
   537f4:	e0bffe15 	stw	r2,-8(fp)

      memcpy(sp->tx_buf + in, ptr, n);
   537f8:	e0bff817 	ldw	r2,-32(fp)
   537fc:	10c20e04 	addi	r3,r2,2104
   53800:	e0bffc17 	ldw	r2,-16(fp)
   53804:	1885883a 	add	r2,r3,r2
   53808:	e1bffe17 	ldw	r6,-8(fp)
   5380c:	e17ff717 	ldw	r5,-36(fp)
   53810:	1009883a 	mov	r4,r2
   53814:	00428d80 	call	428d8 <memcpy>
      ptr   += n;
   53818:	e0fff717 	ldw	r3,-36(fp)
   5381c:	e0bffe17 	ldw	r2,-8(fp)
   53820:	1885883a 	add	r2,r3,r2
   53824:	e0bff715 	stw	r2,-36(fp)
      count -= n;
   53828:	e0fff617 	ldw	r3,-40(fp)
   5382c:	e0bffe17 	ldw	r2,-8(fp)
   53830:	1885c83a 	sub	r2,r3,r2
   53834:	e0bff615 	stw	r2,-40(fp)

      sp->tx_in = (in + n) % ALTERA_AVALON_JTAG_UART_BUF_LEN;
   53838:	e0fffc17 	ldw	r3,-16(fp)
   5383c:	e0bffe17 	ldw	r2,-8(fp)
   53840:	1885883a 	add	r2,r3,r2
   53844:	10c1ffcc 	andi	r3,r2,2047
   53848:	e0bff817 	ldw	r2,-32(fp)
   5384c:	10c00c15 	stw	r3,48(r2)
    while (count > 0)
   53850:	e0bff617 	ldw	r2,-40(fp)
   53854:	00bfc716 	blt	zero,r2,53774 <altera_avalon_jtag_uart_write+0x30>
   53858:	00000106 	br	53860 <altera_avalon_jtag_uart_write+0x11c>
        break;
   5385c:	0001883a 	nop
  NIOS2_READ_STATUS (context);
   53860:	0005303a 	rdctl	r2,status
   53864:	e0bff915 	stw	r2,-28(fp)
  NIOS2_WRITE_STATUS (context & ~NIOS2_STATUS_PIE_MSK);
   53868:	e0fff917 	ldw	r3,-28(fp)
   5386c:	00bfff84 	movi	r2,-2
   53870:	1884703a 	and	r2,r3,r2
   53874:	1001703a 	wrctl	status,r2
  return context;
   53878:	e0bff917 	ldw	r2,-28(fp)
     * to enable interrupts if there is no space left in the FIFO
     *
     * For now kick the interrupt routine every time to make it transmit 
     * the data 
     */
    context = alt_irq_disable_all();
   5387c:	e0bffb15 	stw	r2,-20(fp)
    sp->irq_enable |= ALTERA_AVALON_JTAG_UART_CONTROL_WE_MSK;
   53880:	e0bff817 	ldw	r2,-32(fp)
   53884:	10800817 	ldw	r2,32(r2)
   53888:	10c00094 	ori	r3,r2,2
   5388c:	e0bff817 	ldw	r2,-32(fp)
   53890:	10c00815 	stw	r3,32(r2)
    IOWR_ALTERA_AVALON_JTAG_UART_CONTROL(sp->base, sp->irq_enable);
   53894:	e0bff817 	ldw	r2,-32(fp)
   53898:	10800017 	ldw	r2,0(r2)
   5389c:	10800104 	addi	r2,r2,4
   538a0:	1007883a 	mov	r3,r2
   538a4:	e0bff817 	ldw	r2,-32(fp)
   538a8:	10800817 	ldw	r2,32(r2)
   538ac:	18800035 	stwio	r2,0(r3)
   538b0:	e0bffb17 	ldw	r2,-20(fp)
   538b4:	e0bffa15 	stw	r2,-24(fp)
  NIOS2_WRITE_STATUS (context);
   538b8:	e0bffa17 	ldw	r2,-24(fp)
   538bc:	1001703a 	wrctl	status,r2
}
   538c0:	0001883a 	nop
    /* 
     * If there is any data left then either return now or block until 
     * some has been sent 
     */
    /* consider: test whether there is anything there while doing this and delay for at most 2s. */
    if (count > 0)
   538c4:	e0bff617 	ldw	r2,-40(fp)
   538c8:	0080100e 	bge	zero,r2,5390c <altera_avalon_jtag_uart_write+0x1c8>
    {
      if (flags & O_NONBLOCK)
   538cc:	e0bff517 	ldw	r2,-44(fp)
   538d0:	1090000c 	andi	r2,r2,16384
   538d4:	1000101e 	bne	r2,zero,53918 <altera_avalon_jtag_uart_write+0x1d4>
      /*
       * No OS present: Always wait for data to be removed from buffer.  Once
       * the interrupt routine has removed some data then we will be able to
       * insert some more.
       */
      while (out == sp->tx_out && sp->host_inactive < sp->timeout)
   538d8:	0001883a 	nop
   538dc:	e0bff817 	ldw	r2,-32(fp)
   538e0:	10800d17 	ldw	r2,52(r2)
   538e4:	e0ffff17 	ldw	r3,-4(fp)
   538e8:	1880051e 	bne	r3,r2,53900 <altera_avalon_jtag_uart_write+0x1bc>
   538ec:	e0bff817 	ldw	r2,-32(fp)
   538f0:	10c00917 	ldw	r3,36(r2)
   538f4:	e0bff817 	ldw	r2,-32(fp)
   538f8:	10800117 	ldw	r2,4(r2)
   538fc:	18bff736 	bltu	r3,r2,538dc <altera_avalon_jtag_uart_write+0x198>
        ;
#endif /* __ucosii__ */

      if  (sp->host_inactive)
   53900:	e0bff817 	ldw	r2,-32(fp)
   53904:	10800917 	ldw	r2,36(r2)
   53908:	1000051e 	bne	r2,zero,53920 <altera_avalon_jtag_uart_write+0x1dc>
         break;
    }
  }
  while (count > 0);
   5390c:	e0bff617 	ldw	r2,-40(fp)
   53910:	00bfcf16 	blt	zero,r2,53850 <altera_avalon_jtag_uart_write+0x10c>
   53914:	00000306 	br	53924 <altera_avalon_jtag_uart_write+0x1e0>
        break;
   53918:	0001883a 	nop
   5391c:	00000106 	br	53924 <altera_avalon_jtag_uart_write+0x1e0>
         break;
   53920:	0001883a 	nop
   * Now that access to the circular buffer is complete, release the write
   * semaphore so that other threads can access the buffer.
   */
  ALT_SEM_POST (sp->write_lock);

  if (ptr != start)
   53924:	e0fff717 	ldw	r3,-36(fp)
   53928:	e0bffd17 	ldw	r2,-12(fp)
   5392c:	18800426 	beq	r3,r2,53940 <altera_avalon_jtag_uart_write+0x1fc>
    return ptr - start;
   53930:	e0fff717 	ldw	r3,-36(fp)
   53934:	e0bffd17 	ldw	r2,-12(fp)
   53938:	1885c83a 	sub	r2,r3,r2
   5393c:	00000606 	br	53958 <altera_avalon_jtag_uart_write+0x214>
  else if (flags & O_NONBLOCK)
   53940:	e0bff517 	ldw	r2,-44(fp)
   53944:	1090000c 	andi	r2,r2,16384
   53948:	10000226 	beq	r2,zero,53954 <altera_avalon_jtag_uart_write+0x210>
    return -EWOULDBLOCK;
   5394c:	00bffd44 	movi	r2,-11
   53950:	00000106 	br	53958 <altera_avalon_jtag_uart_write+0x214>
    sp->tx_out = sp->tx_in = 0;
    return ptr - start + count;
  }
#endif
  else
    return -EIO; /* Host not connected */
   53954:	00bffec4 	movi	r2,-5
}
   53958:	e037883a 	mov	sp,fp
   5395c:	dfc00117 	ldw	ra,4(sp)
   53960:	df000017 	ldw	fp,0(sp)
   53964:	dec00204 	addi	sp,sp,8
   53968:	f800283a 	ret

0005396c <alt_avalon_timer_sc_irq>:
#ifdef ALT_ENHANCED_INTERRUPT_API_PRESENT
static void alt_avalon_timer_sc_irq (void* base)
#else
static void alt_avalon_timer_sc_irq (void* base, alt_u32 id)
#endif
{
   5396c:	defff904 	addi	sp,sp,-28
   53970:	dfc00615 	stw	ra,24(sp)
   53974:	df000515 	stw	fp,20(sp)
   53978:	df000504 	addi	fp,sp,20
   5397c:	e13ffc15 	stw	r4,-16(fp)
   53980:	e17ffb15 	stw	r5,-20(fp)
  alt_irq_context cpu_sr;
  
  /* clear the interrupt */
  IOWR_ALTERA_AVALON_TIMER_STATUS (base, 0);
   53984:	0007883a 	mov	r3,zero
   53988:	e0bffc17 	ldw	r2,-16(fp)
   5398c:	10c00035 	stwio	r3,0(r2)
  /* 
   * Dummy read to ensure IRQ is negated before the ISR returns.
   * The control register is read because reading the status
   * register has side-effects per the register map documentation.
   */
  IORD_ALTERA_AVALON_TIMER_CONTROL (base);
   53990:	e0bffc17 	ldw	r2,-16(fp)
   53994:	10800104 	addi	r2,r2,4
   53998:	10800037 	ldwio	r2,0(r2)
  NIOS2_READ_STATUS (context);
   5399c:	0005303a 	rdctl	r2,status
   539a0:	e0bffd15 	stw	r2,-12(fp)
  NIOS2_WRITE_STATUS (context & ~NIOS2_STATUS_PIE_MSK);
   539a4:	e0fffd17 	ldw	r3,-12(fp)
   539a8:	00bfff84 	movi	r2,-2
   539ac:	1884703a 	and	r2,r3,r2
   539b0:	1001703a 	wrctl	status,r2
  return context;
   539b4:	e0bffd17 	ldw	r2,-12(fp)

  /* 
   * Notify the system of a clock tick. disable interrupts 
   * during this time to safely support ISR preemption
   */
  cpu_sr = alt_irq_disable_all();
   539b8:	e0bfff15 	stw	r2,-4(fp)
  alt_tick ();
   539bc:	005467c0 	call	5467c <alt_tick>
   539c0:	e0bfff17 	ldw	r2,-4(fp)
   539c4:	e0bffe15 	stw	r2,-8(fp)
  NIOS2_WRITE_STATUS (context);
   539c8:	e0bffe17 	ldw	r2,-8(fp)
   539cc:	1001703a 	wrctl	status,r2
}
   539d0:	0001883a 	nop
  alt_irq_enable_all(cpu_sr);
}
   539d4:	0001883a 	nop
   539d8:	e037883a 	mov	sp,fp
   539dc:	dfc00117 	ldw	ra,4(sp)
   539e0:	df000017 	ldw	fp,0(sp)
   539e4:	dec00204 	addi	sp,sp,8
   539e8:	f800283a 	ret

000539ec <alt_avalon_timer_sc_init>:
 * auto-generated alt_sys_init() function.
 */

void alt_avalon_timer_sc_init (void* base, alt_u32 irq_controller_id, 
                                alt_u32 irq, alt_u32 freq)
{
   539ec:	defff904 	addi	sp,sp,-28
   539f0:	dfc00615 	stw	ra,24(sp)
   539f4:	df000515 	stw	fp,20(sp)
   539f8:	df000504 	addi	fp,sp,20
   539fc:	e13ffe15 	stw	r4,-8(fp)
   53a00:	e17ffd15 	stw	r5,-12(fp)
   53a04:	e1bffc15 	stw	r6,-16(fp)
   53a08:	e1fffb15 	stw	r7,-20(fp)
   53a0c:	e0bffb17 	ldw	r2,-20(fp)
   53a10:	e0bfff15 	stw	r2,-4(fp)
 * in order to initialise the value of the clock frequency.
 */

static ALT_INLINE int ALT_ALWAYS_INLINE alt_sysclk_init (alt_u32 nticks)
{
  if (! _alt_tick_rate)
   53a14:	d0a71a17 	ldw	r2,-25496(gp)
   53a18:	1000031e 	bne	r2,zero,53a28 <alt_avalon_timer_sc_init+0x3c>
  {
    _alt_tick_rate = nticks;
   53a1c:	e0bfff17 	ldw	r2,-4(fp)
   53a20:	d0a71a15 	stw	r2,-25496(gp)
    return 0;
   53a24:	00000106 	br	53a2c <alt_avalon_timer_sc_init+0x40>
  }
  else
  {
    return -1;
   53a28:	0001883a 	nop
  
  alt_sysclk_init (freq);
  
  /* set to free running mode */
  
  IOWR_ALTERA_AVALON_TIMER_CONTROL (base, 
   53a2c:	e0bffe17 	ldw	r2,-8(fp)
   53a30:	10800104 	addi	r2,r2,4
   53a34:	00c001c4 	movi	r3,7
   53a38:	10c00035 	stwio	r3,0(r2)
  /* register the interrupt handler, and enable the interrupt */
#ifdef ALT_ENHANCED_INTERRUPT_API_PRESENT
  alt_ic_isr_register(irq_controller_id, irq, alt_avalon_timer_sc_irq, 
                      base, NULL);
#else
  alt_irq_register (irq, base, alt_avalon_timer_sc_irq);
   53a3c:	01800174 	movhi	r6,5
   53a40:	318e5b04 	addi	r6,r6,14700
   53a44:	e17ffe17 	ldw	r5,-8(fp)
   53a48:	e13ffc17 	ldw	r4,-16(fp)
   53a4c:	00523c40 	call	523c4 <alt_irq_register>
#endif  
}
   53a50:	0001883a 	nop
   53a54:	e037883a 	mov	sp,fp
   53a58:	dfc00117 	ldw	ra,4(sp)
   53a5c:	df000017 	ldw	fp,0(sp)
   53a60:	dec00204 	addi	sp,sp,8
   53a64:	f800283a 	ret

00053a68 <alt_up_accelerometer_spi_open_dev>:

#include "altera_up_avalon_accelerometer_spi.h"
#include "altera_up_avalon_accelerometer_spi_regs.h"

alt_up_accelerometer_spi_dev* alt_up_accelerometer_spi_open_dev(const char* name)
{
   53a68:	defffc04 	addi	sp,sp,-16
   53a6c:	dfc00315 	stw	ra,12(sp)
   53a70:	df000215 	stw	fp,8(sp)
   53a74:	df000204 	addi	fp,sp,8
   53a78:	e13ffe15 	stw	r4,-8(fp)
  // find the device from the device list 
  // (see altera_hal/HAL/inc/priv/alt_file.h 
  // and altera_hal/HAL/src/alt_find_dev.c 
  // for details)
  alt_up_accelerometer_spi_dev *dev = (alt_up_accelerometer_spi_dev*)alt_find_dev(name, &alt_dev_list);
   53a7c:	d1600604 	addi	r5,gp,-32744
   53a80:	e13ffe17 	ldw	r4,-8(fp)
   53a84:	00541600 	call	54160 <alt_find_dev>
   53a88:	e0bfff15 	stw	r2,-4(fp)

  return dev;
   53a8c:	e0bfff17 	ldw	r2,-4(fp)
}
   53a90:	e037883a 	mov	sp,fp
   53a94:	dfc00117 	ldw	ra,4(sp)
   53a98:	df000017 	ldw	fp,0(sp)
   53a9c:	dec00204 	addi	sp,sp,8
   53aa0:	f800283a 	ret

00053aa4 <alt_up_accelerometer_spi_read_address_register>:
 * @param addr -- a pointer to the location where the read address should be stored
 *
 * @return 0 for success 
 **/
int alt_up_accelerometer_spi_read_address_register(alt_up_accelerometer_spi_dev *accel_spi, alt_u8 *addr)
{
   53aa4:	defffd04 	addi	sp,sp,-12
   53aa8:	df000215 	stw	fp,8(sp)
   53aac:	df000204 	addi	fp,sp,8
   53ab0:	e13fff15 	stw	r4,-4(fp)
   53ab4:	e17ffe15 	stw	r5,-8(fp)
	// reads data from the device Address register
	*(addr) = IORD_ALT_UP_ACCELEROMETER_SPI_ADDRESS(accel_spi->base); 
   53ab8:	e0bfff17 	ldw	r2,-4(fp)
   53abc:	10800a17 	ldw	r2,40(r2)
   53ac0:	10800023 	ldbuio	r2,0(r2)
   53ac4:	10803fcc 	andi	r2,r2,255
   53ac8:	1007883a 	mov	r3,r2
   53acc:	e0bffe17 	ldw	r2,-8(fp)
   53ad0:	10c00005 	stb	r3,0(r2)

	return 0;
   53ad4:	0005883a 	mov	r2,zero
}
   53ad8:	e037883a 	mov	sp,fp
   53adc:	df000017 	ldw	fp,0(sp)
   53ae0:	dec00104 	addi	sp,sp,4
   53ae4:	f800283a 	ret

00053ae8 <alt_up_accelerometer_spi_read>:
 * @param data -- a pointer to the location where the read data should be stored
 *
 * @return 0 for success
 **/
int alt_up_accelerometer_spi_read(alt_up_accelerometer_spi_dev *accel_spi, alt_u8 addr, alt_u8 *data)
{
   53ae8:	defffc04 	addi	sp,sp,-16
   53aec:	df000315 	stw	fp,12(sp)
   53af0:	df000304 	addi	fp,sp,12
   53af4:	e13fff15 	stw	r4,-4(fp)
   53af8:	2805883a 	mov	r2,r5
   53afc:	e1bffd15 	stw	r6,-12(fp)
   53b00:	e0bffe05 	stb	r2,-8(fp)
	// set the register address in the Address register
	IOWR_ALT_UP_ACCELEROMETER_SPI_ADDRESS(accel_spi->base, addr & ALT_UP_ACCELEROMETER_SPI_ADDRESS_ADDR_MSK); 
   53b04:	e0bfff17 	ldw	r2,-4(fp)
   53b08:	10800a17 	ldw	r2,40(r2)
   53b0c:	1007883a 	mov	r3,r2
   53b10:	e0bffe03 	ldbu	r2,-8(fp)
   53b14:	10800fcc 	andi	r2,r2,63
   53b18:	18800025 	stbio	r2,0(r3)

	// read data to the device Data register
	*(data) = IORD_ALT_UP_ACCELEROMETER_SPI_DATA(accel_spi->base) & ALT_UP_ACCELEROMETER_SPI_DATA_DATA_MSK;
   53b1c:	e0bfff17 	ldw	r2,-4(fp)
   53b20:	10800a17 	ldw	r2,40(r2)
   53b24:	10800044 	addi	r2,r2,1
   53b28:	10800023 	ldbuio	r2,0(r2)
   53b2c:	10803fcc 	andi	r2,r2,255
   53b30:	1007883a 	mov	r3,r2
   53b34:	e0bffd17 	ldw	r2,-12(fp)
   53b38:	10c00005 	stb	r3,0(r2)

	return 0;
   53b3c:	0005883a 	mov	r2,zero
}
   53b40:	e037883a 	mov	sp,fp
   53b44:	df000017 	ldw	fp,0(sp)
   53b48:	dec00104 	addi	sp,sp,4
   53b4c:	f800283a 	ret

00053b50 <alt_up_accelerometer_spi_write>:
 * @param data -- the data to be written
 *
 * @return 0 for success
 **/
int alt_up_accelerometer_spi_write(alt_up_accelerometer_spi_dev *accel_spi, alt_u8 addr, alt_u8 data)
{
   53b50:	defffc04 	addi	sp,sp,-16
   53b54:	df000315 	stw	fp,12(sp)
   53b58:	df000304 	addi	fp,sp,12
   53b5c:	e13fff15 	stw	r4,-4(fp)
   53b60:	2805883a 	mov	r2,r5
   53b64:	3007883a 	mov	r3,r6
   53b68:	e0bffe05 	stb	r2,-8(fp)
   53b6c:	1805883a 	mov	r2,r3
   53b70:	e0bffd05 	stb	r2,-12(fp)
	// set the register address in the Address register
	IOWR_ALT_UP_ACCELEROMETER_SPI_ADDRESS(accel_spi->base, addr & ALT_UP_ACCELEROMETER_SPI_ADDRESS_ADDR_MSK); 
   53b74:	e0bfff17 	ldw	r2,-4(fp)
   53b78:	10800a17 	ldw	r2,40(r2)
   53b7c:	1007883a 	mov	r3,r2
   53b80:	e0bffe03 	ldbu	r2,-8(fp)
   53b84:	10800fcc 	andi	r2,r2,63
   53b88:	18800025 	stbio	r2,0(r3)

	// write data to the device Data register
	IOWR_ALT_UP_ACCELEROMETER_SPI_DATA(accel_spi->base, data & ALT_UP_ACCELEROMETER_SPI_DATA_DATA_MSK); 
   53b8c:	e0bfff17 	ldw	r2,-4(fp)
   53b90:	10800a17 	ldw	r2,40(r2)
   53b94:	10800044 	addi	r2,r2,1
   53b98:	1007883a 	mov	r3,r2
   53b9c:	e0bffd03 	ldbu	r2,-12(fp)
   53ba0:	18800025 	stbio	r2,0(r3)

	return 0;
   53ba4:	0005883a 	mov	r2,zero
}
   53ba8:	e037883a 	mov	sp,fp
   53bac:	df000017 	ldw	fp,0(sp)
   53bb0:	dec00104 	addi	sp,sp,4
   53bb4:	f800283a 	ret

00053bb8 <alt_up_accelerometer_spi_read_x_axis>:
 * @param x_axis -- a pointer to the location where the x axis data should be stored
 *
 * @return 0 for success or -1 for failure
 **/
int alt_up_accelerometer_spi_read_x_axis(alt_up_accelerometer_spi_dev *accel_spi, alt_32 *x_axis)
{
   53bb8:	defffd04 	addi	sp,sp,-12
   53bbc:	df000215 	stw	fp,8(sp)
   53bc0:	df000204 	addi	fp,sp,8
   53bc4:	e13fff15 	stw	r4,-4(fp)
   53bc8:	e17ffe15 	stw	r5,-8(fp)
	// set the register address in the Address register
	IOWR_ALT_UP_ACCELEROMETER_SPI_ADDRESS(accel_spi->base, ACCELEROMETER_SPI_X_AXIS_LOWER_BYTE & ALT_UP_ACCELEROMETER_SPI_ADDRESS_ADDR_MSK); 
   53bcc:	e0bfff17 	ldw	r2,-4(fp)
   53bd0:	10800a17 	ldw	r2,40(r2)
   53bd4:	1007883a 	mov	r3,r2
   53bd8:	00800c84 	movi	r2,50
   53bdc:	18800025 	stbio	r2,0(r3)

	// read data to the device Data register
	*(x_axis) = IORD_ALT_UP_ACCELEROMETER_SPI_DATA(accel_spi->base) & ALT_UP_ACCELEROMETER_SPI_DATA_DATA_MSK;
   53be0:	e0bfff17 	ldw	r2,-4(fp)
   53be4:	10800a17 	ldw	r2,40(r2)
   53be8:	10800044 	addi	r2,r2,1
   53bec:	10800023 	ldbuio	r2,0(r2)
   53bf0:	10803fcc 	andi	r2,r2,255
   53bf4:	10ffffcc 	andi	r3,r2,65535
   53bf8:	e0bffe17 	ldw	r2,-8(fp)
   53bfc:	10c00015 	stw	r3,0(r2)

	// set the register address in the Address register
	IOWR_ALT_UP_ACCELEROMETER_SPI_ADDRESS(accel_spi->base, ACCELEROMETER_SPI_X_AXIS_UPPER_BYTE & ALT_UP_ACCELEROMETER_SPI_ADDRESS_ADDR_MSK); 
   53c00:	e0bfff17 	ldw	r2,-4(fp)
   53c04:	10800a17 	ldw	r2,40(r2)
   53c08:	1007883a 	mov	r3,r2
   53c0c:	00800cc4 	movi	r2,51
   53c10:	18800025 	stbio	r2,0(r3)

	// read data to the device Data register
	*(x_axis) += (IORD_ALT_UP_ACCELEROMETER_SPI_DATA(accel_spi->base) & ALT_UP_ACCELEROMETER_SPI_DATA_DATA_MSK) << 8;
   53c14:	e0bfff17 	ldw	r2,-4(fp)
   53c18:	10800a17 	ldw	r2,40(r2)
   53c1c:	10800044 	addi	r2,r2,1
   53c20:	10800023 	ldbuio	r2,0(r2)
   53c24:	10803fcc 	andi	r2,r2,255
   53c28:	1006923a 	slli	r3,r2,8
   53c2c:	00804034 	movhi	r2,256
   53c30:	10bfc004 	addi	r2,r2,-256
   53c34:	1884703a 	and	r2,r3,r2
   53c38:	e0fffe17 	ldw	r3,-8(fp)
   53c3c:	18c00017 	ldw	r3,0(r3)
   53c40:	10c5883a 	add	r2,r2,r3
   53c44:	1007883a 	mov	r3,r2
   53c48:	e0bffe17 	ldw	r2,-8(fp)
   53c4c:	10c00015 	stw	r3,0(r2)

	if (*(x_axis) & 0x00008000)
   53c50:	e0bffe17 	ldw	r2,-8(fp)
   53c54:	10800017 	ldw	r2,0(r2)
   53c58:	10a0000c 	andi	r2,r2,32768
   53c5c:	10000626 	beq	r2,zero,53c78 <alt_up_accelerometer_spi_read_x_axis+0xc0>
	{
		*(x_axis) |= 0xFFFF0000;
   53c60:	e0bffe17 	ldw	r2,-8(fp)
   53c64:	10800017 	ldw	r2,0(r2)
   53c68:	10bffff4 	orhi	r2,r2,65535
   53c6c:	1007883a 	mov	r3,r2
   53c70:	e0bffe17 	ldw	r2,-8(fp)
   53c74:	10c00015 	stw	r3,0(r2)
	}

	return 0;
   53c78:	0005883a 	mov	r2,zero
}
   53c7c:	e037883a 	mov	sp,fp
   53c80:	df000017 	ldw	fp,0(sp)
   53c84:	dec00104 	addi	sp,sp,4
   53c88:	f800283a 	ret

00053c8c <alt_up_accelerometer_spi_read_y_axis>:
 * @param y_axis -- a pointer to the location where the y axis data should be stored
 *
 * @return 0 for success or -1 for failure
 **/
int alt_up_accelerometer_spi_read_y_axis(alt_up_accelerometer_spi_dev *accel_spi, alt_32 *y_axis)
{
   53c8c:	defffd04 	addi	sp,sp,-12
   53c90:	df000215 	stw	fp,8(sp)
   53c94:	df000204 	addi	fp,sp,8
   53c98:	e13fff15 	stw	r4,-4(fp)
   53c9c:	e17ffe15 	stw	r5,-8(fp)
	// set the register address in the Address register
	IOWR_ALT_UP_ACCELEROMETER_SPI_ADDRESS(accel_spi->base, ACCELEROMETER_SPI_Y_AXIS_LOWER_BYTE & ALT_UP_ACCELEROMETER_SPI_ADDRESS_ADDR_MSK); 
   53ca0:	e0bfff17 	ldw	r2,-4(fp)
   53ca4:	10800a17 	ldw	r2,40(r2)
   53ca8:	1007883a 	mov	r3,r2
   53cac:	00800d04 	movi	r2,52
   53cb0:	18800025 	stbio	r2,0(r3)

	// read data to the device Data register
	*(y_axis) = IORD_ALT_UP_ACCELEROMETER_SPI_DATA(accel_spi->base) & ALT_UP_ACCELEROMETER_SPI_DATA_DATA_MSK;
   53cb4:	e0bfff17 	ldw	r2,-4(fp)
   53cb8:	10800a17 	ldw	r2,40(r2)
   53cbc:	10800044 	addi	r2,r2,1
   53cc0:	10800023 	ldbuio	r2,0(r2)
   53cc4:	10803fcc 	andi	r2,r2,255
   53cc8:	10ffffcc 	andi	r3,r2,65535
   53ccc:	e0bffe17 	ldw	r2,-8(fp)
   53cd0:	10c00015 	stw	r3,0(r2)

	// set the register address in the Address register
	IOWR_ALT_UP_ACCELEROMETER_SPI_ADDRESS(accel_spi->base, ACCELEROMETER_SPI_Y_AXIS_UPPER_BYTE & ALT_UP_ACCELEROMETER_SPI_ADDRESS_ADDR_MSK); 
   53cd4:	e0bfff17 	ldw	r2,-4(fp)
   53cd8:	10800a17 	ldw	r2,40(r2)
   53cdc:	1007883a 	mov	r3,r2
   53ce0:	00800d44 	movi	r2,53
   53ce4:	18800025 	stbio	r2,0(r3)

	// read data to the device Data register
	*(y_axis) += (IORD_ALT_UP_ACCELEROMETER_SPI_DATA(accel_spi->base) & ALT_UP_ACCELEROMETER_SPI_DATA_DATA_MSK) << 8;
   53ce8:	e0bfff17 	ldw	r2,-4(fp)
   53cec:	10800a17 	ldw	r2,40(r2)
   53cf0:	10800044 	addi	r2,r2,1
   53cf4:	10800023 	ldbuio	r2,0(r2)
   53cf8:	10803fcc 	andi	r2,r2,255
   53cfc:	1006923a 	slli	r3,r2,8
   53d00:	00804034 	movhi	r2,256
   53d04:	10bfc004 	addi	r2,r2,-256
   53d08:	1884703a 	and	r2,r3,r2
   53d0c:	e0fffe17 	ldw	r3,-8(fp)
   53d10:	18c00017 	ldw	r3,0(r3)
   53d14:	10c5883a 	add	r2,r2,r3
   53d18:	1007883a 	mov	r3,r2
   53d1c:	e0bffe17 	ldw	r2,-8(fp)
   53d20:	10c00015 	stw	r3,0(r2)

	if (*(y_axis) & 0x00008000)
   53d24:	e0bffe17 	ldw	r2,-8(fp)
   53d28:	10800017 	ldw	r2,0(r2)
   53d2c:	10a0000c 	andi	r2,r2,32768
   53d30:	10000626 	beq	r2,zero,53d4c <alt_up_accelerometer_spi_read_y_axis+0xc0>
	{
		*(y_axis) |= 0xFFFF0000;
   53d34:	e0bffe17 	ldw	r2,-8(fp)
   53d38:	10800017 	ldw	r2,0(r2)
   53d3c:	10bffff4 	orhi	r2,r2,65535
   53d40:	1007883a 	mov	r3,r2
   53d44:	e0bffe17 	ldw	r2,-8(fp)
   53d48:	10c00015 	stw	r3,0(r2)
	}

	return 0;
   53d4c:	0005883a 	mov	r2,zero
}
   53d50:	e037883a 	mov	sp,fp
   53d54:	df000017 	ldw	fp,0(sp)
   53d58:	dec00104 	addi	sp,sp,4
   53d5c:	f800283a 	ret

00053d60 <alt_up_accelerometer_spi_read_z_axis>:
 * @param z_axis -- a pointer to the location where the z axis data should be stored
 *
 * @return 0 for success or -1 for failure
 **/
int alt_up_accelerometer_spi_read_z_axis(alt_up_accelerometer_spi_dev *accel_spi, alt_32 *z_axis)
{
   53d60:	defffd04 	addi	sp,sp,-12
   53d64:	df000215 	stw	fp,8(sp)
   53d68:	df000204 	addi	fp,sp,8
   53d6c:	e13fff15 	stw	r4,-4(fp)
   53d70:	e17ffe15 	stw	r5,-8(fp)
	// set the register address in the Address register
	IOWR_ALT_UP_ACCELEROMETER_SPI_ADDRESS(accel_spi->base, ACCELEROMETER_SPI_Z_AXIS_LOWER_BYTE & ALT_UP_ACCELEROMETER_SPI_ADDRESS_ADDR_MSK); 
   53d74:	e0bfff17 	ldw	r2,-4(fp)
   53d78:	10800a17 	ldw	r2,40(r2)
   53d7c:	1007883a 	mov	r3,r2
   53d80:	00800d84 	movi	r2,54
   53d84:	18800025 	stbio	r2,0(r3)

	// read data to the device Data register
	*(z_axis) = IORD_ALT_UP_ACCELEROMETER_SPI_DATA(accel_spi->base) & ALT_UP_ACCELEROMETER_SPI_DATA_DATA_MSK;
   53d88:	e0bfff17 	ldw	r2,-4(fp)
   53d8c:	10800a17 	ldw	r2,40(r2)
   53d90:	10800044 	addi	r2,r2,1
   53d94:	10800023 	ldbuio	r2,0(r2)
   53d98:	10803fcc 	andi	r2,r2,255
   53d9c:	10ffffcc 	andi	r3,r2,65535
   53da0:	e0bffe17 	ldw	r2,-8(fp)
   53da4:	10c00015 	stw	r3,0(r2)

	// set the register address in the Address register
	IOWR_ALT_UP_ACCELEROMETER_SPI_ADDRESS(accel_spi->base, ACCELEROMETER_SPI_Z_AXIS_UPPER_BYTE & ALT_UP_ACCELEROMETER_SPI_ADDRESS_ADDR_MSK); 
   53da8:	e0bfff17 	ldw	r2,-4(fp)
   53dac:	10800a17 	ldw	r2,40(r2)
   53db0:	1007883a 	mov	r3,r2
   53db4:	00800dc4 	movi	r2,55
   53db8:	18800025 	stbio	r2,0(r3)

	// read data to the device Data register
	*(z_axis) += (IORD_ALT_UP_ACCELEROMETER_SPI_DATA(accel_spi->base) & ALT_UP_ACCELEROMETER_SPI_DATA_DATA_MSK) << 8;
   53dbc:	e0bfff17 	ldw	r2,-4(fp)
   53dc0:	10800a17 	ldw	r2,40(r2)
   53dc4:	10800044 	addi	r2,r2,1
   53dc8:	10800023 	ldbuio	r2,0(r2)
   53dcc:	10803fcc 	andi	r2,r2,255
   53dd0:	1006923a 	slli	r3,r2,8
   53dd4:	00804034 	movhi	r2,256
   53dd8:	10bfc004 	addi	r2,r2,-256
   53ddc:	1884703a 	and	r2,r3,r2
   53de0:	e0fffe17 	ldw	r3,-8(fp)
   53de4:	18c00017 	ldw	r3,0(r3)
   53de8:	10c5883a 	add	r2,r2,r3
   53dec:	1007883a 	mov	r3,r2
   53df0:	e0bffe17 	ldw	r2,-8(fp)
   53df4:	10c00015 	stw	r3,0(r2)

	if (*(z_axis) & 0x00008000)
   53df8:	e0bffe17 	ldw	r2,-8(fp)
   53dfc:	10800017 	ldw	r2,0(r2)
   53e00:	10a0000c 	andi	r2,r2,32768
   53e04:	10000626 	beq	r2,zero,53e20 <alt_up_accelerometer_spi_read_z_axis+0xc0>
	{
		*(z_axis) |= 0xFFFF0000;
   53e08:	e0bffe17 	ldw	r2,-8(fp)
   53e0c:	10800017 	ldw	r2,0(r2)
   53e10:	10bffff4 	orhi	r2,r2,65535
   53e14:	1007883a 	mov	r3,r2
   53e18:	e0bffe17 	ldw	r2,-8(fp)
   53e1c:	10c00015 	stw	r3,0(r2)
	}

	return 0;
   53e20:	0005883a 	mov	r2,zero
}
   53e24:	e037883a 	mov	sp,fp
   53e28:	df000017 	ldw	fp,0(sp)
   53e2c:	dec00104 	addi	sp,sp,4
   53e30:	f800283a 	ret

00053e34 <alt_alarm_start>:
 */ 

int alt_alarm_start (alt_alarm* alarm, alt_u32 nticks,
                     alt_u32 (*callback) (void* context),
                     void* context)
{
   53e34:	defff404 	addi	sp,sp,-48
   53e38:	df000b15 	stw	fp,44(sp)
   53e3c:	df000b04 	addi	fp,sp,44
   53e40:	e13ff815 	stw	r4,-32(fp)
   53e44:	e17ff715 	stw	r5,-36(fp)
   53e48:	e1bff615 	stw	r6,-40(fp)
   53e4c:	e1fff515 	stw	r7,-44(fp)
  alt_irq_context irq_context;
  alt_u64 current_nticks = 0;
   53e50:	e03ffe15 	stw	zero,-8(fp)
   53e54:	e03fff15 	stw	zero,-4(fp)
  return _alt_tick_rate;
   53e58:	d0a71a17 	ldw	r2,-25496(gp)
  
  if (alt_ticks_per_second ())
   53e5c:	10004826 	beq	r2,zero,53f80 <alt_alarm_start+0x14c>
  {
    if (alarm)
   53e60:	e0bff817 	ldw	r2,-32(fp)
   53e64:	10004426 	beq	r2,zero,53f78 <alt_alarm_start+0x144>
    {
      alarm->callback = callback;
   53e68:	e0bff817 	ldw	r2,-32(fp)
   53e6c:	e0fff617 	ldw	r3,-40(fp)
   53e70:	10c00415 	stw	r3,16(r2)
      alarm->context  = context;
   53e74:	e0bff817 	ldw	r2,-32(fp)
   53e78:	e0fff517 	ldw	r3,-44(fp)
   53e7c:	10c00515 	stw	r3,20(r2)
  NIOS2_READ_STATUS (context);
   53e80:	0005303a 	rdctl	r2,status
   53e84:	e0bff915 	stw	r2,-28(fp)
  NIOS2_WRITE_STATUS (context & ~NIOS2_STATUS_PIE_MSK);
   53e88:	e0fff917 	ldw	r3,-28(fp)
   53e8c:	00bfff84 	movi	r2,-2
   53e90:	1884703a 	and	r2,r3,r2
   53e94:	1001703a 	wrctl	status,r2
  return context;
   53e98:	e0bff917 	ldw	r2,-28(fp)
 
      irq_context = alt_irq_disable_all ();
   53e9c:	e0bffd15 	stw	r2,-12(fp)
 * alt_nticks() returns the elapsed number of system clock ticks since reset.
 */

static ALT_INLINE alt_u64 ALT_ALWAYS_INLINE alt_nticks (void)
{
  return _alt_nticks;
   53ea0:	d0a71b17 	ldw	r2,-25492(gp)
   53ea4:	d0e71c17 	ldw	r3,-25488(gp)
      
      current_nticks = alt_nticks();
   53ea8:	e0bffe15 	stw	r2,-8(fp)
   53eac:	e0ffff15 	stw	r3,-4(fp)
      
      alarm->time = (alt_u64)nticks + current_nticks + 1; 
   53eb0:	e0bff717 	ldw	r2,-36(fp)
   53eb4:	1011883a 	mov	r8,r2
   53eb8:	0013883a 	mov	r9,zero
   53ebc:	e13ffe17 	ldw	r4,-8(fp)
   53ec0:	e17fff17 	ldw	r5,-4(fp)
   53ec4:	4105883a 	add	r2,r8,r4
   53ec8:	120d803a 	cmpltu	r6,r2,r8
   53ecc:	4947883a 	add	r3,r9,r5
   53ed0:	30c9883a 	add	r4,r6,r3
   53ed4:	2007883a 	mov	r3,r4
   53ed8:	1009883a 	mov	r4,r2
   53edc:	180b883a 	mov	r5,r3
   53ee0:	01800044 	movi	r6,1
   53ee4:	000f883a 	mov	r7,zero
   53ee8:	2185883a 	add	r2,r4,r6
   53eec:	1111803a 	cmpltu	r8,r2,r4
   53ef0:	29c7883a 	add	r3,r5,r7
   53ef4:	40c9883a 	add	r4,r8,r3
   53ef8:	2007883a 	mov	r3,r4
   53efc:	1009883a 	mov	r4,r2
   53f00:	180b883a 	mov	r5,r3
   53f04:	e0bff817 	ldw	r2,-32(fp)
   53f08:	11000215 	stw	r4,8(r2)
   53f0c:	11400315 	stw	r5,12(r2)
          
      alt_llist_insert (&alt_alarm_list, &alarm->llist);
   53f10:	e0bff817 	ldw	r2,-32(fp)
   53f14:	d0e00c04 	addi	r3,gp,-32720
   53f18:	e0fffb15 	stw	r3,-20(fp)
   53f1c:	e0bffa15 	stw	r2,-24(fp)
 */

static ALT_INLINE void ALT_ALWAYS_INLINE alt_llist_insert(alt_llist* list, 
                alt_llist* entry)
{
  entry->previous = list;
   53f20:	e0bffa17 	ldw	r2,-24(fp)
   53f24:	e0fffb17 	ldw	r3,-20(fp)
   53f28:	10c00115 	stw	r3,4(r2)
  entry->next     = list->next;
   53f2c:	e0bffb17 	ldw	r2,-20(fp)
   53f30:	10c00017 	ldw	r3,0(r2)
   53f34:	e0bffa17 	ldw	r2,-24(fp)
   53f38:	10c00015 	stw	r3,0(r2)

  list->next->previous = entry;
   53f3c:	e0bffb17 	ldw	r2,-20(fp)
   53f40:	10800017 	ldw	r2,0(r2)
   53f44:	e0fffa17 	ldw	r3,-24(fp)
   53f48:	10c00115 	stw	r3,4(r2)
  list->next           = entry;
   53f4c:	e0bffb17 	ldw	r2,-20(fp)
   53f50:	e0fffa17 	ldw	r3,-24(fp)
   53f54:	10c00015 	stw	r3,0(r2)
}
   53f58:	0001883a 	nop
   53f5c:	e0bffd17 	ldw	r2,-12(fp)
   53f60:	e0bffc15 	stw	r2,-16(fp)
  NIOS2_WRITE_STATUS (context);
   53f64:	e0bffc17 	ldw	r2,-16(fp)
   53f68:	1001703a 	wrctl	status,r2
}
   53f6c:	0001883a 	nop
      alt_irq_enable_all (irq_context);

      return 0;
   53f70:	0005883a 	mov	r2,zero
   53f74:	00000306 	br	53f84 <alt_alarm_start+0x150>
    }
    else
    {
      return -EINVAL;
   53f78:	00bffa84 	movi	r2,-22
   53f7c:	00000106 	br	53f84 <alt_alarm_start+0x150>
    }
  }
  else
  {
    return -ENOTSUP;
   53f80:	00bfde84 	movi	r2,-134
  }
}
   53f84:	e037883a 	mov	sp,fp
   53f88:	df000017 	ldw	fp,0(sp)
   53f8c:	dec00104 	addi	sp,sp,4
   53f90:	f800283a 	ret

00053f94 <alt_dcache_flush_all>:
/*
 * alt_dcache_flush_all() is called to flush the entire data cache.
 */

void alt_dcache_flush_all (void)
{
   53f94:	deffff04 	addi	sp,sp,-4
   53f98:	df000015 	stw	fp,0(sp)
   53f9c:	d839883a 	mov	fp,sp
  for (i = (char*) 0; i < (char*) NIOS2_DCACHE_SIZE; i+= NIOS2_DCACHE_LINE_SIZE)
  { 
    __asm__ volatile ("flushd (%0)" :: "r" (i));
  }
#endif /* NIOS2_DCACHE_SIZE > 0 */
}
   53fa0:	0001883a 	nop
   53fa4:	e037883a 	mov	sp,fp
   53fa8:	df000017 	ldw	fp,0(sp)
   53fac:	dec00104 	addi	sp,sp,4
   53fb0:	f800283a 	ret

00053fb4 <alt_get_errno>:
{
   53fb4:	defffe04 	addi	sp,sp,-8
   53fb8:	dfc00115 	stw	ra,4(sp)
   53fbc:	df000015 	stw	fp,0(sp)
   53fc0:	d839883a 	mov	fp,sp
  return ((alt_errno) ? alt_errno() : &errno);
   53fc4:	d0a00917 	ldw	r2,-32732(gp)
   53fc8:	10000326 	beq	r2,zero,53fd8 <alt_get_errno+0x24>
   53fcc:	d0a00917 	ldw	r2,-32732(gp)
   53fd0:	103ee83a 	callr	r2
   53fd4:	00000106 	br	53fdc <alt_get_errno+0x28>
   53fd8:	d0a71404 	addi	r2,gp,-25520
}
   53fdc:	e037883a 	mov	sp,fp
   53fe0:	dfc00117 	ldw	ra,4(sp)
   53fe4:	df000017 	ldw	fp,0(sp)
   53fe8:	dec00204 	addi	sp,sp,8
   53fec:	f800283a 	ret

00053ff0 <alt_dev_llist_insert>:
/*
 *
 */

int alt_dev_llist_insert (alt_dev_llist* dev, alt_llist* list)
{
   53ff0:	defffa04 	addi	sp,sp,-24
   53ff4:	dfc00515 	stw	ra,20(sp)
   53ff8:	df000415 	stw	fp,16(sp)
   53ffc:	df000404 	addi	fp,sp,16
   54000:	e13ffd15 	stw	r4,-12(fp)
   54004:	e17ffc15 	stw	r5,-16(fp)
  /*
   * check that the device exists, and that it has a valid name.
   */

  if (!dev || !dev->name)
   54008:	e0bffd17 	ldw	r2,-12(fp)
   5400c:	10000326 	beq	r2,zero,5401c <alt_dev_llist_insert+0x2c>
   54010:	e0bffd17 	ldw	r2,-12(fp)
   54014:	10800217 	ldw	r2,8(r2)
   54018:	1000061e 	bne	r2,zero,54034 <alt_dev_llist_insert+0x44>
  {
    ALT_ERRNO = EINVAL;
   5401c:	0053fb40 	call	53fb4 <alt_get_errno>
   54020:	1007883a 	mov	r3,r2
   54024:	00800584 	movi	r2,22
   54028:	18800015 	stw	r2,0(r3)
    return -EINVAL;
   5402c:	00bffa84 	movi	r2,-22
   54030:	00001406 	br	54084 <alt_dev_llist_insert+0x94>
  
  /*
   * register the device.
   */
  
  alt_llist_insert(list, &dev->llist);
   54034:	e0bffd17 	ldw	r2,-12(fp)
   54038:	e0fffc17 	ldw	r3,-16(fp)
   5403c:	e0ffff15 	stw	r3,-4(fp)
   54040:	e0bffe15 	stw	r2,-8(fp)
  entry->previous = list;
   54044:	e0bffe17 	ldw	r2,-8(fp)
   54048:	e0ffff17 	ldw	r3,-4(fp)
   5404c:	10c00115 	stw	r3,4(r2)
  entry->next     = list->next;
   54050:	e0bfff17 	ldw	r2,-4(fp)
   54054:	10c00017 	ldw	r3,0(r2)
   54058:	e0bffe17 	ldw	r2,-8(fp)
   5405c:	10c00015 	stw	r3,0(r2)
  list->next->previous = entry;
   54060:	e0bfff17 	ldw	r2,-4(fp)
   54064:	10800017 	ldw	r2,0(r2)
   54068:	e0fffe17 	ldw	r3,-8(fp)
   5406c:	10c00115 	stw	r3,4(r2)
  list->next           = entry;
   54070:	e0bfff17 	ldw	r2,-4(fp)
   54074:	e0fffe17 	ldw	r3,-8(fp)
   54078:	10c00015 	stw	r3,0(r2)
}
   5407c:	0001883a 	nop

  return 0;  
   54080:	0005883a 	mov	r2,zero
}
   54084:	e037883a 	mov	sp,fp
   54088:	dfc00117 	ldw	ra,4(sp)
   5408c:	df000017 	ldw	fp,0(sp)
   54090:	dec00204 	addi	sp,sp,8
   54094:	f800283a 	ret

00054098 <_do_ctors>:
/*
 * Run the C++ static constructors.
 */

void _do_ctors(void)
{
   54098:	defffd04 	addi	sp,sp,-12
   5409c:	dfc00215 	stw	ra,8(sp)
   540a0:	df000115 	stw	fp,4(sp)
   540a4:	df000104 	addi	fp,sp,4
  constructor* ctor;

  for (ctor = &__CTOR_END__[-1]; ctor >= __CTOR_LIST__; ctor--)
   540a8:	00800174 	movhi	r2,5
   540ac:	10944104 	addi	r2,r2,20740
   540b0:	e0bfff15 	stw	r2,-4(fp)
   540b4:	00000606 	br	540d0 <_do_ctors+0x38>
        (*ctor) (); 
   540b8:	e0bfff17 	ldw	r2,-4(fp)
   540bc:	10800017 	ldw	r2,0(r2)
   540c0:	103ee83a 	callr	r2
  for (ctor = &__CTOR_END__[-1]; ctor >= __CTOR_LIST__; ctor--)
   540c4:	e0bfff17 	ldw	r2,-4(fp)
   540c8:	10bfff04 	addi	r2,r2,-4
   540cc:	e0bfff15 	stw	r2,-4(fp)
   540d0:	e0ffff17 	ldw	r3,-4(fp)
   540d4:	00800174 	movhi	r2,5
   540d8:	10944204 	addi	r2,r2,20744
   540dc:	18bff62e 	bgeu	r3,r2,540b8 <_do_ctors+0x20>
}
   540e0:	0001883a 	nop
   540e4:	0001883a 	nop
   540e8:	e037883a 	mov	sp,fp
   540ec:	dfc00117 	ldw	ra,4(sp)
   540f0:	df000017 	ldw	fp,0(sp)
   540f4:	dec00204 	addi	sp,sp,8
   540f8:	f800283a 	ret

000540fc <_do_dtors>:
/*
 * Run the C++ static destructors.
 */

void _do_dtors(void)
{
   540fc:	defffd04 	addi	sp,sp,-12
   54100:	dfc00215 	stw	ra,8(sp)
   54104:	df000115 	stw	fp,4(sp)
   54108:	df000104 	addi	fp,sp,4
  destructor* dtor;

  for (dtor = &__DTOR_END__[-1]; dtor >= __DTOR_LIST__; dtor--)
   5410c:	00800174 	movhi	r2,5
   54110:	10944104 	addi	r2,r2,20740
   54114:	e0bfff15 	stw	r2,-4(fp)
   54118:	00000606 	br	54134 <_do_dtors+0x38>
        (*dtor) (); 
   5411c:	e0bfff17 	ldw	r2,-4(fp)
   54120:	10800017 	ldw	r2,0(r2)
   54124:	103ee83a 	callr	r2
  for (dtor = &__DTOR_END__[-1]; dtor >= __DTOR_LIST__; dtor--)
   54128:	e0bfff17 	ldw	r2,-4(fp)
   5412c:	10bfff04 	addi	r2,r2,-4
   54130:	e0bfff15 	stw	r2,-4(fp)
   54134:	e0ffff17 	ldw	r3,-4(fp)
   54138:	00800174 	movhi	r2,5
   5413c:	10944204 	addi	r2,r2,20744
   54140:	18bff62e 	bgeu	r3,r2,5411c <_do_dtors+0x20>
}
   54144:	0001883a 	nop
   54148:	0001883a 	nop
   5414c:	e037883a 	mov	sp,fp
   54150:	dfc00117 	ldw	ra,4(sp)
   54154:	df000017 	ldw	fp,0(sp)
   54158:	dec00204 	addi	sp,sp,8
   5415c:	f800283a 	ret

00054160 <alt_find_dev>:
 * "name" must be an exact match for the devices registered name for a match to
 * be found.
 */
 
alt_dev* alt_find_dev(const char* name, alt_llist* llist)
{
   54160:	defffa04 	addi	sp,sp,-24
   54164:	dfc00515 	stw	ra,20(sp)
   54168:	df000415 	stw	fp,16(sp)
   5416c:	df000404 	addi	fp,sp,16
   54170:	e13ffd15 	stw	r4,-12(fp)
   54174:	e17ffc15 	stw	r5,-16(fp)
  alt_dev* next = (alt_dev*) llist->next;
   54178:	e0bffc17 	ldw	r2,-16(fp)
   5417c:	10800017 	ldw	r2,0(r2)
   54180:	e0bfff15 	stw	r2,-4(fp)
  alt_32 len;

  len  = strlen(name) + 1;
   54184:	e13ffd17 	ldw	r4,-12(fp)
   54188:	004b3340 	call	4b334 <strlen>
   5418c:	10800044 	addi	r2,r2,1
   54190:	e0bffe15 	stw	r2,-8(fp)
  /*
   * Check each list entry in turn, until a match is found, or we reach the
   * end of the list (i.e. next winds up pointing back to the list head).
   */ 

  while (next != (alt_dev*) llist)
   54194:	00000d06 	br	541cc <alt_find_dev+0x6c>
    /* 
     * memcmp() is used here rather than strcmp() in order to reduce the size
     * of the executable.
     */

    if (!memcmp (next->name, name, len))
   54198:	e0bfff17 	ldw	r2,-4(fp)
   5419c:	10800217 	ldw	r2,8(r2)
   541a0:	e0fffe17 	ldw	r3,-8(fp)
   541a4:	180d883a 	mov	r6,r3
   541a8:	e17ffd17 	ldw	r5,-12(fp)
   541ac:	1009883a 	mov	r4,r2
   541b0:	0054b100 	call	54b10 <memcmp>
   541b4:	1000021e 	bne	r2,zero,541c0 <alt_find_dev+0x60>
    {
      /* match found */

      return next;
   541b8:	e0bfff17 	ldw	r2,-4(fp)
   541bc:	00000706 	br	541dc <alt_find_dev+0x7c>
    }
    next = (alt_dev*) next->llist.next;
   541c0:	e0bfff17 	ldw	r2,-4(fp)
   541c4:	10800017 	ldw	r2,0(r2)
   541c8:	e0bfff15 	stw	r2,-4(fp)
  while (next != (alt_dev*) llist)
   541cc:	e0ffff17 	ldw	r3,-4(fp)
   541d0:	e0bffc17 	ldw	r2,-16(fp)
   541d4:	18bff01e 	bne	r3,r2,54198 <alt_find_dev+0x38>
  }
  
  /* No match found */
  
  return NULL;
   541d8:	0005883a 	mov	r2,zero
}
   541dc:	e037883a 	mov	sp,fp
   541e0:	dfc00117 	ldw	ra,4(sp)
   541e4:	df000017 	ldw	fp,0(sp)
   541e8:	dec00204 	addi	sp,sp,8
   541ec:	f800283a 	ret

000541f0 <alt_icache_flush_all>:
/*
 * alt_icache_flush_all() is called to flush the entire instruction cache.
 */

void alt_icache_flush_all (void)
{
   541f0:	deffff04 	addi	sp,sp,-4
   541f4:	df000015 	stw	fp,0(sp)
   541f8:	d839883a 	mov	fp,sp
#if NIOS2_ICACHE_SIZE > 0
  alt_icache_flush (0, NIOS2_ICACHE_SIZE);
#endif
}
   541fc:	0001883a 	nop
   54200:	e037883a 	mov	sp,fp
   54204:	df000017 	ldw	fp,0(sp)
   54208:	dec00104 	addi	sp,sp,4
   5420c:	f800283a 	ret

00054210 <alt_open_fd>:
 * If the device can not be succesfully opened, then the input file descriptor
 * remains unchanged.
 */

static void alt_open_fd(alt_fd* fd, const char* name, int flags, int mode)
{
   54210:	defff904 	addi	sp,sp,-28
   54214:	dfc00615 	stw	ra,24(sp)
   54218:	df000515 	stw	fp,20(sp)
   5421c:	df000504 	addi	fp,sp,20
   54220:	e13ffe15 	stw	r4,-8(fp)
   54224:	e17ffd15 	stw	r5,-12(fp)
   54228:	e1bffc15 	stw	r6,-16(fp)
   5422c:	e1fffb15 	stw	r7,-20(fp)
  int old;

  old = open (name, flags, mode);
   54230:	e1bffb17 	ldw	r6,-20(fp)
   54234:	e17ffc17 	ldw	r5,-16(fp)
   54238:	e13ffd17 	ldw	r4,-12(fp)
   5423c:	00544780 	call	54478 <open>
   54240:	e0bfff15 	stw	r2,-4(fp)

  if (old >= 0)
   54244:	e0bfff17 	ldw	r2,-4(fp)
   54248:	10002016 	blt	r2,zero,542cc <alt_open_fd+0xbc>
  {
    fd->dev      = alt_fd_list[old].dev;
   5424c:	e0ffff17 	ldw	r3,-4(fp)
   54250:	1805883a 	mov	r2,r3
   54254:	1085883a 	add	r2,r2,r2
   54258:	10c5883a 	add	r2,r2,r3
   5425c:	100490ba 	slli	r2,r2,2
   54260:	00c00174 	movhi	r3,5
   54264:	10c7883a 	add	r3,r2,r3
   54268:	18d8a817 	ldw	r3,25248(r3)
   5426c:	e0bffe17 	ldw	r2,-8(fp)
   54270:	10c00015 	stw	r3,0(r2)
    fd->priv     = alt_fd_list[old].priv;
   54274:	e0ffff17 	ldw	r3,-4(fp)
   54278:	1805883a 	mov	r2,r3
   5427c:	1085883a 	add	r2,r2,r2
   54280:	10c5883a 	add	r2,r2,r3
   54284:	100490ba 	slli	r2,r2,2
   54288:	00c00174 	movhi	r3,5
   5428c:	10c7883a 	add	r3,r2,r3
   54290:	18d8a917 	ldw	r3,25252(r3)
   54294:	e0bffe17 	ldw	r2,-8(fp)
   54298:	10c00115 	stw	r3,4(r2)
    fd->fd_flags = alt_fd_list[old].fd_flags;
   5429c:	e0ffff17 	ldw	r3,-4(fp)
   542a0:	1805883a 	mov	r2,r3
   542a4:	1085883a 	add	r2,r2,r2
   542a8:	10c5883a 	add	r2,r2,r3
   542ac:	100490ba 	slli	r2,r2,2
   542b0:	00c00174 	movhi	r3,5
   542b4:	10c7883a 	add	r3,r2,r3
   542b8:	18d8aa17 	ldw	r3,25256(r3)
   542bc:	e0bffe17 	ldw	r2,-8(fp)
   542c0:	10c00215 	stw	r3,8(r2)

    alt_release_fd (old);
   542c4:	e13fff17 	ldw	r4,-4(fp)
   542c8:	0052ba80 	call	52ba8 <alt_release_fd>
  }
} 
   542cc:	0001883a 	nop
   542d0:	e037883a 	mov	sp,fp
   542d4:	dfc00117 	ldw	ra,4(sp)
   542d8:	df000017 	ldw	fp,0(sp)
   542dc:	dec00204 	addi	sp,sp,8
   542e0:	f800283a 	ret

000542e4 <alt_io_redirect>:
 */
 
void alt_io_redirect(const char* stdout_dev, 
                     const char* stdin_dev, 
                     const char* stderr_dev)
{
   542e4:	defffb04 	addi	sp,sp,-20
   542e8:	dfc00415 	stw	ra,16(sp)
   542ec:	df000315 	stw	fp,12(sp)
   542f0:	df000304 	addi	fp,sp,12
   542f4:	e13fff15 	stw	r4,-4(fp)
   542f8:	e17ffe15 	stw	r5,-8(fp)
   542fc:	e1bffd15 	stw	r6,-12(fp)
  /* Redirect the channels */

  alt_open_fd (&alt_fd_list[STDOUT_FILENO], stdout_dev, O_WRONLY, 0777);
   54300:	01c07fc4 	movi	r7,511
   54304:	01800044 	movi	r6,1
   54308:	e17fff17 	ldw	r5,-4(fp)
   5430c:	01000174 	movhi	r4,5
   54310:	2118ab04 	addi	r4,r4,25260
   54314:	00542100 	call	54210 <alt_open_fd>
  alt_open_fd (&alt_fd_list[STDIN_FILENO], stdin_dev, O_RDONLY, 0777);
   54318:	01c07fc4 	movi	r7,511
   5431c:	000d883a 	mov	r6,zero
   54320:	e17ffe17 	ldw	r5,-8(fp)
   54324:	01000174 	movhi	r4,5
   54328:	2118a804 	addi	r4,r4,25248
   5432c:	00542100 	call	54210 <alt_open_fd>
  alt_open_fd (&alt_fd_list[STDERR_FILENO], stderr_dev, O_WRONLY, 0777);
   54330:	01c07fc4 	movi	r7,511
   54334:	01800044 	movi	r6,1
   54338:	e17ffd17 	ldw	r5,-12(fp)
   5433c:	01000174 	movhi	r4,5
   54340:	2118ae04 	addi	r4,r4,25272
   54344:	00542100 	call	54210 <alt_open_fd>
}  
   54348:	0001883a 	nop
   5434c:	e037883a 	mov	sp,fp
   54350:	dfc00117 	ldw	ra,4(sp)
   54354:	df000017 	ldw	fp,0(sp)
   54358:	dec00204 	addi	sp,sp,8
   5435c:	f800283a 	ret

00054360 <alt_get_errno>:
{
   54360:	defffe04 	addi	sp,sp,-8
   54364:	dfc00115 	stw	ra,4(sp)
   54368:	df000015 	stw	fp,0(sp)
   5436c:	d839883a 	mov	fp,sp
  return ((alt_errno) ? alt_errno() : &errno);
   54370:	d0a00917 	ldw	r2,-32732(gp)
   54374:	10000326 	beq	r2,zero,54384 <alt_get_errno+0x24>
   54378:	d0a00917 	ldw	r2,-32732(gp)
   5437c:	103ee83a 	callr	r2
   54380:	00000106 	br	54388 <alt_get_errno+0x28>
   54384:	d0a71404 	addi	r2,gp,-25520
}
   54388:	e037883a 	mov	sp,fp
   5438c:	dfc00117 	ldw	ra,4(sp)
   54390:	df000017 	ldw	fp,0(sp)
   54394:	dec00204 	addi	sp,sp,8
   54398:	f800283a 	ret

0005439c <alt_file_locked>:
 * performed for devices. Filesystems are required to handle the ioctl() call
 * themselves, and report the error from the filesystems open() function. 
 */ 

static int alt_file_locked (alt_fd* fd)
{
   5439c:	defffd04 	addi	sp,sp,-12
   543a0:	df000215 	stw	fp,8(sp)
   543a4:	df000204 	addi	fp,sp,8
   543a8:	e13ffe15 	stw	r4,-8(fp)

  /*
   * Mark the file descriptor as belonging to a device.
   */

  fd->fd_flags |= ALT_FD_DEV;
   543ac:	e0bffe17 	ldw	r2,-8(fp)
   543b0:	10800217 	ldw	r2,8(r2)
   543b4:	10d00034 	orhi	r3,r2,16384
   543b8:	e0bffe17 	ldw	r2,-8(fp)
   543bc:	10c00215 	stw	r3,8(r2)
  /*
   * Loop through all current file descriptors searching for one that's locked
   * for exclusive access. If a match is found, generate an error.
   */

  for (i = 0; i <= alt_max_fd; i++)
   543c0:	e03fff15 	stw	zero,-4(fp)
   543c4:	00002306 	br	54454 <alt_file_locked+0xb8>
  {
    if ((alt_fd_list[i].dev == fd->dev) &&
   543c8:	e0ffff17 	ldw	r3,-4(fp)
   543cc:	1805883a 	mov	r2,r3
   543d0:	1085883a 	add	r2,r2,r2
   543d4:	10c5883a 	add	r2,r2,r3
   543d8:	100490ba 	slli	r2,r2,2
   543dc:	00c00174 	movhi	r3,5
   543e0:	10c7883a 	add	r3,r2,r3
   543e4:	18d8a817 	ldw	r3,25248(r3)
   543e8:	e0bffe17 	ldw	r2,-8(fp)
   543ec:	10800017 	ldw	r2,0(r2)
   543f0:	1880151e 	bne	r3,r2,54448 <alt_file_locked+0xac>
        (alt_fd_list[i].fd_flags & ALT_FD_EXCL) &&
   543f4:	e0ffff17 	ldw	r3,-4(fp)
   543f8:	1805883a 	mov	r2,r3
   543fc:	1085883a 	add	r2,r2,r2
   54400:	10c5883a 	add	r2,r2,r3
   54404:	100490ba 	slli	r2,r2,2
   54408:	00c00174 	movhi	r3,5
   5440c:	10c7883a 	add	r3,r2,r3
   54410:	1898aa17 	ldw	r2,25256(r3)
    if ((alt_fd_list[i].dev == fd->dev) &&
   54414:	10000c0e 	bge	r2,zero,54448 <alt_file_locked+0xac>
        (&alt_fd_list[i] != fd))
   54418:	e0ffff17 	ldw	r3,-4(fp)
   5441c:	1805883a 	mov	r2,r3
   54420:	1085883a 	add	r2,r2,r2
   54424:	10c5883a 	add	r2,r2,r3
   54428:	100490ba 	slli	r2,r2,2
   5442c:	00c00174 	movhi	r3,5
   54430:	18d8a804 	addi	r3,r3,25248
   54434:	10c5883a 	add	r2,r2,r3
        (alt_fd_list[i].fd_flags & ALT_FD_EXCL) &&
   54438:	e0fffe17 	ldw	r3,-8(fp)
   5443c:	18800226 	beq	r3,r2,54448 <alt_file_locked+0xac>
    {
      return -EACCES;
   54440:	00bffcc4 	movi	r2,-13
   54444:	00000806 	br	54468 <alt_file_locked+0xcc>
  for (i = 0; i <= alt_max_fd; i++)
   54448:	e0bfff17 	ldw	r2,-4(fp)
   5444c:	10800044 	addi	r2,r2,1
   54450:	e0bfff15 	stw	r2,-4(fp)
   54454:	d0a00817 	ldw	r2,-32736(gp)
   54458:	1007883a 	mov	r3,r2
   5445c:	e0bfff17 	ldw	r2,-4(fp)
   54460:	18bfd92e 	bgeu	r3,r2,543c8 <alt_file_locked+0x2c>
    }
  }
  
  /* The device is not locked */
 
  return 0;
   54464:	0005883a 	mov	r2,zero
}
   54468:	e037883a 	mov	sp,fp
   5446c:	df000017 	ldw	fp,0(sp)
   54470:	dec00104 	addi	sp,sp,4
   54474:	f800283a 	ret

00054478 <open>:
 *
 * ALT_OPEN is mapped onto the open() system call in alt_syscall.h
 */
 
int ALT_OPEN (const char* file, int flags, int mode)
{ 
   54478:	defff604 	addi	sp,sp,-40
   5447c:	dfc00915 	stw	ra,36(sp)
   54480:	df000815 	stw	fp,32(sp)
   54484:	df000804 	addi	fp,sp,32
   54488:	e13ffa15 	stw	r4,-24(fp)
   5448c:	e17ff915 	stw	r5,-28(fp)
   54490:	e1bff815 	stw	r6,-32(fp)
  alt_dev* dev;
  alt_fd*  fd;
  int index  = -1;
   54494:	00bfffc4 	movi	r2,-1
   54498:	e0bffe15 	stw	r2,-8(fp)
  int status = -ENODEV;
   5449c:	00bffb44 	movi	r2,-19
   544a0:	e0bffd15 	stw	r2,-12(fp)
  int isafs = 0;
   544a4:	e03ffc15 	stw	zero,-16(fp)
  /* 
   * Check the device list, to see if a device with a matching name is 
   * registered.
   */
  
  if (!(dev = alt_find_dev (file, &alt_dev_list)))
   544a8:	d1600604 	addi	r5,gp,-32744
   544ac:	e13ffa17 	ldw	r4,-24(fp)
   544b0:	00541600 	call	54160 <alt_find_dev>
   544b4:	e0bfff15 	stw	r2,-4(fp)
   544b8:	e0bfff17 	ldw	r2,-4(fp)
   544bc:	1000051e 	bne	r2,zero,544d4 <open+0x5c>
  {
    /* No matching device, so try the filesystem list */

    dev   = alt_find_file (file);
   544c0:	e13ffa17 	ldw	r4,-24(fp)
   544c4:	00547cc0 	call	547cc <alt_find_file>
   544c8:	e0bfff15 	stw	r2,-4(fp)
    isafs = 1;
   544cc:	00800044 	movi	r2,1
   544d0:	e0bffc15 	stw	r2,-16(fp)

  /* 
   * If a matching device or filesystem is found, allocate a file descriptor. 
   */

  if (dev)
   544d4:	e0bfff17 	ldw	r2,-4(fp)
   544d8:	10002c26 	beq	r2,zero,5458c <open+0x114>
  {
    if ((index = alt_get_fd (dev)) < 0)
   544dc:	e13fff17 	ldw	r4,-4(fp)
   544e0:	00548d40 	call	548d4 <alt_get_fd>
   544e4:	e0bffe15 	stw	r2,-8(fp)
   544e8:	e0bffe17 	ldw	r2,-8(fp)
   544ec:	1000030e 	bge	r2,zero,544fc <open+0x84>
    {
      status = index;
   544f0:	e0bffe17 	ldw	r2,-8(fp)
   544f4:	e0bffd15 	stw	r2,-12(fp)
   544f8:	00002606 	br	54594 <open+0x11c>
    }
    else
    {
      fd = &alt_fd_list[index];
   544fc:	e0fffe17 	ldw	r3,-8(fp)
   54500:	1805883a 	mov	r2,r3
   54504:	1085883a 	add	r2,r2,r2
   54508:	10c5883a 	add	r2,r2,r3
   5450c:	100490ba 	slli	r2,r2,2
   54510:	00c00174 	movhi	r3,5
   54514:	18d8a804 	addi	r3,r3,25248
   54518:	10c5883a 	add	r2,r2,r3
   5451c:	e0bffb15 	stw	r2,-20(fp)
      fd->fd_flags = (flags & ~ALT_FD_FLAGS_MASK);
   54520:	e0fff917 	ldw	r3,-28(fp)
   54524:	00900034 	movhi	r2,16384
   54528:	10bfffc4 	addi	r2,r2,-1
   5452c:	1886703a 	and	r3,r3,r2
   54530:	e0bffb17 	ldw	r2,-20(fp)
   54534:	10c00215 	stw	r3,8(r2)
      
      /* If this is a device, ensure it isn't already locked */

      if (isafs || ((status = alt_file_locked (fd)) >= 0))
   54538:	e0bffc17 	ldw	r2,-16(fp)
   5453c:	1000051e 	bne	r2,zero,54554 <open+0xdc>
   54540:	e13ffb17 	ldw	r4,-20(fp)
   54544:	005439c0 	call	5439c <alt_file_locked>
   54548:	e0bffd15 	stw	r2,-12(fp)
   5454c:	e0bffd17 	ldw	r2,-12(fp)
   54550:	10001016 	blt	r2,zero,54594 <open+0x11c>
        /* 
         * If the device or filesystem provides an open() callback function,
         * call it now to perform any device/filesystem specific operations.
         */
    
        status = (dev->open) ? dev->open(fd, file, flags, mode): 0;
   54554:	e0bfff17 	ldw	r2,-4(fp)
   54558:	10800317 	ldw	r2,12(r2)
   5455c:	10000826 	beq	r2,zero,54580 <open+0x108>
   54560:	e0bfff17 	ldw	r2,-4(fp)
   54564:	10800317 	ldw	r2,12(r2)
   54568:	e1fff817 	ldw	r7,-32(fp)
   5456c:	e1bff917 	ldw	r6,-28(fp)
   54570:	e17ffa17 	ldw	r5,-24(fp)
   54574:	e13ffb17 	ldw	r4,-20(fp)
   54578:	103ee83a 	callr	r2
   5457c:	00000106 	br	54584 <open+0x10c>
   54580:	0005883a 	mov	r2,zero
   54584:	e0bffd15 	stw	r2,-12(fp)
   54588:	00000206 	br	54594 <open+0x11c>
      }
    }
  }
  else
  {
    status = -ENODEV;
   5458c:	00bffb44 	movi	r2,-19
   54590:	e0bffd15 	stw	r2,-12(fp)
  }

  /* Allocation failed, so clean up and return an error */ 

  if (status < 0)
   54594:	e0bffd17 	ldw	r2,-12(fp)
   54598:	1000090e 	bge	r2,zero,545c0 <open+0x148>
  {
    alt_release_fd (index);  
   5459c:	e13ffe17 	ldw	r4,-8(fp)
   545a0:	0052ba80 	call	52ba8 <alt_release_fd>
    ALT_ERRNO = -status;
   545a4:	00543600 	call	54360 <alt_get_errno>
   545a8:	1007883a 	mov	r3,r2
   545ac:	e0bffd17 	ldw	r2,-12(fp)
   545b0:	0085c83a 	sub	r2,zero,r2
   545b4:	18800015 	stw	r2,0(r3)
    return -1;
   545b8:	00bfffc4 	movi	r2,-1
   545bc:	00000106 	br	545c4 <open+0x14c>
  }
  
  /* return the reference upon success */

  return index;
   545c0:	e0bffe17 	ldw	r2,-8(fp)
}
   545c4:	e037883a 	mov	sp,fp
   545c8:	dfc00117 	ldw	ra,4(sp)
   545cc:	df000017 	ldw	fp,0(sp)
   545d0:	dec00204 	addi	sp,sp,8
   545d4:	f800283a 	ret

000545d8 <alt_alarm_stop>:
 * alarms. Alternatively an alarm can unregister itself by returning zero when 
 * the alarm executes.
 */

void alt_alarm_stop (alt_alarm* alarm)
{
   545d8:	defffa04 	addi	sp,sp,-24
   545dc:	df000515 	stw	fp,20(sp)
   545e0:	df000504 	addi	fp,sp,20
   545e4:	e13ffb15 	stw	r4,-20(fp)
  NIOS2_READ_STATUS (context);
   545e8:	0005303a 	rdctl	r2,status
   545ec:	e0bffc15 	stw	r2,-16(fp)
  NIOS2_WRITE_STATUS (context & ~NIOS2_STATUS_PIE_MSK);
   545f0:	e0fffc17 	ldw	r3,-16(fp)
   545f4:	00bfff84 	movi	r2,-2
   545f8:	1884703a 	and	r2,r3,r2
   545fc:	1001703a 	wrctl	status,r2
  return context;
   54600:	e0bffc17 	ldw	r2,-16(fp)
  alt_irq_context irq_context;

  irq_context = alt_irq_disable_all();
   54604:	e0bfff15 	stw	r2,-4(fp)
  alt_llist_remove (&alarm->llist);
   54608:	e0bffb17 	ldw	r2,-20(fp)
   5460c:	e0bffd15 	stw	r2,-12(fp)
 * input argument is the element to remove.
 */
     
static ALT_INLINE void ALT_ALWAYS_INLINE alt_llist_remove(alt_llist* entry)
{
  entry->next->previous = entry->previous;
   54610:	e0bffd17 	ldw	r2,-12(fp)
   54614:	10800017 	ldw	r2,0(r2)
   54618:	e0fffd17 	ldw	r3,-12(fp)
   5461c:	18c00117 	ldw	r3,4(r3)
   54620:	10c00115 	stw	r3,4(r2)
  entry->previous->next = entry->next;
   54624:	e0bffd17 	ldw	r2,-12(fp)
   54628:	10800117 	ldw	r2,4(r2)
   5462c:	e0fffd17 	ldw	r3,-12(fp)
   54630:	18c00017 	ldw	r3,0(r3)
   54634:	10c00015 	stw	r3,0(r2)
  /* 
   * Set the entry to point to itself, so that any further calls to
   * alt_llist_remove() are harmless.
   */

  entry->previous = entry;
   54638:	e0bffd17 	ldw	r2,-12(fp)
   5463c:	e0fffd17 	ldw	r3,-12(fp)
   54640:	10c00115 	stw	r3,4(r2)
  entry->next     = entry;
   54644:	e0bffd17 	ldw	r2,-12(fp)
   54648:	e0fffd17 	ldw	r3,-12(fp)
   5464c:	10c00015 	stw	r3,0(r2)
} 
   54650:	0001883a 	nop
   54654:	e0bfff17 	ldw	r2,-4(fp)
   54658:	e0bffe15 	stw	r2,-8(fp)
  NIOS2_WRITE_STATUS (context);
   5465c:	e0bffe17 	ldw	r2,-8(fp)
   54660:	1001703a 	wrctl	status,r2
}
   54664:	0001883a 	nop
  alt_irq_enable_all (irq_context);
}
   54668:	0001883a 	nop
   5466c:	e037883a 	mov	sp,fp
   54670:	df000017 	ldw	fp,0(sp)
   54674:	dec00104 	addi	sp,sp,4
   54678:	f800283a 	ret

0005467c <alt_tick>:
 * 
 * alt_tick() is expected to run at interrupt level.
 */

void alt_tick (void)
{
   5467c:	defff904 	addi	sp,sp,-28
   54680:	dfc00615 	stw	ra,24(sp)
   54684:	df000515 	stw	fp,20(sp)
   54688:	dc400415 	stw	r17,16(sp)
   5468c:	dc000315 	stw	r16,12(sp)
   54690:	df000504 	addi	fp,sp,20
  alt_alarm* next;
  alt_alarm* alarm = (alt_alarm*) alt_alarm_list.next;
   54694:	d0a00c17 	ldw	r2,-32720(gp)
   54698:	e0bffd15 	stw	r2,-12(fp)

  alt_u32    next_callback;

  /* update the tick counter */

  _alt_nticks++;
   5469c:	d1271b17 	ldw	r4,-25492(gp)
   546a0:	d1671c17 	ldw	r5,-25488(gp)
   546a4:	01800044 	movi	r6,1
   546a8:	000f883a 	mov	r7,zero
   546ac:	2185883a 	add	r2,r4,r6
   546b0:	1111803a 	cmpltu	r8,r2,r4
   546b4:	29c7883a 	add	r3,r5,r7
   546b8:	40c9883a 	add	r4,r8,r3
   546bc:	2007883a 	mov	r3,r4
   546c0:	1009883a 	mov	r4,r2
   546c4:	180b883a 	mov	r5,r3
   546c8:	d1271b15 	stw	r4,-25492(gp)
   546cc:	d1671c15 	stw	r5,-25488(gp)
 
  /* process the registered callbacks */

  while (alarm != (alt_alarm*) &alt_alarm_list)
   546d0:	00002906 	br	54778 <alt_tick+0xfc>
  {
    next = (alt_alarm*) alarm->llist.next;
   546d4:	e0bffd17 	ldw	r2,-12(fp)
   546d8:	10800017 	ldw	r2,0(r2)
   546dc:	e0bffc15 	stw	r2,-16(fp)
    
    /* if the alarm period has expired, make the callback */    
    if (alarm->time <= _alt_nticks)
   546e0:	e13ffd17 	ldw	r4,-12(fp)
   546e4:	20800217 	ldw	r2,8(r4)
   546e8:	20c00317 	ldw	r3,12(r4)
   546ec:	d1271b17 	ldw	r4,-25492(gp)
   546f0:	d1671c17 	ldw	r5,-25488(gp)
   546f4:	28c01e36 	bltu	r5,r3,54770 <alt_tick+0xf4>
   546f8:	1940011e 	bne	r3,r5,54700 <alt_tick+0x84>
   546fc:	20801c36 	bltu	r4,r2,54770 <alt_tick+0xf4>
    {
      next_callback = alarm->callback (alarm->context);
   54700:	e0bffd17 	ldw	r2,-12(fp)
   54704:	10800417 	ldw	r2,16(r2)
   54708:	e0fffd17 	ldw	r3,-12(fp)
   5470c:	18c00517 	ldw	r3,20(r3)
   54710:	1809883a 	mov	r4,r3
   54714:	103ee83a 	callr	r2
   54718:	e0bffb15 	stw	r2,-20(fp)

      /* deactivate the alarm if the return value is zero */

      if (next_callback == 0)
   5471c:	e0bffb17 	ldw	r2,-20(fp)
   54720:	1000031e 	bne	r2,zero,54730 <alt_tick+0xb4>
      {
        alt_alarm_stop (alarm);
   54724:	e13ffd17 	ldw	r4,-12(fp)
   54728:	00545d80 	call	545d8 <alt_alarm_stop>
   5472c:	00001006 	br	54770 <alt_tick+0xf4>
      }
      else
      {
        alarm->time += next_callback;
   54730:	e0bffd17 	ldw	r2,-12(fp)
   54734:	11000217 	ldw	r4,8(r2)
   54738:	11400317 	ldw	r5,12(r2)
   5473c:	e0bffb17 	ldw	r2,-20(fp)
   54740:	1021883a 	mov	r16,r2
   54744:	0023883a 	mov	r17,zero
   54748:	2405883a 	add	r2,r4,r16
   5474c:	110d803a 	cmpltu	r6,r2,r4
   54750:	2c47883a 	add	r3,r5,r17
   54754:	30c9883a 	add	r4,r6,r3
   54758:	2007883a 	mov	r3,r4
   5475c:	1009883a 	mov	r4,r2
   54760:	180b883a 	mov	r5,r3
   54764:	e0bffd17 	ldw	r2,-12(fp)
   54768:	11000215 	stw	r4,8(r2)
   5476c:	11400315 	stw	r5,12(r2)
      }
    }
    alarm = next;
   54770:	e0bffc17 	ldw	r2,-16(fp)
   54774:	e0bffd15 	stw	r2,-12(fp)
  while (alarm != (alt_alarm*) &alt_alarm_list)
   54778:	e0fffd17 	ldw	r3,-12(fp)
   5477c:	d0a00c04 	addi	r2,gp,-32720
   54780:	18bfd41e 	bne	r3,r2,546d4 <alt_tick+0x58>

  /* 
   * Update the operating system specific timer facilities.
   */

  ALT_OS_TIME_TICK();
   54784:	0001883a 	nop
}
   54788:	0001883a 	nop
   5478c:	e6fffe04 	addi	sp,fp,-8
   54790:	dfc00317 	ldw	ra,12(sp)
   54794:	df000217 	ldw	fp,8(sp)
   54798:	dc400117 	ldw	r17,4(sp)
   5479c:	dc000017 	ldw	r16,0(sp)
   547a0:	dec00404 	addi	sp,sp,16
   547a4:	f800283a 	ret

000547a8 <altera_nios2_gen2_irq_init>:
/*
 * To initialize the internal interrupt controller, just clear the IENABLE
 * register so that all possible IRQs are disabled.
 */
void altera_nios2_gen2_irq_init(void) 
{
   547a8:	deffff04 	addi	sp,sp,-4
   547ac:	df000015 	stw	fp,0(sp)
   547b0:	d839883a 	mov	fp,sp
    NIOS2_WRITE_IENABLE(0);
   547b4:	000170fa 	wrctl	ienable,zero
}
   547b8:	0001883a 	nop
   547bc:	e037883a 	mov	sp,fp
   547c0:	df000017 	ldw	fp,0(sp)
   547c4:	dec00104 	addi	sp,sp,4
   547c8:	f800283a 	ret

000547cc <alt_find_file>:
 * either '/' or '\0' is the prefix of the filename. For example the filename:
 * "/myfilesystem/junk.txt" would match: "/myfilesystem", but not: "/myfile". 
 */
 
alt_dev* alt_find_file (const char* name)
{
   547cc:	defffb04 	addi	sp,sp,-20
   547d0:	dfc00415 	stw	ra,16(sp)
   547d4:	df000315 	stw	fp,12(sp)
   547d8:	df000304 	addi	fp,sp,12
   547dc:	e13ffd15 	stw	r4,-12(fp)
  alt_dev* next = (alt_dev*) alt_fs_list.next;   
   547e0:	d0a00417 	ldw	r2,-32752(gp)
   547e4:	e0bfff15 	stw	r2,-4(fp)
  /*
   * Check each list entry in turn, until a match is found, or we reach the
   * end of the list (i.e. next winds up pointing back to the list head).
   */ 
 
  while (next != (alt_dev*) &alt_fs_list)
   547e8:	00003106 	br	548b0 <alt_find_file+0xe4>
  {
    len = strlen(next->name);
   547ec:	e0bfff17 	ldw	r2,-4(fp)
   547f0:	10800217 	ldw	r2,8(r2)
   547f4:	1009883a 	mov	r4,r2
   547f8:	004b3340 	call	4b334 <strlen>
   547fc:	e0bffe15 	stw	r2,-8(fp)
    
    if (next->name[len-1] == '/')
   54800:	e0bfff17 	ldw	r2,-4(fp)
   54804:	10c00217 	ldw	r3,8(r2)
   54808:	e0bffe17 	ldw	r2,-8(fp)
   5480c:	10bfffc4 	addi	r2,r2,-1
   54810:	1885883a 	add	r2,r3,r2
   54814:	10800003 	ldbu	r2,0(r2)
   54818:	10803fcc 	andi	r2,r2,255
   5481c:	1080201c 	xori	r2,r2,128
   54820:	10bfe004 	addi	r2,r2,-128
   54824:	10800bd8 	cmpnei	r2,r2,47
   54828:	1000031e 	bne	r2,zero,54838 <alt_find_file+0x6c>
    {
      len -= 1;
   5482c:	e0bffe17 	ldw	r2,-8(fp)
   54830:	10bfffc4 	addi	r2,r2,-1
   54834:	e0bffe15 	stw	r2,-8(fp)
    }

    if (((name[len] == '/') || (name[len] == '\0')) && 
   54838:	e0bffe17 	ldw	r2,-8(fp)
   5483c:	e0fffd17 	ldw	r3,-12(fp)
   54840:	1885883a 	add	r2,r3,r2
   54844:	10800003 	ldbu	r2,0(r2)
   54848:	10803fcc 	andi	r2,r2,255
   5484c:	1080201c 	xori	r2,r2,128
   54850:	10bfe004 	addi	r2,r2,-128
   54854:	10800be0 	cmpeqi	r2,r2,47
   54858:	1000081e 	bne	r2,zero,5487c <alt_find_file+0xb0>
   5485c:	e0bffe17 	ldw	r2,-8(fp)
   54860:	e0fffd17 	ldw	r3,-12(fp)
   54864:	1885883a 	add	r2,r3,r2
   54868:	10800003 	ldbu	r2,0(r2)
   5486c:	10803fcc 	andi	r2,r2,255
   54870:	1080201c 	xori	r2,r2,128
   54874:	10bfe004 	addi	r2,r2,-128
   54878:	10000a1e 	bne	r2,zero,548a4 <alt_find_file+0xd8>
        !memcmp (next->name, name, len))
   5487c:	e0bfff17 	ldw	r2,-4(fp)
   54880:	10800217 	ldw	r2,8(r2)
   54884:	e0fffe17 	ldw	r3,-8(fp)
   54888:	180d883a 	mov	r6,r3
   5488c:	e17ffd17 	ldw	r5,-12(fp)
   54890:	1009883a 	mov	r4,r2
   54894:	0054b100 	call	54b10 <memcmp>
    if (((name[len] == '/') || (name[len] == '\0')) && 
   54898:	1000021e 	bne	r2,zero,548a4 <alt_find_file+0xd8>
    {
      /* match found */

      return next;
   5489c:	e0bfff17 	ldw	r2,-4(fp)
   548a0:	00000706 	br	548c0 <alt_find_file+0xf4>
    }
    next = (alt_dev*) next->llist.next;
   548a4:	e0bfff17 	ldw	r2,-4(fp)
   548a8:	10800017 	ldw	r2,0(r2)
   548ac:	e0bfff15 	stw	r2,-4(fp)
  while (next != (alt_dev*) &alt_fs_list)
   548b0:	e0ffff17 	ldw	r3,-4(fp)
   548b4:	d0a00404 	addi	r2,gp,-32752
   548b8:	18bfcc1e 	bne	r3,r2,547ec <alt_find_file+0x20>
  }
  
  /* No match found */
  
  return NULL;     
   548bc:	0005883a 	mov	r2,zero
}
   548c0:	e037883a 	mov	sp,fp
   548c4:	dfc00117 	ldw	ra,4(sp)
   548c8:	df000017 	ldw	fp,0(sp)
   548cc:	dec00204 	addi	sp,sp,8
   548d0:	f800283a 	ret

000548d4 <alt_get_fd>:
 * the offset of the file descriptor within the file descriptor array). A
 * negative value indicates failure.
 */

int alt_get_fd (alt_dev* dev)
{
   548d4:	defffc04 	addi	sp,sp,-16
   548d8:	df000315 	stw	fp,12(sp)
   548dc:	df000304 	addi	fp,sp,12
   548e0:	e13ffd15 	stw	r4,-12(fp)
  alt_32 i;
  int rc = -EMFILE;
   548e4:	00bffa04 	movi	r2,-24
   548e8:	e0bffe15 	stw	r2,-8(fp)
   * indicates the highest file descriptor ever allocated. This is used to
   * improve efficency when searching the file descriptor list, and 
   * therefore reduce contention on the alt_fd_list_lock semaphore. 
   */

  for (i = 0; i < ALT_MAX_FD; i++)
   548ec:	e03fff15 	stw	zero,-4(fp)
   548f0:	00001d06 	br	54968 <alt_get_fd+0x94>
  {
    if (!alt_fd_list[i].dev)
   548f4:	e0ffff17 	ldw	r3,-4(fp)
   548f8:	1805883a 	mov	r2,r3
   548fc:	1085883a 	add	r2,r2,r2
   54900:	10c5883a 	add	r2,r2,r3
   54904:	100490ba 	slli	r2,r2,2
   54908:	00c00174 	movhi	r3,5
   5490c:	10c7883a 	add	r3,r2,r3
   54910:	1898a817 	ldw	r2,25248(r3)
   54914:	1000111e 	bne	r2,zero,5495c <alt_get_fd+0x88>
    {
      alt_fd_list[i].dev = dev;
   54918:	e0ffff17 	ldw	r3,-4(fp)
   5491c:	1805883a 	mov	r2,r3
   54920:	1085883a 	add	r2,r2,r2
   54924:	10c5883a 	add	r2,r2,r3
   54928:	100490ba 	slli	r2,r2,2
   5492c:	e13ffd17 	ldw	r4,-12(fp)
   54930:	00c00174 	movhi	r3,5
   54934:	10c7883a 	add	r3,r2,r3
   54938:	1918a815 	stw	r4,25248(r3)
      if (i > alt_max_fd)
   5493c:	d0e00817 	ldw	r3,-32736(gp)
   54940:	e0bfff17 	ldw	r2,-4(fp)
   54944:	1880020e 	bge	r3,r2,54950 <alt_get_fd+0x7c>
      {
        alt_max_fd = i;
   54948:	e0bfff17 	ldw	r2,-4(fp)
   5494c:	d0a00815 	stw	r2,-32736(gp)
      }
      rc = i;
   54950:	e0bfff17 	ldw	r2,-4(fp)
   54954:	e0bffe15 	stw	r2,-8(fp)
      goto alt_get_fd_exit;
   54958:	00000706 	br	54978 <alt_get_fd+0xa4>
  for (i = 0; i < ALT_MAX_FD; i++)
   5495c:	e0bfff17 	ldw	r2,-4(fp)
   54960:	10800044 	addi	r2,r2,1
   54964:	e0bfff15 	stw	r2,-4(fp)
   54968:	e0bfff17 	ldw	r2,-4(fp)
   5496c:	10800810 	cmplti	r2,r2,32
   54970:	103fe01e 	bne	r2,zero,548f4 <alt_get_fd+0x20>
    }
  }

 alt_get_fd_exit:
   54974:	0001883a 	nop
   * file descriptor pool.
   */

  ALT_SEM_POST(alt_fd_list_lock);

  return rc;
   54978:	e0bffe17 	ldw	r2,-8(fp)
}
   5497c:	e037883a 	mov	sp,fp
   54980:	df000017 	ldw	fp,0(sp)
   54984:	dec00104 	addi	sp,sp,4
   54988:	f800283a 	ret

0005498c <alt_exception_cause_generated_bad_addr>:
 * Return: 1: BADADDR (bad_addr argument to handler) is valid
 *         0: BADADDR is not valid
 */
int 
alt_exception_cause_generated_bad_addr(alt_exception_cause cause)
{
   5498c:	defffe04 	addi	sp,sp,-8
   54990:	df000115 	stw	fp,4(sp)
   54994:	df000104 	addi	fp,sp,4
   54998:	e13fff15 	stw	r4,-4(fp)
  switch (cause) {
   5499c:	e0bfff17 	ldw	r2,-4(fp)
   549a0:	10bffe84 	addi	r2,r2,-6
   549a4:	10c00428 	cmpgeui	r3,r2,16
   549a8:	18c03fcc 	andi	r3,r3,255
   549ac:	18000f1e 	bne	r3,zero,549ec <alt_exception_cause_generated_bad_addr+0x60>
   549b0:	00c00044 	movi	r3,1
   549b4:	1884983a 	sll	r2,r3,r2
   549b8:	10e2c8cc 	andi	r3,r2,35619
   549bc:	1806c03a 	cmpne	r3,r3,zero
   549c0:	18c03fcc 	andi	r3,r3,255
   549c4:	1800051e 	bne	r3,zero,549dc <alt_exception_cause_generated_bad_addr+0x50>
   549c8:	1084100c 	andi	r2,r2,4160
   549cc:	1004c03a 	cmpne	r2,r2,zero
   549d0:	10803fcc 	andi	r2,r2,255
   549d4:	1000031e 	bne	r2,zero,549e4 <alt_exception_cause_generated_bad_addr+0x58>
   549d8:	00000406 	br	549ec <alt_exception_cause_generated_bad_addr+0x60>
  case NIOS2_EXCEPTION_MISALIGNED_TARGET_PC:
  case NIOS2_EXCEPTION_TLB_READ_PERM_VIOLATION:
  case NIOS2_EXCEPTION_TLB_WRITE_PERM_VIOLATION:
  case NIOS2_EXCEPTION_MPU_DATA_REGION_VIOLATION:
  case NIOS2_EXCEPTION_ECC_DATA_ERR:
    return 1;
   549dc:	00800044 	movi	r2,1
   549e0:	00000306 	br	549f0 <alt_exception_cause_generated_bad_addr+0x64>

  case NIOS2_EXCEPTION_TLB_MISS:
  case NIOS2_EXCEPTION_ECC_TLB_ERR:
    return 0;
   549e4:	0005883a 	mov	r2,zero
   549e8:	00000106 	br	549f0 <alt_exception_cause_generated_bad_addr+0x64>

  default:
    return 0;
   549ec:	0005883a 	mov	r2,zero
  }
}
   549f0:	e037883a 	mov	sp,fp
   549f4:	df000017 	ldw	fp,0(sp)
   549f8:	dec00104 	addi	sp,sp,4
   549fc:	f800283a 	ret

00054a00 <atexit>:
   54a00:	200b883a 	mov	r5,r4
   54a04:	000f883a 	mov	r7,zero
   54a08:	000d883a 	mov	r6,zero
   54a0c:	0009883a 	mov	r4,zero
   54a10:	0054b881 	jmpi	54b88 <__register_exitproc>

00054a14 <exit>:
   54a14:	defffe04 	addi	sp,sp,-8
   54a18:	000b883a 	mov	r5,zero
   54a1c:	dc000015 	stw	r16,0(sp)
   54a20:	dfc00115 	stw	ra,4(sp)
   54a24:	2021883a 	mov	r16,r4
   54a28:	0054c180 	call	54c18 <__call_exitprocs>
   54a2c:	00800174 	movhi	r2,5
   54a30:	111d2b17 	ldw	r4,29868(r2)
   54a34:	20800f17 	ldw	r2,60(r4)
   54a38:	10000126 	beq	r2,zero,54a40 <exit+0x2c>
   54a3c:	103ee83a 	callr	r2
   54a40:	8009883a 	mov	r4,r16
   54a44:	00522480 	call	52248 <_exit>

00054a48 <_fputs_r>:
   54a48:	defff804 	addi	sp,sp,-32
   54a4c:	dc400615 	stw	r17,24(sp)
   54a50:	2023883a 	mov	r17,r4
   54a54:	2809883a 	mov	r4,r5
   54a58:	dc000515 	stw	r16,20(sp)
   54a5c:	dfc00715 	stw	ra,28(sp)
   54a60:	3021883a 	mov	r16,r6
   54a64:	d9400015 	stw	r5,0(sp)
   54a68:	004b3340 	call	4b334 <strlen>
   54a6c:	d8800415 	stw	r2,16(sp)
   54a70:	d8800115 	stw	r2,4(sp)
   54a74:	00800044 	movi	r2,1
   54a78:	dec00215 	stw	sp,8(sp)
   54a7c:	d8800315 	stw	r2,12(sp)
   54a80:	88000226 	beq	r17,zero,54a8c <_fputs_r+0x44>
   54a84:	88800e17 	ldw	r2,56(r17)
   54a88:	10001226 	beq	r2,zero,54ad4 <_fputs_r+0x8c>
   54a8c:	8080030b 	ldhu	r2,12(r16)
   54a90:	10c8000c 	andi	r3,r2,8192
   54a94:	1800061e 	bne	r3,zero,54ab0 <_fputs_r+0x68>
   54a98:	80c01917 	ldw	r3,100(r16)
   54a9c:	0137ffc4 	movi	r4,-8193
   54aa0:	10880014 	ori	r2,r2,8192
   54aa4:	1906703a 	and	r3,r3,r4
   54aa8:	8080030d 	sth	r2,12(r16)
   54aac:	80c01915 	stw	r3,100(r16)
   54ab0:	d9800204 	addi	r6,sp,8
   54ab4:	800b883a 	mov	r5,r16
   54ab8:	8809883a 	mov	r4,r17
   54abc:	004e06c0 	call	4e06c <__sfvwrite_r>
   54ac0:	dfc00717 	ldw	ra,28(sp)
   54ac4:	dc400617 	ldw	r17,24(sp)
   54ac8:	dc000517 	ldw	r16,20(sp)
   54acc:	dec00804 	addi	sp,sp,32
   54ad0:	f800283a 	ret
   54ad4:	8809883a 	mov	r4,r17
   54ad8:	00497140 	call	49714 <__sinit>
   54adc:	003feb06 	br	54a8c <_fputs_r+0x44>

00054ae0 <fputs>:
   54ae0:	00c00174 	movhi	r3,5
   54ae4:	2005883a 	mov	r2,r4
   54ae8:	191d2c17 	ldw	r4,29872(r3)
   54aec:	280d883a 	mov	r6,r5
   54af0:	100b883a 	mov	r5,r2
   54af4:	0054a481 	jmpi	54a48 <_fputs_r>

00054af8 <_getchar_r>:
   54af8:	21400117 	ldw	r5,4(r4)
   54afc:	0054d381 	jmpi	54d38 <_getc_r>

00054b00 <getchar>:
   54b00:	00800174 	movhi	r2,5
   54b04:	111d2c17 	ldw	r4,29872(r2)
   54b08:	21400117 	ldw	r5,4(r4)
   54b0c:	0054d381 	jmpi	54d38 <_getc_r>

00054b10 <memcmp>:
   54b10:	30800128 	cmpgeui	r2,r6,4
   54b14:	10000d26 	beq	r2,zero,54b4c <memcmp+0x3c>
   54b18:	2144b03a 	or	r2,r4,r5
   54b1c:	108000cc 	andi	r2,r2,3
   54b20:	10000726 	beq	r2,zero,54b40 <memcmp+0x30>
   54b24:	30bfffc4 	addi	r2,r6,-1
   54b28:	00000a06 	br	54b54 <memcmp+0x44>
   54b2c:	31bfff04 	addi	r6,r6,-4
   54b30:	30800128 	cmpgeui	r2,r6,4
   54b34:	21000104 	addi	r4,r4,4
   54b38:	29400104 	addi	r5,r5,4
   54b3c:	10000326 	beq	r2,zero,54b4c <memcmp+0x3c>
   54b40:	20c00017 	ldw	r3,0(r4)
   54b44:	28800017 	ldw	r2,0(r5)
   54b48:	18bff826 	beq	r3,r2,54b2c <memcmp+0x1c>
   54b4c:	30bfffc4 	addi	r2,r6,-1
   54b50:	30000b26 	beq	r6,zero,54b80 <memcmp+0x70>
   54b54:	11800044 	addi	r6,r2,1
   54b58:	218d883a 	add	r6,r4,r6
   54b5c:	00000106 	br	54b64 <memcmp+0x54>
   54b60:	21800726 	beq	r4,r6,54b80 <memcmp+0x70>
   54b64:	20800003 	ldbu	r2,0(r4)
   54b68:	28c00003 	ldbu	r3,0(r5)
   54b6c:	21000044 	addi	r4,r4,1
   54b70:	29400044 	addi	r5,r5,1
   54b74:	10fffa26 	beq	r2,r3,54b60 <memcmp+0x50>
   54b78:	10c5c83a 	sub	r2,r2,r3
   54b7c:	f800283a 	ret
   54b80:	0005883a 	mov	r2,zero
   54b84:	f800283a 	ret

00054b88 <__register_exitproc>:
   54b88:	00800174 	movhi	r2,5
   54b8c:	10dd2b17 	ldw	r3,29868(r2)
   54b90:	18805217 	ldw	r2,328(r3)
   54b94:	10001726 	beq	r2,zero,54bf4 <__register_exitproc+0x6c>
   54b98:	10c00117 	ldw	r3,4(r2)
   54b9c:	1a000808 	cmpgei	r8,r3,32
   54ba0:	40001b1e 	bne	r8,zero,54c10 <__register_exitproc+0x88>
   54ba4:	20000b26 	beq	r4,zero,54bd4 <__register_exitproc+0x4c>
   54ba8:	181090ba 	slli	r8,r3,2
   54bac:	02400044 	movi	r9,1
   54bb0:	48d2983a 	sll	r9,r9,r3
   54bb4:	1211883a 	add	r8,r2,r8
   54bb8:	41802215 	stw	r6,136(r8)
   54bbc:	11806217 	ldw	r6,392(r2)
   54bc0:	21000098 	cmpnei	r4,r4,2
   54bc4:	324cb03a 	or	r6,r6,r9
   54bc8:	11806215 	stw	r6,392(r2)
   54bcc:	41c04215 	stw	r7,264(r8)
   54bd0:	20000b26 	beq	r4,zero,54c00 <__register_exitproc+0x78>
   54bd4:	19000084 	addi	r4,r3,2
   54bd8:	200890ba 	slli	r4,r4,2
   54bdc:	18c00044 	addi	r3,r3,1
   54be0:	10c00115 	stw	r3,4(r2)
   54be4:	1105883a 	add	r2,r2,r4
   54be8:	11400015 	stw	r5,0(r2)
   54bec:	0005883a 	mov	r2,zero
   54bf0:	f800283a 	ret
   54bf4:	18805304 	addi	r2,r3,332
   54bf8:	18805215 	stw	r2,328(r3)
   54bfc:	003fe606 	br	54b98 <__register_exitproc+0x10>
   54c00:	11006317 	ldw	r4,396(r2)
   54c04:	2248b03a 	or	r4,r4,r9
   54c08:	11006315 	stw	r4,396(r2)
   54c0c:	003ff106 	br	54bd4 <__register_exitproc+0x4c>
   54c10:	00bfffc4 	movi	r2,-1
   54c14:	f800283a 	ret

00054c18 <__call_exitprocs>:
   54c18:	defff704 	addi	sp,sp,-36
   54c1c:	00800174 	movhi	r2,5
   54c20:	dcc00315 	stw	r19,12(sp)
   54c24:	14dd2b17 	ldw	r19,29868(r2)
   54c28:	dc800215 	stw	r18,8(sp)
   54c2c:	dfc00815 	stw	ra,32(sp)
   54c30:	9c805217 	ldw	r18,328(r19)
   54c34:	ddc00715 	stw	r23,28(sp)
   54c38:	dd800615 	stw	r22,24(sp)
   54c3c:	dd400515 	stw	r21,20(sp)
   54c40:	dd000415 	stw	r20,16(sp)
   54c44:	dc400115 	stw	r17,4(sp)
   54c48:	dc000015 	stw	r16,0(sp)
   54c4c:	90001026 	beq	r18,zero,54c90 <__call_exitprocs+0x78>
   54c50:	202b883a 	mov	r21,r4
   54c54:	282d883a 	mov	r22,r5
   54c58:	05000044 	movi	r20,1
   54c5c:	94000117 	ldw	r16,4(r18)
   54c60:	847fffc4 	addi	r17,r16,-1
   54c64:	88000a16 	blt	r17,zero,54c90 <__call_exitprocs+0x78>
   54c68:	84000044 	addi	r16,r16,1
   54c6c:	802090ba 	slli	r16,r16,2
   54c70:	9421883a 	add	r16,r18,r16
   54c74:	b0001126 	beq	r22,zero,54cbc <__call_exitprocs+0xa4>
   54c78:	80804017 	ldw	r2,256(r16)
   54c7c:	15800f26 	beq	r2,r22,54cbc <__call_exitprocs+0xa4>
   54c80:	8c7fffc4 	addi	r17,r17,-1
   54c84:	88bfffd8 	cmpnei	r2,r17,-1
   54c88:	843fff04 	addi	r16,r16,-4
   54c8c:	103ff91e 	bne	r2,zero,54c74 <__call_exitprocs+0x5c>
   54c90:	dfc00817 	ldw	ra,32(sp)
   54c94:	ddc00717 	ldw	r23,28(sp)
   54c98:	dd800617 	ldw	r22,24(sp)
   54c9c:	dd400517 	ldw	r21,20(sp)
   54ca0:	dd000417 	ldw	r20,16(sp)
   54ca4:	dcc00317 	ldw	r19,12(sp)
   54ca8:	dc800217 	ldw	r18,8(sp)
   54cac:	dc400117 	ldw	r17,4(sp)
   54cb0:	dc000017 	ldw	r16,0(sp)
   54cb4:	dec00904 	addi	sp,sp,36
   54cb8:	f800283a 	ret
   54cbc:	90800117 	ldw	r2,4(r18)
   54cc0:	81800017 	ldw	r6,0(r16)
   54cc4:	10bfffc4 	addi	r2,r2,-1
   54cc8:	14401726 	beq	r2,r17,54d28 <__call_exitprocs+0x110>
   54ccc:	80000015 	stw	zero,0(r16)
   54cd0:	303feb26 	beq	r6,zero,54c80 <__call_exitprocs+0x68>
   54cd4:	a446983a 	sll	r3,r20,r17
   54cd8:	90806217 	ldw	r2,392(r18)
   54cdc:	95c00117 	ldw	r23,4(r18)
   54ce0:	1884703a 	and	r2,r3,r2
   54ce4:	1000081e 	bne	r2,zero,54d08 <__call_exitprocs+0xf0>
   54ce8:	303ee83a 	callr	r6
   54cec:	90c00117 	ldw	r3,4(r18)
   54cf0:	98805217 	ldw	r2,328(r19)
   54cf4:	1dc0011e 	bne	r3,r23,54cfc <__call_exitprocs+0xe4>
   54cf8:	14bfe126 	beq	r2,r18,54c80 <__call_exitprocs+0x68>
   54cfc:	103fe426 	beq	r2,zero,54c90 <__call_exitprocs+0x78>
   54d00:	1025883a 	mov	r18,r2
   54d04:	003fd506 	br	54c5c <__call_exitprocs+0x44>
   54d08:	90806317 	ldw	r2,396(r18)
   54d0c:	81002017 	ldw	r4,128(r16)
   54d10:	1886703a 	and	r3,r3,r2
   54d14:	1800061e 	bne	r3,zero,54d30 <__call_exitprocs+0x118>
   54d18:	200b883a 	mov	r5,r4
   54d1c:	a809883a 	mov	r4,r21
   54d20:	303ee83a 	callr	r6
   54d24:	003ff106 	br	54cec <__call_exitprocs+0xd4>
   54d28:	94400115 	stw	r17,4(r18)
   54d2c:	003fe806 	br	54cd0 <__call_exitprocs+0xb8>
   54d30:	303ee83a 	callr	r6
   54d34:	003fed06 	br	54cec <__call_exitprocs+0xd4>

00054d38 <_getc_r>:
   54d38:	defffd04 	addi	sp,sp,-12
   54d3c:	dc000115 	stw	r16,4(sp)
   54d40:	dfc00215 	stw	ra,8(sp)
   54d44:	2021883a 	mov	r16,r4
   54d48:	20000226 	beq	r4,zero,54d54 <_getc_r+0x1c>
   54d4c:	20800e17 	ldw	r2,56(r4)
   54d50:	10000c26 	beq	r2,zero,54d84 <_getc_r+0x4c>
   54d54:	28800117 	ldw	r2,4(r5)
   54d58:	10bfffc4 	addi	r2,r2,-1
   54d5c:	28800115 	stw	r2,4(r5)
   54d60:	10000f16 	blt	r2,zero,54da0 <_getc_r+0x68>
   54d64:	28800017 	ldw	r2,0(r5)
   54d68:	10c00044 	addi	r3,r2,1
   54d6c:	28c00015 	stw	r3,0(r5)
   54d70:	10800003 	ldbu	r2,0(r2)
   54d74:	dfc00217 	ldw	ra,8(sp)
   54d78:	dc000117 	ldw	r16,4(sp)
   54d7c:	dec00304 	addi	sp,sp,12
   54d80:	f800283a 	ret
   54d84:	d9400015 	stw	r5,0(sp)
   54d88:	00497140 	call	49714 <__sinit>
   54d8c:	d9400017 	ldw	r5,0(sp)
   54d90:	28800117 	ldw	r2,4(r5)
   54d94:	10bfffc4 	addi	r2,r2,-1
   54d98:	28800115 	stw	r2,4(r5)
   54d9c:	103ff10e 	bge	r2,zero,54d64 <_getc_r+0x2c>
   54da0:	8009883a 	mov	r4,r16
   54da4:	dfc00217 	ldw	ra,8(sp)
   54da8:	dc000117 	ldw	r16,4(sp)
   54dac:	dec00304 	addi	sp,sp,12
   54db0:	0054e441 	jmpi	54e44 <__srget_r>

00054db4 <getc>:
   54db4:	defffd04 	addi	sp,sp,-12
   54db8:	00800174 	movhi	r2,5
   54dbc:	dc400115 	stw	r17,4(sp)
   54dc0:	145d2c17 	ldw	r17,29872(r2)
   54dc4:	dc000015 	stw	r16,0(sp)
   54dc8:	dfc00215 	stw	ra,8(sp)
   54dcc:	2021883a 	mov	r16,r4
   54dd0:	88000226 	beq	r17,zero,54ddc <getc+0x28>
   54dd4:	88800e17 	ldw	r2,56(r17)
   54dd8:	10000d26 	beq	r2,zero,54e10 <getc+0x5c>
   54ddc:	80800117 	ldw	r2,4(r16)
   54de0:	10bfffc4 	addi	r2,r2,-1
   54de4:	80800115 	stw	r2,4(r16)
   54de8:	10000f16 	blt	r2,zero,54e28 <getc+0x74>
   54dec:	80800017 	ldw	r2,0(r16)
   54df0:	10c00044 	addi	r3,r2,1
   54df4:	80c00015 	stw	r3,0(r16)
   54df8:	10800003 	ldbu	r2,0(r2)
   54dfc:	dfc00217 	ldw	ra,8(sp)
   54e00:	dc400117 	ldw	r17,4(sp)
   54e04:	dc000017 	ldw	r16,0(sp)
   54e08:	dec00304 	addi	sp,sp,12
   54e0c:	f800283a 	ret
   54e10:	8809883a 	mov	r4,r17
   54e14:	00497140 	call	49714 <__sinit>
   54e18:	80800117 	ldw	r2,4(r16)
   54e1c:	10bfffc4 	addi	r2,r2,-1
   54e20:	80800115 	stw	r2,4(r16)
   54e24:	103ff10e 	bge	r2,zero,54dec <getc+0x38>
   54e28:	800b883a 	mov	r5,r16
   54e2c:	8809883a 	mov	r4,r17
   54e30:	dfc00217 	ldw	ra,8(sp)
   54e34:	dc400117 	ldw	r17,4(sp)
   54e38:	dc000017 	ldw	r16,0(sp)
   54e3c:	dec00304 	addi	sp,sp,12
   54e40:	0054e441 	jmpi	54e44 <__srget_r>

00054e44 <__srget_r>:
   54e44:	defffd04 	addi	sp,sp,-12
   54e48:	dc400115 	stw	r17,4(sp)
   54e4c:	dc000015 	stw	r16,0(sp)
   54e50:	dfc00215 	stw	ra,8(sp)
   54e54:	2023883a 	mov	r17,r4
   54e58:	2821883a 	mov	r16,r5
   54e5c:	20000226 	beq	r4,zero,54e68 <__srget_r+0x24>
   54e60:	20800e17 	ldw	r2,56(r4)
   54e64:	10001026 	beq	r2,zero,54ea8 <__srget_r+0x64>
   54e68:	800b883a 	mov	r5,r16
   54e6c:	8809883a 	mov	r4,r17
   54e70:	0054f500 	call	54f50 <__srefill_r>
   54e74:	10000e1e 	bne	r2,zero,54eb0 <__srget_r+0x6c>
   54e78:	80c00017 	ldw	r3,0(r16)
   54e7c:	80800117 	ldw	r2,4(r16)
   54e80:	19000044 	addi	r4,r3,1
   54e84:	10bfffc4 	addi	r2,r2,-1
   54e88:	80800115 	stw	r2,4(r16)
   54e8c:	81000015 	stw	r4,0(r16)
   54e90:	18800003 	ldbu	r2,0(r3)
   54e94:	dfc00217 	ldw	ra,8(sp)
   54e98:	dc400117 	ldw	r17,4(sp)
   54e9c:	dc000017 	ldw	r16,0(sp)
   54ea0:	dec00304 	addi	sp,sp,12
   54ea4:	f800283a 	ret
   54ea8:	00497140 	call	49714 <__sinit>
   54eac:	003fee06 	br	54e68 <__srget_r+0x24>
   54eb0:	00bfffc4 	movi	r2,-1
   54eb4:	003ff706 	br	54e94 <__srget_r+0x50>

00054eb8 <__srget>:
   54eb8:	defffd04 	addi	sp,sp,-12
   54ebc:	00800174 	movhi	r2,5
   54ec0:	dc400115 	stw	r17,4(sp)
   54ec4:	145d2c17 	ldw	r17,29872(r2)
   54ec8:	dc000015 	stw	r16,0(sp)
   54ecc:	dfc00215 	stw	ra,8(sp)
   54ed0:	2021883a 	mov	r16,r4
   54ed4:	88000226 	beq	r17,zero,54ee0 <__srget+0x28>
   54ed8:	88800e17 	ldw	r2,56(r17)
   54edc:	10001026 	beq	r2,zero,54f20 <__srget+0x68>
   54ee0:	800b883a 	mov	r5,r16
   54ee4:	8809883a 	mov	r4,r17
   54ee8:	0054f500 	call	54f50 <__srefill_r>
   54eec:	10000f1e 	bne	r2,zero,54f2c <__srget+0x74>
   54ef0:	80c00017 	ldw	r3,0(r16)
   54ef4:	80800117 	ldw	r2,4(r16)
   54ef8:	19000044 	addi	r4,r3,1
   54efc:	10bfffc4 	addi	r2,r2,-1
   54f00:	80800115 	stw	r2,4(r16)
   54f04:	81000015 	stw	r4,0(r16)
   54f08:	18800003 	ldbu	r2,0(r3)
   54f0c:	dfc00217 	ldw	ra,8(sp)
   54f10:	dc400117 	ldw	r17,4(sp)
   54f14:	dc000017 	ldw	r16,0(sp)
   54f18:	dec00304 	addi	sp,sp,12
   54f1c:	f800283a 	ret
   54f20:	8809883a 	mov	r4,r17
   54f24:	00497140 	call	49714 <__sinit>
   54f28:	003fed06 	br	54ee0 <__srget+0x28>
   54f2c:	00bfffc4 	movi	r2,-1
   54f30:	003ff606 	br	54f0c <__srget+0x54>

00054f34 <lflush>:
   54f34:	2080030b 	ldhu	r2,12(r4)
   54f38:	1080024c 	andi	r2,r2,9
   54f3c:	10800258 	cmpnei	r2,r2,9
   54f40:	10000226 	beq	r2,zero,54f4c <lflush+0x18>
   54f44:	0005883a 	mov	r2,zero
   54f48:	f800283a 	ret
   54f4c:	004934c1 	jmpi	4934c <fflush>

00054f50 <__srefill_r>:
   54f50:	defffc04 	addi	sp,sp,-16
   54f54:	dc400115 	stw	r17,4(sp)
   54f58:	dc000015 	stw	r16,0(sp)
   54f5c:	dfc00315 	stw	ra,12(sp)
   54f60:	dc800215 	stw	r18,8(sp)
   54f64:	2023883a 	mov	r17,r4
   54f68:	2821883a 	mov	r16,r5
   54f6c:	20000226 	beq	r4,zero,54f78 <__srefill_r+0x28>
   54f70:	20800e17 	ldw	r2,56(r4)
   54f74:	10003726 	beq	r2,zero,55054 <__srefill_r+0x104>
   54f78:	8080030b 	ldhu	r2,12(r16)
   54f7c:	10c8000c 	andi	r3,r2,8192
   54f80:	1800071e 	bne	r3,zero,54fa0 <__srefill_r+0x50>
   54f84:	80c01917 	ldw	r3,100(r16)
   54f88:	11080014 	ori	r4,r2,8192
   54f8c:	00b7ffc4 	movi	r2,-8193
   54f90:	1886703a 	and	r3,r3,r2
   54f94:	8100030d 	sth	r4,12(r16)
   54f98:	2005883a 	mov	r2,r4
   54f9c:	80c01915 	stw	r3,100(r16)
   54fa0:	80000115 	stw	zero,4(r16)
   54fa4:	10c0080c 	andi	r3,r2,32
   54fa8:	18004c1e 	bne	r3,zero,550dc <__srefill_r+0x18c>
   54fac:	10c0010c 	andi	r3,r2,4
   54fb0:	18001b1e 	bne	r3,zero,55020 <__srefill_r+0xd0>
   54fb4:	10c0040c 	andi	r3,r2,16
   54fb8:	18004a26 	beq	r3,zero,550e4 <__srefill_r+0x194>
   54fbc:	10c0020c 	andi	r3,r2,8
   54fc0:	1800351e 	bne	r3,zero,55098 <__srefill_r+0x148>
   54fc4:	10800114 	ori	r2,r2,4
   54fc8:	8080030d 	sth	r2,12(r16)
   54fcc:	80800417 	ldw	r2,16(r16)
   54fd0:	10003a26 	beq	r2,zero,550bc <__srefill_r+0x16c>
   54fd4:	8480030b 	ldhu	r18,12(r16)
   54fd8:	908000cc 	andi	r2,r18,3
   54fdc:	10001f1e 	bne	r2,zero,5505c <__srefill_r+0x10c>
   54fe0:	81800417 	ldw	r6,16(r16)
   54fe4:	80800817 	ldw	r2,32(r16)
   54fe8:	81c00517 	ldw	r7,20(r16)
   54fec:	81400717 	ldw	r5,28(r16)
   54ff0:	81800015 	stw	r6,0(r16)
   54ff4:	8809883a 	mov	r4,r17
   54ff8:	103ee83a 	callr	r2
   54ffc:	80800115 	stw	r2,4(r16)
   55000:	0080320e 	bge	zero,r2,550cc <__srefill_r+0x17c>
   55004:	0005883a 	mov	r2,zero
   55008:	dfc00317 	ldw	ra,12(sp)
   5500c:	dc800217 	ldw	r18,8(sp)
   55010:	dc400117 	ldw	r17,4(sp)
   55014:	dc000017 	ldw	r16,0(sp)
   55018:	dec00404 	addi	sp,sp,16
   5501c:	f800283a 	ret
   55020:	81400c17 	ldw	r5,48(r16)
   55024:	283fe926 	beq	r5,zero,54fcc <__srefill_r+0x7c>
   55028:	80801004 	addi	r2,r16,64
   5502c:	28800226 	beq	r5,r2,55038 <__srefill_r+0xe8>
   55030:	8809883a 	mov	r4,r17
   55034:	00498800 	call	49880 <_free_r>
   55038:	80800f17 	ldw	r2,60(r16)
   5503c:	80000c15 	stw	zero,48(r16)
   55040:	80800115 	stw	r2,4(r16)
   55044:	103fe126 	beq	r2,zero,54fcc <__srefill_r+0x7c>
   55048:	80800e17 	ldw	r2,56(r16)
   5504c:	80800015 	stw	r2,0(r16)
   55050:	003fec06 	br	55004 <__srefill_r+0xb4>
   55054:	00497140 	call	49714 <__sinit>
   55058:	003fc706 	br	54f78 <__srefill_r+0x28>
   5505c:	00800174 	movhi	r2,5
   55060:	111d2b17 	ldw	r4,29868(r2)
   55064:	01400174 	movhi	r5,5
   55068:	00800044 	movi	r2,1
   5506c:	8080030d 	sth	r2,12(r16)
   55070:	2953cd04 	addi	r5,r5,20276
   55074:	0049b880 	call	49b88 <_fwalk>
   55078:	9080024c 	andi	r2,r18,9
   5507c:	8480030d 	sth	r18,12(r16)
   55080:	10800258 	cmpnei	r2,r2,9
   55084:	103fd61e 	bne	r2,zero,54fe0 <__srefill_r+0x90>
   55088:	800b883a 	mov	r5,r16
   5508c:	8809883a 	mov	r4,r17
   55090:	00490e40 	call	490e4 <__sflush_r>
   55094:	003fd206 	br	54fe0 <__srefill_r+0x90>
   55098:	800b883a 	mov	r5,r16
   5509c:	8809883a 	mov	r4,r17
   550a0:	00492ec0 	call	492ec <_fflush_r>
   550a4:	10000d1e 	bne	r2,zero,550dc <__srefill_r+0x18c>
   550a8:	8080030b 	ldhu	r2,12(r16)
   550ac:	80000215 	stw	zero,8(r16)
   550b0:	80000615 	stw	zero,24(r16)
   550b4:	10bffdcc 	andi	r2,r2,65527
   550b8:	003fc206 	br	54fc4 <__srefill_r+0x74>
   550bc:	800b883a 	mov	r5,r16
   550c0:	8809883a 	mov	r4,r17
   550c4:	0049ce80 	call	49ce8 <__smakebuf_r>
   550c8:	003fc206 	br	54fd4 <__srefill_r+0x84>
   550cc:	80c0030b 	ldhu	r3,12(r16)
   550d0:	1000091e 	bne	r2,zero,550f8 <__srefill_r+0x1a8>
   550d4:	18c00814 	ori	r3,r3,32
   550d8:	80c0030d 	sth	r3,12(r16)
   550dc:	00bfffc4 	movi	r2,-1
   550e0:	003fc906 	br	55008 <__srefill_r+0xb8>
   550e4:	00c00244 	movi	r3,9
   550e8:	88c00015 	stw	r3,0(r17)
   550ec:	10801014 	ori	r2,r2,64
   550f0:	8080030d 	sth	r2,12(r16)
   550f4:	003ff906 	br	550dc <__srefill_r+0x18c>
   550f8:	18c01014 	ori	r3,r3,64
   550fc:	80000115 	stw	zero,4(r16)
   55100:	80c0030d 	sth	r3,12(r16)
   55104:	003ff506 	br	550dc <__srefill_r+0x18c>
